	.file	"PowerParser.cc"
                                        # Start of file scope inline assembly
	.globl	_ZSt21ios_base_library_initv

                                        # End of file scope inline assembly
	.section	.rodata.cst32,"aM",@progbits,32
	.p2align	5, 0x0                          # -- Begin function _ZN2PP11PowerParser7get_intIiEEvRNSt7__cxx1112basic_stringIcSt11char_traitsIcESaIcEEEPT_RKSt6vectorIiSaIiEEb
.LCPI0_0:
	.dword	0                               # 0x0
	.dword	1                               # 0x1
	.dword	0                               # 0x0
	.dword	0                               # 0x0
	.section	.rodata.cst16,"aM",@progbits,16
	.p2align	4, 0x0
.LCPI0_1:
	.word	0                               # 0x0
	.word	4                               # 0x4
	.word	4                               # 0x4
	.word	4                               # 0x4
	.section	.text._ZN2PP11PowerParser7get_intIiEEvRNSt7__cxx1112basic_stringIcSt11char_traitsIcESaIcEEEPT_RKSt6vectorIiSaIiEEb,"axG",@progbits,_ZN2PP11PowerParser7get_intIiEEvRNSt7__cxx1112basic_stringIcSt11char_traitsIcESaIcEEEPT_RKSt6vectorIiSaIiEEb,comdat
	.weak	_ZN2PP11PowerParser7get_intIiEEvRNSt7__cxx1112basic_stringIcSt11char_traitsIcESaIcEEEPT_RKSt6vectorIiSaIiEEb
	.p2align	5
	.type	_ZN2PP11PowerParser7get_intIiEEvRNSt7__cxx1112basic_stringIcSt11char_traitsIcESaIcEEEPT_RKSt6vectorIiSaIiEEb,@function
_ZN2PP11PowerParser7get_intIiEEvRNSt7__cxx1112basic_stringIcSt11char_traitsIcESaIcEEEPT_RKSt6vectorIiSaIiEEb: # @_ZN2PP11PowerParser7get_intIiEEvRNSt7__cxx1112basic_stringIcSt11char_traitsIcESaIcEEEPT_RKSt6vectorIiSaIiEEb
.Lfunc_begin0:
	.cfi_startproc
	.cfi_personality 155, DW.ref.__gxx_personality_v0
	.cfi_lsda 27, .Lexception0
# %bb.0:
	addi.d	$sp, $sp, -656
	.cfi_def_cfa_offset 656
	st.d	$ra, $sp, 648                   # 8-byte Folded Spill
	st.d	$fp, $sp, 640                   # 8-byte Folded Spill
	st.d	$s0, $sp, 632                   # 8-byte Folded Spill
	st.d	$s1, $sp, 624                   # 8-byte Folded Spill
	st.d	$s2, $sp, 616                   # 8-byte Folded Spill
	st.d	$s3, $sp, 608                   # 8-byte Folded Spill
	st.d	$s4, $sp, 600                   # 8-byte Folded Spill
	st.d	$s5, $sp, 592                   # 8-byte Folded Spill
	st.d	$s6, $sp, 584                   # 8-byte Folded Spill
	st.d	$s7, $sp, 576                   # 8-byte Folded Spill
	st.d	$s8, $sp, 568                   # 8-byte Folded Spill
	.cfi_offset 1, -8
	.cfi_offset 22, -16
	.cfi_offset 23, -24
	.cfi_offset 24, -32
	.cfi_offset 25, -40
	.cfi_offset 26, -48
	.cfi_offset 27, -56
	.cfi_offset 28, -64
	.cfi_offset 29, -72
	.cfi_offset 30, -80
	.cfi_offset 31, -88
	ld.d	$a5, $a3, 8
	st.d	$a3, $sp, 48                    # 8-byte Folded Spill
	ld.d	$a3, $a3, 0
	sub.d	$a6, $a5, $a3
	srli.d	$a5, $a6, 2
	addi.w	$a7, $a5, 0
	st.d	$a4, $sp, 40                    # 8-byte Folded Spill
	st.d	$a2, $sp, 32                    # 8-byte Folded Spill
	move	$s3, $a1
	move	$s0, $a0
	blez	$a7, .LBB0_3
# %bb.1:                                # %iter.check
	bstrpick.d	$a0, $a5, 30, 0
	ori	$a1, $zero, 3
	bltu	$a1, $a0, .LBB0_4
# %bb.2:
	move	$a1, $zero
	ori	$fp, $zero, 1
	b	.LBB0_13
.LBB0_3:                                # %_ZNSt6vectorIiSaIiEE17_S_check_init_lenEmRKS0_.exit.i.thread
	ori	$fp, $zero, 1
	b	.LBB0_17
.LBB0_4:                                # %vector.main.loop.iter.check
	ori	$a1, $zero, 16
	ori	$a2, $zero, 1
	bgeu	$a0, $a1, .LBB0_6
# %bb.5:
	move	$a1, $zero
	ori	$fp, $zero, 1
	b	.LBB0_10
.LBB0_6:                                # %vector.ph
	bstrpick.d	$a1, $a5, 30, 4
	slli.d	$a1, $a1, 4
	xvrepli.w	$xr0, 1
	addi.d	$a4, $a3, 32
	move	$a7, $a1
	xvori.b	$xr1, $xr0, 0
	.p2align	4, , 16
.LBB0_7:                                # %vector.body
                                        # =>This Inner Loop Header: Depth=1
	xvld	$xr2, $a4, -32
	xvld	$xr3, $a4, 0
	xvmul.w	$xr0, $xr2, $xr0
	xvmul.w	$xr1, $xr3, $xr1
	addi.d	$a7, $a7, -16
	addi.d	$a4, $a4, 64
	bnez	$a7, .LBB0_7
# %bb.8:                                # %middle.block
	pcalau12i	$a4, %pc_hi20(.LCPI0_0)
	xvld	$xr2, $a4, %pc_lo12(.LCPI0_0)
	xvmul.w	$xr0, $xr1, $xr0
	xvpermi.d	$xr1, $xr0, 78
	xvshuf.d	$xr2, $xr0, $xr1
	xvmul.w	$xr0, $xr0, $xr2
	xvpermi.d	$xr1, $xr0, 68
	xvrepl128vei.d	$xr1, $xr1, 1
	xvmul.w	$xr0, $xr0, $xr1
	xvpermi.d	$xr1, $xr0, 68
	xvrepl128vei.w	$xr1, $xr1, 1
	xvmul.w	$xr0, $xr0, $xr1
	xvpickve2gr.w	$fp, $xr0, 0
	beq	$a0, $a1, .LBB0_15
# %bb.9:                                # %vec.epilog.iter.check
	andi	$a4, $a6, 48
	beqz	$a4, .LBB0_13
.LBB0_10:                               # %vec.epilog.ph
	move	$a4, $a1
	bstrpick.d	$a1, $a5, 30, 2
	pcalau12i	$a5, %pc_hi20(.LCPI0_1)
	vld	$vr0, $a5, %pc_lo12(.LCPI0_1)
	slli.d	$a1, $a1, 2
	vinsgr2vr.w	$vr1, $fp, 0
	vinsgr2vr.w	$vr2, $a2, 0
	vshuf.w	$vr0, $vr2, $vr1
	sub.d	$a2, $a4, $a1
	alsl.d	$a4, $a4, $a3, 2
	.p2align	4, , 16
.LBB0_11:                               # %vec.epilog.vector.body
                                        # =>This Inner Loop Header: Depth=1
	vld	$vr1, $a4, 0
	vmul.w	$vr0, $vr1, $vr0
	addi.d	$a2, $a2, 4
	addi.d	$a4, $a4, 16
	bnez	$a2, .LBB0_11
# %bb.12:                               # %vec.epilog.middle.block
	vreplvei.d	$vr1, $vr0, 1
	vmul.w	$vr0, $vr0, $vr1
	vreplvei.w	$vr1, $vr0, 1
	vmul.w	$vr0, $vr0, $vr1
	vpickve2gr.w	$fp, $vr0, 0
	beq	$a0, $a1, .LBB0_15
.LBB0_13:                               # %.lr.ph.preheader
	alsl.d	$a2, $a1, $a3, 2
	sub.d	$a0, $a1, $a0
	.p2align	4, , 16
.LBB0_14:                               # %.lr.ph
                                        # =>This Inner Loop Header: Depth=1
	ld.w	$a1, $a2, 0
	mul.w	$fp, $a1, $fp
	addi.d	$a0, $a0, 1
	addi.d	$a2, $a2, 4
	bnez	$a0, .LBB0_14
.LBB0_15:                               # %._crit_edge
	addi.w	$a0, $zero, -1
	bge	$a0, $fp, .LBB0_73
# %bb.16:                               # %_ZNSt6vectorIiSaIiEE17_S_check_init_lenEmRKS0_.exit.i
	beqz	$fp, .LBB0_23
.LBB0_17:                               # %.noexc44
	slli.d	$s4, $fp, 2
	move	$a0, $s4
	pcaddu18i	$ra, %call36(_Znwm)
	jirl	$ra, $ra, 0
	st.d	$a0, $sp, 536
	alsl.d	$s1, $fp, $a0, 2
	st.d	$s1, $sp, 552
	move	$a1, $zero
	move	$a2, $s4
	pcaddu18i	$ra, %call36(memset)
	jirl	$ra, $ra, 0
	st.d	$s1, $sp, 544
	slli.d	$s5, $fp, 3
.Ltmp0:
	move	$a0, $s5
	pcaddu18i	$ra, %call36(_Znwm)
	jirl	$ra, $ra, 0
.Ltmp1:
# %bb.18:                               # %.noexc47
	st.d	$a0, $sp, 512
	alsl.d	$s1, $fp, $a0, 3
	st.d	$s1, $sp, 528
	st.d	$zero, $a0, 0
	ori	$a1, $zero, 1
	addi.d	$a0, $a0, 8
	bne	$fp, $a1, .LBB0_20
# %bb.19:
	move	$s1, $a0
	b	.LBB0_21
.LBB0_20:                               # %_ZSt6fill_nIPPN2PP3CmdEmS2_ET_S4_T0_RKT1_.exit.loopexit.i.i.i.i.i
	addi.d	$a2, $s5, -8
	move	$a1, $zero
	pcaddu18i	$ra, %call36(memset)
	jirl	$ra, $ra, 0
.LBB0_21:
	st.d	$s1, $sp, 520
.Ltmp3:
	move	$a0, $s4
	pcaddu18i	$ra, %call36(_Znwm)
	jirl	$ra, $ra, 0
.Ltmp4:
# %bb.22:                               # %.noexc56
	st.d	$a0, $sp, 488
	alsl.d	$fp, $fp, $a0, 2
	st.d	$fp, $sp, 504
	ori	$a1, $zero, 255
	move	$a2, $s4
	pcaddu18i	$ra, %call36(memset)
	jirl	$ra, $ra, 0
	b	.LBB0_24
.LBB0_23:                               # %_ZNSt12_Vector_baseIiSaIiEEC2EmRKS0_.exit.thread.i54
	move	$fp, $zero
	st.d	$zero, $sp, 552
	vrepli.b	$vr0, 0
	vst	$vr0, $sp, 536
	st.d	$zero, $sp, 528
	vst	$vr0, $sp, 512
	st.d	$zero, $sp, 504
	vst	$vr0, $sp, 488
.LBB0_24:                               # %.loopexit
	st.d	$fp, $sp, 496
	st.w	$zero, $sp, 484
.Ltmp6:
	addi.d	$a0, $sp, 88
	pcaddu18i	$ra, %call36(_ZNSt7__cxx1118basic_stringstreamIcSt11char_traitsIcESaIcEEC1Ev)
	jirl	$ra, $ra, 0
.Ltmp7:
# %bb.25:
	pcalau12i	$a0, %pc_hi20(_ZN2PPL14case_sensitiveE)
	ld.bu	$a0, $a0, %pc_lo12(_ZN2PPL14case_sensitiveE)
	bnez	$a0, .LBB0_29
# %bb.26:
	ld.d	$fp, $s3, 8
	beqz	$fp, .LBB0_29
# %bb.27:                               # %.lr.ph.i.preheader
	ld.d	$s1, $s3, 0
	.p2align	4, , 16
.LBB0_28:                               # %.lr.ph.i
                                        # =>This Inner Loop Header: Depth=1
	ld.b	$a0, $s1, 0
	pcaddu18i	$ra, %call36(tolower)
	jirl	$ra, $ra, 0
	st.b	$a0, $s1, 0
	addi.d	$fp, $fp, -1
	addi.d	$s1, $s1, 1
	bnez	$fp, .LBB0_28
.LBB0_29:                               # %_ZSt9transformIN9__gnu_cxx17__normal_iteratorIPcNSt7__cxx1112basic_stringIcSt11char_traitsIcESaIcEEEEES9_PDoFiiEET0_T_SD_SC_T1_.exit
	move	$s8, $zero
	move	$s4, $zero
	addi.d	$s1, $sp, 72
	addi.d	$a0, $s0, 992
	st.d	$a0, $sp, 24                    # 8-byte Folded Spill
	lu12i.w	$a0, 427197
	ori	$a0, $a0, 2579
	lu32i.d	$a0, -155345
	lu52i.d	$s2, $a0, -1973
	ori	$fp, $zero, 16
	b	.LBB0_33
.LBB0_30:                               #   in Loop: Header=BB0_33 Depth=1
	move	$a1, $s7
	move	$a2, $s6
	pcaddu18i	$ra, %call36(memcpy)
	jirl	$ra, $ra, 0
.LBB0_31:                               # %_ZNSt7__cxx1112basic_stringIcSt11char_traitsIcESaIcEEC2ERKS4_.exit.i
                                        #   in Loop: Header=BB0_33 Depth=1
	ld.d	$a0, $sp, 56
	ld.d	$a1, $s5, 0
	st.d	$a0, $s5, 8
	stx.b	$zero, $a1, $a0
	ld.d	$a0, $s0, 1040
	addi.d	$a0, $a0, 32
	st.d	$a0, $s0, 1040
.LBB0_32:                               # %_ZNSt5dequeINSt7__cxx1112basic_stringIcSt11char_traitsIcESaIcEEESaIS5_EE9push_backERKS5_.exit
                                        #   in Loop: Header=BB0_33 Depth=1
	addi.d	$s4, $s4, 1
	addi.d	$s8, $s8, 432
.LBB0_33:                               # =>This Inner Loop Header: Depth=1
	ld.d	$a1, $s0, 984
	ld.d	$a2, $a1, 72
	ld.d	$a0, $a1, 40
	sub.d	$a3, $a2, $a0
	ld.d	$a4, $a1, 48
	ld.d	$a5, $a1, 56
	srli.d	$a3, $a3, 3
	sltu	$a2, $zero, $a2
	sub.d	$a3, $a3, $a2
	sub.d	$a4, $a4, $a5
	ld.d	$a5, $a1, 32
	ld.d	$a2, $a1, 16
	srli.d	$a4, $a4, 4
	mul.d	$a4, $a4, $s2
	add.d	$a3, $a3, $a4
	sub.d	$a4, $a5, $a2
	srli.d	$a4, $a4, 4
	mul.d	$a4, $a4, $s2
	add.w	$a3, $a3, $a4
	bge	$s4, $a3, .LBB0_63
# %bb.34:                               #   in Loop: Header=BB0_33 Depth=1
	ld.d	$a1, $a1, 24
	sub.d	$a1, $a2, $a1
	srai.d	$a1, $a1, 4
	mul.d	$a1, $a1, $s2
	add.d	$a1, $s4, $a1
	beqz	$a1, .LBB0_36
# %bb.35:                               #   in Loop: Header=BB0_33 Depth=1
	slli.d	$a1, $a1, 3
	ldx.d	$a0, $a0, $a1
	b	.LBB0_37
	.p2align	4, , 16
.LBB0_36:                               #   in Loop: Header=BB0_33 Depth=1
	add.d	$a0, $a2, $s8
.LBB0_37:                               # %_ZNSt5dequeIN2PP3CmdESaIS1_EEixEm.exit
                                        #   in Loop: Header=BB0_33 Depth=1
	ld.d	$s5, $a0, 248
	ld.d	$s6, $a0, 240
	st.d	$s1, $sp, 56
	st.d	$s5, $sp, 560
	move	$a0, $s1
	bltu	$s5, $fp, .LBB0_40
# %bb.38:                               # %.noexc.i.i
                                        #   in Loop: Header=BB0_33 Depth=1
.Ltmp12:
	addi.d	$a0, $sp, 56
	addi.d	$a1, $sp, 560
	move	$a2, $zero
	pcaddu18i	$ra, %call36(_ZNSt7__cxx1112basic_stringIcSt11char_traitsIcESaIcEE9_M_createERmm)
	jirl	$ra, $ra, 0
.Ltmp13:
# %bb.39:                               # %.noexc58
                                        #   in Loop: Header=BB0_33 Depth=1
	ld.d	$a1, $sp, 560
	st.d	$a0, $sp, 56
	st.d	$a1, $sp, 72
.LBB0_40:                               # %._crit_edge.i.i.i
                                        #   in Loop: Header=BB0_33 Depth=1
	beqz	$s5, .LBB0_44
# %bb.41:                               # %._crit_edge.i.i.i
                                        #   in Loop: Header=BB0_33 Depth=1
	ori	$a1, $zero, 1
	bne	$s5, $a1, .LBB0_43
# %bb.42:                               #   in Loop: Header=BB0_33 Depth=1
	ld.b	$a1, $s6, 0
	st.b	$a1, $a0, 0
	b	.LBB0_44
	.p2align	4, , 16
.LBB0_43:                               #   in Loop: Header=BB0_33 Depth=1
	move	$a1, $s6
	move	$a2, $s5
	pcaddu18i	$ra, %call36(memcpy)
	jirl	$ra, $ra, 0
.LBB0_44:                               #   in Loop: Header=BB0_33 Depth=1
	ld.d	$a0, $sp, 560
	ld.d	$a1, $sp, 56
	st.d	$a0, $sp, 64
	stx.b	$zero, $a1, $a0
	ld.d	$a2, $sp, 64
	ld.d	$a0, $s3, 8
	bne	$a2, $a0, .LBB0_47
# %bb.45:                               #   in Loop: Header=BB0_33 Depth=1
	ld.d	$s5, $sp, 56
	beqz	$a2, .LBB0_52
# %bb.46:                               #   in Loop: Header=BB0_33 Depth=1
	ld.d	$a1, $s3, 0
	move	$a0, $s5
	pcaddu18i	$ra, %call36(bcmp)
	jirl	$ra, $ra, 0
	sltui	$s6, $a0, 1
	bne	$s5, $s1, .LBB0_48
	b	.LBB0_49
	.p2align	4, , 16
.LBB0_47:                               # %._ZSteqIcSt11char_traitsIcESaIcEEbRKNSt7__cxx1112basic_stringIT_T0_T1_EESA_.exit_crit_edge
                                        #   in Loop: Header=BB0_33 Depth=1
	ld.d	$s5, $sp, 56
	move	$s6, $zero
	beq	$s5, $s1, .LBB0_49
.LBB0_48:                               # %_ZNKSt7__cxx1112basic_stringIcSt11char_traitsIcESaIcEE11_M_is_localEv.exit.i.i
                                        #   in Loop: Header=BB0_33 Depth=1
	ld.d	$a0, $sp, 72
	addi.d	$a1, $a0, 1
	move	$a0, $s5
	pcaddu18i	$ra, %call36(_ZdlPvm)
	jirl	$ra, $ra, 0
.LBB0_49:                               # %_ZNSt7__cxx1112basic_stringIcSt11char_traitsIcESaIcEED2Ev.exit
                                        #   in Loop: Header=BB0_33 Depth=1
	beqz	$s6, .LBB0_32
# %bb.50:                               #   in Loop: Header=BB0_33 Depth=1
	ld.d	$a0, $s0, 984
	ld.d	$a1, $a0, 16
	ld.d	$a2, $a0, 24
	sub.d	$a2, $a1, $a2
	srai.d	$a2, $a2, 4
	mul.d	$a2, $a2, $s2
	add.d	$a2, $s4, $a2
	beqz	$a2, .LBB0_53
# %bb.51:                               #   in Loop: Header=BB0_33 Depth=1
	ld.d	$a0, $a0, 40
	slli.d	$a1, $a2, 3
	ldx.d	$a0, $a0, $a1
	b	.LBB0_54
.LBB0_52:                               #   in Loop: Header=BB0_33 Depth=1
	ori	$s6, $zero, 1
	bne	$s5, $s1, .LBB0_48
	b	.LBB0_49
.LBB0_53:                               #   in Loop: Header=BB0_33 Depth=1
	add.d	$a0, $a1, $s8
.LBB0_54:                               # %_ZNSt5dequeIN2PP3CmdESaIS1_EEixEm.exit60
                                        #   in Loop: Header=BB0_33 Depth=1
	ldptr.w	$a6, $s0, 2792
.Ltmp15:
	addi.d	$a1, $sp, 484
	st.d	$a1, $sp, 16
	addi.d	$a1, $sp, 88
	st.d	$a1, $sp, 8
	addi.d	$a4, $sp, 512
	addi.d	$a5, $sp, 488
	addi.d	$a7, $sp, 536
	ld.d	$a1, $sp, 40                    # 8-byte Folded Reload
	st.d	$a1, $sp, 0
	move	$a1, $s3
	ld.d	$a2, $sp, 32                    # 8-byte Folded Reload
	ld.d	$a3, $sp, 48                    # 8-byte Folded Reload
	pcaddu18i	$ra, %call36(_ZN2PP3Cmd7get_intERNSt7__cxx1112basic_stringIcSt11char_traitsIcESaIcEEEPiRKSt6vectorIiSaIiEERS9_IPS0_SaISE_EERSB_iSI_bRNS1_18basic_stringstreamIcS4_S5_EERi)
	jirl	$ra, $ra, 0
.Ltmp16:
# %bb.55:                               #   in Loop: Header=BB0_33 Depth=1
	ld.d	$a0, $s0, 1056
	ld.d	$s5, $s0, 1040
	addi.d	$a0, $a0, -32
	beq	$s5, $a0, .LBB0_62
# %bb.56:                               #   in Loop: Header=BB0_33 Depth=1
	addi.d	$a0, $s5, 16
	st.d	$a0, $s5, 0
	ld.d	$s6, $s3, 8
	ld.d	$s7, $s3, 0
	st.d	$s6, $sp, 56
	bltu	$s6, $fp, .LBB0_59
# %bb.57:                               # %.noexc.i.i63
                                        #   in Loop: Header=BB0_33 Depth=1
.Ltmp17:
	addi.d	$a1, $sp, 56
	move	$a0, $s5
	move	$a2, $zero
	pcaddu18i	$ra, %call36(_ZNSt7__cxx1112basic_stringIcSt11char_traitsIcESaIcEE9_M_createERmm)
	jirl	$ra, $ra, 0
.Ltmp18:
# %bb.58:                               # %.noexc64
                                        #   in Loop: Header=BB0_33 Depth=1
	st.d	$a0, $s5, 0
	ld.d	$a1, $sp, 56
	st.d	$a1, $s5, 16
.LBB0_59:                               # %._crit_edge.i.i.i62
                                        #   in Loop: Header=BB0_33 Depth=1
	beqz	$s6, .LBB0_31
# %bb.60:                               # %._crit_edge.i.i.i62
                                        #   in Loop: Header=BB0_33 Depth=1
	ori	$a1, $zero, 1
	bne	$s6, $a1, .LBB0_30
# %bb.61:                               #   in Loop: Header=BB0_33 Depth=1
	ld.b	$a1, $s7, 0
	st.b	$a1, $a0, 0
	b	.LBB0_31
.LBB0_62:                               #   in Loop: Header=BB0_33 Depth=1
.Ltmp19:
	ld.d	$a0, $sp, 24                    # 8-byte Folded Reload
	move	$a1, $s3
	pcaddu18i	$ra, %call36(_ZNSt5dequeINSt7__cxx1112basic_stringIcSt11char_traitsIcESaIcEEESaIS5_EE16_M_push_back_auxIJRKS5_EEEvDpOT_)
	jirl	$ra, $ra, 0
.Ltmp20:
	b	.LBB0_32
.LBB0_63:
.Ltmp9:
	addi.d	$a1, $sp, 88
	addi.d	$a2, $sp, 484
	addi.d	$s1, $sp, 88
	move	$a0, $s0
	pcaddu18i	$ra, %call36(_ZN2PP11PowerParser13process_errorERNSt7__cxx1118basic_stringstreamIcSt11char_traitsIcESaIcEEERi)
	jirl	$ra, $ra, 0
.Ltmp10:
# %bb.64:
	pcalau12i	$a0, %got_pc_hi20(_ZTTNSt7__cxx1118basic_stringstreamIcSt11char_traitsIcESaIcEEE)
	ld.d	$fp, $a0, %got_pc_lo12(_ZTTNSt7__cxx1118basic_stringstreamIcSt11char_traitsIcESaIcEEE)
	ld.d	$a0, $fp, 0
	st.d	$a0, $sp, 88
	ld.d	$a1, $fp, 64
	ld.d	$a0, $a0, -24
	ld.d	$a2, $fp, 72
	pcalau12i	$a3, %got_pc_hi20(_ZTVNSt7__cxx1115basic_stringbufIcSt11char_traitsIcESaIcEEE)
	ld.d	$a3, $a3, %got_pc_lo12(_ZTVNSt7__cxx1115basic_stringbufIcSt11char_traitsIcESaIcEEE)
	stx.d	$a1, $a0, $s1
	ld.d	$a0, $sp, 184
	st.d	$a2, $sp, 104
	addi.d	$a1, $a3, 16
	addi.d	$a2, $sp, 200
	st.d	$a1, $sp, 112
	beq	$a0, $a2, .LBB0_66
# %bb.65:                               # %_ZNKSt7__cxx1112basic_stringIcSt11char_traitsIcESaIcEE11_M_is_localEv.exit.i.i.i.i.i
	ld.d	$a1, $sp, 200
	addi.d	$a1, $a1, 1
	pcaddu18i	$ra, %call36(_ZdlPvm)
	jirl	$ra, $ra, 0
.LBB0_66:                               # %_ZNSt7__cxx1118basic_stringstreamIcSt11char_traitsIcESaIcEED1Ev.exit
	pcalau12i	$a0, %got_pc_hi20(_ZTVSt15basic_streambufIcSt11char_traitsIcEE)
	ld.d	$a0, $a0, %got_pc_lo12(_ZTVSt15basic_streambufIcSt11char_traitsIcEE)
	addi.d	$a0, $a0, 16
	st.d	$a0, $sp, 112
	addi.d	$a0, $sp, 168
	pcaddu18i	$ra, %call36(_ZNSt6localeD1Ev)
	jirl	$ra, $ra, 0
	ld.d	$a0, $fp, 16
	st.d	$a0, $sp, 88
	ld.d	$a1, $fp, 24
	ld.d	$a0, $a0, -24
	addi.d	$a2, $sp, 88
	stx.d	$a1, $a0, $a2
	st.d	$zero, $sp, 96
	addi.d	$a0, $sp, 216
	pcaddu18i	$ra, %call36(_ZNSt8ios_baseD2Ev)
	jirl	$ra, $ra, 0
	ld.d	$a0, $sp, 488
	beqz	$a0, .LBB0_68
# %bb.67:
	ld.d	$a1, $sp, 504
	sub.d	$a1, $a1, $a0
	pcaddu18i	$ra, %call36(_ZdlPvm)
	jirl	$ra, $ra, 0
.LBB0_68:                               # %_ZNSt6vectorIiSaIiEED2Ev.exit
	ld.d	$a0, $sp, 512
	beqz	$a0, .LBB0_70
# %bb.69:
	ld.d	$a1, $sp, 528
	sub.d	$a1, $a1, $a0
	pcaddu18i	$ra, %call36(_ZdlPvm)
	jirl	$ra, $ra, 0
.LBB0_70:                               # %_ZNSt6vectorIPN2PP3CmdESaIS2_EED2Ev.exit
	ld.d	$a0, $sp, 536
	beqz	$a0, .LBB0_72
# %bb.71:
	ld.d	$a1, $sp, 552
	sub.d	$a1, $a1, $a0
	pcaddu18i	$ra, %call36(_ZdlPvm)
	jirl	$ra, $ra, 0
.LBB0_72:                               # %_ZNSt6vectorIiSaIiEED2Ev.exit68
	ld.d	$s8, $sp, 568                   # 8-byte Folded Reload
	ld.d	$s7, $sp, 576                   # 8-byte Folded Reload
	ld.d	$s6, $sp, 584                   # 8-byte Folded Reload
	ld.d	$s5, $sp, 592                   # 8-byte Folded Reload
	ld.d	$s4, $sp, 600                   # 8-byte Folded Reload
	ld.d	$s3, $sp, 608                   # 8-byte Folded Reload
	ld.d	$s2, $sp, 616                   # 8-byte Folded Reload
	ld.d	$s1, $sp, 624                   # 8-byte Folded Reload
	ld.d	$s0, $sp, 632                   # 8-byte Folded Reload
	ld.d	$fp, $sp, 640                   # 8-byte Folded Reload
	ld.d	$ra, $sp, 648                   # 8-byte Folded Reload
	addi.d	$sp, $sp, 656
	ret
.LBB0_73:                               # %.noexc
	pcalau12i	$a0, %pc_hi20(.L.str.240)
	addi.d	$a0, $a0, %pc_lo12(.L.str.240)
	pcaddu18i	$ra, %call36(_ZSt20__throw_length_errorPKc)
	jirl	$ra, $ra, 0
.LBB0_74:
.Ltmp5:
	move	$fp, $a0
	ld.d	$a0, $sp, 512
	beqz	$a0, .LBB0_83
	b	.LBB0_86
.LBB0_75:
.Ltmp2:
	move	$fp, $a0
	ld.d	$a0, $sp, 536
	beqz	$a0, .LBB0_84
	b	.LBB0_87
.LBB0_76:
.Ltmp11:
	b	.LBB0_80
.LBB0_77:
.Ltmp8:
	move	$fp, $a0
	b	.LBB0_81
.LBB0_78:
.Ltmp14:
	b	.LBB0_80
.LBB0_79:
.Ltmp21:
.LBB0_80:
	move	$fp, $a0
	addi.d	$a0, $sp, 88
	pcaddu18i	$ra, %call36(_ZNSt7__cxx1118basic_stringstreamIcSt11char_traitsIcESaIcEED1Ev)
	jirl	$ra, $ra, 0
.LBB0_81:
	ld.d	$a0, $sp, 488
	bnez	$a0, .LBB0_85
# %bb.82:                               # %_ZNSt6vectorIiSaIiEED2Ev.exit70
	ld.d	$a0, $sp, 512
	bnez	$a0, .LBB0_86
.LBB0_83:                               # %_ZNSt6vectorIPN2PP3CmdESaIS2_EED2Ev.exit72
	ld.d	$a0, $sp, 536
	bnez	$a0, .LBB0_87
.LBB0_84:                               # %_ZNSt6vectorIiSaIiEED2Ev.exit74
	move	$a0, $fp
	pcaddu18i	$ra, %call36(_Unwind_Resume)
	jirl	$ra, $ra, 0
.LBB0_85:
	ld.d	$a1, $sp, 504
	sub.d	$a1, $a1, $a0
	pcaddu18i	$ra, %call36(_ZdlPvm)
	jirl	$ra, $ra, 0
	ld.d	$a0, $sp, 512
	beqz	$a0, .LBB0_83
.LBB0_86:
	ld.d	$a1, $sp, 528
	sub.d	$a1, $a1, $a0
	pcaddu18i	$ra, %call36(_ZdlPvm)
	jirl	$ra, $ra, 0
	ld.d	$a0, $sp, 536
	beqz	$a0, .LBB0_84
.LBB0_87:
	ld.d	$a1, $sp, 552
	sub.d	$a1, $a1, $a0
	pcaddu18i	$ra, %call36(_ZdlPvm)
	jirl	$ra, $ra, 0
	move	$a0, $fp
	pcaddu18i	$ra, %call36(_Unwind_Resume)
	jirl	$ra, $ra, 0
.Lfunc_end0:
	.size	_ZN2PP11PowerParser7get_intIiEEvRNSt7__cxx1112basic_stringIcSt11char_traitsIcESaIcEEEPT_RKSt6vectorIiSaIiEEb, .Lfunc_end0-_ZN2PP11PowerParser7get_intIiEEvRNSt7__cxx1112basic_stringIcSt11char_traitsIcESaIcEEEPT_RKSt6vectorIiSaIiEEb
	.cfi_endproc
	.section	.gcc_except_table._ZN2PP11PowerParser7get_intIiEEvRNSt7__cxx1112basic_stringIcSt11char_traitsIcESaIcEEEPT_RKSt6vectorIiSaIiEEb,"aG",@progbits,_ZN2PP11PowerParser7get_intIiEEvRNSt7__cxx1112basic_stringIcSt11char_traitsIcESaIcEEEPT_RKSt6vectorIiSaIiEEb,comdat
	.p2align	2, 0x0
GCC_except_table0:
.Lexception0:
	.byte	255                             # @LPStart Encoding = omit
	.byte	255                             # @TType Encoding = omit
	.byte	1                               # Call site Encoding = uleb128
	.uleb128 .Lcst_end0-.Lcst_begin0
.Lcst_begin0:
	.uleb128 .Lfunc_begin0-.Lfunc_begin0    # >> Call Site 1 <<
	.uleb128 .Ltmp0-.Lfunc_begin0           #   Call between .Lfunc_begin0 and .Ltmp0
	.byte	0                               #     has no landing pad
	.byte	0                               #   On action: cleanup
	.uleb128 .Ltmp0-.Lfunc_begin0           # >> Call Site 2 <<
	.uleb128 .Ltmp1-.Ltmp0                  #   Call between .Ltmp0 and .Ltmp1
	.uleb128 .Ltmp2-.Lfunc_begin0           #     jumps to .Ltmp2
	.byte	0                               #   On action: cleanup
	.uleb128 .Ltmp1-.Lfunc_begin0           # >> Call Site 3 <<
	.uleb128 .Ltmp3-.Ltmp1                  #   Call between .Ltmp1 and .Ltmp3
	.byte	0                               #     has no landing pad
	.byte	0                               #   On action: cleanup
	.uleb128 .Ltmp3-.Lfunc_begin0           # >> Call Site 4 <<
	.uleb128 .Ltmp4-.Ltmp3                  #   Call between .Ltmp3 and .Ltmp4
	.uleb128 .Ltmp5-.Lfunc_begin0           #     jumps to .Ltmp5
	.byte	0                               #   On action: cleanup
	.uleb128 .Ltmp4-.Lfunc_begin0           # >> Call Site 5 <<
	.uleb128 .Ltmp6-.Ltmp4                  #   Call between .Ltmp4 and .Ltmp6
	.byte	0                               #     has no landing pad
	.byte	0                               #   On action: cleanup
	.uleb128 .Ltmp6-.Lfunc_begin0           # >> Call Site 6 <<
	.uleb128 .Ltmp7-.Ltmp6                  #   Call between .Ltmp6 and .Ltmp7
	.uleb128 .Ltmp8-.Lfunc_begin0           #     jumps to .Ltmp8
	.byte	0                               #   On action: cleanup
	.uleb128 .Ltmp7-.Lfunc_begin0           # >> Call Site 7 <<
	.uleb128 .Ltmp12-.Ltmp7                 #   Call between .Ltmp7 and .Ltmp12
	.byte	0                               #     has no landing pad
	.byte	0                               #   On action: cleanup
	.uleb128 .Ltmp12-.Lfunc_begin0          # >> Call Site 8 <<
	.uleb128 .Ltmp13-.Ltmp12                #   Call between .Ltmp12 and .Ltmp13
	.uleb128 .Ltmp14-.Lfunc_begin0          #     jumps to .Ltmp14
	.byte	0                               #   On action: cleanup
	.uleb128 .Ltmp13-.Lfunc_begin0          # >> Call Site 9 <<
	.uleb128 .Ltmp15-.Ltmp13                #   Call between .Ltmp13 and .Ltmp15
	.byte	0                               #     has no landing pad
	.byte	0                               #   On action: cleanup
	.uleb128 .Ltmp15-.Lfunc_begin0          # >> Call Site 10 <<
	.uleb128 .Ltmp20-.Ltmp15                #   Call between .Ltmp15 and .Ltmp20
	.uleb128 .Ltmp21-.Lfunc_begin0          #     jumps to .Ltmp21
	.byte	0                               #   On action: cleanup
	.uleb128 .Ltmp9-.Lfunc_begin0           # >> Call Site 11 <<
	.uleb128 .Ltmp10-.Ltmp9                 #   Call between .Ltmp9 and .Ltmp10
	.uleb128 .Ltmp11-.Lfunc_begin0          #     jumps to .Ltmp11
	.byte	0                               #   On action: cleanup
	.uleb128 .Ltmp10-.Lfunc_begin0          # >> Call Site 12 <<
	.uleb128 .Lfunc_end0-.Ltmp10            #   Call between .Ltmp10 and .Lfunc_end0
	.byte	0                               #     has no landing pad
	.byte	0                               #   On action: cleanup
.Lcst_end0:
	.p2align	2, 0x0
                                        # -- End function
	.section	.rodata.cst16,"aM",@progbits,16
	.p2align	4, 0x0                          # -- Begin function _ZN2PP11PowerParser13process_errorERNSt7__cxx1118basic_stringstreamIcSt11char_traitsIcESaIcEEERi
.LCPI1_0:
	.dword	8                               # 0x8
	.dword	8315736636066521431             # 0x73676e696e726157
	.text
	.globl	_ZN2PP11PowerParser13process_errorERNSt7__cxx1118basic_stringstreamIcSt11char_traitsIcESaIcEEERi
	.p2align	5
	.type	_ZN2PP11PowerParser13process_errorERNSt7__cxx1118basic_stringstreamIcSt11char_traitsIcESaIcEEERi,@function
_ZN2PP11PowerParser13process_errorERNSt7__cxx1118basic_stringstreamIcSt11char_traitsIcESaIcEEERi: # @_ZN2PP11PowerParser13process_errorERNSt7__cxx1118basic_stringstreamIcSt11char_traitsIcESaIcEEERi
.Lfunc_begin1:
	.cfi_startproc
	.cfi_personality 155, DW.ref.__gxx_personality_v0
	.cfi_lsda 27, .Lexception1
# %bb.0:
	addi.d	$sp, $sp, -128
	.cfi_def_cfa_offset 128
	st.d	$ra, $sp, 120                   # 8-byte Folded Spill
	st.d	$fp, $sp, 112                   # 8-byte Folded Spill
	st.d	$s0, $sp, 104                   # 8-byte Folded Spill
	st.d	$s1, $sp, 96                    # 8-byte Folded Spill
	st.d	$s2, $sp, 88                    # 8-byte Folded Spill
	st.d	$s3, $sp, 80                    # 8-byte Folded Spill
	st.d	$s4, $sp, 72                    # 8-byte Folded Spill
	.cfi_offset 1, -8
	.cfi_offset 22, -16
	.cfi_offset 23, -24
	.cfi_offset 24, -32
	.cfi_offset 25, -40
	.cfi_offset 26, -48
	.cfi_offset 27, -56
	move	$s0, $a2
	ld.w	$a2, $a2, 0
	beqz	$a2, .LBB1_59
# %bb.1:
	move	$s1, $a1
	move	$fp, $a0
	ori	$a0, $zero, 3
	bne	$a2, $a0, .LBB1_5
# %bb.2:
	ld.d	$a0, $s1, 64
	addi.d	$s2, $sp, 56
	st.d	$s2, $sp, 40
	st.d	$zero, $sp, 48
	st.b	$zero, $sp, 56
	beqz	$a0, .LBB1_11
# %bb.3:
	ld.d	$a1, $s1, 48
	sltu	$a2, $a1, $a0
	masknez	$a1, $a1, $a2
	maskeqz	$a0, $a0, $a2
	or	$a0, $a0, $a1
	beqz	$a0, .LBB1_11
# %bb.4:
	ld.d	$a3, $s1, 56
	sub.d	$a4, $a0, $a3
.Ltmp22:
	addi.d	$a0, $sp, 40
	move	$a1, $zero
	move	$a2, $zero
	pcaddu18i	$ra, %call36(_ZNSt7__cxx1112basic_stringIcSt11char_traitsIcESaIcEE10_M_replaceEmmPKcm)
	jirl	$ra, $ra, 0
.Ltmp23:
	b	.LBB1_12
.LBB1_5:                                # %._crit_edge.i.i
	pcalau12i	$a0, %pc_hi20(.LCPI1_0)
	vld	$vr0, $a0, %pc_lo12(.LCPI1_0)
	addi.d	$s4, $sp, 56
	st.d	$s4, $sp, 40
	vst	$vr0, $sp, 48
	ori	$a0, $zero, 2
	st.b	$zero, $sp, 64
	bne	$a2, $a0, .LBB1_7
# %bb.6:
.Ltmp30:
	pcalau12i	$a0, %pc_hi20(.L.str.205)
	addi.d	$a3, $a0, %pc_lo12(.L.str.205)
	addi.d	$a0, $sp, 40
	ori	$a2, $zero, 8
	ori	$a4, $zero, 12
	move	$a1, $zero
	pcaddu18i	$ra, %call36(_ZNSt7__cxx1112basic_stringIcSt11char_traitsIcESaIcEE10_M_replaceEmmPKcm)
	jirl	$ra, $ra, 0
.Ltmp31:
.LBB1_7:                                # %_ZNSt7__cxx1112basic_stringIcSt11char_traitsIcESaIcEEaSEPKc.exit
	ld.d	$a0, $fp, 520
	ld.w	$a1, $a0, 8
	ld.w	$a0, $a0, 12
	bne	$a1, $a0, .LBB1_52
# %bb.8:
	pcalau12i	$a0, %got_pc_hi20(_ZSt4cout)
	ld.d	$a0, $a0, %got_pc_lo12(_ZSt4cout)
	ld.d	$a1, $a0, 0
	ld.d	$a1, $a1, -24
	add.d	$a0, $a0, $a1
	ld.d	$s2, $a0, 240
	beqz	$s2, .LBB1_60
# %bb.9:                                # %_ZSt13__check_facetISt5ctypeIcEERKT_PS3_.exit.i.i
	ld.bu	$a0, $s2, 56
	beqz	$a0, .LBB1_16
# %bb.10:
	ld.bu	$a0, $s2, 67
	b	.LBB1_18
.LBB1_11:
	addi.d	$a1, $s1, 96
.Ltmp24:
	addi.d	$a0, $sp, 40
	pcaddu18i	$ra, %call36(_ZNSt7__cxx1112basic_stringIcSt11char_traitsIcESaIcEE9_M_assignERKS4_)
	jirl	$ra, $ra, 0
.Ltmp25:
.LBB1_12:                               # %_ZNKSt7__cxx1118basic_stringstreamIcSt11char_traitsIcESaIcEE3strEv.exit
	ld.d	$a1, $sp, 40
	ld.d	$a2, $sp, 48
	addi.d	$a0, $fp, 1880
.Ltmp27:
	pcaddu18i	$ra, %call36(_ZSt16__ostream_insertIcSt11char_traitsIcEERSt13basic_ostreamIT_T0_ES6_PKS3_l)
	jirl	$ra, $ra, 0
.Ltmp28:
# %bb.13:                               # %_ZStlsIcSt11char_traitsIcESaIcEERSt13basic_ostreamIT_T0_ES7_RKNSt7__cxx1112basic_stringIS4_S5_T1_EE.exit
	ld.d	$a0, $sp, 40
	beq	$a0, $s2, .LBB1_15
# %bb.14:                               # %_ZNKSt7__cxx1112basic_stringIcSt11char_traitsIcESaIcEE11_M_is_localEv.exit.i.i
	ld.d	$a1, $sp, 56
	addi.d	$a1, $a1, 1
	pcaddu18i	$ra, %call36(_ZdlPvm)
	jirl	$ra, $ra, 0
.LBB1_15:                               # %_ZNSt7__cxx1112basic_stringIcSt11char_traitsIcESaIcEED2Ev.exit
	ld.w	$a0, $s0, 0
	stptr.w	$a0, $fp, 2256
	b	.LBB1_59
.LBB1_16:
.Ltmp32:
	move	$a0, $s2
	pcaddu18i	$ra, %call36(_ZNKSt5ctypeIcE13_M_widen_initEv)
	jirl	$ra, $ra, 0
.Ltmp33:
# %bb.17:                               # %.noexc59
	ld.d	$a0, $s2, 0
	ld.d	$a2, $a0, 48
.Ltmp34:
	ori	$a1, $zero, 10
	move	$a0, $s2
	jirl	$ra, $a2, 0
.Ltmp35:
.LBB1_18:                               # %_ZNKSt9basic_iosIcSt11char_traitsIcEE5widenEc.exit.i
.Ltmp36:
	pcalau12i	$a1, %got_pc_hi20(_ZSt4cout)
	ld.d	$a2, $a1, %got_pc_lo12(_ZSt4cout)
	ext.w.b	$a1, $a0
	move	$a0, $a2
	pcaddu18i	$ra, %call36(_ZNSo3putEc)
	jirl	$ra, $ra, 0
.Ltmp37:
# %bb.19:                               # %.noexc61
.Ltmp38:
	pcaddu18i	$ra, %call36(_ZNSo5flushEv)
	jirl	$ra, $ra, 0
.Ltmp39:
# %bb.20:                               # %_ZNSolsEPFRSoS_E.exit
	ld.d	$a1, $sp, 40
	ld.d	$a2, $sp, 48
.Ltmp40:
	pcalau12i	$a0, %got_pc_hi20(_ZSt4cout)
	ld.d	$a0, $a0, %got_pc_lo12(_ZSt4cout)
	pcaddu18i	$ra, %call36(_ZSt16__ostream_insertIcSt11char_traitsIcEERSt13basic_ostreamIT_T0_ES6_PKS3_l)
	jirl	$ra, $ra, 0
.Ltmp41:
# %bb.21:                               # %_ZStlsIcSt11char_traitsIcESaIcEERSt13basic_ostreamIT_T0_ES7_RKNSt7__cxx1112basic_stringIS4_S5_T1_EE.exit26
.Ltmp42:
	move	$s2, $a0
	pcalau12i	$a0, %pc_hi20(.L.str.206)
	addi.d	$a1, $a0, %pc_lo12(.L.str.206)
	ori	$a2, $zero, 57
	move	$a0, $s2
	pcaddu18i	$ra, %call36(_ZSt16__ostream_insertIcSt11char_traitsIcEERSt13basic_ostreamIT_T0_ES6_PKS3_l)
	jirl	$ra, $ra, 0
.Ltmp43:
# %bb.22:                               # %_ZStlsISt11char_traitsIcEERSt13basic_ostreamIcT_ES5_PKc.exit
	ld.d	$a0, $s2, 0
	ld.d	$a0, $a0, -24
	add.d	$a0, $s2, $a0
	ld.d	$s3, $a0, 240
	beqz	$s3, .LBB1_60
# %bb.23:                               # %_ZSt13__check_facetISt5ctypeIcEERKT_PS3_.exit.i.i64
	ld.bu	$a0, $s3, 56
	beqz	$a0, .LBB1_25
# %bb.24:
	ld.bu	$a0, $s3, 67
	b	.LBB1_27
.LBB1_25:
.Ltmp44:
	move	$a0, $s3
	pcaddu18i	$ra, %call36(_ZNKSt5ctypeIcE13_M_widen_initEv)
	jirl	$ra, $ra, 0
.Ltmp45:
# %bb.26:                               # %.noexc69
	ld.d	$a0, $s3, 0
	ld.d	$a2, $a0, 48
.Ltmp46:
	ori	$a1, $zero, 10
	move	$a0, $s3
	jirl	$ra, $a2, 0
.Ltmp47:
.LBB1_27:                               # %_ZNKSt9basic_iosIcSt11char_traitsIcEE5widenEc.exit.i66
.Ltmp48:
	ext.w.b	$a1, $a0
	move	$a0, $s2
	pcaddu18i	$ra, %call36(_ZNSo3putEc)
	jirl	$ra, $ra, 0
.Ltmp49:
# %bb.28:                               # %.noexc71
.Ltmp50:
	pcaddu18i	$ra, %call36(_ZNSo5flushEv)
	jirl	$ra, $ra, 0
.Ltmp51:
# %bb.29:                               # %_ZNSolsEPFRSoS_E.exit29
.Ltmp52:
	pcalau12i	$a0, %got_pc_hi20(_ZSt4cout)
	ld.d	$s2, $a0, %got_pc_lo12(_ZSt4cout)
	pcalau12i	$a0, %pc_hi20(.L.str.207)
	addi.d	$a1, $a0, %pc_lo12(.L.str.207)
	ori	$a2, $zero, 70
	move	$a0, $s2
	pcaddu18i	$ra, %call36(_ZSt16__ostream_insertIcSt11char_traitsIcEERSt13basic_ostreamIT_T0_ES6_PKS3_l)
	jirl	$ra, $ra, 0
.Ltmp53:
# %bb.30:                               # %_ZStlsISt11char_traitsIcEERSt13basic_ostreamIcT_ES5_PKc.exit31
	ld.d	$a0, $s2, 0
	ld.d	$a0, $a0, -24
	add.d	$a0, $s2, $a0
	ld.d	$s2, $a0, 240
	beqz	$s2, .LBB1_60
# %bb.31:                               # %_ZSt13__check_facetISt5ctypeIcEERKT_PS3_.exit.i.i75
	ld.bu	$a0, $s2, 56
	beqz	$a0, .LBB1_33
# %bb.32:
	ld.bu	$a0, $s2, 67
	b	.LBB1_35
.LBB1_33:
.Ltmp54:
	move	$a0, $s2
	pcaddu18i	$ra, %call36(_ZNKSt5ctypeIcE13_M_widen_initEv)
	jirl	$ra, $ra, 0
.Ltmp55:
# %bb.34:                               # %.noexc80
	ld.d	$a0, $s2, 0
	ld.d	$a2, $a0, 48
.Ltmp56:
	ori	$a1, $zero, 10
	move	$a0, $s2
	jirl	$ra, $a2, 0
.Ltmp57:
.LBB1_35:                               # %_ZNKSt9basic_iosIcSt11char_traitsIcEE5widenEc.exit.i77
.Ltmp58:
	pcalau12i	$a1, %got_pc_hi20(_ZSt4cout)
	ld.d	$a2, $a1, %got_pc_lo12(_ZSt4cout)
	ext.w.b	$a1, $a0
	move	$a0, $a2
	pcaddu18i	$ra, %call36(_ZNSo3putEc)
	jirl	$ra, $ra, 0
.Ltmp59:
# %bb.36:                               # %.noexc82
.Ltmp60:
	pcaddu18i	$ra, %call36(_ZNSo5flushEv)
	jirl	$ra, $ra, 0
.Ltmp61:
# %bb.37:                               # %_ZNSolsEPFRSoS_E.exit33
	ld.d	$a0, $s1, 64
	addi.d	$s3, $sp, 24
	st.d	$s3, $sp, 8
	st.d	$zero, $sp, 16
	st.b	$zero, $sp, 24
	beqz	$a0, .LBB1_40
# %bb.38:                               # %_ZNSolsEPFRSoS_E.exit33
	ld.d	$a1, $s1, 48
	sltu	$a2, $a1, $a0
	masknez	$a1, $a1, $a2
	maskeqz	$a0, $a0, $a2
	or	$a0, $a0, $a1
	beqz	$a0, .LBB1_40
# %bb.39:
	ld.d	$a3, $s1, 56
	sub.d	$a4, $a0, $a3
.Ltmp62:
	addi.d	$a0, $sp, 8
	move	$a1, $zero
	move	$a2, $zero
	pcaddu18i	$ra, %call36(_ZNSt7__cxx1112basic_stringIcSt11char_traitsIcESaIcEE10_M_replaceEmmPKcm)
	jirl	$ra, $ra, 0
.Ltmp63:
	b	.LBB1_41
.LBB1_40:
	addi.d	$a1, $s1, 96
.Ltmp64:
	addi.d	$a0, $sp, 8
	pcaddu18i	$ra, %call36(_ZNSt7__cxx1112basic_stringIcSt11char_traitsIcESaIcEE9_M_assignERKS4_)
	jirl	$ra, $ra, 0
.Ltmp65:
.LBB1_41:                               # %_ZNKSt7__cxx1118basic_stringstreamIcSt11char_traitsIcESaIcEE3strEv.exit41
	ld.d	$a1, $sp, 8
	ld.d	$a2, $sp, 16
.Ltmp67:
	pcalau12i	$a0, %got_pc_hi20(_ZSt4cout)
	ld.d	$a0, $a0, %got_pc_lo12(_ZSt4cout)
	pcaddu18i	$ra, %call36(_ZSt16__ostream_insertIcSt11char_traitsIcEERSt13basic_ostreamIT_T0_ES6_PKS3_l)
	jirl	$ra, $ra, 0
.Ltmp68:
# %bb.42:                               # %_ZStlsIcSt11char_traitsIcESaIcEERSt13basic_ostreamIT_T0_ES7_RKNSt7__cxx1112basic_stringIS4_S5_T1_EE.exit43
	move	$s1, $a0
	ld.d	$a0, $a0, 0
	ld.d	$a0, $a0, -24
	add.d	$a0, $s1, $a0
	ld.d	$s2, $a0, 240
	beqz	$s2, .LBB1_62
# %bb.43:                               # %_ZSt13__check_facetISt5ctypeIcEERKT_PS3_.exit.i.i86
	ld.bu	$a0, $s2, 56
	beqz	$a0, .LBB1_45
# %bb.44:
	ld.bu	$a0, $s2, 67
	b	.LBB1_47
.LBB1_45:
.Ltmp69:
	move	$a0, $s2
	pcaddu18i	$ra, %call36(_ZNKSt5ctypeIcE13_M_widen_initEv)
	jirl	$ra, $ra, 0
.Ltmp70:
# %bb.46:                               # %.noexc91
	ld.d	$a0, $s2, 0
	ld.d	$a2, $a0, 48
.Ltmp71:
	ori	$a1, $zero, 10
	move	$a0, $s2
	jirl	$ra, $a2, 0
.Ltmp72:
.LBB1_47:                               # %_ZNKSt9basic_iosIcSt11char_traitsIcEE5widenEc.exit.i88
.Ltmp73:
	ext.w.b	$a1, $a0
	move	$a0, $s1
	pcaddu18i	$ra, %call36(_ZNSo3putEc)
	jirl	$ra, $ra, 0
.Ltmp74:
# %bb.48:                               # %.noexc93
.Ltmp75:
	pcaddu18i	$ra, %call36(_ZNSo5flushEv)
	jirl	$ra, $ra, 0
.Ltmp76:
# %bb.49:                               # %_ZNSolsEPFRSoS_E.exit45
	ld.d	$a0, $sp, 8
	beq	$a0, $s3, .LBB1_51
# %bb.50:                               # %_ZNKSt7__cxx1112basic_stringIcSt11char_traitsIcESaIcEE11_M_is_localEv.exit.i.i46
	ld.d	$a1, $sp, 24
	addi.d	$a1, $a1, 1
	pcaddu18i	$ra, %call36(_ZdlPvm)
	jirl	$ra, $ra, 0
.LBB1_51:                               # %_ZNSt7__cxx1112basic_stringIcSt11char_traitsIcESaIcEED2Ev.exit48
	move	$a0, $zero
	pcaddu18i	$ra, %call36(fflush)
	jirl	$ra, $ra, 0
.LBB1_52:
	ld.w	$a0, $s0, 0
	ori	$a1, $zero, 2
	bne	$a0, $a1, .LBB1_57
# %bb.53:
	ld.d	$a0, $fp, 520
	ld.w	$a1, $a0, 8
	ld.w	$a2, $a0, 12
	beq	$a1, $a2, .LBB1_56
# %bb.54:
.Ltmp77:
	ori	$a0, $zero, 2
	pcaddu18i	$ra, %call36(sleep)
	jirl	$ra, $ra, 0
.Ltmp78:
# %bb.55:
	ld.d	$a0, $fp, 520
.LBB1_56:                               # %.invoke96
.Ltmp79:
	pcaddu18i	$ra, %call36(_ZN2PP4Comm19global_abort_parserEv)
	jirl	$ra, $ra, 0
.Ltmp80:
.LBB1_57:
	ld.d	$a0, $sp, 40
	beq	$a0, $s4, .LBB1_59
# %bb.58:                               # %_ZNKSt7__cxx1112basic_stringIcSt11char_traitsIcESaIcEE11_M_is_localEv.exit.i.i52
	ld.d	$a1, $sp, 56
	addi.d	$a1, $a1, 1
	pcaddu18i	$ra, %call36(_ZdlPvm)
	jirl	$ra, $ra, 0
.LBB1_59:
	ld.d	$s4, $sp, 72                    # 8-byte Folded Reload
	ld.d	$s3, $sp, 80                    # 8-byte Folded Reload
	ld.d	$s2, $sp, 88                    # 8-byte Folded Reload
	ld.d	$s1, $sp, 96                    # 8-byte Folded Reload
	ld.d	$s0, $sp, 104                   # 8-byte Folded Reload
	ld.d	$fp, $sp, 112                   # 8-byte Folded Reload
	ld.d	$ra, $sp, 120                   # 8-byte Folded Reload
	addi.d	$sp, $sp, 128
	ret
.LBB1_60:                               # %.invoke
.Ltmp84:
	pcaddu18i	$ra, %call36(_ZSt16__throw_bad_castv)
	jirl	$ra, $ra, 0
.Ltmp85:
# %bb.61:                               # %.cont
.LBB1_62:
.Ltmp81:
	pcaddu18i	$ra, %call36(_ZSt16__throw_bad_castv)
	jirl	$ra, $ra, 0
.Ltmp82:
# %bb.63:                               # %.noexc90
.LBB1_64:
.Ltmp66:
	b	.LBB1_70
.LBB1_65:
.Ltmp29:
	b	.LBB1_67
.LBB1_66:
.Ltmp26:
.LBB1_67:
	ld.d	$a2, $sp, 40
	move	$fp, $a0
	beq	$a2, $s2, .LBB1_76
# %bb.68:                               # %_ZNKSt7__cxx1112basic_stringIcSt11char_traitsIcESaIcEE11_M_is_localEv.exit.i.i.i.i
	ld.d	$a0, $sp, 56
	addi.d	$a1, $a0, 1
	move	$a0, $a2
	b	.LBB1_75
.LBB1_69:
.Ltmp83:
.LBB1_70:
	ld.d	$a2, $sp, 8
	move	$fp, $a0
	beq	$a2, $s3, .LBB1_73
# %bb.71:                               # %_ZNKSt7__cxx1112basic_stringIcSt11char_traitsIcESaIcEE11_M_is_localEv.exit.i.i49
	ld.d	$a0, $sp, 24
	addi.d	$a1, $a0, 1
	move	$a0, $a2
	pcaddu18i	$ra, %call36(_ZdlPvm)
	jirl	$ra, $ra, 0
	b	.LBB1_73
.LBB1_72:
.Ltmp86:
	move	$fp, $a0
.LBB1_73:
	ld.d	$a0, $sp, 40
	beq	$a0, $s4, .LBB1_76
# %bb.74:                               # %_ZNKSt7__cxx1112basic_stringIcSt11char_traitsIcESaIcEE11_M_is_localEv.exit.i.i55
	ld.d	$a1, $sp, 56
	addi.d	$a1, $a1, 1
.LBB1_75:                               # %common.resume
	pcaddu18i	$ra, %call36(_ZdlPvm)
	jirl	$ra, $ra, 0
.LBB1_76:                               # %common.resume
	move	$a0, $fp
	pcaddu18i	$ra, %call36(_Unwind_Resume)
	jirl	$ra, $ra, 0
.Lfunc_end1:
	.size	_ZN2PP11PowerParser13process_errorERNSt7__cxx1118basic_stringstreamIcSt11char_traitsIcESaIcEEERi, .Lfunc_end1-_ZN2PP11PowerParser13process_errorERNSt7__cxx1118basic_stringstreamIcSt11char_traitsIcESaIcEEERi
	.cfi_endproc
	.section	.gcc_except_table,"a",@progbits
	.p2align	2, 0x0
GCC_except_table1:
.Lexception1:
	.byte	255                             # @LPStart Encoding = omit
	.byte	255                             # @TType Encoding = omit
	.byte	1                               # Call site Encoding = uleb128
	.uleb128 .Lcst_end1-.Lcst_begin1
.Lcst_begin1:
	.uleb128 .Ltmp22-.Lfunc_begin1          # >> Call Site 1 <<
	.uleb128 .Ltmp23-.Ltmp22                #   Call between .Ltmp22 and .Ltmp23
	.uleb128 .Ltmp26-.Lfunc_begin1          #     jumps to .Ltmp26
	.byte	0                               #   On action: cleanup
	.uleb128 .Ltmp30-.Lfunc_begin1          # >> Call Site 2 <<
	.uleb128 .Ltmp31-.Ltmp30                #   Call between .Ltmp30 and .Ltmp31
	.uleb128 .Ltmp86-.Lfunc_begin1          #     jumps to .Ltmp86
	.byte	0                               #   On action: cleanup
	.uleb128 .Ltmp24-.Lfunc_begin1          # >> Call Site 3 <<
	.uleb128 .Ltmp25-.Ltmp24                #   Call between .Ltmp24 and .Ltmp25
	.uleb128 .Ltmp26-.Lfunc_begin1          #     jumps to .Ltmp26
	.byte	0                               #   On action: cleanup
	.uleb128 .Ltmp27-.Lfunc_begin1          # >> Call Site 4 <<
	.uleb128 .Ltmp28-.Ltmp27                #   Call between .Ltmp27 and .Ltmp28
	.uleb128 .Ltmp29-.Lfunc_begin1          #     jumps to .Ltmp29
	.byte	0                               #   On action: cleanup
	.uleb128 .Ltmp28-.Lfunc_begin1          # >> Call Site 5 <<
	.uleb128 .Ltmp32-.Ltmp28                #   Call between .Ltmp28 and .Ltmp32
	.byte	0                               #     has no landing pad
	.byte	0                               #   On action: cleanup
	.uleb128 .Ltmp32-.Lfunc_begin1          # >> Call Site 6 <<
	.uleb128 .Ltmp61-.Ltmp32                #   Call between .Ltmp32 and .Ltmp61
	.uleb128 .Ltmp86-.Lfunc_begin1          #     jumps to .Ltmp86
	.byte	0                               #   On action: cleanup
	.uleb128 .Ltmp62-.Lfunc_begin1          # >> Call Site 7 <<
	.uleb128 .Ltmp65-.Ltmp62                #   Call between .Ltmp62 and .Ltmp65
	.uleb128 .Ltmp66-.Lfunc_begin1          #     jumps to .Ltmp66
	.byte	0                               #   On action: cleanup
	.uleb128 .Ltmp67-.Lfunc_begin1          # >> Call Site 8 <<
	.uleb128 .Ltmp76-.Ltmp67                #   Call between .Ltmp67 and .Ltmp76
	.uleb128 .Ltmp83-.Lfunc_begin1          #     jumps to .Ltmp83
	.byte	0                               #   On action: cleanup
	.uleb128 .Ltmp76-.Lfunc_begin1          # >> Call Site 9 <<
	.uleb128 .Ltmp77-.Ltmp76                #   Call between .Ltmp76 and .Ltmp77
	.byte	0                               #     has no landing pad
	.byte	0                               #   On action: cleanup
	.uleb128 .Ltmp77-.Lfunc_begin1          # >> Call Site 10 <<
	.uleb128 .Ltmp80-.Ltmp77                #   Call between .Ltmp77 and .Ltmp80
	.uleb128 .Ltmp86-.Lfunc_begin1          #     jumps to .Ltmp86
	.byte	0                               #   On action: cleanup
	.uleb128 .Ltmp80-.Lfunc_begin1          # >> Call Site 11 <<
	.uleb128 .Ltmp84-.Ltmp80                #   Call between .Ltmp80 and .Ltmp84
	.byte	0                               #     has no landing pad
	.byte	0                               #   On action: cleanup
	.uleb128 .Ltmp84-.Lfunc_begin1          # >> Call Site 12 <<
	.uleb128 .Ltmp85-.Ltmp84                #   Call between .Ltmp84 and .Ltmp85
	.uleb128 .Ltmp86-.Lfunc_begin1          #     jumps to .Ltmp86
	.byte	0                               #   On action: cleanup
	.uleb128 .Ltmp81-.Lfunc_begin1          # >> Call Site 13 <<
	.uleb128 .Ltmp82-.Ltmp81                #   Call between .Ltmp81 and .Ltmp82
	.uleb128 .Ltmp83-.Lfunc_begin1          #     jumps to .Ltmp83
	.byte	0                               #   On action: cleanup
	.uleb128 .Ltmp82-.Lfunc_begin1          # >> Call Site 14 <<
	.uleb128 .Lfunc_end1-.Ltmp82            #   Call between .Ltmp82 and .Lfunc_end1
	.byte	0                               #     has no landing pad
	.byte	0                               #   On action: cleanup
.Lcst_end1:
	.p2align	2, 0x0
                                        # -- End function
	.section	.rodata.cst32,"aM",@progbits,32
	.p2align	5, 0x0                          # -- Begin function _ZN2PP11PowerParser7get_intIlEEvRNSt7__cxx1112basic_stringIcSt11char_traitsIcESaIcEEEPT_RKSt6vectorIiSaIiEEb
.LCPI2_0:
	.dword	0                               # 0x0
	.dword	1                               # 0x1
	.dword	0                               # 0x0
	.dword	0                               # 0x0
	.section	.rodata.cst16,"aM",@progbits,16
	.p2align	4, 0x0
.LCPI2_1:
	.word	0                               # 0x0
	.word	4                               # 0x4
	.word	4                               # 0x4
	.word	4                               # 0x4
	.section	.text._ZN2PP11PowerParser7get_intIlEEvRNSt7__cxx1112basic_stringIcSt11char_traitsIcESaIcEEEPT_RKSt6vectorIiSaIiEEb,"axG",@progbits,_ZN2PP11PowerParser7get_intIlEEvRNSt7__cxx1112basic_stringIcSt11char_traitsIcESaIcEEEPT_RKSt6vectorIiSaIiEEb,comdat
	.weak	_ZN2PP11PowerParser7get_intIlEEvRNSt7__cxx1112basic_stringIcSt11char_traitsIcESaIcEEEPT_RKSt6vectorIiSaIiEEb
	.p2align	5
	.type	_ZN2PP11PowerParser7get_intIlEEvRNSt7__cxx1112basic_stringIcSt11char_traitsIcESaIcEEEPT_RKSt6vectorIiSaIiEEb,@function
_ZN2PP11PowerParser7get_intIlEEvRNSt7__cxx1112basic_stringIcSt11char_traitsIcESaIcEEEPT_RKSt6vectorIiSaIiEEb: # @_ZN2PP11PowerParser7get_intIlEEvRNSt7__cxx1112basic_stringIcSt11char_traitsIcESaIcEEEPT_RKSt6vectorIiSaIiEEb
.Lfunc_begin2:
	.cfi_startproc
	.cfi_personality 155, DW.ref.__gxx_personality_v0
	.cfi_lsda 27, .Lexception2
# %bb.0:
	addi.d	$sp, $sp, -656
	.cfi_def_cfa_offset 656
	st.d	$ra, $sp, 648                   # 8-byte Folded Spill
	st.d	$fp, $sp, 640                   # 8-byte Folded Spill
	st.d	$s0, $sp, 632                   # 8-byte Folded Spill
	st.d	$s1, $sp, 624                   # 8-byte Folded Spill
	st.d	$s2, $sp, 616                   # 8-byte Folded Spill
	st.d	$s3, $sp, 608                   # 8-byte Folded Spill
	st.d	$s4, $sp, 600                   # 8-byte Folded Spill
	st.d	$s5, $sp, 592                   # 8-byte Folded Spill
	st.d	$s6, $sp, 584                   # 8-byte Folded Spill
	st.d	$s7, $sp, 576                   # 8-byte Folded Spill
	st.d	$s8, $sp, 568                   # 8-byte Folded Spill
	.cfi_offset 1, -8
	.cfi_offset 22, -16
	.cfi_offset 23, -24
	.cfi_offset 24, -32
	.cfi_offset 25, -40
	.cfi_offset 26, -48
	.cfi_offset 27, -56
	.cfi_offset 28, -64
	.cfi_offset 29, -72
	.cfi_offset 30, -80
	.cfi_offset 31, -88
	ld.d	$a5, $a3, 8
	st.d	$a3, $sp, 48                    # 8-byte Folded Spill
	ld.d	$a3, $a3, 0
	sub.d	$a6, $a5, $a3
	srli.d	$a5, $a6, 2
	addi.w	$a7, $a5, 0
	st.d	$a4, $sp, 40                    # 8-byte Folded Spill
	st.d	$a2, $sp, 32                    # 8-byte Folded Spill
	move	$s3, $a1
	move	$s0, $a0
	blez	$a7, .LBB2_3
# %bb.1:                                # %iter.check
	bstrpick.d	$a0, $a5, 30, 0
	ori	$a1, $zero, 3
	bltu	$a1, $a0, .LBB2_4
# %bb.2:
	move	$a1, $zero
	ori	$fp, $zero, 1
	b	.LBB2_13
.LBB2_3:                                # %_ZNSt6vectorIiSaIiEE17_S_check_init_lenEmRKS0_.exit.i.thread
	ori	$fp, $zero, 1
	b	.LBB2_17
.LBB2_4:                                # %vector.main.loop.iter.check
	ori	$a1, $zero, 16
	ori	$a2, $zero, 1
	bgeu	$a0, $a1, .LBB2_6
# %bb.5:
	move	$a1, $zero
	ori	$fp, $zero, 1
	b	.LBB2_10
.LBB2_6:                                # %vector.ph
	bstrpick.d	$a1, $a5, 30, 4
	slli.d	$a1, $a1, 4
	xvrepli.w	$xr0, 1
	addi.d	$a4, $a3, 32
	move	$a7, $a1
	xvori.b	$xr1, $xr0, 0
	.p2align	4, , 16
.LBB2_7:                                # %vector.body
                                        # =>This Inner Loop Header: Depth=1
	xvld	$xr2, $a4, -32
	xvld	$xr3, $a4, 0
	xvmul.w	$xr0, $xr2, $xr0
	xvmul.w	$xr1, $xr3, $xr1
	addi.d	$a7, $a7, -16
	addi.d	$a4, $a4, 64
	bnez	$a7, .LBB2_7
# %bb.8:                                # %middle.block
	pcalau12i	$a4, %pc_hi20(.LCPI2_0)
	xvld	$xr2, $a4, %pc_lo12(.LCPI2_0)
	xvmul.w	$xr0, $xr1, $xr0
	xvpermi.d	$xr1, $xr0, 78
	xvshuf.d	$xr2, $xr0, $xr1
	xvmul.w	$xr0, $xr0, $xr2
	xvpermi.d	$xr1, $xr0, 68
	xvrepl128vei.d	$xr1, $xr1, 1
	xvmul.w	$xr0, $xr0, $xr1
	xvpermi.d	$xr1, $xr0, 68
	xvrepl128vei.w	$xr1, $xr1, 1
	xvmul.w	$xr0, $xr0, $xr1
	xvpickve2gr.w	$fp, $xr0, 0
	beq	$a0, $a1, .LBB2_15
# %bb.9:                                # %vec.epilog.iter.check
	andi	$a4, $a6, 48
	beqz	$a4, .LBB2_13
.LBB2_10:                               # %vec.epilog.ph
	move	$a4, $a1
	bstrpick.d	$a1, $a5, 30, 2
	pcalau12i	$a5, %pc_hi20(.LCPI2_1)
	vld	$vr0, $a5, %pc_lo12(.LCPI2_1)
	slli.d	$a1, $a1, 2
	vinsgr2vr.w	$vr1, $fp, 0
	vinsgr2vr.w	$vr2, $a2, 0
	vshuf.w	$vr0, $vr2, $vr1
	sub.d	$a2, $a4, $a1
	alsl.d	$a4, $a4, $a3, 2
	.p2align	4, , 16
.LBB2_11:                               # %vec.epilog.vector.body
                                        # =>This Inner Loop Header: Depth=1
	vld	$vr1, $a4, 0
	vmul.w	$vr0, $vr1, $vr0
	addi.d	$a2, $a2, 4
	addi.d	$a4, $a4, 16
	bnez	$a2, .LBB2_11
# %bb.12:                               # %vec.epilog.middle.block
	vreplvei.d	$vr1, $vr0, 1
	vmul.w	$vr0, $vr0, $vr1
	vreplvei.w	$vr1, $vr0, 1
	vmul.w	$vr0, $vr0, $vr1
	vpickve2gr.w	$fp, $vr0, 0
	beq	$a0, $a1, .LBB2_15
.LBB2_13:                               # %.lr.ph.preheader
	alsl.d	$a2, $a1, $a3, 2
	sub.d	$a0, $a1, $a0
	.p2align	4, , 16
.LBB2_14:                               # %.lr.ph
                                        # =>This Inner Loop Header: Depth=1
	ld.w	$a1, $a2, 0
	mul.w	$fp, $a1, $fp
	addi.d	$a0, $a0, 1
	addi.d	$a2, $a2, 4
	bnez	$a0, .LBB2_14
.LBB2_15:                               # %._crit_edge
	addi.w	$a0, $zero, -1
	bge	$a0, $fp, .LBB2_73
# %bb.16:                               # %_ZNSt6vectorIiSaIiEE17_S_check_init_lenEmRKS0_.exit.i
	beqz	$fp, .LBB2_23
.LBB2_17:                               # %.noexc44
	slli.d	$s4, $fp, 2
	move	$a0, $s4
	pcaddu18i	$ra, %call36(_Znwm)
	jirl	$ra, $ra, 0
	st.d	$a0, $sp, 536
	alsl.d	$s1, $fp, $a0, 2
	st.d	$s1, $sp, 552
	move	$a1, $zero
	move	$a2, $s4
	pcaddu18i	$ra, %call36(memset)
	jirl	$ra, $ra, 0
	st.d	$s1, $sp, 544
	slli.d	$s5, $fp, 3
.Ltmp87:
	move	$a0, $s5
	pcaddu18i	$ra, %call36(_Znwm)
	jirl	$ra, $ra, 0
.Ltmp88:
# %bb.18:                               # %.noexc47
	st.d	$a0, $sp, 512
	alsl.d	$s1, $fp, $a0, 3
	st.d	$s1, $sp, 528
	st.d	$zero, $a0, 0
	ori	$a1, $zero, 1
	addi.d	$a0, $a0, 8
	bne	$fp, $a1, .LBB2_20
# %bb.19:
	move	$s1, $a0
	b	.LBB2_21
.LBB2_20:                               # %_ZSt6fill_nIPPN2PP3CmdEmS2_ET_S4_T0_RKT1_.exit.loopexit.i.i.i.i.i
	addi.d	$a2, $s5, -8
	move	$a1, $zero
	pcaddu18i	$ra, %call36(memset)
	jirl	$ra, $ra, 0
.LBB2_21:
	st.d	$s1, $sp, 520
.Ltmp90:
	move	$a0, $s4
	pcaddu18i	$ra, %call36(_Znwm)
	jirl	$ra, $ra, 0
.Ltmp91:
# %bb.22:                               # %.noexc56
	st.d	$a0, $sp, 488
	alsl.d	$fp, $fp, $a0, 2
	st.d	$fp, $sp, 504
	ori	$a1, $zero, 255
	move	$a2, $s4
	pcaddu18i	$ra, %call36(memset)
	jirl	$ra, $ra, 0
	b	.LBB2_24
.LBB2_23:                               # %_ZNSt12_Vector_baseIiSaIiEEC2EmRKS0_.exit.thread.i54
	move	$fp, $zero
	st.d	$zero, $sp, 552
	vrepli.b	$vr0, 0
	vst	$vr0, $sp, 536
	st.d	$zero, $sp, 528
	vst	$vr0, $sp, 512
	st.d	$zero, $sp, 504
	vst	$vr0, $sp, 488
.LBB2_24:                               # %.loopexit
	st.d	$fp, $sp, 496
	st.w	$zero, $sp, 484
.Ltmp93:
	addi.d	$a0, $sp, 88
	pcaddu18i	$ra, %call36(_ZNSt7__cxx1118basic_stringstreamIcSt11char_traitsIcESaIcEEC1Ev)
	jirl	$ra, $ra, 0
.Ltmp94:
# %bb.25:
	pcalau12i	$a0, %pc_hi20(_ZN2PPL14case_sensitiveE)
	ld.bu	$a0, $a0, %pc_lo12(_ZN2PPL14case_sensitiveE)
	bnez	$a0, .LBB2_29
# %bb.26:
	ld.d	$fp, $s3, 8
	beqz	$fp, .LBB2_29
# %bb.27:                               # %.lr.ph.i.preheader
	ld.d	$s1, $s3, 0
	.p2align	4, , 16
.LBB2_28:                               # %.lr.ph.i
                                        # =>This Inner Loop Header: Depth=1
	ld.b	$a0, $s1, 0
	pcaddu18i	$ra, %call36(tolower)
	jirl	$ra, $ra, 0
	st.b	$a0, $s1, 0
	addi.d	$fp, $fp, -1
	addi.d	$s1, $s1, 1
	bnez	$fp, .LBB2_28
.LBB2_29:                               # %_ZSt9transformIN9__gnu_cxx17__normal_iteratorIPcNSt7__cxx1112basic_stringIcSt11char_traitsIcESaIcEEEEES9_PDoFiiEET0_T_SD_SC_T1_.exit
	move	$s8, $zero
	move	$s4, $zero
	addi.d	$s1, $sp, 72
	addi.d	$a0, $s0, 992
	st.d	$a0, $sp, 24                    # 8-byte Folded Spill
	lu12i.w	$a0, 427197
	ori	$a0, $a0, 2579
	lu32i.d	$a0, -155345
	lu52i.d	$s2, $a0, -1973
	ori	$fp, $zero, 16
	b	.LBB2_33
.LBB2_30:                               #   in Loop: Header=BB2_33 Depth=1
	move	$a1, $s7
	move	$a2, $s6
	pcaddu18i	$ra, %call36(memcpy)
	jirl	$ra, $ra, 0
.LBB2_31:                               # %_ZNSt7__cxx1112basic_stringIcSt11char_traitsIcESaIcEEC2ERKS4_.exit.i
                                        #   in Loop: Header=BB2_33 Depth=1
	ld.d	$a0, $sp, 56
	ld.d	$a1, $s5, 0
	st.d	$a0, $s5, 8
	stx.b	$zero, $a1, $a0
	ld.d	$a0, $s0, 1040
	addi.d	$a0, $a0, 32
	st.d	$a0, $s0, 1040
.LBB2_32:                               # %_ZNSt5dequeINSt7__cxx1112basic_stringIcSt11char_traitsIcESaIcEEESaIS5_EE9push_backERKS5_.exit
                                        #   in Loop: Header=BB2_33 Depth=1
	addi.d	$s4, $s4, 1
	addi.d	$s8, $s8, 432
.LBB2_33:                               # =>This Inner Loop Header: Depth=1
	ld.d	$a1, $s0, 984
	ld.d	$a2, $a1, 72
	ld.d	$a0, $a1, 40
	sub.d	$a3, $a2, $a0
	ld.d	$a4, $a1, 48
	ld.d	$a5, $a1, 56
	srli.d	$a3, $a3, 3
	sltu	$a2, $zero, $a2
	sub.d	$a3, $a3, $a2
	sub.d	$a4, $a4, $a5
	ld.d	$a5, $a1, 32
	ld.d	$a2, $a1, 16
	srli.d	$a4, $a4, 4
	mul.d	$a4, $a4, $s2
	add.d	$a3, $a3, $a4
	sub.d	$a4, $a5, $a2
	srli.d	$a4, $a4, 4
	mul.d	$a4, $a4, $s2
	add.w	$a3, $a3, $a4
	bge	$s4, $a3, .LBB2_63
# %bb.34:                               #   in Loop: Header=BB2_33 Depth=1
	ld.d	$a1, $a1, 24
	sub.d	$a1, $a2, $a1
	srai.d	$a1, $a1, 4
	mul.d	$a1, $a1, $s2
	add.d	$a1, $s4, $a1
	beqz	$a1, .LBB2_36
# %bb.35:                               #   in Loop: Header=BB2_33 Depth=1
	slli.d	$a1, $a1, 3
	ldx.d	$a0, $a0, $a1
	b	.LBB2_37
	.p2align	4, , 16
.LBB2_36:                               #   in Loop: Header=BB2_33 Depth=1
	add.d	$a0, $a2, $s8
.LBB2_37:                               # %_ZNSt5dequeIN2PP3CmdESaIS1_EEixEm.exit
                                        #   in Loop: Header=BB2_33 Depth=1
	ld.d	$s5, $a0, 248
	ld.d	$s6, $a0, 240
	st.d	$s1, $sp, 56
	st.d	$s5, $sp, 560
	move	$a0, $s1
	bltu	$s5, $fp, .LBB2_40
# %bb.38:                               # %.noexc.i.i
                                        #   in Loop: Header=BB2_33 Depth=1
.Ltmp99:
	addi.d	$a0, $sp, 56
	addi.d	$a1, $sp, 560
	move	$a2, $zero
	pcaddu18i	$ra, %call36(_ZNSt7__cxx1112basic_stringIcSt11char_traitsIcESaIcEE9_M_createERmm)
	jirl	$ra, $ra, 0
.Ltmp100:
# %bb.39:                               # %.noexc58
                                        #   in Loop: Header=BB2_33 Depth=1
	ld.d	$a1, $sp, 560
	st.d	$a0, $sp, 56
	st.d	$a1, $sp, 72
.LBB2_40:                               # %._crit_edge.i.i.i
                                        #   in Loop: Header=BB2_33 Depth=1
	beqz	$s5, .LBB2_44
# %bb.41:                               # %._crit_edge.i.i.i
                                        #   in Loop: Header=BB2_33 Depth=1
	ori	$a1, $zero, 1
	bne	$s5, $a1, .LBB2_43
# %bb.42:                               #   in Loop: Header=BB2_33 Depth=1
	ld.b	$a1, $s6, 0
	st.b	$a1, $a0, 0
	b	.LBB2_44
	.p2align	4, , 16
.LBB2_43:                               #   in Loop: Header=BB2_33 Depth=1
	move	$a1, $s6
	move	$a2, $s5
	pcaddu18i	$ra, %call36(memcpy)
	jirl	$ra, $ra, 0
.LBB2_44:                               #   in Loop: Header=BB2_33 Depth=1
	ld.d	$a0, $sp, 560
	ld.d	$a1, $sp, 56
	st.d	$a0, $sp, 64
	stx.b	$zero, $a1, $a0
	ld.d	$a2, $sp, 64
	ld.d	$a0, $s3, 8
	bne	$a2, $a0, .LBB2_47
# %bb.45:                               #   in Loop: Header=BB2_33 Depth=1
	ld.d	$s5, $sp, 56
	beqz	$a2, .LBB2_52
# %bb.46:                               #   in Loop: Header=BB2_33 Depth=1
	ld.d	$a1, $s3, 0
	move	$a0, $s5
	pcaddu18i	$ra, %call36(bcmp)
	jirl	$ra, $ra, 0
	sltui	$s6, $a0, 1
	bne	$s5, $s1, .LBB2_48
	b	.LBB2_49
	.p2align	4, , 16
.LBB2_47:                               # %._ZSteqIcSt11char_traitsIcESaIcEEbRKNSt7__cxx1112basic_stringIT_T0_T1_EESA_.exit_crit_edge
                                        #   in Loop: Header=BB2_33 Depth=1
	ld.d	$s5, $sp, 56
	move	$s6, $zero
	beq	$s5, $s1, .LBB2_49
.LBB2_48:                               # %_ZNKSt7__cxx1112basic_stringIcSt11char_traitsIcESaIcEE11_M_is_localEv.exit.i.i
                                        #   in Loop: Header=BB2_33 Depth=1
	ld.d	$a0, $sp, 72
	addi.d	$a1, $a0, 1
	move	$a0, $s5
	pcaddu18i	$ra, %call36(_ZdlPvm)
	jirl	$ra, $ra, 0
.LBB2_49:                               # %_ZNSt7__cxx1112basic_stringIcSt11char_traitsIcESaIcEED2Ev.exit
                                        #   in Loop: Header=BB2_33 Depth=1
	beqz	$s6, .LBB2_32
# %bb.50:                               #   in Loop: Header=BB2_33 Depth=1
	ld.d	$a0, $s0, 984
	ld.d	$a1, $a0, 16
	ld.d	$a2, $a0, 24
	sub.d	$a2, $a1, $a2
	srai.d	$a2, $a2, 4
	mul.d	$a2, $a2, $s2
	add.d	$a2, $s4, $a2
	beqz	$a2, .LBB2_53
# %bb.51:                               #   in Loop: Header=BB2_33 Depth=1
	ld.d	$a0, $a0, 40
	slli.d	$a1, $a2, 3
	ldx.d	$a0, $a0, $a1
	b	.LBB2_54
.LBB2_52:                               #   in Loop: Header=BB2_33 Depth=1
	ori	$s6, $zero, 1
	bne	$s5, $s1, .LBB2_48
	b	.LBB2_49
.LBB2_53:                               #   in Loop: Header=BB2_33 Depth=1
	add.d	$a0, $a1, $s8
.LBB2_54:                               # %_ZNSt5dequeIN2PP3CmdESaIS1_EEixEm.exit60
                                        #   in Loop: Header=BB2_33 Depth=1
	ldptr.w	$a6, $s0, 2792
.Ltmp102:
	addi.d	$a1, $sp, 484
	st.d	$a1, $sp, 16
	addi.d	$a1, $sp, 88
	st.d	$a1, $sp, 8
	addi.d	$a4, $sp, 512
	addi.d	$a5, $sp, 488
	addi.d	$a7, $sp, 536
	ld.d	$a1, $sp, 40                    # 8-byte Folded Reload
	st.d	$a1, $sp, 0
	move	$a1, $s3
	ld.d	$a2, $sp, 32                    # 8-byte Folded Reload
	ld.d	$a3, $sp, 48                    # 8-byte Folded Reload
	pcaddu18i	$ra, %call36(_ZN2PP3Cmd7get_intERNSt7__cxx1112basic_stringIcSt11char_traitsIcESaIcEEEPlRKSt6vectorIiSaIiEERS9_IPS0_SaISE_EERSB_iSI_bRNS1_18basic_stringstreamIcS4_S5_EERi)
	jirl	$ra, $ra, 0
.Ltmp103:
# %bb.55:                               #   in Loop: Header=BB2_33 Depth=1
	ld.d	$a0, $s0, 1056
	ld.d	$s5, $s0, 1040
	addi.d	$a0, $a0, -32
	beq	$s5, $a0, .LBB2_62
# %bb.56:                               #   in Loop: Header=BB2_33 Depth=1
	addi.d	$a0, $s5, 16
	st.d	$a0, $s5, 0
	ld.d	$s6, $s3, 8
	ld.d	$s7, $s3, 0
	st.d	$s6, $sp, 56
	bltu	$s6, $fp, .LBB2_59
# %bb.57:                               # %.noexc.i.i63
                                        #   in Loop: Header=BB2_33 Depth=1
.Ltmp104:
	addi.d	$a1, $sp, 56
	move	$a0, $s5
	move	$a2, $zero
	pcaddu18i	$ra, %call36(_ZNSt7__cxx1112basic_stringIcSt11char_traitsIcESaIcEE9_M_createERmm)
	jirl	$ra, $ra, 0
.Ltmp105:
# %bb.58:                               # %.noexc64
                                        #   in Loop: Header=BB2_33 Depth=1
	st.d	$a0, $s5, 0
	ld.d	$a1, $sp, 56
	st.d	$a1, $s5, 16
.LBB2_59:                               # %._crit_edge.i.i.i62
                                        #   in Loop: Header=BB2_33 Depth=1
	beqz	$s6, .LBB2_31
# %bb.60:                               # %._crit_edge.i.i.i62
                                        #   in Loop: Header=BB2_33 Depth=1
	ori	$a1, $zero, 1
	bne	$s6, $a1, .LBB2_30
# %bb.61:                               #   in Loop: Header=BB2_33 Depth=1
	ld.b	$a1, $s7, 0
	st.b	$a1, $a0, 0
	b	.LBB2_31
.LBB2_62:                               #   in Loop: Header=BB2_33 Depth=1
.Ltmp106:
	ld.d	$a0, $sp, 24                    # 8-byte Folded Reload
	move	$a1, $s3
	pcaddu18i	$ra, %call36(_ZNSt5dequeINSt7__cxx1112basic_stringIcSt11char_traitsIcESaIcEEESaIS5_EE16_M_push_back_auxIJRKS5_EEEvDpOT_)
	jirl	$ra, $ra, 0
.Ltmp107:
	b	.LBB2_32
.LBB2_63:
.Ltmp96:
	addi.d	$a1, $sp, 88
	addi.d	$a2, $sp, 484
	addi.d	$s1, $sp, 88
	move	$a0, $s0
	pcaddu18i	$ra, %call36(_ZN2PP11PowerParser13process_errorERNSt7__cxx1118basic_stringstreamIcSt11char_traitsIcESaIcEEERi)
	jirl	$ra, $ra, 0
.Ltmp97:
# %bb.64:
	pcalau12i	$a0, %got_pc_hi20(_ZTTNSt7__cxx1118basic_stringstreamIcSt11char_traitsIcESaIcEEE)
	ld.d	$fp, $a0, %got_pc_lo12(_ZTTNSt7__cxx1118basic_stringstreamIcSt11char_traitsIcESaIcEEE)
	ld.d	$a0, $fp, 0
	st.d	$a0, $sp, 88
	ld.d	$a1, $fp, 64
	ld.d	$a0, $a0, -24
	ld.d	$a2, $fp, 72
	pcalau12i	$a3, %got_pc_hi20(_ZTVNSt7__cxx1115basic_stringbufIcSt11char_traitsIcESaIcEEE)
	ld.d	$a3, $a3, %got_pc_lo12(_ZTVNSt7__cxx1115basic_stringbufIcSt11char_traitsIcESaIcEEE)
	stx.d	$a1, $a0, $s1
	ld.d	$a0, $sp, 184
	st.d	$a2, $sp, 104
	addi.d	$a1, $a3, 16
	addi.d	$a2, $sp, 200
	st.d	$a1, $sp, 112
	beq	$a0, $a2, .LBB2_66
# %bb.65:                               # %_ZNKSt7__cxx1112basic_stringIcSt11char_traitsIcESaIcEE11_M_is_localEv.exit.i.i.i.i.i
	ld.d	$a1, $sp, 200
	addi.d	$a1, $a1, 1
	pcaddu18i	$ra, %call36(_ZdlPvm)
	jirl	$ra, $ra, 0
.LBB2_66:                               # %_ZNSt7__cxx1118basic_stringstreamIcSt11char_traitsIcESaIcEED1Ev.exit
	pcalau12i	$a0, %got_pc_hi20(_ZTVSt15basic_streambufIcSt11char_traitsIcEE)
	ld.d	$a0, $a0, %got_pc_lo12(_ZTVSt15basic_streambufIcSt11char_traitsIcEE)
	addi.d	$a0, $a0, 16
	st.d	$a0, $sp, 112
	addi.d	$a0, $sp, 168
	pcaddu18i	$ra, %call36(_ZNSt6localeD1Ev)
	jirl	$ra, $ra, 0
	ld.d	$a0, $fp, 16
	st.d	$a0, $sp, 88
	ld.d	$a1, $fp, 24
	ld.d	$a0, $a0, -24
	addi.d	$a2, $sp, 88
	stx.d	$a1, $a0, $a2
	st.d	$zero, $sp, 96
	addi.d	$a0, $sp, 216
	pcaddu18i	$ra, %call36(_ZNSt8ios_baseD2Ev)
	jirl	$ra, $ra, 0
	ld.d	$a0, $sp, 488
	beqz	$a0, .LBB2_68
# %bb.67:
	ld.d	$a1, $sp, 504
	sub.d	$a1, $a1, $a0
	pcaddu18i	$ra, %call36(_ZdlPvm)
	jirl	$ra, $ra, 0
.LBB2_68:                               # %_ZNSt6vectorIiSaIiEED2Ev.exit
	ld.d	$a0, $sp, 512
	beqz	$a0, .LBB2_70
# %bb.69:
	ld.d	$a1, $sp, 528
	sub.d	$a1, $a1, $a0
	pcaddu18i	$ra, %call36(_ZdlPvm)
	jirl	$ra, $ra, 0
.LBB2_70:                               # %_ZNSt6vectorIPN2PP3CmdESaIS2_EED2Ev.exit
	ld.d	$a0, $sp, 536
	beqz	$a0, .LBB2_72
# %bb.71:
	ld.d	$a1, $sp, 552
	sub.d	$a1, $a1, $a0
	pcaddu18i	$ra, %call36(_ZdlPvm)
	jirl	$ra, $ra, 0
.LBB2_72:                               # %_ZNSt6vectorIiSaIiEED2Ev.exit68
	ld.d	$s8, $sp, 568                   # 8-byte Folded Reload
	ld.d	$s7, $sp, 576                   # 8-byte Folded Reload
	ld.d	$s6, $sp, 584                   # 8-byte Folded Reload
	ld.d	$s5, $sp, 592                   # 8-byte Folded Reload
	ld.d	$s4, $sp, 600                   # 8-byte Folded Reload
	ld.d	$s3, $sp, 608                   # 8-byte Folded Reload
	ld.d	$s2, $sp, 616                   # 8-byte Folded Reload
	ld.d	$s1, $sp, 624                   # 8-byte Folded Reload
	ld.d	$s0, $sp, 632                   # 8-byte Folded Reload
	ld.d	$fp, $sp, 640                   # 8-byte Folded Reload
	ld.d	$ra, $sp, 648                   # 8-byte Folded Reload
	addi.d	$sp, $sp, 656
	ret
.LBB2_73:                               # %.noexc
	pcalau12i	$a0, %pc_hi20(.L.str.240)
	addi.d	$a0, $a0, %pc_lo12(.L.str.240)
	pcaddu18i	$ra, %call36(_ZSt20__throw_length_errorPKc)
	jirl	$ra, $ra, 0
.LBB2_74:
.Ltmp92:
	move	$fp, $a0
	ld.d	$a0, $sp, 512
	beqz	$a0, .LBB2_83
	b	.LBB2_86
.LBB2_75:
.Ltmp89:
	move	$fp, $a0
	ld.d	$a0, $sp, 536
	beqz	$a0, .LBB2_84
	b	.LBB2_87
.LBB2_76:
.Ltmp98:
	b	.LBB2_80
.LBB2_77:
.Ltmp95:
	move	$fp, $a0
	b	.LBB2_81
.LBB2_78:
.Ltmp101:
	b	.LBB2_80
.LBB2_79:
.Ltmp108:
.LBB2_80:
	move	$fp, $a0
	addi.d	$a0, $sp, 88
	pcaddu18i	$ra, %call36(_ZNSt7__cxx1118basic_stringstreamIcSt11char_traitsIcESaIcEED1Ev)
	jirl	$ra, $ra, 0
.LBB2_81:
	ld.d	$a0, $sp, 488
	bnez	$a0, .LBB2_85
# %bb.82:                               # %_ZNSt6vectorIiSaIiEED2Ev.exit70
	ld.d	$a0, $sp, 512
	bnez	$a0, .LBB2_86
.LBB2_83:                               # %_ZNSt6vectorIPN2PP3CmdESaIS2_EED2Ev.exit72
	ld.d	$a0, $sp, 536
	bnez	$a0, .LBB2_87
.LBB2_84:                               # %_ZNSt6vectorIiSaIiEED2Ev.exit74
	move	$a0, $fp
	pcaddu18i	$ra, %call36(_Unwind_Resume)
	jirl	$ra, $ra, 0
.LBB2_85:
	ld.d	$a1, $sp, 504
	sub.d	$a1, $a1, $a0
	pcaddu18i	$ra, %call36(_ZdlPvm)
	jirl	$ra, $ra, 0
	ld.d	$a0, $sp, 512
	beqz	$a0, .LBB2_83
.LBB2_86:
	ld.d	$a1, $sp, 528
	sub.d	$a1, $a1, $a0
	pcaddu18i	$ra, %call36(_ZdlPvm)
	jirl	$ra, $ra, 0
	ld.d	$a0, $sp, 536
	beqz	$a0, .LBB2_84
.LBB2_87:
	ld.d	$a1, $sp, 552
	sub.d	$a1, $a1, $a0
	pcaddu18i	$ra, %call36(_ZdlPvm)
	jirl	$ra, $ra, 0
	move	$a0, $fp
	pcaddu18i	$ra, %call36(_Unwind_Resume)
	jirl	$ra, $ra, 0
.Lfunc_end2:
	.size	_ZN2PP11PowerParser7get_intIlEEvRNSt7__cxx1112basic_stringIcSt11char_traitsIcESaIcEEEPT_RKSt6vectorIiSaIiEEb, .Lfunc_end2-_ZN2PP11PowerParser7get_intIlEEvRNSt7__cxx1112basic_stringIcSt11char_traitsIcESaIcEEEPT_RKSt6vectorIiSaIiEEb
	.cfi_endproc
	.section	.gcc_except_table._ZN2PP11PowerParser7get_intIlEEvRNSt7__cxx1112basic_stringIcSt11char_traitsIcESaIcEEEPT_RKSt6vectorIiSaIiEEb,"aG",@progbits,_ZN2PP11PowerParser7get_intIlEEvRNSt7__cxx1112basic_stringIcSt11char_traitsIcESaIcEEEPT_RKSt6vectorIiSaIiEEb,comdat
	.p2align	2, 0x0
GCC_except_table2:
.Lexception2:
	.byte	255                             # @LPStart Encoding = omit
	.byte	255                             # @TType Encoding = omit
	.byte	1                               # Call site Encoding = uleb128
	.uleb128 .Lcst_end2-.Lcst_begin2
.Lcst_begin2:
	.uleb128 .Lfunc_begin2-.Lfunc_begin2    # >> Call Site 1 <<
	.uleb128 .Ltmp87-.Lfunc_begin2          #   Call between .Lfunc_begin2 and .Ltmp87
	.byte	0                               #     has no landing pad
	.byte	0                               #   On action: cleanup
	.uleb128 .Ltmp87-.Lfunc_begin2          # >> Call Site 2 <<
	.uleb128 .Ltmp88-.Ltmp87                #   Call between .Ltmp87 and .Ltmp88
	.uleb128 .Ltmp89-.Lfunc_begin2          #     jumps to .Ltmp89
	.byte	0                               #   On action: cleanup
	.uleb128 .Ltmp88-.Lfunc_begin2          # >> Call Site 3 <<
	.uleb128 .Ltmp90-.Ltmp88                #   Call between .Ltmp88 and .Ltmp90
	.byte	0                               #     has no landing pad
	.byte	0                               #   On action: cleanup
	.uleb128 .Ltmp90-.Lfunc_begin2          # >> Call Site 4 <<
	.uleb128 .Ltmp91-.Ltmp90                #   Call between .Ltmp90 and .Ltmp91
	.uleb128 .Ltmp92-.Lfunc_begin2          #     jumps to .Ltmp92
	.byte	0                               #   On action: cleanup
	.uleb128 .Ltmp91-.Lfunc_begin2          # >> Call Site 5 <<
	.uleb128 .Ltmp93-.Ltmp91                #   Call between .Ltmp91 and .Ltmp93
	.byte	0                               #     has no landing pad
	.byte	0                               #   On action: cleanup
	.uleb128 .Ltmp93-.Lfunc_begin2          # >> Call Site 6 <<
	.uleb128 .Ltmp94-.Ltmp93                #   Call between .Ltmp93 and .Ltmp94
	.uleb128 .Ltmp95-.Lfunc_begin2          #     jumps to .Ltmp95
	.byte	0                               #   On action: cleanup
	.uleb128 .Ltmp94-.Lfunc_begin2          # >> Call Site 7 <<
	.uleb128 .Ltmp99-.Ltmp94                #   Call between .Ltmp94 and .Ltmp99
	.byte	0                               #     has no landing pad
	.byte	0                               #   On action: cleanup
	.uleb128 .Ltmp99-.Lfunc_begin2          # >> Call Site 8 <<
	.uleb128 .Ltmp100-.Ltmp99               #   Call between .Ltmp99 and .Ltmp100
	.uleb128 .Ltmp101-.Lfunc_begin2         #     jumps to .Ltmp101
	.byte	0                               #   On action: cleanup
	.uleb128 .Ltmp100-.Lfunc_begin2         # >> Call Site 9 <<
	.uleb128 .Ltmp102-.Ltmp100              #   Call between .Ltmp100 and .Ltmp102
	.byte	0                               #     has no landing pad
	.byte	0                               #   On action: cleanup
	.uleb128 .Ltmp102-.Lfunc_begin2         # >> Call Site 10 <<
	.uleb128 .Ltmp107-.Ltmp102              #   Call between .Ltmp102 and .Ltmp107
	.uleb128 .Ltmp108-.Lfunc_begin2         #     jumps to .Ltmp108
	.byte	0                               #   On action: cleanup
	.uleb128 .Ltmp96-.Lfunc_begin2          # >> Call Site 11 <<
	.uleb128 .Ltmp97-.Ltmp96                #   Call between .Ltmp96 and .Ltmp97
	.uleb128 .Ltmp98-.Lfunc_begin2          #     jumps to .Ltmp98
	.byte	0                               #   On action: cleanup
	.uleb128 .Ltmp97-.Lfunc_begin2          # >> Call Site 12 <<
	.uleb128 .Lfunc_end2-.Ltmp97            #   Call between .Ltmp97 and .Lfunc_end2
	.byte	0                               #     has no landing pad
	.byte	0                               #   On action: cleanup
.Lcst_end2:
	.p2align	2, 0x0
                                        # -- End function
	.section	.text._ZN2PP11PowerParser7get_intIiEEvPKcPT_RKSt6vectorIiSaIiEEb,"axG",@progbits,_ZN2PP11PowerParser7get_intIiEEvPKcPT_RKSt6vectorIiSaIiEEb,comdat
	.weak	_ZN2PP11PowerParser7get_intIiEEvPKcPT_RKSt6vectorIiSaIiEEb # -- Begin function _ZN2PP11PowerParser7get_intIiEEvPKcPT_RKSt6vectorIiSaIiEEb
	.p2align	5
	.type	_ZN2PP11PowerParser7get_intIiEEvPKcPT_RKSt6vectorIiSaIiEEb,@function
_ZN2PP11PowerParser7get_intIiEEvPKcPT_RKSt6vectorIiSaIiEEb: # @_ZN2PP11PowerParser7get_intIiEEvPKcPT_RKSt6vectorIiSaIiEEb
.Lfunc_begin3:
	.cfi_startproc
	.cfi_personality 155, DW.ref.__gxx_personality_v0
	.cfi_lsda 27, .Lexception3
# %bb.0:
	addi.d	$sp, $sp, -112
	.cfi_def_cfa_offset 112
	st.d	$ra, $sp, 104                   # 8-byte Folded Spill
	st.d	$fp, $sp, 96                    # 8-byte Folded Spill
	st.d	$s0, $sp, 88                    # 8-byte Folded Spill
	st.d	$s1, $sp, 80                    # 8-byte Folded Spill
	st.d	$s2, $sp, 72                    # 8-byte Folded Spill
	st.d	$s3, $sp, 64                    # 8-byte Folded Spill
	st.d	$s4, $sp, 56                    # 8-byte Folded Spill
	st.d	$s5, $sp, 48                    # 8-byte Folded Spill
	.cfi_offset 1, -8
	.cfi_offset 22, -16
	.cfi_offset 23, -24
	.cfi_offset 24, -32
	.cfi_offset 25, -40
	.cfi_offset 26, -48
	.cfi_offset 27, -56
	.cfi_offset 28, -64
	addi.d	$s5, $sp, 24
	st.d	$s5, $sp, 8
	beqz	$a1, .LBB3_11
# %bb.1:
	move	$fp, $a4
	move	$s0, $a3
	move	$s1, $a2
	move	$s3, $a1
	move	$s2, $a0
	move	$a0, $a1
	pcaddu18i	$ra, %call36(strlen)
	jirl	$ra, $ra, 0
	move	$s4, $a0
	ori	$a1, $zero, 16
	st.d	$a0, $sp, 40
	move	$a0, $s5
	bltu	$s4, $a1, .LBB3_3
# %bb.2:                                # %.noexc.i
	addi.d	$a0, $sp, 8
	addi.d	$a1, $sp, 40
	move	$a2, $zero
	pcaddu18i	$ra, %call36(_ZNSt7__cxx1112basic_stringIcSt11char_traitsIcESaIcEE9_M_createERmm)
	jirl	$ra, $ra, 0
	ld.d	$a1, $sp, 40
	st.d	$a0, $sp, 8
	st.d	$a1, $sp, 24
.LBB3_3:                                # %._crit_edge.i.i
	beqz	$s4, .LBB3_7
# %bb.4:                                # %._crit_edge.i.i
	ori	$a1, $zero, 1
	bne	$s4, $a1, .LBB3_6
# %bb.5:
	ld.b	$a1, $s3, 0
	st.b	$a1, $a0, 0
	b	.LBB3_7
.LBB3_6:
	move	$a1, $s3
	move	$a2, $s4
	pcaddu18i	$ra, %call36(memcpy)
	jirl	$ra, $ra, 0
.LBB3_7:
	ld.d	$a0, $sp, 40
	ld.d	$a1, $sp, 8
	st.d	$a0, $sp, 16
	stx.b	$zero, $a1, $a0
.Ltmp109:
	addi.d	$a1, $sp, 8
	move	$a0, $s2
	move	$a2, $s1
	move	$a3, $s0
	move	$a4, $fp
	pcaddu18i	$ra, %call36(_ZN2PP11PowerParser7get_intIiEEvRNSt7__cxx1112basic_stringIcSt11char_traitsIcESaIcEEEPT_RKSt6vectorIiSaIiEEb)
	jirl	$ra, $ra, 0
.Ltmp110:
# %bb.8:
	ld.d	$a0, $sp, 8
	beq	$a0, $s5, .LBB3_10
# %bb.9:                                # %_ZNKSt7__cxx1112basic_stringIcSt11char_traitsIcESaIcEE11_M_is_localEv.exit.i.i
	ld.d	$a1, $sp, 24
	addi.d	$a1, $a1, 1
	pcaddu18i	$ra, %call36(_ZdlPvm)
	jirl	$ra, $ra, 0
.LBB3_10:                               # %_ZNSt7__cxx1112basic_stringIcSt11char_traitsIcESaIcEED2Ev.exit
	ld.d	$s5, $sp, 48                    # 8-byte Folded Reload
	ld.d	$s4, $sp, 56                    # 8-byte Folded Reload
	ld.d	$s3, $sp, 64                    # 8-byte Folded Reload
	ld.d	$s2, $sp, 72                    # 8-byte Folded Reload
	ld.d	$s1, $sp, 80                    # 8-byte Folded Reload
	ld.d	$s0, $sp, 88                    # 8-byte Folded Reload
	ld.d	$fp, $sp, 96                    # 8-byte Folded Reload
	ld.d	$ra, $sp, 104                   # 8-byte Folded Reload
	addi.d	$sp, $sp, 112
	ret
.LBB3_11:                               # %.noexc
	pcalau12i	$a0, %pc_hi20(.L.str.238)
	addi.d	$a0, $a0, %pc_lo12(.L.str.238)
	pcaddu18i	$ra, %call36(_ZSt19__throw_logic_errorPKc)
	jirl	$ra, $ra, 0
.LBB3_12:
.Ltmp111:
	ld.d	$a2, $sp, 8
	move	$fp, $a0
	beq	$a2, $s5, .LBB3_14
# %bb.13:                               # %_ZNKSt7__cxx1112basic_stringIcSt11char_traitsIcESaIcEE11_M_is_localEv.exit.i.i9
	ld.d	$a0, $sp, 24
	addi.d	$a1, $a0, 1
	move	$a0, $a2
	pcaddu18i	$ra, %call36(_ZdlPvm)
	jirl	$ra, $ra, 0
.LBB3_14:                               # %_ZNSt7__cxx1112basic_stringIcSt11char_traitsIcESaIcEED2Ev.exit11
	move	$a0, $fp
	pcaddu18i	$ra, %call36(_Unwind_Resume)
	jirl	$ra, $ra, 0
.Lfunc_end3:
	.size	_ZN2PP11PowerParser7get_intIiEEvPKcPT_RKSt6vectorIiSaIiEEb, .Lfunc_end3-_ZN2PP11PowerParser7get_intIiEEvPKcPT_RKSt6vectorIiSaIiEEb
	.cfi_endproc
	.section	.gcc_except_table._ZN2PP11PowerParser7get_intIiEEvPKcPT_RKSt6vectorIiSaIiEEb,"aG",@progbits,_ZN2PP11PowerParser7get_intIiEEvPKcPT_RKSt6vectorIiSaIiEEb,comdat
	.p2align	2, 0x0
GCC_except_table3:
.Lexception3:
	.byte	255                             # @LPStart Encoding = omit
	.byte	255                             # @TType Encoding = omit
	.byte	1                               # Call site Encoding = uleb128
	.uleb128 .Lcst_end3-.Lcst_begin3
.Lcst_begin3:
	.uleb128 .Lfunc_begin3-.Lfunc_begin3    # >> Call Site 1 <<
	.uleb128 .Ltmp109-.Lfunc_begin3         #   Call between .Lfunc_begin3 and .Ltmp109
	.byte	0                               #     has no landing pad
	.byte	0                               #   On action: cleanup
	.uleb128 .Ltmp109-.Lfunc_begin3         # >> Call Site 2 <<
	.uleb128 .Ltmp110-.Ltmp109              #   Call between .Ltmp109 and .Ltmp110
	.uleb128 .Ltmp111-.Lfunc_begin3         #     jumps to .Ltmp111
	.byte	0                               #   On action: cleanup
	.uleb128 .Ltmp110-.Lfunc_begin3         # >> Call Site 3 <<
	.uleb128 .Lfunc_end3-.Ltmp110           #   Call between .Ltmp110 and .Lfunc_end3
	.byte	0                               #     has no landing pad
	.byte	0                               #   On action: cleanup
.Lcst_end3:
	.p2align	2, 0x0
                                        # -- End function
	.section	.text._ZNSt7__cxx1112basic_stringIcSt11char_traitsIcESaIcEEC2IS3_EEPKcRKS3_,"axG",@progbits,_ZNSt7__cxx1112basic_stringIcSt11char_traitsIcESaIcEEC2IS3_EEPKcRKS3_,comdat
	.weak	_ZNSt7__cxx1112basic_stringIcSt11char_traitsIcESaIcEEC2IS3_EEPKcRKS3_ # -- Begin function _ZNSt7__cxx1112basic_stringIcSt11char_traitsIcESaIcEEC2IS3_EEPKcRKS3_
	.p2align	5
	.type	_ZNSt7__cxx1112basic_stringIcSt11char_traitsIcESaIcEEC2IS3_EEPKcRKS3_,@function
_ZNSt7__cxx1112basic_stringIcSt11char_traitsIcESaIcEEC2IS3_EEPKcRKS3_: # @_ZNSt7__cxx1112basic_stringIcSt11char_traitsIcESaIcEEC2IS3_EEPKcRKS3_
	.cfi_startproc
# %bb.0:
	addi.d	$sp, $sp, -48
	.cfi_def_cfa_offset 48
	st.d	$ra, $sp, 40                    # 8-byte Folded Spill
	st.d	$fp, $sp, 32                    # 8-byte Folded Spill
	st.d	$s0, $sp, 24                    # 8-byte Folded Spill
	st.d	$s1, $sp, 16                    # 8-byte Folded Spill
	st.d	$s2, $sp, 8                     # 8-byte Folded Spill
	.cfi_offset 1, -8
	.cfi_offset 22, -16
	.cfi_offset 23, -24
	.cfi_offset 24, -32
	.cfi_offset 25, -40
	addi.d	$s2, $a0, 16
	st.d	$s2, $a0, 0
	beqz	$a1, .LBB4_8
# %bb.1:
	move	$s0, $a1
	move	$fp, $a0
	move	$a0, $a1
	pcaddu18i	$ra, %call36(strlen)
	jirl	$ra, $ra, 0
	move	$s1, $a0
	ori	$a0, $zero, 16
	st.d	$s1, $sp, 0
	bltu	$s1, $a0, .LBB4_3
# %bb.2:                                # %.noexc
	addi.d	$a1, $sp, 0
	move	$a0, $fp
	move	$a2, $zero
	pcaddu18i	$ra, %call36(_ZNSt7__cxx1112basic_stringIcSt11char_traitsIcESaIcEE9_M_createERmm)
	jirl	$ra, $ra, 0
	ld.d	$a1, $sp, 0
	move	$s2, $a0
	st.d	$a0, $fp, 0
	st.d	$a1, $fp, 16
.LBB4_3:                                # %._crit_edge.i
	beqz	$s1, .LBB4_7
# %bb.4:                                # %._crit_edge.i
	ori	$a0, $zero, 1
	bne	$s1, $a0, .LBB4_6
# %bb.5:
	ld.b	$a0, $s0, 0
	st.b	$a0, $s2, 0
	b	.LBB4_7
.LBB4_6:
	move	$a0, $s2
	move	$a1, $s0
	move	$a2, $s1
	pcaddu18i	$ra, %call36(memcpy)
	jirl	$ra, $ra, 0
.LBB4_7:
	ld.d	$a0, $sp, 0
	ld.d	$a1, $fp, 0
	st.d	$a0, $fp, 8
	stx.b	$zero, $a1, $a0
	ld.d	$s2, $sp, 8                     # 8-byte Folded Reload
	ld.d	$s1, $sp, 16                    # 8-byte Folded Reload
	ld.d	$s0, $sp, 24                    # 8-byte Folded Reload
	ld.d	$fp, $sp, 32                    # 8-byte Folded Reload
	ld.d	$ra, $sp, 40                    # 8-byte Folded Reload
	addi.d	$sp, $sp, 48
	ret
.LBB4_8:
	pcalau12i	$a0, %pc_hi20(.L.str.238)
	addi.d	$a0, $a0, %pc_lo12(.L.str.238)
	pcaddu18i	$ra, %call36(_ZSt19__throw_logic_errorPKc)
	jirl	$ra, $ra, 0
.Lfunc_end4:
	.size	_ZNSt7__cxx1112basic_stringIcSt11char_traitsIcESaIcEEC2IS3_EEPKcRKS3_, .Lfunc_end4-_ZNSt7__cxx1112basic_stringIcSt11char_traitsIcESaIcEEC2IS3_EEPKcRKS3_
	.cfi_endproc
                                        # -- End function
	.section	.text._ZN2PP11PowerParser7get_intIlEEvPKcPT_RKSt6vectorIiSaIiEEb,"axG",@progbits,_ZN2PP11PowerParser7get_intIlEEvPKcPT_RKSt6vectorIiSaIiEEb,comdat
	.weak	_ZN2PP11PowerParser7get_intIlEEvPKcPT_RKSt6vectorIiSaIiEEb # -- Begin function _ZN2PP11PowerParser7get_intIlEEvPKcPT_RKSt6vectorIiSaIiEEb
	.p2align	5
	.type	_ZN2PP11PowerParser7get_intIlEEvPKcPT_RKSt6vectorIiSaIiEEb,@function
_ZN2PP11PowerParser7get_intIlEEvPKcPT_RKSt6vectorIiSaIiEEb: # @_ZN2PP11PowerParser7get_intIlEEvPKcPT_RKSt6vectorIiSaIiEEb
.Lfunc_begin4:
	.cfi_startproc
	.cfi_personality 155, DW.ref.__gxx_personality_v0
	.cfi_lsda 27, .Lexception4
# %bb.0:
	addi.d	$sp, $sp, -112
	.cfi_def_cfa_offset 112
	st.d	$ra, $sp, 104                   # 8-byte Folded Spill
	st.d	$fp, $sp, 96                    # 8-byte Folded Spill
	st.d	$s0, $sp, 88                    # 8-byte Folded Spill
	st.d	$s1, $sp, 80                    # 8-byte Folded Spill
	st.d	$s2, $sp, 72                    # 8-byte Folded Spill
	st.d	$s3, $sp, 64                    # 8-byte Folded Spill
	st.d	$s4, $sp, 56                    # 8-byte Folded Spill
	st.d	$s5, $sp, 48                    # 8-byte Folded Spill
	.cfi_offset 1, -8
	.cfi_offset 22, -16
	.cfi_offset 23, -24
	.cfi_offset 24, -32
	.cfi_offset 25, -40
	.cfi_offset 26, -48
	.cfi_offset 27, -56
	.cfi_offset 28, -64
	addi.d	$s5, $sp, 24
	st.d	$s5, $sp, 8
	beqz	$a1, .LBB5_11
# %bb.1:
	move	$fp, $a4
	move	$s0, $a3
	move	$s1, $a2
	move	$s3, $a1
	move	$s2, $a0
	move	$a0, $a1
	pcaddu18i	$ra, %call36(strlen)
	jirl	$ra, $ra, 0
	move	$s4, $a0
	ori	$a1, $zero, 16
	st.d	$a0, $sp, 40
	move	$a0, $s5
	bltu	$s4, $a1, .LBB5_3
# %bb.2:                                # %.noexc.i
	addi.d	$a0, $sp, 8
	addi.d	$a1, $sp, 40
	move	$a2, $zero
	pcaddu18i	$ra, %call36(_ZNSt7__cxx1112basic_stringIcSt11char_traitsIcESaIcEE9_M_createERmm)
	jirl	$ra, $ra, 0
	ld.d	$a1, $sp, 40
	st.d	$a0, $sp, 8
	st.d	$a1, $sp, 24
.LBB5_3:                                # %._crit_edge.i.i
	beqz	$s4, .LBB5_7
# %bb.4:                                # %._crit_edge.i.i
	ori	$a1, $zero, 1
	bne	$s4, $a1, .LBB5_6
# %bb.5:
	ld.b	$a1, $s3, 0
	st.b	$a1, $a0, 0
	b	.LBB5_7
.LBB5_6:
	move	$a1, $s3
	move	$a2, $s4
	pcaddu18i	$ra, %call36(memcpy)
	jirl	$ra, $ra, 0
.LBB5_7:
	ld.d	$a0, $sp, 40
	ld.d	$a1, $sp, 8
	st.d	$a0, $sp, 16
	stx.b	$zero, $a1, $a0
.Ltmp112:
	addi.d	$a1, $sp, 8
	move	$a0, $s2
	move	$a2, $s1
	move	$a3, $s0
	move	$a4, $fp
	pcaddu18i	$ra, %call36(_ZN2PP11PowerParser7get_intIlEEvRNSt7__cxx1112basic_stringIcSt11char_traitsIcESaIcEEEPT_RKSt6vectorIiSaIiEEb)
	jirl	$ra, $ra, 0
.Ltmp113:
# %bb.8:
	ld.d	$a0, $sp, 8
	beq	$a0, $s5, .LBB5_10
# %bb.9:                                # %_ZNKSt7__cxx1112basic_stringIcSt11char_traitsIcESaIcEE11_M_is_localEv.exit.i.i
	ld.d	$a1, $sp, 24
	addi.d	$a1, $a1, 1
	pcaddu18i	$ra, %call36(_ZdlPvm)
	jirl	$ra, $ra, 0
.LBB5_10:                               # %_ZNSt7__cxx1112basic_stringIcSt11char_traitsIcESaIcEED2Ev.exit
	ld.d	$s5, $sp, 48                    # 8-byte Folded Reload
	ld.d	$s4, $sp, 56                    # 8-byte Folded Reload
	ld.d	$s3, $sp, 64                    # 8-byte Folded Reload
	ld.d	$s2, $sp, 72                    # 8-byte Folded Reload
	ld.d	$s1, $sp, 80                    # 8-byte Folded Reload
	ld.d	$s0, $sp, 88                    # 8-byte Folded Reload
	ld.d	$fp, $sp, 96                    # 8-byte Folded Reload
	ld.d	$ra, $sp, 104                   # 8-byte Folded Reload
	addi.d	$sp, $sp, 112
	ret
.LBB5_11:                               # %.noexc
	pcalau12i	$a0, %pc_hi20(.L.str.238)
	addi.d	$a0, $a0, %pc_lo12(.L.str.238)
	pcaddu18i	$ra, %call36(_ZSt19__throw_logic_errorPKc)
	jirl	$ra, $ra, 0
.LBB5_12:
.Ltmp114:
	ld.d	$a2, $sp, 8
	move	$fp, $a0
	beq	$a2, $s5, .LBB5_14
# %bb.13:                               # %_ZNKSt7__cxx1112basic_stringIcSt11char_traitsIcESaIcEE11_M_is_localEv.exit.i.i9
	ld.d	$a0, $sp, 24
	addi.d	$a1, $a0, 1
	move	$a0, $a2
	pcaddu18i	$ra, %call36(_ZdlPvm)
	jirl	$ra, $ra, 0
.LBB5_14:                               # %_ZNSt7__cxx1112basic_stringIcSt11char_traitsIcESaIcEED2Ev.exit11
	move	$a0, $fp
	pcaddu18i	$ra, %call36(_Unwind_Resume)
	jirl	$ra, $ra, 0
.Lfunc_end5:
	.size	_ZN2PP11PowerParser7get_intIlEEvPKcPT_RKSt6vectorIiSaIiEEb, .Lfunc_end5-_ZN2PP11PowerParser7get_intIlEEvPKcPT_RKSt6vectorIiSaIiEEb
	.cfi_endproc
	.section	.gcc_except_table._ZN2PP11PowerParser7get_intIlEEvPKcPT_RKSt6vectorIiSaIiEEb,"aG",@progbits,_ZN2PP11PowerParser7get_intIlEEvPKcPT_RKSt6vectorIiSaIiEEb,comdat
	.p2align	2, 0x0
GCC_except_table5:
.Lexception4:
	.byte	255                             # @LPStart Encoding = omit
	.byte	255                             # @TType Encoding = omit
	.byte	1                               # Call site Encoding = uleb128
	.uleb128 .Lcst_end4-.Lcst_begin4
.Lcst_begin4:
	.uleb128 .Lfunc_begin4-.Lfunc_begin4    # >> Call Site 1 <<
	.uleb128 .Ltmp112-.Lfunc_begin4         #   Call between .Lfunc_begin4 and .Ltmp112
	.byte	0                               #     has no landing pad
	.byte	0                               #   On action: cleanup
	.uleb128 .Ltmp112-.Lfunc_begin4         # >> Call Site 2 <<
	.uleb128 .Ltmp113-.Ltmp112              #   Call between .Ltmp112 and .Ltmp113
	.uleb128 .Ltmp114-.Lfunc_begin4         #     jumps to .Ltmp114
	.byte	0                               #   On action: cleanup
	.uleb128 .Ltmp113-.Lfunc_begin4         # >> Call Site 3 <<
	.uleb128 .Lfunc_end5-.Ltmp113           #   Call between .Ltmp113 and .Lfunc_end5
	.byte	0                               #     has no landing pad
	.byte	0                               #   On action: cleanup
.Lcst_end4:
	.p2align	2, 0x0
                                        # -- End function
	.text
	.globl	_ZN2PP11PowerParserC2Ev         # -- Begin function _ZN2PP11PowerParserC2Ev
	.p2align	5
	.type	_ZN2PP11PowerParserC2Ev,@function
_ZN2PP11PowerParserC2Ev:                # @_ZN2PP11PowerParserC2Ev
.Lfunc_begin5:
	.cfi_startproc
	.cfi_personality 155, DW.ref.__gxx_personality_v0
	.cfi_lsda 27, .Lexception5
# %bb.0:
	addi.d	$sp, $sp, -160
	.cfi_def_cfa_offset 160
	st.d	$ra, $sp, 152                   # 8-byte Folded Spill
	st.d	$fp, $sp, 144                   # 8-byte Folded Spill
	st.d	$s0, $sp, 136                   # 8-byte Folded Spill
	st.d	$s1, $sp, 128                   # 8-byte Folded Spill
	st.d	$s2, $sp, 120                   # 8-byte Folded Spill
	st.d	$s3, $sp, 112                   # 8-byte Folded Spill
	st.d	$s4, $sp, 104                   # 8-byte Folded Spill
	st.d	$s5, $sp, 96                    # 8-byte Folded Spill
	st.d	$s6, $sp, 88                    # 8-byte Folded Spill
	st.d	$s7, $sp, 80                    # 8-byte Folded Spill
	st.d	$s8, $sp, 72                    # 8-byte Folded Spill
	.cfi_offset 1, -8
	.cfi_offset 22, -16
	.cfi_offset 23, -24
	.cfi_offset 24, -32
	.cfi_offset 25, -40
	.cfi_offset 26, -48
	.cfi_offset 27, -56
	.cfi_offset 28, -64
	.cfi_offset 29, -72
	.cfi_offset 30, -80
	.cfi_offset 31, -88
	move	$fp, $a0
	pcaddu18i	$ra, %call36(_ZNSt14basic_ofstreamIcSt11char_traitsIcEEC1Ev)
	jirl	$ra, $ra, 0
	addi.d	$a0, $fp, 544
	st.d	$a0, $sp, 64                    # 8-byte Folded Spill
	st.d	$a0, $fp, 528
	st.d	$zero, $fp, 536
	st.b	$zero, $fp, 544
	addi.d	$a0, $fp, 576
	st.d	$a0, $sp, 56                    # 8-byte Folded Spill
	st.d	$a0, $fp, 560
	st.d	$zero, $fp, 568
	st.b	$zero, $fp, 576
	addi.d	$s0, $fp, 592
	ori	$a2, $zero, 80
	move	$a0, $s0
	move	$a1, $zero
	pcaddu18i	$ra, %call36(memset)
	jirl	$ra, $ra, 0
.Ltmp115:
	move	$a0, $s0
	move	$a1, $zero
	pcaddu18i	$ra, %call36(_ZNSt11_Deque_baseINSt7__cxx1112basic_stringIcSt11char_traitsIcESaIcEEESaIS5_EE17_M_initialize_mapEm)
	jirl	$ra, $ra, 0
.Ltmp116:
# %bb.1:                                # %_ZNSt5dequeINSt7__cxx1112basic_stringIcSt11char_traitsIcESaIcEEESaIS5_EEC2Ev.exit
	addi.d	$a0, $fp, 688
	st.w	$zero, $fp, 688
	st.d	$zero, $fp, 696
	st.d	$a0, $fp, 704
	st.d	$a0, $fp, 712
	st.d	$zero, $fp, 720
	addi.d	$a0, $fp, 736
	st.w	$zero, $fp, 736
	st.d	$zero, $fp, 744
	st.d	$a0, $fp, 752
	st.d	$a0, $fp, 760
	st.d	$zero, $fp, 768
	addi.d	$a0, $fp, 784
	st.w	$zero, $fp, 784
	st.d	$zero, $fp, 792
	st.d	$a0, $fp, 800
	st.d	$a0, $fp, 808
	addi.d	$a0, $fp, 816
	addi.d	$s1, $fp, 824
	ori	$a2, $zero, 88
	move	$a1, $zero
	pcaddu18i	$ra, %call36(memset)
	jirl	$ra, $ra, 0
.Ltmp118:
	move	$a0, $s1
	move	$a1, $zero
	st.d	$s0, $sp, 48                    # 8-byte Folded Spill
	pcaddu18i	$ra, %call36(_ZNSt11_Deque_baseIN2PP3CmdESaIS1_EE17_M_initialize_mapEm)
	jirl	$ra, $ra, 0
.Ltmp119:
# %bb.2:                                # %_ZNSt5dequeIN2PP3CmdESaIS1_EEC2Ev.exit
	addi.d	$s2, $fp, 904
	ori	$a2, $zero, 80
	move	$a0, $s2
	move	$a1, $zero
	pcaddu18i	$ra, %call36(memset)
	jirl	$ra, $ra, 0
.Ltmp121:
	move	$a0, $s2
	move	$a1, $zero
	st.d	$s1, $sp, 40                    # 8-byte Folded Spill
	pcaddu18i	$ra, %call36(_ZNSt11_Deque_baseIN2PP3CmdESaIS1_EE17_M_initialize_mapEm)
	jirl	$ra, $ra, 0
.Ltmp122:
# %bb.3:                                # %_ZNSt5dequeIN2PP3CmdESaIS1_EEC2Ev.exit31
	addi.d	$s3, $fp, 992
	ori	$a2, $zero, 80
	move	$a0, $s3
	move	$a1, $zero
	pcaddu18i	$ra, %call36(memset)
	jirl	$ra, $ra, 0
.Ltmp124:
	move	$a0, $s3
	move	$a1, $zero
	pcaddu18i	$ra, %call36(_ZNSt11_Deque_baseINSt7__cxx1112basic_stringIcSt11char_traitsIcESaIcEEESaIS5_EE17_M_initialize_mapEm)
	jirl	$ra, $ra, 0
.Ltmp125:
# %bb.4:                                # %_ZNSt5dequeINSt7__cxx1112basic_stringIcSt11char_traitsIcESaIcEEESaIS5_EEC2Ev.exit32
	addi.d	$s4, $fp, 1080
.Ltmp127:
	move	$a0, $s4
	pcaddu18i	$ra, %call36(_ZNSt7__cxx1118basic_stringstreamIcSt11char_traitsIcESaIcEEC1Ev)
	jirl	$ra, $ra, 0
.Ltmp128:
# %bb.5:
	addi.d	$s5, $fp, 1472
.Ltmp130:
	move	$a0, $s5
	st.d	$s4, $sp, 24                    # 8-byte Folded Spill
	pcaddu18i	$ra, %call36(_ZNSt7__cxx1118basic_stringstreamIcSt11char_traitsIcESaIcEEC1Ev)
	jirl	$ra, $ra, 0
.Ltmp131:
# %bb.6:
	st.d	$s5, $sp, 16                    # 8-byte Folded Spill
	addi.d	$s5, $fp, 1864
.Ltmp133:
	move	$a0, $s5
	pcaddu18i	$ra, %call36(_ZNSt7__cxx1118basic_stringstreamIcSt11char_traitsIcESaIcEEC1Ev)
	jirl	$ra, $ra, 0
.Ltmp134:
# %bb.7:
	st.d	$s5, $sp, 8                     # 8-byte Folded Spill
	ori	$a0, $zero, 2280
	add.d	$a1, $fp, $a0
	st.d	$a1, $sp, 32                    # 8-byte Folded Spill
	stptr.d	$a1, $fp, 2264
	stptr.d	$zero, $fp, 2272
	stx.b	$zero, $fp, $a0
	addi.d	$s5, $fp, 2047
	addi.d	$s7, $s5, 249
	ori	$a2, $zero, 80
	move	$a0, $s7
	move	$a1, $zero
	pcaddu18i	$ra, %call36(memset)
	jirl	$ra, $ra, 0
.Ltmp136:
	move	$a0, $s7
	move	$a1, $zero
	pcaddu18i	$ra, %call36(_ZNSt11_Deque_baseIN2PP8WhenthenESaIS1_EE17_M_initialize_mapEm)
	jirl	$ra, $ra, 0
.Ltmp137:
# %bb.8:                                # %_ZNSt5dequeIN2PP8WhenthenESaIS1_EEC2Ev.exit
	addi.d	$s8, $s5, 329
	ori	$a2, $zero, 80
	move	$a0, $s8
	move	$a1, $zero
	pcaddu18i	$ra, %call36(memset)
	jirl	$ra, $ra, 0
.Ltmp139:
	move	$a0, $s8
	move	$a1, $zero
	pcaddu18i	$ra, %call36(_ZNSt11_Deque_baseIN2PP12RestartblockESaIS1_EE17_M_initialize_mapEm)
	jirl	$ra, $ra, 0
.Ltmp140:
# %bb.9:                                # %_ZNSt5dequeIN2PP12RestartblockESaIS1_EEC2Ev.exit
	addi.d	$s1, $s5, 417
	ori	$a2, $zero, 80
	move	$a0, $s1
	move	$a1, $zero
	pcaddu18i	$ra, %call36(memset)
	jirl	$ra, $ra, 0
.Ltmp142:
	move	$a0, $s1
	move	$a1, $zero
	pcaddu18i	$ra, %call36(_ZNSt11_Deque_baseINSt7__cxx1112basic_stringIcSt11char_traitsIcESaIcEEESaIS5_EE17_M_initialize_mapEm)
	jirl	$ra, $ra, 0
.Ltmp143:
# %bb.10:                               # %_ZNSt5dequeINSt7__cxx1112basic_stringIcSt11char_traitsIcESaIcEEESaIS5_EEC2Ev.exit33
	addi.d	$s4, $s5, 497
	ori	$a2, $zero, 80
	move	$a0, $s4
	move	$a1, $zero
	pcaddu18i	$ra, %call36(memset)
	jirl	$ra, $ra, 0
.Ltmp145:
	move	$a0, $s4
	move	$a1, $zero
	pcaddu18i	$ra, %call36(_ZNSt11_Deque_baseIbSaIbEE17_M_initialize_mapEm)
	jirl	$ra, $ra, 0
.Ltmp146:
# %bb.11:                               # %_ZNSt5dequeIbSaIbEEC2Ev.exit
	addi.d	$s0, $s5, 585
	ori	$a2, $zero, 80
	move	$a0, $s0
	move	$a1, $zero
	pcaddu18i	$ra, %call36(memset)
	jirl	$ra, $ra, 0
.Ltmp148:
	move	$a0, $s0
	move	$a1, $zero
	pcaddu18i	$ra, %call36(_ZNSt11_Deque_baseIbSaIbEE17_M_initialize_mapEm)
	jirl	$ra, $ra, 0
.Ltmp149:
# %bb.12:                               # %_ZNSt5dequeIbSaIbEEC2Ev.exit34
	addi.d	$s5, $s5, 665
	ori	$a2, $zero, 80
	move	$a0, $s5
	move	$a1, $zero
	pcaddu18i	$ra, %call36(memset)
	jirl	$ra, $ra, 0
.Ltmp151:
	move	$a0, $s5
	move	$a1, $zero
	pcaddu18i	$ra, %call36(_ZNSt11_Deque_baseIiSaIiEE17_M_initialize_mapEm)
	jirl	$ra, $ra, 0
.Ltmp152:
# %bb.13:                               # %_ZNSt5dequeIiSaIiEEC2Ev.exit
.Ltmp154:
	ori	$a0, $zero, 16
	pcaddu18i	$ra, %call36(_Znwm)
	jirl	$ra, $ra, 0
.Ltmp155:
# %bb.14:
.Ltmp156:
	move	$s6, $a0
	pcaddu18i	$ra, %call36(_ZN2PP4CommC1Ev)
	jirl	$ra, $ra, 0
.Ltmp157:
# %bb.15:
	st.d	$s6, $fp, 520
.Ltmp159:
	move	$a0, $fp
	pcaddu18i	$ra, %call36(_ZN2PP11PowerParser4initEv)
	jirl	$ra, $ra, 0
.Ltmp160:
# %bb.16:
	stptr.w	$zero, $fp, 2456
	st.d	$zero, $fp, 512
	ld.d	$s8, $sp, 72                    # 8-byte Folded Reload
	ld.d	$s7, $sp, 80                    # 8-byte Folded Reload
	ld.d	$s6, $sp, 88                    # 8-byte Folded Reload
	ld.d	$s5, $sp, 96                    # 8-byte Folded Reload
	ld.d	$s4, $sp, 104                   # 8-byte Folded Reload
	ld.d	$s3, $sp, 112                   # 8-byte Folded Reload
	ld.d	$s2, $sp, 120                   # 8-byte Folded Reload
	ld.d	$s1, $sp, 128                   # 8-byte Folded Reload
	ld.d	$s0, $sp, 136                   # 8-byte Folded Reload
	ld.d	$fp, $sp, 144                   # 8-byte Folded Reload
	ld.d	$ra, $sp, 152                   # 8-byte Folded Reload
	addi.d	$sp, $sp, 160
	ret
.LBB6_17:
.Ltmp158:
	st.d	$a0, $sp, 0                     # 8-byte Folded Spill
	ori	$a1, $zero, 16
	move	$a0, $s6
	pcaddu18i	$ra, %call36(_ZdlPvm)
	jirl	$ra, $ra, 0
	b	.LBB6_32
.LBB6_18:
.Ltmp153:
	st.d	$a0, $sp, 0                     # 8-byte Folded Spill
	b	.LBB6_33
.LBB6_19:
.Ltmp150:
	st.d	$a0, $sp, 0                     # 8-byte Folded Spill
	b	.LBB6_34
.LBB6_20:
.Ltmp147:
	st.d	$a0, $sp, 0                     # 8-byte Folded Spill
	b	.LBB6_35
.LBB6_21:
.Ltmp144:
	st.d	$a0, $sp, 0                     # 8-byte Folded Spill
	b	.LBB6_36
.LBB6_22:
.Ltmp141:
	st.d	$a0, $sp, 0                     # 8-byte Folded Spill
	b	.LBB6_37
.LBB6_23:
.Ltmp138:
	st.d	$a0, $sp, 0                     # 8-byte Folded Spill
	b	.LBB6_38
.LBB6_24:
.Ltmp135:
	st.d	$a0, $sp, 0                     # 8-byte Folded Spill
	b	.LBB6_41
.LBB6_25:
.Ltmp132:
	st.d	$a0, $sp, 0                     # 8-byte Folded Spill
	b	.LBB6_42
.LBB6_26:
.Ltmp129:
	st.d	$a0, $sp, 0                     # 8-byte Folded Spill
	b	.LBB6_43
.LBB6_27:
.Ltmp126:
	st.d	$a0, $sp, 0                     # 8-byte Folded Spill
	b	.LBB6_44
.LBB6_28:
.Ltmp123:
	st.d	$a0, $sp, 0                     # 8-byte Folded Spill
	b	.LBB6_45
.LBB6_29:
.Ltmp120:
	st.d	$a0, $sp, 0                     # 8-byte Folded Spill
	b	.LBB6_46
.LBB6_30:
.Ltmp117:
	st.d	$a0, $sp, 0                     # 8-byte Folded Spill
	b	.LBB6_47
.LBB6_31:
.Ltmp161:
	st.d	$a0, $sp, 0                     # 8-byte Folded Spill
.LBB6_32:
	move	$a0, $s5
	pcaddu18i	$ra, %call36(_ZNSt5dequeIiSaIiEED2Ev)
	jirl	$ra, $ra, 0
.LBB6_33:
	move	$a0, $s0
	pcaddu18i	$ra, %call36(_ZNSt5dequeIbSaIbEED2Ev)
	jirl	$ra, $ra, 0
.LBB6_34:
	move	$a0, $s4
	pcaddu18i	$ra, %call36(_ZNSt5dequeIbSaIbEED2Ev)
	jirl	$ra, $ra, 0
.LBB6_35:
	move	$a0, $s1
	pcaddu18i	$ra, %call36(_ZNSt5dequeINSt7__cxx1112basic_stringIcSt11char_traitsIcESaIcEEESaIS5_EED2Ev)
	jirl	$ra, $ra, 0
.LBB6_36:
	move	$a0, $s8
	pcaddu18i	$ra, %call36(_ZNSt5dequeIN2PP12RestartblockESaIS1_EED2Ev)
	jirl	$ra, $ra, 0
.LBB6_37:
	move	$a0, $s7
	pcaddu18i	$ra, %call36(_ZNSt5dequeIN2PP8WhenthenESaIS1_EED2Ev)
	jirl	$ra, $ra, 0
.LBB6_38:
	ldptr.d	$a0, $fp, 2264
	ld.d	$a1, $sp, 32                    # 8-byte Folded Reload
	beq	$a0, $a1, .LBB6_40
# %bb.39:                               # %_ZNKSt7__cxx1112basic_stringIcSt11char_traitsIcESaIcEE11_M_is_localEv.exit.i.i
	ld.d	$a1, $sp, 32                    # 8-byte Folded Reload
	ld.d	$a1, $a1, 0
	addi.d	$a1, $a1, 1
	pcaddu18i	$ra, %call36(_ZdlPvm)
	jirl	$ra, $ra, 0
.LBB6_40:                               # %_ZNSt7__cxx1112basic_stringIcSt11char_traitsIcESaIcEED2Ev.exit
	ld.d	$a0, $sp, 8                     # 8-byte Folded Reload
	pcaddu18i	$ra, %call36(_ZNSt7__cxx1118basic_stringstreamIcSt11char_traitsIcESaIcEED1Ev)
	jirl	$ra, $ra, 0
.LBB6_41:
	ld.d	$a0, $sp, 16                    # 8-byte Folded Reload
	pcaddu18i	$ra, %call36(_ZNSt7__cxx1118basic_stringstreamIcSt11char_traitsIcESaIcEED1Ev)
	jirl	$ra, $ra, 0
.LBB6_42:
	ld.d	$a0, $sp, 24                    # 8-byte Folded Reload
	pcaddu18i	$ra, %call36(_ZNSt7__cxx1118basic_stringstreamIcSt11char_traitsIcESaIcEED1Ev)
	jirl	$ra, $ra, 0
.LBB6_43:
	move	$a0, $s3
	pcaddu18i	$ra, %call36(_ZNSt5dequeINSt7__cxx1112basic_stringIcSt11char_traitsIcESaIcEEESaIS5_EED2Ev)
	jirl	$ra, $ra, 0
.LBB6_44:
	move	$a0, $s2
	pcaddu18i	$ra, %call36(_ZNSt5dequeIN2PP3CmdESaIS1_EED2Ev)
	jirl	$ra, $ra, 0
.LBB6_45:
	ld.d	$a0, $sp, 40                    # 8-byte Folded Reload
	pcaddu18i	$ra, %call36(_ZNSt5dequeIN2PP3CmdESaIS1_EED2Ev)
	jirl	$ra, $ra, 0
.LBB6_46:
	addi.d	$s0, $fp, 680
	addi.d	$s1, $fp, 728
	addi.d	$a0, $fp, 776
	pcaddu18i	$ra, %call36(_ZNSt3mapINSt7__cxx1112basic_stringIcSt11char_traitsIcESaIcEEEN2PP8FunctionESt4lessIS5_ESaISt4pairIKS5_S7_EEED2Ev)
	jirl	$ra, $ra, 0
	move	$a0, $s1
	pcaddu18i	$ra, %call36(_ZNSt3mapIiNSt7__cxx1112basic_stringIcSt11char_traitsIcESaIcEEESt4lessIiESaISt4pairIKiS5_EEED2Ev)
	jirl	$ra, $ra, 0
	move	$a0, $s0
	pcaddu18i	$ra, %call36(_ZNSt3mapINSt7__cxx1112basic_stringIcSt11char_traitsIcESaIcEEEN2PP8VariableESt4lessIS5_ESaISt4pairIKS5_S7_EEED2Ev)
	jirl	$ra, $ra, 0
	ld.d	$a0, $sp, 48                    # 8-byte Folded Reload
	pcaddu18i	$ra, %call36(_ZNSt5dequeINSt7__cxx1112basic_stringIcSt11char_traitsIcESaIcEEESaIS5_EED2Ev)
	jirl	$ra, $ra, 0
.LBB6_47:
	ld.d	$a0, $fp, 560
	ld.d	$a1, $sp, 56                    # 8-byte Folded Reload
	bne	$a0, $a1, .LBB6_50
# %bb.48:                               # %_ZNSt7__cxx1112basic_stringIcSt11char_traitsIcESaIcEED2Ev.exit37
	ld.d	$a0, $fp, 528
	ld.d	$a1, $sp, 64                    # 8-byte Folded Reload
	bne	$a0, $a1, .LBB6_51
.LBB6_49:                               # %_ZNSt7__cxx1112basic_stringIcSt11char_traitsIcESaIcEED2Ev.exit40
	move	$a0, $fp
	pcaddu18i	$ra, %call36(_ZNSt14basic_ofstreamIcSt11char_traitsIcEED1Ev)
	jirl	$ra, $ra, 0
	ld.d	$a0, $sp, 0                     # 8-byte Folded Reload
	pcaddu18i	$ra, %call36(_Unwind_Resume)
	jirl	$ra, $ra, 0
.LBB6_50:                               # %_ZNKSt7__cxx1112basic_stringIcSt11char_traitsIcESaIcEE11_M_is_localEv.exit.i.i35
	ld.d	$a1, $sp, 56                    # 8-byte Folded Reload
	ld.d	$a1, $a1, 0
	addi.d	$a1, $a1, 1
	pcaddu18i	$ra, %call36(_ZdlPvm)
	jirl	$ra, $ra, 0
	ld.d	$a0, $fp, 528
	ld.d	$a1, $sp, 64                    # 8-byte Folded Reload
	beq	$a0, $a1, .LBB6_49
.LBB6_51:                               # %_ZNKSt7__cxx1112basic_stringIcSt11char_traitsIcESaIcEE11_M_is_localEv.exit.i.i38
	ld.d	$a1, $sp, 64                    # 8-byte Folded Reload
	ld.d	$a1, $a1, 0
	addi.d	$a1, $a1, 1
	pcaddu18i	$ra, %call36(_ZdlPvm)
	jirl	$ra, $ra, 0
	move	$a0, $fp
	pcaddu18i	$ra, %call36(_ZNSt14basic_ofstreamIcSt11char_traitsIcEED1Ev)
	jirl	$ra, $ra, 0
	ld.d	$a0, $sp, 0                     # 8-byte Folded Reload
	pcaddu18i	$ra, %call36(_Unwind_Resume)
	jirl	$ra, $ra, 0
.Lfunc_end6:
	.size	_ZN2PP11PowerParserC2Ev, .Lfunc_end6-_ZN2PP11PowerParserC2Ev
	.cfi_endproc
	.section	.gcc_except_table,"a",@progbits
	.p2align	2, 0x0
GCC_except_table6:
.Lexception5:
	.byte	255                             # @LPStart Encoding = omit
	.byte	255                             # @TType Encoding = omit
	.byte	1                               # Call site Encoding = uleb128
	.uleb128 .Lcst_end5-.Lcst_begin5
.Lcst_begin5:
	.uleb128 .Lfunc_begin5-.Lfunc_begin5    # >> Call Site 1 <<
	.uleb128 .Ltmp115-.Lfunc_begin5         #   Call between .Lfunc_begin5 and .Ltmp115
	.byte	0                               #     has no landing pad
	.byte	0                               #   On action: cleanup
	.uleb128 .Ltmp115-.Lfunc_begin5         # >> Call Site 2 <<
	.uleb128 .Ltmp116-.Ltmp115              #   Call between .Ltmp115 and .Ltmp116
	.uleb128 .Ltmp117-.Lfunc_begin5         #     jumps to .Ltmp117
	.byte	0                               #   On action: cleanup
	.uleb128 .Ltmp116-.Lfunc_begin5         # >> Call Site 3 <<
	.uleb128 .Ltmp118-.Ltmp116              #   Call between .Ltmp116 and .Ltmp118
	.byte	0                               #     has no landing pad
	.byte	0                               #   On action: cleanup
	.uleb128 .Ltmp118-.Lfunc_begin5         # >> Call Site 4 <<
	.uleb128 .Ltmp119-.Ltmp118              #   Call between .Ltmp118 and .Ltmp119
	.uleb128 .Ltmp120-.Lfunc_begin5         #     jumps to .Ltmp120
	.byte	0                               #   On action: cleanup
	.uleb128 .Ltmp119-.Lfunc_begin5         # >> Call Site 5 <<
	.uleb128 .Ltmp121-.Ltmp119              #   Call between .Ltmp119 and .Ltmp121
	.byte	0                               #     has no landing pad
	.byte	0                               #   On action: cleanup
	.uleb128 .Ltmp121-.Lfunc_begin5         # >> Call Site 6 <<
	.uleb128 .Ltmp122-.Ltmp121              #   Call between .Ltmp121 and .Ltmp122
	.uleb128 .Ltmp123-.Lfunc_begin5         #     jumps to .Ltmp123
	.byte	0                               #   On action: cleanup
	.uleb128 .Ltmp122-.Lfunc_begin5         # >> Call Site 7 <<
	.uleb128 .Ltmp124-.Ltmp122              #   Call between .Ltmp122 and .Ltmp124
	.byte	0                               #     has no landing pad
	.byte	0                               #   On action: cleanup
	.uleb128 .Ltmp124-.Lfunc_begin5         # >> Call Site 8 <<
	.uleb128 .Ltmp125-.Ltmp124              #   Call between .Ltmp124 and .Ltmp125
	.uleb128 .Ltmp126-.Lfunc_begin5         #     jumps to .Ltmp126
	.byte	0                               #   On action: cleanup
	.uleb128 .Ltmp127-.Lfunc_begin5         # >> Call Site 9 <<
	.uleb128 .Ltmp128-.Ltmp127              #   Call between .Ltmp127 and .Ltmp128
	.uleb128 .Ltmp129-.Lfunc_begin5         #     jumps to .Ltmp129
	.byte	0                               #   On action: cleanup
	.uleb128 .Ltmp130-.Lfunc_begin5         # >> Call Site 10 <<
	.uleb128 .Ltmp131-.Ltmp130              #   Call between .Ltmp130 and .Ltmp131
	.uleb128 .Ltmp132-.Lfunc_begin5         #     jumps to .Ltmp132
	.byte	0                               #   On action: cleanup
	.uleb128 .Ltmp133-.Lfunc_begin5         # >> Call Site 11 <<
	.uleb128 .Ltmp134-.Ltmp133              #   Call between .Ltmp133 and .Ltmp134
	.uleb128 .Ltmp135-.Lfunc_begin5         #     jumps to .Ltmp135
	.byte	0                               #   On action: cleanup
	.uleb128 .Ltmp134-.Lfunc_begin5         # >> Call Site 12 <<
	.uleb128 .Ltmp136-.Ltmp134              #   Call between .Ltmp134 and .Ltmp136
	.byte	0                               #     has no landing pad
	.byte	0                               #   On action: cleanup
	.uleb128 .Ltmp136-.Lfunc_begin5         # >> Call Site 13 <<
	.uleb128 .Ltmp137-.Ltmp136              #   Call between .Ltmp136 and .Ltmp137
	.uleb128 .Ltmp138-.Lfunc_begin5         #     jumps to .Ltmp138
	.byte	0                               #   On action: cleanup
	.uleb128 .Ltmp137-.Lfunc_begin5         # >> Call Site 14 <<
	.uleb128 .Ltmp139-.Ltmp137              #   Call between .Ltmp137 and .Ltmp139
	.byte	0                               #     has no landing pad
	.byte	0                               #   On action: cleanup
	.uleb128 .Ltmp139-.Lfunc_begin5         # >> Call Site 15 <<
	.uleb128 .Ltmp140-.Ltmp139              #   Call between .Ltmp139 and .Ltmp140
	.uleb128 .Ltmp141-.Lfunc_begin5         #     jumps to .Ltmp141
	.byte	0                               #   On action: cleanup
	.uleb128 .Ltmp140-.Lfunc_begin5         # >> Call Site 16 <<
	.uleb128 .Ltmp142-.Ltmp140              #   Call between .Ltmp140 and .Ltmp142
	.byte	0                               #     has no landing pad
	.byte	0                               #   On action: cleanup
	.uleb128 .Ltmp142-.Lfunc_begin5         # >> Call Site 17 <<
	.uleb128 .Ltmp143-.Ltmp142              #   Call between .Ltmp142 and .Ltmp143
	.uleb128 .Ltmp144-.Lfunc_begin5         #     jumps to .Ltmp144
	.byte	0                               #   On action: cleanup
	.uleb128 .Ltmp143-.Lfunc_begin5         # >> Call Site 18 <<
	.uleb128 .Ltmp145-.Ltmp143              #   Call between .Ltmp143 and .Ltmp145
	.byte	0                               #     has no landing pad
	.byte	0                               #   On action: cleanup
	.uleb128 .Ltmp145-.Lfunc_begin5         # >> Call Site 19 <<
	.uleb128 .Ltmp146-.Ltmp145              #   Call between .Ltmp145 and .Ltmp146
	.uleb128 .Ltmp147-.Lfunc_begin5         #     jumps to .Ltmp147
	.byte	0                               #   On action: cleanup
	.uleb128 .Ltmp146-.Lfunc_begin5         # >> Call Site 20 <<
	.uleb128 .Ltmp148-.Ltmp146              #   Call between .Ltmp146 and .Ltmp148
	.byte	0                               #     has no landing pad
	.byte	0                               #   On action: cleanup
	.uleb128 .Ltmp148-.Lfunc_begin5         # >> Call Site 21 <<
	.uleb128 .Ltmp149-.Ltmp148              #   Call between .Ltmp148 and .Ltmp149
	.uleb128 .Ltmp150-.Lfunc_begin5         #     jumps to .Ltmp150
	.byte	0                               #   On action: cleanup
	.uleb128 .Ltmp149-.Lfunc_begin5         # >> Call Site 22 <<
	.uleb128 .Ltmp151-.Ltmp149              #   Call between .Ltmp149 and .Ltmp151
	.byte	0                               #     has no landing pad
	.byte	0                               #   On action: cleanup
	.uleb128 .Ltmp151-.Lfunc_begin5         # >> Call Site 23 <<
	.uleb128 .Ltmp152-.Ltmp151              #   Call between .Ltmp151 and .Ltmp152
	.uleb128 .Ltmp153-.Lfunc_begin5         #     jumps to .Ltmp153
	.byte	0                               #   On action: cleanup
	.uleb128 .Ltmp154-.Lfunc_begin5         # >> Call Site 24 <<
	.uleb128 .Ltmp155-.Ltmp154              #   Call between .Ltmp154 and .Ltmp155
	.uleb128 .Ltmp161-.Lfunc_begin5         #     jumps to .Ltmp161
	.byte	0                               #   On action: cleanup
	.uleb128 .Ltmp156-.Lfunc_begin5         # >> Call Site 25 <<
	.uleb128 .Ltmp157-.Ltmp156              #   Call between .Ltmp156 and .Ltmp157
	.uleb128 .Ltmp158-.Lfunc_begin5         #     jumps to .Ltmp158
	.byte	0                               #   On action: cleanup
	.uleb128 .Ltmp159-.Lfunc_begin5         # >> Call Site 26 <<
	.uleb128 .Ltmp160-.Ltmp159              #   Call between .Ltmp159 and .Ltmp160
	.uleb128 .Ltmp161-.Lfunc_begin5         #     jumps to .Ltmp161
	.byte	0                               #   On action: cleanup
	.uleb128 .Ltmp160-.Lfunc_begin5         # >> Call Site 27 <<
	.uleb128 .Lfunc_end6-.Ltmp160           #   Call between .Ltmp160 and .Lfunc_end6
	.byte	0                               #     has no landing pad
	.byte	0                               #   On action: cleanup
.Lcst_end5:
	.p2align	2, 0x0
                                        # -- End function
	.section	.rodata.cst8,"aM",@progbits,8
	.p2align	3, 0x0                          # -- Begin function _ZN2PP11PowerParser4initEv
.LCPI7_0:
	.dword	0x7fdfffffffffffff              # double 8.9884656743115785E+307
.LCPI7_1:
	.dword	0x47efffffe0000000              # double 3.4028234663852886E+38
.LCPI7_2:
	.dword	0x0010000000000000              # double 2.2250738585072014E-308
.LCPI7_3:
	.dword	0x3810000000000000              # double 1.1754943508222875E-38
	.section	.rodata.cst16,"aM",@progbits,16
	.p2align	4, 0x0
.LCPI7_4:
	.dword	8                               # 0x8
	.dword	7310293764108612723             # 0x6573617265727473
	.text
	.globl	_ZN2PP11PowerParser4initEv
	.p2align	5
	.type	_ZN2PP11PowerParser4initEv,@function
_ZN2PP11PowerParser4initEv:             # @_ZN2PP11PowerParser4initEv
.Lfunc_begin6:
	.cfi_startproc
	.cfi_personality 155, DW.ref.__gxx_personality_v0
	.cfi_lsda 27, .Lexception6
# %bb.0:                                # %._crit_edge.i.i
	addi.d	$sp, $sp, -2032
	.cfi_def_cfa_offset 2032
	st.d	$ra, $sp, 2024                  # 8-byte Folded Spill
	st.d	$fp, $sp, 2016                  # 8-byte Folded Spill
	st.d	$s0, $sp, 2008                  # 8-byte Folded Spill
	st.d	$s1, $sp, 2000                  # 8-byte Folded Spill
	st.d	$s2, $sp, 1992                  # 8-byte Folded Spill
	st.d	$s3, $sp, 1984                  # 8-byte Folded Spill
	st.d	$s4, $sp, 1976                  # 8-byte Folded Spill
	st.d	$s5, $sp, 1968                  # 8-byte Folded Spill
	st.d	$s6, $sp, 1960                  # 8-byte Folded Spill
	st.d	$s7, $sp, 1952                  # 8-byte Folded Spill
	st.d	$s8, $sp, 1944                  # 8-byte Folded Spill
	.cfi_offset 1, -8
	.cfi_offset 22, -16
	.cfi_offset 23, -24
	.cfi_offset 24, -32
	.cfi_offset 25, -40
	.cfi_offset 26, -48
	.cfi_offset 27, -56
	.cfi_offset 28, -64
	.cfi_offset 29, -72
	.cfi_offset 30, -80
	.cfi_offset 31, -88
	lu12i.w	$a1, 1
	ori	$a1, $a1, 2528
	sub.d	$sp, $sp, $a1
	.cfi_def_cfa_offset 8656
	move	$s0, $a0
	st.w	$zero, $a0, 672
	addi.d	$a0, $a0, 904
	st.d	$a0, $s0, 984
	ori	$a0, $zero, 1
	stptr.w	$a0, $s0, 2792
	stptr.w	$zero, $s0, 2256
	lu12i.w	$a0, 2
	ori	$a0, $a0, 224
	add.d	$fp, $sp, $a0
	lu12i.w	$a0, 2
	ori	$a0, $a0, 208
	add.d	$a0, $sp, $a0
	st.d	$fp, $a0, 0
	lu12i.w	$a0, 2
	ori	$a0, $a0, 216
	add.d	$a0, $sp, $a0
	st.d	$zero, $a0, 0
	lu12i.w	$a0, 2
	ori	$a0, $a0, 224
	add.d	$a0, $sp, $a0
	st.b	$zero, $a0, 0
.Ltmp162:
	pcalau12i	$a0, %pc_hi20(.LCPI7_0)
	fld.d	$fa0, $a0, %pc_lo12(.LCPI7_0)
	lu12i.w	$a0, 2
	ori	$a0, $a0, 240
	add.d	$a0, $sp, $a0
	ori	$a1, $zero, 1
	ori	$a2, $zero, 1
	lu12i.w	$a3, 2
	ori	$a3, $a3, 208
	add.d	$a3, $sp, $a3
	move	$a4, $zero
	pcaddu18i	$ra, %call36(_ZN2PP4WordC1EdiiNSt7__cxx1112basic_stringIcSt11char_traitsIcESaIcEEEPSt5dequeIS6_SaIS6_EE)
	jirl	$ra, $ra, 0
.Ltmp163:
# %bb.1:
	lu12i.w	$a0, 2
	ori	$a0, $a0, 208
	add.d	$a0, $sp, $a0
	ld.d	$a0, $a0, 0
	beq	$a0, $fp, .LBB7_3
# %bb.2:                                # %_ZNKSt7__cxx1112basic_stringIcSt11char_traitsIcESaIcEE11_M_is_localEv.exit.i.i
	lu12i.w	$a1, 2
	ori	$a1, $a1, 224
	add.d	$a1, $sp, $a1
	ld.d	$a1, $a1, 0
	addi.d	$a1, $a1, 1
	pcaddu18i	$ra, %call36(_ZdlPvm)
	jirl	$ra, $ra, 0
.LBB7_3:                                # %_ZNSt7__cxx1112basic_stringIcSt11char_traitsIcESaIcEED2Ev.exit
	pcalau12i	$a0, %pc_hi20(.L.str.123)
	addi.d	$a0, $a0, %pc_lo12(.L.str.123)
	ld.d	$a1, $a0, 0
	ld.w	$a0, $a0, 8
	lu12i.w	$a2, 2
	ori	$a2, $a2, 56
	add.d	$s2, $sp, $a2
	lu12i.w	$a2, 2
	ori	$a2, $a2, 40
	add.d	$a2, $sp, $a2
	st.d	$s2, $a2, 0
	lu12i.w	$a2, 2
	ori	$a2, $a2, 56
	add.d	$a2, $sp, $a2
	st.d	$a1, $a2, 0
	lu12i.w	$a1, 2
	ori	$a1, $a1, 64
	add.d	$a1, $sp, $a1
	st.w	$a0, $a1, 0
	ori	$a0, $zero, 12
	lu12i.w	$a1, 2
	ori	$a1, $a1, 48
	add.d	$a1, $sp, $a1
	st.d	$a0, $a1, 0
	lu12i.w	$a0, 2
	ori	$a0, $a0, 68
	add.d	$a0, $sp, $a0
	st.b	$zero, $a0, 0
	lu12i.w	$a0, 2
	ori	$a0, $a0, 24
	add.d	$s3, $sp, $a0
	lu12i.w	$a0, 2
	ori	$a0, $a0, 248
	add.d	$a0, $sp, $a0
	ld.d	$fp, $a0, 0
	lu12i.w	$a0, 2
	ori	$a0, $a0, 240
	add.d	$a0, $sp, $a0
	ld.d	$s1, $a0, 0
	lu12i.w	$a0, 2
	ori	$a0, $a0, 8
	add.d	$a0, $sp, $a0
	st.d	$s3, $a0, 0
	ori	$a1, $zero, 16
	lu12i.w	$a0, 1
	ori	$a0, $a0, 3904
	add.d	$a0, $sp, $a0
	st.d	$fp, $a0, 0
	move	$a0, $s3
	bltu	$fp, $a1, .LBB7_6
# %bb.4:                                # %.noexc.i.i
.Ltmp165:
	lu12i.w	$a0, 2
	ori	$a0, $a0, 8
	add.d	$a0, $sp, $a0
	lu12i.w	$a1, 1
	ori	$a1, $a1, 3904
	add.d	$a1, $sp, $a1
	move	$a2, $zero
	pcaddu18i	$ra, %call36(_ZNSt7__cxx1112basic_stringIcSt11char_traitsIcESaIcEE9_M_createERmm)
	jirl	$ra, $ra, 0
.Ltmp166:
# %bb.5:                                # %.noexc741
	lu12i.w	$a1, 1
	ori	$a1, $a1, 3904
	add.d	$a1, $sp, $a1
	ld.d	$a1, $a1, 0
	lu12i.w	$a2, 2
	ori	$a2, $a2, 8
	add.d	$a2, $sp, $a2
	st.d	$a0, $a2, 0
	lu12i.w	$a2, 2
	ori	$a2, $a2, 24
	add.d	$a2, $sp, $a2
	st.d	$a1, $a2, 0
.LBB7_6:                                # %._crit_edge.i.i.i
	beqz	$fp, .LBB7_10
# %bb.7:                                # %._crit_edge.i.i.i
	ori	$a1, $zero, 1
	bne	$fp, $a1, .LBB7_9
# %bb.8:
	ld.b	$a1, $s1, 0
	st.b	$a1, $a0, 0
	b	.LBB7_10
.LBB7_9:
	move	$a1, $s1
	move	$a2, $fp
	pcaddu18i	$ra, %call36(memcpy)
	jirl	$ra, $ra, 0
.LBB7_10:                               # %.noexc.i743
	lu12i.w	$a0, 1
	ori	$a0, $a0, 3904
	add.d	$a0, $sp, $a0
	ld.d	$a0, $a0, 0
	lu12i.w	$a1, 2
	ori	$a1, $a1, 8
	add.d	$a1, $sp, $a1
	ld.d	$a1, $a1, 0
	lu12i.w	$a2, 2
	ori	$a2, $a2, 16
	add.d	$a2, $sp, $a2
	st.d	$a0, $a2, 0
	stx.b	$zero, $a1, $a0
	lu12i.w	$a0, 1
	ori	$a0, $a0, 4088
	add.d	$fp, $sp, $a0
	lu12i.w	$a0, 1
	ori	$a0, $a0, 4072
	add.d	$a0, $sp, $a0
	st.d	$fp, $a0, 0
	ori	$a0, $zero, 18
	lu12i.w	$a1, 1
	ori	$a1, $a1, 3904
	add.d	$a1, $sp, $a1
	st.d	$a0, $a1, 0
.Ltmp168:
	lu12i.w	$a0, 1
	ori	$a0, $a0, 4072
	add.d	$a0, $sp, $a0
	lu12i.w	$a1, 1
	ori	$a1, $a1, 3904
	add.d	$a1, $sp, $a1
	move	$a2, $zero
	pcaddu18i	$ra, %call36(_ZNSt7__cxx1112basic_stringIcSt11char_traitsIcESaIcEE9_M_createERmm)
	jirl	$ra, $ra, 0
.Ltmp169:
# %bb.11:                               # %.noexc744
	lu12i.w	$a1, 1
	ori	$a1, $a1, 3904
	add.d	$a1, $sp, $a1
	ld.d	$a1, $a1, 0
	pcalau12i	$a2, %pc_hi20(.L.str.124)
	addi.d	$a2, $a2, %pc_lo12(.L.str.124)
	vld	$vr0, $a2, 0
	ld.h	$a2, $a2, 16
	lu12i.w	$a3, 1
	ori	$a3, $a3, 4072
	add.d	$a3, $sp, $a3
	st.d	$a0, $a3, 0
	lu12i.w	$a3, 1
	ori	$a3, $a3, 4088
	add.d	$a3, $sp, $a3
	st.d	$a1, $a3, 0
	vst	$vr0, $a0, 0
	st.h	$a2, $a0, 16
	lu12i.w	$a0, 1
	ori	$a0, $a0, 4072
	add.d	$a0, $sp, $a0
	ld.d	$a0, $a0, 0
	lu12i.w	$a2, 1
	ori	$a2, $a2, 4080
	add.d	$a2, $sp, $a2
	st.d	$a1, $a2, 0
	stx.b	$zero, $a0, $a1
.Ltmp171:
	lu12i.w	$a0, 2
	ori	$a0, $a0, 72
	add.d	$a0, $sp, $a0
	lu12i.w	$a1, 2
	ori	$a1, $a1, 40
	add.d	$a1, $sp, $a1
	lu12i.w	$a2, 2
	ori	$a2, $a2, 8
	add.d	$a2, $sp, $a2
	ori	$a3, $zero, 1
	lu12i.w	$a4, 1
	ori	$a4, $a4, 4072
	add.d	$a4, $sp, $a4
	pcaddu18i	$ra, %call36(_ZN2PP8VariableC1ENSt7__cxx1112basic_stringIcSt11char_traitsIcESaIcEEES6_bS6_)
	jirl	$ra, $ra, 0
.Ltmp172:
# %bb.12:
	lu12i.w	$a0, 1
	ori	$a0, $a0, 4072
	add.d	$a0, $sp, $a0
	ld.d	$a0, $a0, 0
	beq	$a0, $fp, .LBB7_14
# %bb.13:                               # %_ZNKSt7__cxx1112basic_stringIcSt11char_traitsIcESaIcEE11_M_is_localEv.exit.i.i746
	lu12i.w	$a1, 1
	ori	$a1, $a1, 4088
	add.d	$a1, $sp, $a1
	ld.d	$a1, $a1, 0
	addi.d	$a1, $a1, 1
	pcaddu18i	$ra, %call36(_ZdlPvm)
	jirl	$ra, $ra, 0
.LBB7_14:                               # %_ZNSt7__cxx1112basic_stringIcSt11char_traitsIcESaIcEED2Ev.exit748
	lu12i.w	$a0, 2
	ori	$a0, $a0, 8
	add.d	$a0, $sp, $a0
	ld.d	$a0, $a0, 0
	beq	$a0, $s3, .LBB7_16
# %bb.15:                               # %_ZNKSt7__cxx1112basic_stringIcSt11char_traitsIcESaIcEE11_M_is_localEv.exit.i.i749
	lu12i.w	$a1, 2
	ori	$a1, $a1, 24
	add.d	$a1, $sp, $a1
	ld.d	$a1, $a1, 0
	addi.d	$a1, $a1, 1
	pcaddu18i	$ra, %call36(_ZdlPvm)
	jirl	$ra, $ra, 0
.LBB7_16:                               # %_ZNSt7__cxx1112basic_stringIcSt11char_traitsIcESaIcEED2Ev.exit751
	lu12i.w	$a0, 2
	ori	$a0, $a0, 40
	add.d	$a0, $sp, $a0
	ld.d	$a0, $a0, 0
	beq	$a0, $s2, .LBB7_18
# %bb.17:                               # %_ZNKSt7__cxx1112basic_stringIcSt11char_traitsIcESaIcEE11_M_is_localEv.exit.i.i752
	lu12i.w	$a1, 2
	ori	$a1, $a1, 56
	add.d	$a1, $sp, $a1
	ld.d	$a1, $a1, 0
	addi.d	$a1, $a1, 1
	pcaddu18i	$ra, %call36(_ZdlPvm)
	jirl	$ra, $ra, 0
.LBB7_18:                               # %_ZNSt7__cxx1112basic_stringIcSt11char_traitsIcESaIcEED2Ev.exit754
	lu12i.w	$a0, 1
	ori	$a0, $a0, 3624
	add.d	$s2, $sp, $a0
	lu12i.w	$a0, 2
	ori	$a0, $a0, 80
	add.d	$a0, $sp, $a0
	ld.d	$fp, $a0, 0
	lu12i.w	$a0, 2
	ori	$a0, $a0, 72
	add.d	$a0, $sp, $a0
	ld.d	$s1, $a0, 0
	lu12i.w	$a0, 1
	ori	$a0, $a0, 3608
	add.d	$a0, $sp, $a0
	st.d	$s2, $a0, 0
	ori	$a1, $zero, 16
	lu12i.w	$a0, 1
	ori	$a0, $a0, 3216
	add.d	$a0, $sp, $a0
	st.d	$fp, $a0, 0
	move	$a0, $s2
	bltu	$fp, $a1, .LBB7_21
# %bb.19:                               # %.noexc.i.i756
.Ltmp174:
	lu12i.w	$a0, 1
	ori	$a0, $a0, 3608
	add.d	$a0, $sp, $a0
	lu12i.w	$a1, 1
	ori	$a1, $a1, 3216
	add.d	$a1, $sp, $a1
	move	$a2, $zero
	pcaddu18i	$ra, %call36(_ZNSt7__cxx1112basic_stringIcSt11char_traitsIcESaIcEE9_M_createERmm)
	jirl	$ra, $ra, 0
.Ltmp175:
# %bb.20:                               # %.noexc757
	lu12i.w	$a1, 1
	ori	$a1, $a1, 3216
	add.d	$a1, $sp, $a1
	ld.d	$a1, $a1, 0
	lu12i.w	$a2, 1
	ori	$a2, $a2, 3608
	add.d	$a2, $sp, $a2
	st.d	$a0, $a2, 0
	lu12i.w	$a2, 1
	ori	$a2, $a2, 3624
	add.d	$a2, $sp, $a2
	st.d	$a1, $a2, 0
.LBB7_21:                               # %._crit_edge.i.i.i755
	beqz	$fp, .LBB7_25
# %bb.22:                               # %._crit_edge.i.i.i755
	ori	$a1, $zero, 1
	bne	$fp, $a1, .LBB7_24
# %bb.23:
	ld.b	$a1, $s1, 0
	st.b	$a1, $a0, 0
	b	.LBB7_25
.LBB7_24:
	move	$a1, $s1
	move	$a2, $fp
	pcaddu18i	$ra, %call36(memcpy)
	jirl	$ra, $ra, 0
.LBB7_25:
	lu12i.w	$a0, 1
	ori	$a0, $a0, 3216
	add.d	$a0, $sp, $a0
	ld.d	$a0, $a0, 0
	lu12i.w	$a1, 1
	ori	$a1, $a1, 3608
	add.d	$a1, $sp, $a1
	ld.d	$a1, $a1, 0
	lu12i.w	$a2, 1
	ori	$a2, $a2, 3616
	add.d	$a2, $sp, $a2
	st.d	$a0, $a2, 0
	stx.b	$zero, $a1, $a0
	lu12i.w	$a0, 1
	ori	$a0, $a0, 3608
	add.d	$a0, $sp, $a0
	ld.d	$a0, $a0, 0
	lu12i.w	$a1, 1
	ori	$a1, $a1, 3920
	add.d	$fp, $sp, $a1
	lu12i.w	$a1, 1
	ori	$a1, $a1, 3904
	add.d	$a1, $sp, $a1
	st.d	$fp, $a1, 0
	beq	$a0, $s2, .LBB7_27
# %bb.26:                               # %_ZNKSt7__cxx1112basic_stringIcSt11char_traitsIcESaIcEE11_M_is_localEv.exit.i.i758
	lu12i.w	$a1, 1
	ori	$a1, $a1, 3624
	add.d	$a1, $sp, $a1
	ld.d	$a1, $a1, 0
	lu12i.w	$a2, 1
	ori	$a2, $a2, 3616
	add.d	$a2, $sp, $a2
	ld.d	$s1, $a2, 0
	lu12i.w	$a2, 1
	ori	$a2, $a2, 3904
	add.d	$a2, $sp, $a2
	st.d	$a0, $a2, 0
	lu12i.w	$a0, 1
	ori	$a0, $a0, 3920
	add.d	$a0, $sp, $a0
	st.d	$a1, $a0, 0
	b	.LBB7_28
.LBB7_27:
	lu12i.w	$a0, 1
	ori	$a0, $a0, 3616
	add.d	$a0, $sp, $a0
	ld.d	$s1, $a0, 0
	addi.d	$a2, $s1, 1
	move	$a0, $fp
	move	$a1, $s2
	pcaddu18i	$ra, %call36(memcpy)
	jirl	$ra, $ra, 0
.LBB7_28:                               # %_ZNSt7__cxx1112basic_stringIcSt11char_traitsIcESaIcEEC2EOS4_.exit.i
	lu12i.w	$a0, 1
	ori	$a0, $a0, 3912
	add.d	$a0, $sp, $a0
	st.d	$s1, $a0, 0
	lu12i.w	$a0, 1
	ori	$a0, $a0, 3608
	add.d	$a0, $sp, $a0
	st.d	$s2, $a0, 0
	lu12i.w	$a0, 1
	ori	$a0, $a0, 3616
	add.d	$a0, $sp, $a0
	st.d	$zero, $a0, 0
	lu12i.w	$a0, 1
	ori	$a0, $a0, 3624
	add.d	$a0, $sp, $a0
	st.b	$zero, $a0, 0
	lu12i.w	$a0, 1
	ori	$a0, $a0, 3936
	add.d	$a0, $sp, $a0
.Ltmp177:
	lu12i.w	$a1, 2
	ori	$a1, $a1, 72
	add.d	$a1, $sp, $a1
	pcaddu18i	$ra, %call36(_ZN2PP8VariableC2ERKS0_)
	jirl	$ra, $ra, 0
.Ltmp178:
# %bb.29:                               # %_ZNSt4pairINSt7__cxx1112basic_stringIcSt11char_traitsIcESaIcEEEN2PP8VariableEEC2IS5_RS7_TnNSt9enable_ifIXaaclsr5_PCCPE22_MoveConstructiblePairIT_T0_EEclsr5_PCCPE30_ImplicitlyMoveConvertiblePairISC_SD_EEEbE4typeELb1EEEOSC_OSD_.exit
.Ltmp180:
	addi.d	$s1, $s0, 680
	lu12i.w	$a0, 1
	ori	$a0, $a0, 3904
	add.d	$a1, $sp, $a0
	move	$a0, $s1
	pcaddu18i	$ra, %call36(_ZNSt3mapINSt7__cxx1112basic_stringIcSt11char_traitsIcESaIcEEEN2PP8VariableESt4lessIS5_ESaISt4pairIKS5_S7_EEE6insertISA_IS5_S7_EEENSt9enable_ifIXsr16is_constructibleISC_T_EE5valueESA_ISt17_Rb_tree_iteratorISC_EbEE4typeEOSI_)
	jirl	$ra, $ra, 0
.Ltmp181:
# %bb.30:
	lu12i.w	$a0, 1
	ori	$a0, $a0, 3904
	add.d	$a0, $sp, $a0
	pcaddu18i	$ra, %call36(_ZNSt4pairINSt7__cxx1112basic_stringIcSt11char_traitsIcESaIcEEEN2PP8VariableEED2Ev)
	jirl	$ra, $ra, 0
	lu12i.w	$a0, 1
	ori	$a0, $a0, 3608
	add.d	$a0, $sp, $a0
	ld.d	$a0, $a0, 0
	beq	$a0, $s2, .LBB7_32
# %bb.31:                               # %_ZNKSt7__cxx1112basic_stringIcSt11char_traitsIcESaIcEE11_M_is_localEv.exit.i.i759
	lu12i.w	$a1, 1
	ori	$a1, $a1, 3624
	add.d	$a1, $sp, $a1
	ld.d	$a1, $a1, 0
	addi.d	$a1, $a1, 1
	pcaddu18i	$ra, %call36(_ZdlPvm)
	jirl	$ra, $ra, 0
.LBB7_32:                               # %_ZNSt7__cxx1112basic_stringIcSt11char_traitsIcESaIcEED2Ev.exit761
	lu12i.w	$a0, 1
	ori	$a0, $a0, 3760
	add.d	$s2, $sp, $a0
	lu12i.w	$a0, 1
	ori	$a0, $a0, 3744
	add.d	$a0, $sp, $a0
	st.d	$s2, $a0, 0
	lu12i.w	$a0, 1
	ori	$a0, $a0, 3752
	add.d	$a0, $sp, $a0
	st.d	$zero, $a0, 0
	lu12i.w	$a0, 1
	ori	$a0, $a0, 3760
	add.d	$a0, $sp, $a0
	st.b	$zero, $a0, 0
.Ltmp183:
	pcalau12i	$a0, %pc_hi20(.LCPI7_1)
	fld.d	$fa0, $a0, %pc_lo12(.LCPI7_1)
	lu12i.w	$a0, 1
	ori	$a0, $a0, 3776
	add.d	$a0, $sp, $a0
	ori	$a1, $zero, 1
	ori	$a2, $zero, 1
	lu12i.w	$a3, 1
	ori	$a3, $a3, 3744
	add.d	$a3, $sp, $a3
	move	$a4, $zero
	pcaddu18i	$ra, %call36(_ZN2PP4WordC1EdiiNSt7__cxx1112basic_stringIcSt11char_traitsIcESaIcEEEPSt5dequeIS6_SaIS6_EE)
	jirl	$ra, $ra, 0
.Ltmp184:
# %bb.33:
	lu12i.w	$a0, 1
	ori	$a0, $a0, 3744
	add.d	$a0, $sp, $a0
	ld.d	$a0, $a0, 0
	beq	$a0, $s2, .LBB7_35
# %bb.34:                               # %_ZNKSt7__cxx1112basic_stringIcSt11char_traitsIcESaIcEE11_M_is_localEv.exit.i.i766
	lu12i.w	$a1, 1
	ori	$a1, $a1, 3760
	add.d	$a1, $sp, $a1
	ld.d	$a1, $a1, 0
	addi.d	$a1, $a1, 1
	pcaddu18i	$ra, %call36(_ZdlPvm)
	jirl	$ra, $ra, 0
.LBB7_35:                               # %_ZNSt7__cxx1112basic_stringIcSt11char_traitsIcESaIcEED2Ev.exit768
	pcalau12i	$a0, %pc_hi20(.L.str.125)
	addi.d	$a0, $a0, %pc_lo12(.L.str.125)
	ld.d	$a1, $a0, 0
	ld.w	$a0, $a0, 7
	lu12i.w	$a2, 1
	ori	$a2, $a2, 3592
	add.d	$s4, $sp, $a2
	lu12i.w	$a2, 1
	ori	$a2, $a2, 3576
	add.d	$a2, $sp, $a2
	st.d	$s4, $a2, 0
	lu12i.w	$a2, 1
	ori	$a2, $a2, 3592
	add.d	$a2, $sp, $a2
	st.d	$a1, $a2, 0
	lu12i.w	$a1, 1
	ori	$a1, $a1, 3599
	add.d	$a1, $sp, $a1
	st.w	$a0, $a1, 0
	ori	$a0, $zero, 11
	lu12i.w	$a1, 1
	ori	$a1, $a1, 3584
	add.d	$a1, $sp, $a1
	st.d	$a0, $a1, 0
	lu12i.w	$a0, 1
	ori	$a0, $a0, 3603
	add.d	$a0, $sp, $a0
	st.b	$zero, $a0, 0
	lu12i.w	$a0, 1
	ori	$a0, $a0, 3560
	add.d	$s5, $sp, $a0
	lu12i.w	$a0, 1
	ori	$a0, $a0, 3784
	add.d	$a0, $sp, $a0
	ld.d	$s2, $a0, 0
	lu12i.w	$a0, 1
	ori	$a0, $a0, 3776
	add.d	$a0, $sp, $a0
	ld.d	$s3, $a0, 0
	lu12i.w	$a0, 1
	ori	$a0, $a0, 3544
	add.d	$a0, $sp, $a0
	st.d	$s5, $a0, 0
	ori	$a1, $zero, 16
	lu12i.w	$a0, 1
	ori	$a0, $a0, 3904
	add.d	$a0, $sp, $a0
	st.d	$s2, $a0, 0
	move	$a0, $s5
	bltu	$s2, $a1, .LBB7_38
# %bb.36:                               # %.noexc.i.i774
.Ltmp186:
	lu12i.w	$a0, 1
	ori	$a0, $a0, 3544
	add.d	$a0, $sp, $a0
	lu12i.w	$a1, 1
	ori	$a1, $a1, 3904
	add.d	$a1, $sp, $a1
	move	$a2, $zero
	pcaddu18i	$ra, %call36(_ZNSt7__cxx1112basic_stringIcSt11char_traitsIcESaIcEE9_M_createERmm)
	jirl	$ra, $ra, 0
.Ltmp187:
# %bb.37:                               # %.noexc775
	lu12i.w	$a1, 1
	ori	$a1, $a1, 3904
	add.d	$a1, $sp, $a1
	ld.d	$a1, $a1, 0
	lu12i.w	$a2, 1
	ori	$a2, $a2, 3544
	add.d	$a2, $sp, $a2
	st.d	$a0, $a2, 0
	lu12i.w	$a2, 1
	ori	$a2, $a2, 3560
	add.d	$a2, $sp, $a2
	st.d	$a1, $a2, 0
.LBB7_38:                               # %._crit_edge.i.i.i773
	beqz	$s2, .LBB7_42
# %bb.39:                               # %._crit_edge.i.i.i773
	ori	$a1, $zero, 1
	bne	$s2, $a1, .LBB7_41
# %bb.40:
	ld.b	$a1, $s3, 0
	st.b	$a1, $a0, 0
	b	.LBB7_42
.LBB7_41:
	move	$a1, $s3
	move	$a2, $s2
	pcaddu18i	$ra, %call36(memcpy)
	jirl	$ra, $ra, 0
.LBB7_42:                               # %._crit_edge.i.i777
	lu12i.w	$a0, 1
	ori	$a0, $a0, 3904
	add.d	$a0, $sp, $a0
	ld.d	$a0, $a0, 0
	lu12i.w	$a1, 1
	ori	$a1, $a1, 3544
	add.d	$a1, $sp, $a1
	ld.d	$a1, $a1, 0
	lu12i.w	$a2, 1
	ori	$a2, $a2, 3552
	add.d	$a2, $sp, $a2
	st.d	$a0, $a2, 0
	stx.b	$zero, $a1, $a0
	pcalau12i	$a0, %pc_hi20(.L.str.126)
	addi.d	$a0, $a0, %pc_lo12(.L.str.126)
	ld.d	$a1, $a0, 0
	ld.d	$a0, $a0, 5
	lu12i.w	$a2, 1
	ori	$a2, $a2, 3528
	add.d	$s2, $sp, $a2
	lu12i.w	$a2, 1
	ori	$a2, $a2, 3512
	add.d	$a2, $sp, $a2
	st.d	$s2, $a2, 0
	lu12i.w	$a2, 1
	ori	$a2, $a2, 3528
	add.d	$a2, $sp, $a2
	st.d	$a1, $a2, 0
	lu12i.w	$a1, 1
	ori	$a1, $a1, 3533
	add.d	$a1, $sp, $a1
	st.d	$a0, $a1, 0
	ori	$a0, $zero, 13
	lu12i.w	$a1, 1
	ori	$a1, $a1, 3520
	add.d	$a1, $sp, $a1
	st.d	$a0, $a1, 0
	lu12i.w	$a0, 1
	ori	$a0, $a0, 3541
	add.d	$a0, $sp, $a0
	st.b	$zero, $a0, 0
.Ltmp189:
	lu12i.w	$a0, 1
	ori	$a0, $a0, 3608
	add.d	$a0, $sp, $a0
	lu12i.w	$a1, 1
	ori	$a1, $a1, 3576
	add.d	$a1, $sp, $a1
	lu12i.w	$a2, 1
	ori	$a2, $a2, 3544
	add.d	$a2, $sp, $a2
	ori	$a3, $zero, 1
	lu12i.w	$a4, 1
	ori	$a4, $a4, 3512
	add.d	$a4, $sp, $a4
	pcaddu18i	$ra, %call36(_ZN2PP8VariableC1ENSt7__cxx1112basic_stringIcSt11char_traitsIcESaIcEEES6_bS6_)
	jirl	$ra, $ra, 0
.Ltmp190:
# %bb.43:
	lu12i.w	$a0, 1
	ori	$a0, $a0, 3512
	add.d	$a0, $sp, $a0
	ld.d	$a0, $a0, 0
	beq	$a0, $s2, .LBB7_45
# %bb.44:                               # %_ZNKSt7__cxx1112basic_stringIcSt11char_traitsIcESaIcEE11_M_is_localEv.exit.i.i781
	lu12i.w	$a1, 1
	ori	$a1, $a1, 3528
	add.d	$a1, $sp, $a1
	ld.d	$a1, $a1, 0
	addi.d	$a1, $a1, 1
	pcaddu18i	$ra, %call36(_ZdlPvm)
	jirl	$ra, $ra, 0
.LBB7_45:                               # %_ZNSt7__cxx1112basic_stringIcSt11char_traitsIcESaIcEED2Ev.exit783
	lu12i.w	$a0, 1
	ori	$a0, $a0, 3544
	add.d	$a0, $sp, $a0
	ld.d	$a0, $a0, 0
	beq	$a0, $s5, .LBB7_47
# %bb.46:                               # %_ZNKSt7__cxx1112basic_stringIcSt11char_traitsIcESaIcEE11_M_is_localEv.exit.i.i784
	lu12i.w	$a1, 1
	ori	$a1, $a1, 3560
	add.d	$a1, $sp, $a1
	ld.d	$a1, $a1, 0
	addi.d	$a1, $a1, 1
	pcaddu18i	$ra, %call36(_ZdlPvm)
	jirl	$ra, $ra, 0
.LBB7_47:                               # %_ZNSt7__cxx1112basic_stringIcSt11char_traitsIcESaIcEED2Ev.exit786
	lu12i.w	$a0, 1
	ori	$a0, $a0, 3576
	add.d	$a0, $sp, $a0
	ld.d	$a0, $a0, 0
	beq	$a0, $s4, .LBB7_49
# %bb.48:                               # %_ZNKSt7__cxx1112basic_stringIcSt11char_traitsIcESaIcEE11_M_is_localEv.exit.i.i787
	lu12i.w	$a1, 1
	ori	$a1, $a1, 3592
	add.d	$a1, $sp, $a1
	ld.d	$a1, $a1, 0
	addi.d	$a1, $a1, 1
	pcaddu18i	$ra, %call36(_ZdlPvm)
	jirl	$ra, $ra, 0
.LBB7_49:                               # %_ZNSt7__cxx1112basic_stringIcSt11char_traitsIcESaIcEED2Ev.exit789
	lu12i.w	$a0, 1
	ori	$a0, $a0, 3232
	add.d	$s2, $sp, $a0
	lu12i.w	$a0, 1
	ori	$a0, $a0, 3616
	add.d	$a0, $sp, $a0
	ld.d	$s3, $a0, 0
	lu12i.w	$a0, 1
	ori	$a0, $a0, 3608
	add.d	$a0, $sp, $a0
	ld.d	$s4, $a0, 0
	lu12i.w	$a0, 1
	ori	$a0, $a0, 3216
	add.d	$a0, $sp, $a0
	st.d	$s2, $a0, 0
	ori	$a1, $zero, 16
	lu12i.w	$a0, 1
	ori	$a0, $a0, 2824
	add.d	$a0, $sp, $a0
	st.d	$s3, $a0, 0
	move	$a0, $s2
	bltu	$s3, $a1, .LBB7_52
# %bb.50:                               # %.noexc.i.i791
.Ltmp192:
	lu12i.w	$a0, 1
	ori	$a0, $a0, 3216
	add.d	$a0, $sp, $a0
	lu12i.w	$a1, 1
	ori	$a1, $a1, 2824
	add.d	$a1, $sp, $a1
	move	$a2, $zero
	pcaddu18i	$ra, %call36(_ZNSt7__cxx1112basic_stringIcSt11char_traitsIcESaIcEE9_M_createERmm)
	jirl	$ra, $ra, 0
.Ltmp193:
# %bb.51:                               # %.noexc792
	lu12i.w	$a1, 1
	ori	$a1, $a1, 2824
	add.d	$a1, $sp, $a1
	ld.d	$a1, $a1, 0
	lu12i.w	$a2, 1
	ori	$a2, $a2, 3216
	add.d	$a2, $sp, $a2
	st.d	$a0, $a2, 0
	lu12i.w	$a2, 1
	ori	$a2, $a2, 3232
	add.d	$a2, $sp, $a2
	st.d	$a1, $a2, 0
.LBB7_52:                               # %._crit_edge.i.i.i790
	beqz	$s3, .LBB7_56
# %bb.53:                               # %._crit_edge.i.i.i790
	ori	$a1, $zero, 1
	bne	$s3, $a1, .LBB7_55
# %bb.54:
	ld.b	$a1, $s4, 0
	st.b	$a1, $a0, 0
	b	.LBB7_56
.LBB7_55:
	move	$a1, $s4
	move	$a2, $s3
	pcaddu18i	$ra, %call36(memcpy)
	jirl	$ra, $ra, 0
.LBB7_56:
	lu12i.w	$a0, 1
	ori	$a0, $a0, 2824
	add.d	$a0, $sp, $a0
	ld.d	$a0, $a0, 0
	lu12i.w	$a1, 1
	ori	$a1, $a1, 3216
	add.d	$a1, $sp, $a1
	ld.d	$a1, $a1, 0
	lu12i.w	$a2, 1
	ori	$a2, $a2, 3224
	add.d	$a2, $sp, $a2
	st.d	$a0, $a2, 0
	stx.b	$zero, $a1, $a0
	lu12i.w	$a0, 1
	ori	$a0, $a0, 3216
	add.d	$a0, $sp, $a0
	ld.d	$a0, $a0, 0
	lu12i.w	$a1, 1
	ori	$a1, $a1, 3904
	add.d	$a1, $sp, $a1
	st.d	$fp, $a1, 0
	beq	$a0, $s2, .LBB7_58
# %bb.57:                               # %_ZNKSt7__cxx1112basic_stringIcSt11char_traitsIcESaIcEE11_M_is_localEv.exit.i.i794
	lu12i.w	$a1, 1
	ori	$a1, $a1, 3232
	add.d	$a1, $sp, $a1
	ld.d	$a1, $a1, 0
	lu12i.w	$a2, 1
	ori	$a2, $a2, 3224
	add.d	$a2, $sp, $a2
	ld.d	$s3, $a2, 0
	lu12i.w	$a2, 1
	ori	$a2, $a2, 3904
	add.d	$a2, $sp, $a2
	st.d	$a0, $a2, 0
	lu12i.w	$a0, 1
	ori	$a0, $a0, 3920
	add.d	$a0, $sp, $a0
	st.d	$a1, $a0, 0
	b	.LBB7_59
.LBB7_58:
	lu12i.w	$a0, 1
	ori	$a0, $a0, 3224
	add.d	$a0, $sp, $a0
	ld.d	$s3, $a0, 0
	addi.d	$a2, $s3, 1
	move	$a0, $fp
	move	$a1, $s2
	pcaddu18i	$ra, %call36(memcpy)
	jirl	$ra, $ra, 0
.LBB7_59:                               # %_ZNSt7__cxx1112basic_stringIcSt11char_traitsIcESaIcEEC2EOS4_.exit.i795
	lu12i.w	$a0, 1
	ori	$a0, $a0, 3912
	add.d	$a0, $sp, $a0
	st.d	$s3, $a0, 0
	lu12i.w	$a0, 1
	ori	$a0, $a0, 3216
	add.d	$a0, $sp, $a0
	st.d	$s2, $a0, 0
	lu12i.w	$a0, 1
	ori	$a0, $a0, 3224
	add.d	$a0, $sp, $a0
	st.d	$zero, $a0, 0
	lu12i.w	$a0, 1
	ori	$a0, $a0, 3232
	add.d	$a0, $sp, $a0
	st.b	$zero, $a0, 0
	lu12i.w	$a0, 1
	ori	$a0, $a0, 3936
	add.d	$a0, $sp, $a0
.Ltmp195:
	lu12i.w	$a1, 1
	ori	$a1, $a1, 3608
	add.d	$a1, $sp, $a1
	pcaddu18i	$ra, %call36(_ZN2PP8VariableC2ERKS0_)
	jirl	$ra, $ra, 0
.Ltmp196:
# %bb.60:                               # %_ZNSt4pairINSt7__cxx1112basic_stringIcSt11char_traitsIcESaIcEEEN2PP8VariableEEC2IS5_RS7_TnNSt9enable_ifIXaaclsr5_PCCPE22_MoveConstructiblePairIT_T0_EEclsr5_PCCPE30_ImplicitlyMoveConvertiblePairISC_SD_EEEbE4typeELb1EEEOSC_OSD_.exit801
.Ltmp198:
	lu12i.w	$a0, 1
	ori	$a0, $a0, 3904
	add.d	$a1, $sp, $a0
	move	$a0, $s1
	pcaddu18i	$ra, %call36(_ZNSt3mapINSt7__cxx1112basic_stringIcSt11char_traitsIcESaIcEEEN2PP8VariableESt4lessIS5_ESaISt4pairIKS5_S7_EEE6insertISA_IS5_S7_EEENSt9enable_ifIXsr16is_constructibleISC_T_EE5valueESA_ISt17_Rb_tree_iteratorISC_EbEE4typeEOSI_)
	jirl	$ra, $ra, 0
.Ltmp199:
# %bb.61:
	lu12i.w	$a0, 1
	ori	$a0, $a0, 3904
	add.d	$a0, $sp, $a0
	pcaddu18i	$ra, %call36(_ZNSt4pairINSt7__cxx1112basic_stringIcSt11char_traitsIcESaIcEEEN2PP8VariableEED2Ev)
	jirl	$ra, $ra, 0
	lu12i.w	$a0, 1
	ori	$a0, $a0, 3216
	add.d	$a0, $sp, $a0
	ld.d	$a0, $a0, 0
	beq	$a0, $s2, .LBB7_63
# %bb.62:                               # %_ZNKSt7__cxx1112basic_stringIcSt11char_traitsIcESaIcEE11_M_is_localEv.exit.i.i802
	lu12i.w	$a1, 1
	ori	$a1, $a1, 3232
	add.d	$a1, $sp, $a1
	ld.d	$a1, $a1, 0
	addi.d	$a1, $a1, 1
	pcaddu18i	$ra, %call36(_ZdlPvm)
	jirl	$ra, $ra, 0
.LBB7_63:                               # %_ZNSt7__cxx1112basic_stringIcSt11char_traitsIcESaIcEED2Ev.exit804
	lu12i.w	$a0, 1
	ori	$a0, $a0, 3368
	add.d	$s2, $sp, $a0
	lu12i.w	$a0, 1
	ori	$a0, $a0, 3352
	add.d	$a0, $sp, $a0
	st.d	$s2, $a0, 0
	lu12i.w	$a0, 1
	ori	$a0, $a0, 3360
	add.d	$a0, $sp, $a0
	st.d	$zero, $a0, 0
	lu12i.w	$a0, 1
	ori	$a0, $a0, 3368
	add.d	$a0, $sp, $a0
	st.b	$zero, $a0, 0
.Ltmp201:
	lu12i.w	$a0, 524287
	ori	$a1, $a0, 4095
	lu12i.w	$a0, 1
	ori	$a0, $a0, 3384
	add.d	$a0, $sp, $a0
	ori	$a2, $zero, 1
	ori	$a3, $zero, 1
	lu12i.w	$a4, 1
	ori	$a4, $a4, 3352
	add.d	$a4, $sp, $a4
	move	$a5, $zero
	pcaddu18i	$ra, %call36(_ZN2PP4WordC1EiiiNSt7__cxx1112basic_stringIcSt11char_traitsIcESaIcEEEPSt5dequeIS6_SaIS6_EE)
	jirl	$ra, $ra, 0
.Ltmp202:
# %bb.64:
	lu12i.w	$a0, 1
	ori	$a0, $a0, 3352
	add.d	$a0, $sp, $a0
	ld.d	$a0, $a0, 0
	beq	$a0, $s2, .LBB7_66
# %bb.65:                               # %_ZNKSt7__cxx1112basic_stringIcSt11char_traitsIcESaIcEE11_M_is_localEv.exit.i.i809
	lu12i.w	$a1, 1
	ori	$a1, $a1, 3368
	add.d	$a1, $sp, $a1
	ld.d	$a1, $a1, 0
	addi.d	$a1, $a1, 1
	pcaddu18i	$ra, %call36(_ZdlPvm)
	jirl	$ra, $ra, 0
.LBB7_66:                               # %_ZNSt7__cxx1112basic_stringIcSt11char_traitsIcESaIcEED2Ev.exit811
	pcalau12i	$a0, %pc_hi20(.L.str.127)
	addi.d	$a0, $a0, %pc_lo12(.L.str.127)
	ld.d	$a1, $a0, 0
	ld.b	$a0, $a0, 8
	lu12i.w	$a2, 1
	ori	$a2, $a2, 3200
	add.d	$s4, $sp, $a2
	lu12i.w	$a2, 1
	ori	$a2, $a2, 3184
	add.d	$a2, $sp, $a2
	st.d	$s4, $a2, 0
	lu12i.w	$a2, 1
	ori	$a2, $a2, 3200
	add.d	$a2, $sp, $a2
	st.d	$a1, $a2, 0
	lu12i.w	$a1, 1
	ori	$a1, $a1, 3208
	add.d	$a1, $sp, $a1
	st.b	$a0, $a1, 0
	ori	$a0, $zero, 9
	lu12i.w	$a1, 1
	ori	$a1, $a1, 3192
	add.d	$a1, $sp, $a1
	st.d	$a0, $a1, 0
	lu12i.w	$a0, 1
	ori	$a0, $a0, 3209
	add.d	$a0, $sp, $a0
	st.b	$zero, $a0, 0
	lu12i.w	$a0, 1
	ori	$a0, $a0, 3168
	add.d	$s5, $sp, $a0
	lu12i.w	$a0, 1
	ori	$a0, $a0, 3392
	add.d	$a0, $sp, $a0
	ld.d	$s2, $a0, 0
	lu12i.w	$a0, 1
	ori	$a0, $a0, 3384
	add.d	$a0, $sp, $a0
	ld.d	$s3, $a0, 0
	lu12i.w	$a0, 1
	ori	$a0, $a0, 3152
	add.d	$a0, $sp, $a0
	st.d	$s5, $a0, 0
	ori	$a1, $zero, 16
	lu12i.w	$a0, 1
	ori	$a0, $a0, 3904
	add.d	$a0, $sp, $a0
	st.d	$s2, $a0, 0
	move	$a0, $s5
	bltu	$s2, $a1, .LBB7_69
# %bb.67:                               # %.noexc.i.i817
.Ltmp204:
	lu12i.w	$a0, 1
	ori	$a0, $a0, 3152
	add.d	$a0, $sp, $a0
	lu12i.w	$a1, 1
	ori	$a1, $a1, 3904
	add.d	$a1, $sp, $a1
	move	$a2, $zero
	pcaddu18i	$ra, %call36(_ZNSt7__cxx1112basic_stringIcSt11char_traitsIcESaIcEE9_M_createERmm)
	jirl	$ra, $ra, 0
.Ltmp205:
# %bb.68:                               # %.noexc818
	lu12i.w	$a1, 1
	ori	$a1, $a1, 3904
	add.d	$a1, $sp, $a1
	ld.d	$a1, $a1, 0
	lu12i.w	$a2, 1
	ori	$a2, $a2, 3152
	add.d	$a2, $sp, $a2
	st.d	$a0, $a2, 0
	lu12i.w	$a2, 1
	ori	$a2, $a2, 3168
	add.d	$a2, $sp, $a2
	st.d	$a1, $a2, 0
.LBB7_69:                               # %._crit_edge.i.i.i816
	beqz	$s2, .LBB7_73
# %bb.70:                               # %._crit_edge.i.i.i816
	ori	$a1, $zero, 1
	bne	$s2, $a1, .LBB7_72
# %bb.71:
	ld.b	$a1, $s3, 0
	st.b	$a1, $a0, 0
	b	.LBB7_73
.LBB7_72:
	move	$a1, $s3
	move	$a2, $s2
	pcaddu18i	$ra, %call36(memcpy)
	jirl	$ra, $ra, 0
.LBB7_73:                               # %._crit_edge.i.i820
	lu12i.w	$a0, 1
	ori	$a0, $a0, 3904
	add.d	$a0, $sp, $a0
	ld.d	$a0, $a0, 0
	lu12i.w	$a1, 1
	ori	$a1, $a1, 3152
	add.d	$a1, $sp, $a1
	ld.d	$a1, $a1, 0
	lu12i.w	$a2, 1
	ori	$a2, $a2, 3160
	add.d	$a2, $sp, $a2
	st.d	$a0, $a2, 0
	stx.b	$zero, $a1, $a0
	pcalau12i	$a0, %pc_hi20(.L.str.128)
	addi.d	$a0, $a0, %pc_lo12(.L.str.128)
	ld.d	$a1, $a0, 0
	ld.d	$a0, $a0, 7
	lu12i.w	$a2, 1
	ori	$a2, $a2, 3136
	add.d	$s2, $sp, $a2
	lu12i.w	$a2, 1
	ori	$a2, $a2, 3120
	add.d	$a2, $sp, $a2
	st.d	$s2, $a2, 0
	lu12i.w	$a2, 1
	ori	$a2, $a2, 3136
	add.d	$a2, $sp, $a2
	st.d	$a1, $a2, 0
	lu12i.w	$a1, 1
	ori	$a1, $a1, 3143
	add.d	$a1, $sp, $a1
	st.d	$a0, $a1, 0
	ori	$a0, $zero, 15
	lu12i.w	$a1, 1
	ori	$a1, $a1, 3128
	add.d	$a1, $sp, $a1
	st.d	$a0, $a1, 0
	lu12i.w	$a0, 1
	ori	$a0, $a0, 3151
	add.d	$a0, $sp, $a0
	st.b	$zero, $a0, 0
.Ltmp207:
	lu12i.w	$a0, 1
	ori	$a0, $a0, 3216
	add.d	$a0, $sp, $a0
	lu12i.w	$a1, 1
	ori	$a1, $a1, 3184
	add.d	$a1, $sp, $a1
	lu12i.w	$a2, 1
	ori	$a2, $a2, 3152
	add.d	$a2, $sp, $a2
	ori	$a3, $zero, 1
	lu12i.w	$a4, 1
	ori	$a4, $a4, 3120
	add.d	$a4, $sp, $a4
	pcaddu18i	$ra, %call36(_ZN2PP8VariableC1ENSt7__cxx1112basic_stringIcSt11char_traitsIcESaIcEEES6_bS6_)
	jirl	$ra, $ra, 0
.Ltmp208:
# %bb.74:
	lu12i.w	$a0, 1
	ori	$a0, $a0, 3120
	add.d	$a0, $sp, $a0
	ld.d	$a0, $a0, 0
	beq	$a0, $s2, .LBB7_76
# %bb.75:                               # %_ZNKSt7__cxx1112basic_stringIcSt11char_traitsIcESaIcEE11_M_is_localEv.exit.i.i824
	lu12i.w	$a1, 1
	ori	$a1, $a1, 3136
	add.d	$a1, $sp, $a1
	ld.d	$a1, $a1, 0
	addi.d	$a1, $a1, 1
	pcaddu18i	$ra, %call36(_ZdlPvm)
	jirl	$ra, $ra, 0
.LBB7_76:                               # %_ZNSt7__cxx1112basic_stringIcSt11char_traitsIcESaIcEED2Ev.exit826
	lu12i.w	$a0, 1
	ori	$a0, $a0, 3152
	add.d	$a0, $sp, $a0
	ld.d	$a0, $a0, 0
	beq	$a0, $s5, .LBB7_78
# %bb.77:                               # %_ZNKSt7__cxx1112basic_stringIcSt11char_traitsIcESaIcEE11_M_is_localEv.exit.i.i827
	lu12i.w	$a1, 1
	ori	$a1, $a1, 3168
	add.d	$a1, $sp, $a1
	ld.d	$a1, $a1, 0
	addi.d	$a1, $a1, 1
	pcaddu18i	$ra, %call36(_ZdlPvm)
	jirl	$ra, $ra, 0
.LBB7_78:                               # %_ZNSt7__cxx1112basic_stringIcSt11char_traitsIcESaIcEED2Ev.exit829
	lu12i.w	$a0, 1
	ori	$a0, $a0, 3184
	add.d	$a0, $sp, $a0
	ld.d	$a0, $a0, 0
	beq	$a0, $s4, .LBB7_80
# %bb.79:                               # %_ZNKSt7__cxx1112basic_stringIcSt11char_traitsIcESaIcEE11_M_is_localEv.exit.i.i830
	lu12i.w	$a1, 1
	ori	$a1, $a1, 3200
	add.d	$a1, $sp, $a1
	ld.d	$a1, $a1, 0
	addi.d	$a1, $a1, 1
	pcaddu18i	$ra, %call36(_ZdlPvm)
	jirl	$ra, $ra, 0
.LBB7_80:                               # %_ZNSt7__cxx1112basic_stringIcSt11char_traitsIcESaIcEED2Ev.exit832
	lu12i.w	$a0, 1
	ori	$a0, $a0, 2840
	add.d	$s2, $sp, $a0
	lu12i.w	$a0, 1
	ori	$a0, $a0, 3224
	add.d	$a0, $sp, $a0
	ld.d	$s3, $a0, 0
	lu12i.w	$a0, 1
	ori	$a0, $a0, 3216
	add.d	$a0, $sp, $a0
	ld.d	$s4, $a0, 0
	lu12i.w	$a0, 1
	ori	$a0, $a0, 2824
	add.d	$a0, $sp, $a0
	st.d	$s2, $a0, 0
	ori	$a1, $zero, 16
	lu12i.w	$a0, 1
	ori	$a0, $a0, 2432
	add.d	$a0, $sp, $a0
	st.d	$s3, $a0, 0
	move	$a0, $s2
	bltu	$s3, $a1, .LBB7_83
# %bb.81:                               # %.noexc.i.i834
.Ltmp210:
	lu12i.w	$a0, 1
	ori	$a0, $a0, 2824
	add.d	$a0, $sp, $a0
	lu12i.w	$a1, 1
	ori	$a1, $a1, 2432
	add.d	$a1, $sp, $a1
	move	$a2, $zero
	pcaddu18i	$ra, %call36(_ZNSt7__cxx1112basic_stringIcSt11char_traitsIcESaIcEE9_M_createERmm)
	jirl	$ra, $ra, 0
.Ltmp211:
# %bb.82:                               # %.noexc835
	lu12i.w	$a1, 1
	ori	$a1, $a1, 2432
	add.d	$a1, $sp, $a1
	ld.d	$a1, $a1, 0
	lu12i.w	$a2, 1
	ori	$a2, $a2, 2824
	add.d	$a2, $sp, $a2
	st.d	$a0, $a2, 0
	lu12i.w	$a2, 1
	ori	$a2, $a2, 2840
	add.d	$a2, $sp, $a2
	st.d	$a1, $a2, 0
.LBB7_83:                               # %._crit_edge.i.i.i833
	beqz	$s3, .LBB7_87
# %bb.84:                               # %._crit_edge.i.i.i833
	ori	$a1, $zero, 1
	bne	$s3, $a1, .LBB7_86
# %bb.85:
	ld.b	$a1, $s4, 0
	st.b	$a1, $a0, 0
	b	.LBB7_87
.LBB7_86:
	move	$a1, $s4
	move	$a2, $s3
	pcaddu18i	$ra, %call36(memcpy)
	jirl	$ra, $ra, 0
.LBB7_87:
	lu12i.w	$a0, 1
	ori	$a0, $a0, 2432
	add.d	$a0, $sp, $a0
	ld.d	$a0, $a0, 0
	lu12i.w	$a1, 1
	ori	$a1, $a1, 2824
	add.d	$a1, $sp, $a1
	ld.d	$a1, $a1, 0
	lu12i.w	$a2, 1
	ori	$a2, $a2, 2832
	add.d	$a2, $sp, $a2
	st.d	$a0, $a2, 0
	stx.b	$zero, $a1, $a0
	lu12i.w	$a0, 1
	ori	$a0, $a0, 2824
	add.d	$a0, $sp, $a0
	ld.d	$a0, $a0, 0
	lu12i.w	$a1, 1
	ori	$a1, $a1, 3904
	add.d	$a1, $sp, $a1
	st.d	$fp, $a1, 0
	beq	$a0, $s2, .LBB7_89
# %bb.88:                               # %_ZNKSt7__cxx1112basic_stringIcSt11char_traitsIcESaIcEE11_M_is_localEv.exit.i.i837
	lu12i.w	$a1, 1
	ori	$a1, $a1, 2840
	add.d	$a1, $sp, $a1
	ld.d	$a1, $a1, 0
	lu12i.w	$a2, 1
	ori	$a2, $a2, 2832
	add.d	$a2, $sp, $a2
	ld.d	$s3, $a2, 0
	lu12i.w	$a2, 1
	ori	$a2, $a2, 3904
	add.d	$a2, $sp, $a2
	st.d	$a0, $a2, 0
	lu12i.w	$a0, 1
	ori	$a0, $a0, 3920
	add.d	$a0, $sp, $a0
	st.d	$a1, $a0, 0
	b	.LBB7_90
.LBB7_89:
	lu12i.w	$a0, 1
	ori	$a0, $a0, 2832
	add.d	$a0, $sp, $a0
	ld.d	$s3, $a0, 0
	addi.d	$a2, $s3, 1
	move	$a0, $fp
	move	$a1, $s2
	pcaddu18i	$ra, %call36(memcpy)
	jirl	$ra, $ra, 0
.LBB7_90:                               # %_ZNSt7__cxx1112basic_stringIcSt11char_traitsIcESaIcEEC2EOS4_.exit.i838
	lu12i.w	$a0, 1
	ori	$a0, $a0, 3912
	add.d	$a0, $sp, $a0
	st.d	$s3, $a0, 0
	lu12i.w	$a0, 1
	ori	$a0, $a0, 2824
	add.d	$a0, $sp, $a0
	st.d	$s2, $a0, 0
	lu12i.w	$a0, 1
	ori	$a0, $a0, 2832
	add.d	$a0, $sp, $a0
	st.d	$zero, $a0, 0
	lu12i.w	$a0, 1
	ori	$a0, $a0, 2840
	add.d	$a0, $sp, $a0
	st.b	$zero, $a0, 0
	lu12i.w	$a0, 1
	ori	$a0, $a0, 3936
	add.d	$a0, $sp, $a0
.Ltmp213:
	lu12i.w	$a1, 1
	ori	$a1, $a1, 3216
	add.d	$a1, $sp, $a1
	pcaddu18i	$ra, %call36(_ZN2PP8VariableC2ERKS0_)
	jirl	$ra, $ra, 0
.Ltmp214:
# %bb.91:                               # %_ZNSt4pairINSt7__cxx1112basic_stringIcSt11char_traitsIcESaIcEEEN2PP8VariableEEC2IS5_RS7_TnNSt9enable_ifIXaaclsr5_PCCPE22_MoveConstructiblePairIT_T0_EEclsr5_PCCPE30_ImplicitlyMoveConvertiblePairISC_SD_EEEbE4typeELb1EEEOSC_OSD_.exit844
.Ltmp216:
	lu12i.w	$a0, 1
	ori	$a0, $a0, 3904
	add.d	$a1, $sp, $a0
	move	$a0, $s1
	pcaddu18i	$ra, %call36(_ZNSt3mapINSt7__cxx1112basic_stringIcSt11char_traitsIcESaIcEEEN2PP8VariableESt4lessIS5_ESaISt4pairIKS5_S7_EEE6insertISA_IS5_S7_EEENSt9enable_ifIXsr16is_constructibleISC_T_EE5valueESA_ISt17_Rb_tree_iteratorISC_EbEE4typeEOSI_)
	jirl	$ra, $ra, 0
.Ltmp217:
# %bb.92:
	lu12i.w	$a0, 1
	ori	$a0, $a0, 3904
	add.d	$a0, $sp, $a0
	pcaddu18i	$ra, %call36(_ZNSt4pairINSt7__cxx1112basic_stringIcSt11char_traitsIcESaIcEEEN2PP8VariableEED2Ev)
	jirl	$ra, $ra, 0
	lu12i.w	$a0, 1
	ori	$a0, $a0, 2824
	add.d	$a0, $sp, $a0
	ld.d	$a0, $a0, 0
	beq	$a0, $s2, .LBB7_94
# %bb.93:                               # %_ZNKSt7__cxx1112basic_stringIcSt11char_traitsIcESaIcEE11_M_is_localEv.exit.i.i845
	lu12i.w	$a1, 1
	ori	$a1, $a1, 2840
	add.d	$a1, $sp, $a1
	ld.d	$a1, $a1, 0
	addi.d	$a1, $a1, 1
	pcaddu18i	$ra, %call36(_ZdlPvm)
	jirl	$ra, $ra, 0
.LBB7_94:                               # %_ZNSt7__cxx1112basic_stringIcSt11char_traitsIcESaIcEED2Ev.exit847
	lu12i.w	$a0, 1
	ori	$a0, $a0, 2976
	add.d	$s2, $sp, $a0
	lu12i.w	$a0, 1
	ori	$a0, $a0, 2960
	add.d	$a0, $sp, $a0
	st.d	$s2, $a0, 0
	lu12i.w	$a0, 1
	ori	$a0, $a0, 2968
	add.d	$a0, $sp, $a0
	st.d	$zero, $a0, 0
	lu12i.w	$a0, 1
	ori	$a0, $a0, 2976
	add.d	$a0, $sp, $a0
	st.b	$zero, $a0, 0
.Ltmp219:
	pcalau12i	$a0, %pc_hi20(.LCPI7_2)
	fld.d	$fa0, $a0, %pc_lo12(.LCPI7_2)
	lu12i.w	$a0, 1
	ori	$a0, $a0, 2992
	add.d	$a0, $sp, $a0
	ori	$a1, $zero, 1
	ori	$a2, $zero, 1
	lu12i.w	$a3, 1
	ori	$a3, $a3, 2960
	add.d	$a3, $sp, $a3
	move	$a4, $zero
	pcaddu18i	$ra, %call36(_ZN2PP4WordC1EdiiNSt7__cxx1112basic_stringIcSt11char_traitsIcESaIcEEEPSt5dequeIS6_SaIS6_EE)
	jirl	$ra, $ra, 0
.Ltmp220:
# %bb.95:
	lu12i.w	$a0, 1
	ori	$a0, $a0, 2960
	add.d	$a0, $sp, $a0
	ld.d	$a0, $a0, 0
	beq	$a0, $s2, .LBB7_97
# %bb.96:                               # %_ZNKSt7__cxx1112basic_stringIcSt11char_traitsIcESaIcEE11_M_is_localEv.exit.i.i852
	lu12i.w	$a1, 1
	ori	$a1, $a1, 2976
	add.d	$a1, $sp, $a1
	ld.d	$a1, $a1, 0
	addi.d	$a1, $a1, 1
	pcaddu18i	$ra, %call36(_ZdlPvm)
	jirl	$ra, $ra, 0
.LBB7_97:                               # %_ZNSt7__cxx1112basic_stringIcSt11char_traitsIcESaIcEED2Ev.exit854
	pcalau12i	$a0, %pc_hi20(.L.str.129)
	addi.d	$a0, $a0, %pc_lo12(.L.str.129)
	ld.d	$a1, $a0, 0
	ld.w	$a0, $a0, 8
	lu12i.w	$a2, 1
	ori	$a2, $a2, 2808
	add.d	$s4, $sp, $a2
	lu12i.w	$a2, 1
	ori	$a2, $a2, 2792
	add.d	$a2, $sp, $a2
	st.d	$s4, $a2, 0
	lu12i.w	$a2, 1
	ori	$a2, $a2, 2808
	add.d	$a2, $sp, $a2
	st.d	$a1, $a2, 0
	lu12i.w	$a1, 1
	ori	$a1, $a1, 2816
	add.d	$a1, $sp, $a1
	st.w	$a0, $a1, 0
	ori	$a0, $zero, 12
	lu12i.w	$a1, 1
	ori	$a1, $a1, 2800
	add.d	$a1, $sp, $a1
	st.d	$a0, $a1, 0
	lu12i.w	$a0, 1
	ori	$a0, $a0, 2820
	add.d	$a0, $sp, $a0
	st.b	$zero, $a0, 0
	lu12i.w	$a0, 1
	ori	$a0, $a0, 2776
	add.d	$s5, $sp, $a0
	lu12i.w	$a0, 1
	ori	$a0, $a0, 3000
	add.d	$a0, $sp, $a0
	ld.d	$s2, $a0, 0
	lu12i.w	$a0, 1
	ori	$a0, $a0, 2992
	add.d	$a0, $sp, $a0
	ld.d	$s3, $a0, 0
	lu12i.w	$a0, 1
	ori	$a0, $a0, 2760
	add.d	$a0, $sp, $a0
	st.d	$s5, $a0, 0
	ori	$a1, $zero, 16
	lu12i.w	$a0, 1
	ori	$a0, $a0, 3904
	add.d	$a0, $sp, $a0
	st.d	$s2, $a0, 0
	move	$a0, $s5
	bltu	$s2, $a1, .LBB7_100
# %bb.98:                               # %.noexc.i.i860
.Ltmp222:
	lu12i.w	$a0, 1
	ori	$a0, $a0, 2760
	add.d	$a0, $sp, $a0
	lu12i.w	$a1, 1
	ori	$a1, $a1, 3904
	add.d	$a1, $sp, $a1
	move	$a2, $zero
	pcaddu18i	$ra, %call36(_ZNSt7__cxx1112basic_stringIcSt11char_traitsIcESaIcEE9_M_createERmm)
	jirl	$ra, $ra, 0
.Ltmp223:
# %bb.99:                               # %.noexc861
	lu12i.w	$a1, 1
	ori	$a1, $a1, 3904
	add.d	$a1, $sp, $a1
	ld.d	$a1, $a1, 0
	lu12i.w	$a2, 1
	ori	$a2, $a2, 2760
	add.d	$a2, $sp, $a2
	st.d	$a0, $a2, 0
	lu12i.w	$a2, 1
	ori	$a2, $a2, 2776
	add.d	$a2, $sp, $a2
	st.d	$a1, $a2, 0
.LBB7_100:                              # %._crit_edge.i.i.i859
	beqz	$s2, .LBB7_104
# %bb.101:                              # %._crit_edge.i.i.i859
	ori	$a1, $zero, 1
	bne	$s2, $a1, .LBB7_103
# %bb.102:
	ld.b	$a1, $s3, 0
	st.b	$a1, $a0, 0
	b	.LBB7_104
.LBB7_103:
	move	$a1, $s3
	move	$a2, $s2
	pcaddu18i	$ra, %call36(memcpy)
	jirl	$ra, $ra, 0
.LBB7_104:                              # %._crit_edge.i.i863
	lu12i.w	$a0, 1
	ori	$a0, $a0, 3904
	add.d	$a0, $sp, $a0
	ld.d	$a0, $a0, 0
	lu12i.w	$a1, 1
	ori	$a1, $a1, 2760
	add.d	$a1, $sp, $a1
	ld.d	$a1, $a1, 0
	lu12i.w	$a2, 1
	ori	$a2, $a2, 2768
	add.d	$a2, $sp, $a2
	st.d	$a0, $a2, 0
	stx.b	$zero, $a1, $a0
	pcalau12i	$a0, %pc_hi20(.L.str.130)
	addi.d	$a0, $a0, %pc_lo12(.L.str.130)
	ld.d	$a1, $a0, 0
	ld.d	$a0, $a0, 6
	lu12i.w	$a2, 1
	ori	$a2, $a2, 2744
	add.d	$s2, $sp, $a2
	lu12i.w	$a2, 1
	ori	$a2, $a2, 2728
	add.d	$a2, $sp, $a2
	st.d	$s2, $a2, 0
	lu12i.w	$a2, 1
	ori	$a2, $a2, 2744
	add.d	$a2, $sp, $a2
	st.d	$a1, $a2, 0
	lu12i.w	$a1, 1
	ori	$a1, $a1, 2750
	add.d	$a1, $sp, $a1
	st.d	$a0, $a1, 0
	ori	$a0, $zero, 14
	lu12i.w	$a1, 1
	ori	$a1, $a1, 2736
	add.d	$a1, $sp, $a1
	st.d	$a0, $a1, 0
	lu12i.w	$a0, 1
	ori	$a0, $a0, 2758
	add.d	$a0, $sp, $a0
	st.b	$zero, $a0, 0
.Ltmp225:
	lu12i.w	$a0, 1
	ori	$a0, $a0, 2824
	add.d	$a0, $sp, $a0
	lu12i.w	$a1, 1
	ori	$a1, $a1, 2792
	add.d	$a1, $sp, $a1
	lu12i.w	$a2, 1
	ori	$a2, $a2, 2760
	add.d	$a2, $sp, $a2
	ori	$a3, $zero, 1
	lu12i.w	$a4, 1
	ori	$a4, $a4, 2728
	add.d	$a4, $sp, $a4
	pcaddu18i	$ra, %call36(_ZN2PP8VariableC1ENSt7__cxx1112basic_stringIcSt11char_traitsIcESaIcEEES6_bS6_)
	jirl	$ra, $ra, 0
.Ltmp226:
# %bb.105:
	lu12i.w	$a0, 1
	ori	$a0, $a0, 2728
	add.d	$a0, $sp, $a0
	ld.d	$a0, $a0, 0
	beq	$a0, $s2, .LBB7_107
# %bb.106:                              # %_ZNKSt7__cxx1112basic_stringIcSt11char_traitsIcESaIcEE11_M_is_localEv.exit.i.i867
	lu12i.w	$a1, 1
	ori	$a1, $a1, 2744
	add.d	$a1, $sp, $a1
	ld.d	$a1, $a1, 0
	addi.d	$a1, $a1, 1
	pcaddu18i	$ra, %call36(_ZdlPvm)
	jirl	$ra, $ra, 0
.LBB7_107:                              # %_ZNSt7__cxx1112basic_stringIcSt11char_traitsIcESaIcEED2Ev.exit869
	lu12i.w	$a0, 1
	ori	$a0, $a0, 2760
	add.d	$a0, $sp, $a0
	ld.d	$a0, $a0, 0
	beq	$a0, $s5, .LBB7_109
# %bb.108:                              # %_ZNKSt7__cxx1112basic_stringIcSt11char_traitsIcESaIcEE11_M_is_localEv.exit.i.i870
	lu12i.w	$a1, 1
	ori	$a1, $a1, 2776
	add.d	$a1, $sp, $a1
	ld.d	$a1, $a1, 0
	addi.d	$a1, $a1, 1
	pcaddu18i	$ra, %call36(_ZdlPvm)
	jirl	$ra, $ra, 0
.LBB7_109:                              # %_ZNSt7__cxx1112basic_stringIcSt11char_traitsIcESaIcEED2Ev.exit872
	lu12i.w	$a0, 1
	ori	$a0, $a0, 2792
	add.d	$a0, $sp, $a0
	ld.d	$a0, $a0, 0
	beq	$a0, $s4, .LBB7_111
# %bb.110:                              # %_ZNKSt7__cxx1112basic_stringIcSt11char_traitsIcESaIcEE11_M_is_localEv.exit.i.i873
	lu12i.w	$a1, 1
	ori	$a1, $a1, 2808
	add.d	$a1, $sp, $a1
	ld.d	$a1, $a1, 0
	addi.d	$a1, $a1, 1
	pcaddu18i	$ra, %call36(_ZdlPvm)
	jirl	$ra, $ra, 0
.LBB7_111:                              # %_ZNSt7__cxx1112basic_stringIcSt11char_traitsIcESaIcEED2Ev.exit875
	lu12i.w	$a0, 1
	ori	$a0, $a0, 2448
	add.d	$s2, $sp, $a0
	lu12i.w	$a0, 1
	ori	$a0, $a0, 2832
	add.d	$a0, $sp, $a0
	ld.d	$s3, $a0, 0
	lu12i.w	$a0, 1
	ori	$a0, $a0, 2824
	add.d	$a0, $sp, $a0
	ld.d	$s4, $a0, 0
	lu12i.w	$a0, 1
	ori	$a0, $a0, 2432
	add.d	$a0, $sp, $a0
	st.d	$s2, $a0, 0
	ori	$a1, $zero, 16
	lu12i.w	$a0, 1
	ori	$a0, $a0, 2040
	add.d	$a0, $sp, $a0
	st.d	$s3, $a0, 0
	move	$a0, $s2
	bltu	$s3, $a1, .LBB7_114
# %bb.112:                              # %.noexc.i.i877
.Ltmp228:
	lu12i.w	$a0, 1
	ori	$a0, $a0, 2432
	add.d	$a0, $sp, $a0
	lu12i.w	$a1, 1
	ori	$a1, $a1, 2040
	add.d	$a1, $sp, $a1
	move	$a2, $zero
	pcaddu18i	$ra, %call36(_ZNSt7__cxx1112basic_stringIcSt11char_traitsIcESaIcEE9_M_createERmm)
	jirl	$ra, $ra, 0
.Ltmp229:
# %bb.113:                              # %.noexc878
	lu12i.w	$a1, 1
	ori	$a1, $a1, 2040
	add.d	$a1, $sp, $a1
	ld.d	$a1, $a1, 0
	lu12i.w	$a2, 1
	ori	$a2, $a2, 2432
	add.d	$a2, $sp, $a2
	st.d	$a0, $a2, 0
	lu12i.w	$a2, 1
	ori	$a2, $a2, 2448
	add.d	$a2, $sp, $a2
	st.d	$a1, $a2, 0
.LBB7_114:                              # %._crit_edge.i.i.i876
	beqz	$s3, .LBB7_118
# %bb.115:                              # %._crit_edge.i.i.i876
	ori	$a1, $zero, 1
	bne	$s3, $a1, .LBB7_117
# %bb.116:
	ld.b	$a1, $s4, 0
	st.b	$a1, $a0, 0
	b	.LBB7_118
.LBB7_117:
	move	$a1, $s4
	move	$a2, $s3
	pcaddu18i	$ra, %call36(memcpy)
	jirl	$ra, $ra, 0
.LBB7_118:
	lu12i.w	$a0, 1
	ori	$a0, $a0, 2040
	add.d	$a0, $sp, $a0
	ld.d	$a0, $a0, 0
	lu12i.w	$a1, 1
	ori	$a1, $a1, 2432
	add.d	$a1, $sp, $a1
	ld.d	$a1, $a1, 0
	lu12i.w	$a2, 1
	ori	$a2, $a2, 2440
	add.d	$a2, $sp, $a2
	st.d	$a0, $a2, 0
	stx.b	$zero, $a1, $a0
	lu12i.w	$a0, 1
	ori	$a0, $a0, 2432
	add.d	$a0, $sp, $a0
	ld.d	$a0, $a0, 0
	lu12i.w	$a1, 1
	ori	$a1, $a1, 3904
	add.d	$a1, $sp, $a1
	st.d	$fp, $a1, 0
	beq	$a0, $s2, .LBB7_120
# %bb.119:                              # %_ZNKSt7__cxx1112basic_stringIcSt11char_traitsIcESaIcEE11_M_is_localEv.exit.i.i880
	lu12i.w	$a1, 1
	ori	$a1, $a1, 2448
	add.d	$a1, $sp, $a1
	ld.d	$a1, $a1, 0
	lu12i.w	$a2, 1
	ori	$a2, $a2, 2440
	add.d	$a2, $sp, $a2
	ld.d	$s3, $a2, 0
	lu12i.w	$a2, 1
	ori	$a2, $a2, 3904
	add.d	$a2, $sp, $a2
	st.d	$a0, $a2, 0
	lu12i.w	$a0, 1
	ori	$a0, $a0, 3920
	add.d	$a0, $sp, $a0
	st.d	$a1, $a0, 0
	b	.LBB7_121
.LBB7_120:
	lu12i.w	$a0, 1
	ori	$a0, $a0, 2440
	add.d	$a0, $sp, $a0
	ld.d	$s3, $a0, 0
	addi.d	$a2, $s3, 1
	move	$a0, $fp
	move	$a1, $s2
	pcaddu18i	$ra, %call36(memcpy)
	jirl	$ra, $ra, 0
.LBB7_121:                              # %_ZNSt7__cxx1112basic_stringIcSt11char_traitsIcESaIcEEC2EOS4_.exit.i881
	lu12i.w	$a0, 1
	ori	$a0, $a0, 3912
	add.d	$a0, $sp, $a0
	st.d	$s3, $a0, 0
	lu12i.w	$a0, 1
	ori	$a0, $a0, 2432
	add.d	$a0, $sp, $a0
	st.d	$s2, $a0, 0
	lu12i.w	$a0, 1
	ori	$a0, $a0, 2440
	add.d	$a0, $sp, $a0
	st.d	$zero, $a0, 0
	lu12i.w	$a0, 1
	ori	$a0, $a0, 2448
	add.d	$a0, $sp, $a0
	st.b	$zero, $a0, 0
	lu12i.w	$a0, 1
	ori	$a0, $a0, 3936
	add.d	$a0, $sp, $a0
.Ltmp231:
	lu12i.w	$a1, 1
	ori	$a1, $a1, 2824
	add.d	$a1, $sp, $a1
	pcaddu18i	$ra, %call36(_ZN2PP8VariableC2ERKS0_)
	jirl	$ra, $ra, 0
.Ltmp232:
# %bb.122:                              # %_ZNSt4pairINSt7__cxx1112basic_stringIcSt11char_traitsIcESaIcEEEN2PP8VariableEEC2IS5_RS7_TnNSt9enable_ifIXaaclsr5_PCCPE22_MoveConstructiblePairIT_T0_EEclsr5_PCCPE30_ImplicitlyMoveConvertiblePairISC_SD_EEEbE4typeELb1EEEOSC_OSD_.exit887
.Ltmp234:
	lu12i.w	$a0, 1
	ori	$a0, $a0, 3904
	add.d	$a1, $sp, $a0
	move	$a0, $s1
	pcaddu18i	$ra, %call36(_ZNSt3mapINSt7__cxx1112basic_stringIcSt11char_traitsIcESaIcEEEN2PP8VariableESt4lessIS5_ESaISt4pairIKS5_S7_EEE6insertISA_IS5_S7_EEENSt9enable_ifIXsr16is_constructibleISC_T_EE5valueESA_ISt17_Rb_tree_iteratorISC_EbEE4typeEOSI_)
	jirl	$ra, $ra, 0
.Ltmp235:
# %bb.123:
	lu12i.w	$a0, 1
	ori	$a0, $a0, 3904
	add.d	$a0, $sp, $a0
	pcaddu18i	$ra, %call36(_ZNSt4pairINSt7__cxx1112basic_stringIcSt11char_traitsIcESaIcEEEN2PP8VariableEED2Ev)
	jirl	$ra, $ra, 0
	lu12i.w	$a0, 1
	ori	$a0, $a0, 2432
	add.d	$a0, $sp, $a0
	ld.d	$a0, $a0, 0
	beq	$a0, $s2, .LBB7_125
# %bb.124:                              # %_ZNKSt7__cxx1112basic_stringIcSt11char_traitsIcESaIcEE11_M_is_localEv.exit.i.i888
	lu12i.w	$a1, 1
	ori	$a1, $a1, 2448
	add.d	$a1, $sp, $a1
	ld.d	$a1, $a1, 0
	addi.d	$a1, $a1, 1
	pcaddu18i	$ra, %call36(_ZdlPvm)
	jirl	$ra, $ra, 0
.LBB7_125:                              # %_ZNSt7__cxx1112basic_stringIcSt11char_traitsIcESaIcEED2Ev.exit890
	lu12i.w	$a0, 1
	ori	$a0, $a0, 2584
	add.d	$s2, $sp, $a0
	lu12i.w	$a0, 1
	ori	$a0, $a0, 2568
	add.d	$a0, $sp, $a0
	st.d	$s2, $a0, 0
	lu12i.w	$a0, 1
	ori	$a0, $a0, 2576
	add.d	$a0, $sp, $a0
	st.d	$zero, $a0, 0
	lu12i.w	$a0, 1
	ori	$a0, $a0, 2584
	add.d	$a0, $sp, $a0
	st.b	$zero, $a0, 0
.Ltmp237:
	pcalau12i	$a0, %pc_hi20(.LCPI7_3)
	fld.d	$fa0, $a0, %pc_lo12(.LCPI7_3)
	lu12i.w	$a0, 1
	ori	$a0, $a0, 2600
	add.d	$a0, $sp, $a0
	ori	$a1, $zero, 1
	ori	$a2, $zero, 1
	lu12i.w	$a3, 1
	ori	$a3, $a3, 2568
	add.d	$a3, $sp, $a3
	move	$a4, $zero
	pcaddu18i	$ra, %call36(_ZN2PP4WordC1EdiiNSt7__cxx1112basic_stringIcSt11char_traitsIcESaIcEEEPSt5dequeIS6_SaIS6_EE)
	jirl	$ra, $ra, 0
.Ltmp238:
# %bb.126:
	lu12i.w	$a0, 1
	ori	$a0, $a0, 2568
	add.d	$a0, $sp, $a0
	ld.d	$a0, $a0, 0
	beq	$a0, $s2, .LBB7_128
# %bb.127:                              # %_ZNKSt7__cxx1112basic_stringIcSt11char_traitsIcESaIcEE11_M_is_localEv.exit.i.i895
	lu12i.w	$a1, 1
	ori	$a1, $a1, 2584
	add.d	$a1, $sp, $a1
	ld.d	$a1, $a1, 0
	addi.d	$a1, $a1, 1
	pcaddu18i	$ra, %call36(_ZdlPvm)
	jirl	$ra, $ra, 0
.LBB7_128:                              # %_ZNSt7__cxx1112basic_stringIcSt11char_traitsIcESaIcEED2Ev.exit897
	pcalau12i	$a0, %pc_hi20(.L.str.131)
	addi.d	$a0, $a0, %pc_lo12(.L.str.131)
	ld.d	$a1, $a0, 0
	ld.w	$a0, $a0, 7
	lu12i.w	$a2, 1
	ori	$a2, $a2, 2416
	add.d	$s4, $sp, $a2
	lu12i.w	$a2, 1
	ori	$a2, $a2, 2400
	add.d	$a2, $sp, $a2
	st.d	$s4, $a2, 0
	lu12i.w	$a2, 1
	ori	$a2, $a2, 2416
	add.d	$a2, $sp, $a2
	st.d	$a1, $a2, 0
	lu12i.w	$a1, 1
	ori	$a1, $a1, 2423
	add.d	$a1, $sp, $a1
	st.w	$a0, $a1, 0
	ori	$a0, $zero, 11
	lu12i.w	$a1, 1
	ori	$a1, $a1, 2408
	add.d	$a1, $sp, $a1
	st.d	$a0, $a1, 0
	lu12i.w	$a0, 1
	ori	$a0, $a0, 2427
	add.d	$a0, $sp, $a0
	st.b	$zero, $a0, 0
	lu12i.w	$a0, 1
	ori	$a0, $a0, 2384
	add.d	$s5, $sp, $a0
	lu12i.w	$a0, 1
	ori	$a0, $a0, 2608
	add.d	$a0, $sp, $a0
	ld.d	$s2, $a0, 0
	lu12i.w	$a0, 1
	ori	$a0, $a0, 2600
	add.d	$a0, $sp, $a0
	ld.d	$s3, $a0, 0
	lu12i.w	$a0, 1
	ori	$a0, $a0, 2368
	add.d	$a0, $sp, $a0
	st.d	$s5, $a0, 0
	ori	$a1, $zero, 16
	lu12i.w	$a0, 1
	ori	$a0, $a0, 3904
	add.d	$a0, $sp, $a0
	st.d	$s2, $a0, 0
	move	$a0, $s5
	bltu	$s2, $a1, .LBB7_131
# %bb.129:                              # %.noexc.i.i903
.Ltmp240:
	lu12i.w	$a0, 1
	ori	$a0, $a0, 2368
	add.d	$a0, $sp, $a0
	lu12i.w	$a1, 1
	ori	$a1, $a1, 3904
	add.d	$a1, $sp, $a1
	move	$a2, $zero
	pcaddu18i	$ra, %call36(_ZNSt7__cxx1112basic_stringIcSt11char_traitsIcESaIcEE9_M_createERmm)
	jirl	$ra, $ra, 0
.Ltmp241:
# %bb.130:                              # %.noexc904
	lu12i.w	$a1, 1
	ori	$a1, $a1, 3904
	add.d	$a1, $sp, $a1
	ld.d	$a1, $a1, 0
	lu12i.w	$a2, 1
	ori	$a2, $a2, 2368
	add.d	$a2, $sp, $a2
	st.d	$a0, $a2, 0
	lu12i.w	$a2, 1
	ori	$a2, $a2, 2384
	add.d	$a2, $sp, $a2
	st.d	$a1, $a2, 0
.LBB7_131:                              # %._crit_edge.i.i.i902
	beqz	$s2, .LBB7_135
# %bb.132:                              # %._crit_edge.i.i.i902
	ori	$a1, $zero, 1
	bne	$s2, $a1, .LBB7_134
# %bb.133:
	ld.b	$a1, $s3, 0
	st.b	$a1, $a0, 0
	b	.LBB7_135
.LBB7_134:
	move	$a1, $s3
	move	$a2, $s2
	pcaddu18i	$ra, %call36(memcpy)
	jirl	$ra, $ra, 0
.LBB7_135:                              # %._crit_edge.i.i906
	lu12i.w	$a0, 1
	ori	$a0, $a0, 3904
	add.d	$a0, $sp, $a0
	ld.d	$a0, $a0, 0
	lu12i.w	$a1, 1
	ori	$a1, $a1, 2368
	add.d	$a1, $sp, $a1
	ld.d	$a1, $a1, 0
	lu12i.w	$a2, 1
	ori	$a2, $a2, 2376
	add.d	$a2, $sp, $a2
	st.d	$a0, $a2, 0
	stx.b	$zero, $a1, $a0
	pcalau12i	$a0, %pc_hi20(.L.str.132)
	addi.d	$a0, $a0, %pc_lo12(.L.str.132)
	ld.d	$a1, $a0, 0
	ld.d	$a0, $a0, 5
	lu12i.w	$a2, 1
	ori	$a2, $a2, 2352
	add.d	$s2, $sp, $a2
	lu12i.w	$a2, 1
	ori	$a2, $a2, 2336
	add.d	$a2, $sp, $a2
	st.d	$s2, $a2, 0
	lu12i.w	$a2, 1
	ori	$a2, $a2, 2352
	add.d	$a2, $sp, $a2
	st.d	$a1, $a2, 0
	lu12i.w	$a1, 1
	ori	$a1, $a1, 2357
	add.d	$a1, $sp, $a1
	st.d	$a0, $a1, 0
	ori	$a0, $zero, 13
	lu12i.w	$a1, 1
	ori	$a1, $a1, 2344
	add.d	$a1, $sp, $a1
	st.d	$a0, $a1, 0
	lu12i.w	$a0, 1
	ori	$a0, $a0, 2365
	add.d	$a0, $sp, $a0
	st.b	$zero, $a0, 0
.Ltmp243:
	lu12i.w	$a0, 1
	ori	$a0, $a0, 2432
	add.d	$a0, $sp, $a0
	lu12i.w	$a1, 1
	ori	$a1, $a1, 2400
	add.d	$a1, $sp, $a1
	lu12i.w	$a2, 1
	ori	$a2, $a2, 2368
	add.d	$a2, $sp, $a2
	ori	$a3, $zero, 1
	lu12i.w	$a4, 1
	ori	$a4, $a4, 2336
	add.d	$a4, $sp, $a4
	pcaddu18i	$ra, %call36(_ZN2PP8VariableC1ENSt7__cxx1112basic_stringIcSt11char_traitsIcESaIcEEES6_bS6_)
	jirl	$ra, $ra, 0
.Ltmp244:
# %bb.136:
	lu12i.w	$a0, 1
	ori	$a0, $a0, 2336
	add.d	$a0, $sp, $a0
	ld.d	$a0, $a0, 0
	beq	$a0, $s2, .LBB7_138
# %bb.137:                              # %_ZNKSt7__cxx1112basic_stringIcSt11char_traitsIcESaIcEE11_M_is_localEv.exit.i.i910
	lu12i.w	$a1, 1
	ori	$a1, $a1, 2352
	add.d	$a1, $sp, $a1
	ld.d	$a1, $a1, 0
	addi.d	$a1, $a1, 1
	pcaddu18i	$ra, %call36(_ZdlPvm)
	jirl	$ra, $ra, 0
.LBB7_138:                              # %_ZNSt7__cxx1112basic_stringIcSt11char_traitsIcESaIcEED2Ev.exit912
	lu12i.w	$a0, 1
	ori	$a0, $a0, 2368
	add.d	$a0, $sp, $a0
	ld.d	$a0, $a0, 0
	beq	$a0, $s5, .LBB7_140
# %bb.139:                              # %_ZNKSt7__cxx1112basic_stringIcSt11char_traitsIcESaIcEE11_M_is_localEv.exit.i.i913
	lu12i.w	$a1, 1
	ori	$a1, $a1, 2384
	add.d	$a1, $sp, $a1
	ld.d	$a1, $a1, 0
	addi.d	$a1, $a1, 1
	pcaddu18i	$ra, %call36(_ZdlPvm)
	jirl	$ra, $ra, 0
.LBB7_140:                              # %_ZNSt7__cxx1112basic_stringIcSt11char_traitsIcESaIcEED2Ev.exit915
	lu12i.w	$a0, 1
	ori	$a0, $a0, 2400
	add.d	$a0, $sp, $a0
	ld.d	$a0, $a0, 0
	beq	$a0, $s4, .LBB7_142
# %bb.141:                              # %_ZNKSt7__cxx1112basic_stringIcSt11char_traitsIcESaIcEE11_M_is_localEv.exit.i.i916
	lu12i.w	$a1, 1
	ori	$a1, $a1, 2416
	add.d	$a1, $sp, $a1
	ld.d	$a1, $a1, 0
	addi.d	$a1, $a1, 1
	pcaddu18i	$ra, %call36(_ZdlPvm)
	jirl	$ra, $ra, 0
.LBB7_142:                              # %_ZNSt7__cxx1112basic_stringIcSt11char_traitsIcESaIcEED2Ev.exit918
	lu12i.w	$a0, 1
	ori	$a0, $a0, 2056
	add.d	$s2, $sp, $a0
	lu12i.w	$a0, 1
	ori	$a0, $a0, 2440
	add.d	$a0, $sp, $a0
	ld.d	$s3, $a0, 0
	lu12i.w	$a0, 1
	ori	$a0, $a0, 2432
	add.d	$a0, $sp, $a0
	ld.d	$s4, $a0, 0
	lu12i.w	$a0, 1
	ori	$a0, $a0, 2040
	add.d	$a0, $sp, $a0
	st.d	$s2, $a0, 0
	ori	$a1, $zero, 16
	lu12i.w	$a0, 1
	ori	$a0, $a0, 1648
	add.d	$a0, $sp, $a0
	st.d	$s3, $a0, 0
	move	$a0, $s2
	bltu	$s3, $a1, .LBB7_145
# %bb.143:                              # %.noexc.i.i920
.Ltmp246:
	lu12i.w	$a0, 1
	ori	$a0, $a0, 2040
	add.d	$a0, $sp, $a0
	lu12i.w	$a1, 1
	ori	$a1, $a1, 1648
	add.d	$a1, $sp, $a1
	move	$a2, $zero
	pcaddu18i	$ra, %call36(_ZNSt7__cxx1112basic_stringIcSt11char_traitsIcESaIcEE9_M_createERmm)
	jirl	$ra, $ra, 0
.Ltmp247:
# %bb.144:                              # %.noexc921
	lu12i.w	$a1, 1
	ori	$a1, $a1, 1648
	add.d	$a1, $sp, $a1
	ld.d	$a1, $a1, 0
	lu12i.w	$a2, 1
	ori	$a2, $a2, 2040
	add.d	$a2, $sp, $a2
	st.d	$a0, $a2, 0
	lu12i.w	$a2, 1
	ori	$a2, $a2, 2056
	add.d	$a2, $sp, $a2
	st.d	$a1, $a2, 0
.LBB7_145:                              # %._crit_edge.i.i.i919
	beqz	$s3, .LBB7_149
# %bb.146:                              # %._crit_edge.i.i.i919
	ori	$a1, $zero, 1
	bne	$s3, $a1, .LBB7_148
# %bb.147:
	ld.b	$a1, $s4, 0
	st.b	$a1, $a0, 0
	b	.LBB7_149
.LBB7_148:
	move	$a1, $s4
	move	$a2, $s3
	pcaddu18i	$ra, %call36(memcpy)
	jirl	$ra, $ra, 0
.LBB7_149:
	lu12i.w	$a0, 1
	ori	$a0, $a0, 1648
	add.d	$a0, $sp, $a0
	ld.d	$a0, $a0, 0
	lu12i.w	$a1, 1
	ori	$a1, $a1, 2040
	add.d	$a1, $sp, $a1
	ld.d	$a1, $a1, 0
	lu12i.w	$a2, 1
	ori	$a2, $a2, 2048
	add.d	$a2, $sp, $a2
	st.d	$a0, $a2, 0
	stx.b	$zero, $a1, $a0
	lu12i.w	$a0, 1
	ori	$a0, $a0, 2040
	add.d	$a0, $sp, $a0
	ld.d	$a0, $a0, 0
	lu12i.w	$a1, 1
	ori	$a1, $a1, 3904
	add.d	$a1, $sp, $a1
	st.d	$fp, $a1, 0
	beq	$a0, $s2, .LBB7_151
# %bb.150:                              # %_ZNKSt7__cxx1112basic_stringIcSt11char_traitsIcESaIcEE11_M_is_localEv.exit.i.i923
	lu12i.w	$a1, 1
	ori	$a1, $a1, 2056
	add.d	$a1, $sp, $a1
	ld.d	$a1, $a1, 0
	lu12i.w	$a2, 1
	ori	$a2, $a2, 2048
	add.d	$a2, $sp, $a2
	ld.d	$s3, $a2, 0
	lu12i.w	$a2, 1
	ori	$a2, $a2, 3904
	add.d	$a2, $sp, $a2
	st.d	$a0, $a2, 0
	lu12i.w	$a0, 1
	ori	$a0, $a0, 3920
	add.d	$a0, $sp, $a0
	st.d	$a1, $a0, 0
	b	.LBB7_152
.LBB7_151:
	lu12i.w	$a0, 1
	ori	$a0, $a0, 2048
	add.d	$a0, $sp, $a0
	ld.d	$s3, $a0, 0
	addi.d	$a2, $s3, 1
	move	$a0, $fp
	move	$a1, $s2
	pcaddu18i	$ra, %call36(memcpy)
	jirl	$ra, $ra, 0
.LBB7_152:                              # %_ZNSt7__cxx1112basic_stringIcSt11char_traitsIcESaIcEEC2EOS4_.exit.i924
	lu12i.w	$a0, 1
	ori	$a0, $a0, 3912
	add.d	$a0, $sp, $a0
	st.d	$s3, $a0, 0
	lu12i.w	$a0, 1
	ori	$a0, $a0, 2040
	add.d	$a0, $sp, $a0
	st.d	$s2, $a0, 0
	lu12i.w	$a0, 1
	ori	$a0, $a0, 2048
	add.d	$a0, $sp, $a0
	st.d	$zero, $a0, 0
	lu12i.w	$a0, 1
	ori	$a0, $a0, 2056
	add.d	$a0, $sp, $a0
	st.b	$zero, $a0, 0
	lu12i.w	$a0, 1
	ori	$a0, $a0, 3936
	add.d	$a0, $sp, $a0
.Ltmp249:
	lu12i.w	$a1, 1
	ori	$a1, $a1, 2432
	add.d	$a1, $sp, $a1
	pcaddu18i	$ra, %call36(_ZN2PP8VariableC2ERKS0_)
	jirl	$ra, $ra, 0
.Ltmp250:
# %bb.153:                              # %_ZNSt4pairINSt7__cxx1112basic_stringIcSt11char_traitsIcESaIcEEEN2PP8VariableEEC2IS5_RS7_TnNSt9enable_ifIXaaclsr5_PCCPE22_MoveConstructiblePairIT_T0_EEclsr5_PCCPE30_ImplicitlyMoveConvertiblePairISC_SD_EEEbE4typeELb1EEEOSC_OSD_.exit930
.Ltmp252:
	lu12i.w	$a0, 1
	ori	$a0, $a0, 3904
	add.d	$a1, $sp, $a0
	move	$a0, $s1
	pcaddu18i	$ra, %call36(_ZNSt3mapINSt7__cxx1112basic_stringIcSt11char_traitsIcESaIcEEEN2PP8VariableESt4lessIS5_ESaISt4pairIKS5_S7_EEE6insertISA_IS5_S7_EEENSt9enable_ifIXsr16is_constructibleISC_T_EE5valueESA_ISt17_Rb_tree_iteratorISC_EbEE4typeEOSI_)
	jirl	$ra, $ra, 0
.Ltmp253:
# %bb.154:
	lu12i.w	$a0, 1
	ori	$a0, $a0, 3904
	add.d	$a0, $sp, $a0
	pcaddu18i	$ra, %call36(_ZNSt4pairINSt7__cxx1112basic_stringIcSt11char_traitsIcESaIcEEEN2PP8VariableEED2Ev)
	jirl	$ra, $ra, 0
	lu12i.w	$a0, 1
	ori	$a0, $a0, 2040
	add.d	$a0, $sp, $a0
	ld.d	$a0, $a0, 0
	beq	$a0, $s2, .LBB7_156
# %bb.155:                              # %_ZNKSt7__cxx1112basic_stringIcSt11char_traitsIcESaIcEE11_M_is_localEv.exit.i.i931
	lu12i.w	$a1, 1
	ori	$a1, $a1, 2056
	add.d	$a1, $sp, $a1
	ld.d	$a1, $a1, 0
	addi.d	$a1, $a1, 1
	pcaddu18i	$ra, %call36(_ZdlPvm)
	jirl	$ra, $ra, 0
.LBB7_156:                              # %_ZNSt7__cxx1112basic_stringIcSt11char_traitsIcESaIcEED2Ev.exit933
	lu12i.w	$a0, 1
	ori	$a0, $a0, 2192
	add.d	$s2, $sp, $a0
	lu12i.w	$a0, 1
	ori	$a0, $a0, 2176
	add.d	$a0, $sp, $a0
	st.d	$s2, $a0, 0
	lu12i.w	$a0, 1
	ori	$a0, $a0, 2184
	add.d	$a0, $sp, $a0
	st.d	$zero, $a0, 0
	lu12i.w	$a0, 1
	ori	$a0, $a0, 2192
	add.d	$a0, $sp, $a0
	st.b	$zero, $a0, 0
.Ltmp255:
	lu12i.w	$a1, -524288
	lu12i.w	$a0, 1
	ori	$a0, $a0, 2208
	add.d	$a0, $sp, $a0
	ori	$a2, $zero, 1
	ori	$a3, $zero, 1
	lu12i.w	$a4, 1
	ori	$a4, $a4, 2176
	add.d	$a4, $sp, $a4
	move	$a5, $zero
	pcaddu18i	$ra, %call36(_ZN2PP4WordC1EiiiNSt7__cxx1112basic_stringIcSt11char_traitsIcESaIcEEEPSt5dequeIS6_SaIS6_EE)
	jirl	$ra, $ra, 0
.Ltmp256:
# %bb.157:
	lu12i.w	$a0, 1
	ori	$a0, $a0, 2176
	add.d	$a0, $sp, $a0
	ld.d	$a0, $a0, 0
	beq	$a0, $s2, .LBB7_159
# %bb.158:                              # %_ZNKSt7__cxx1112basic_stringIcSt11char_traitsIcESaIcEE11_M_is_localEv.exit.i.i938
	lu12i.w	$a1, 1
	ori	$a1, $a1, 2192
	add.d	$a1, $sp, $a1
	ld.d	$a1, $a1, 0
	addi.d	$a1, $a1, 1
	pcaddu18i	$ra, %call36(_ZdlPvm)
	jirl	$ra, $ra, 0
.LBB7_159:                              # %_ZNSt7__cxx1112basic_stringIcSt11char_traitsIcESaIcEED2Ev.exit940
	pcalau12i	$a0, %pc_hi20(.L.str.133)
	addi.d	$a0, $a0, %pc_lo12(.L.str.133)
	ld.d	$a1, $a0, 0
	ld.b	$a0, $a0, 8
	lu12i.w	$a2, 1
	ori	$a2, $a2, 2024
	add.d	$s4, $sp, $a2
	lu12i.w	$a2, 1
	ori	$a2, $a2, 2008
	add.d	$a2, $sp, $a2
	st.d	$s4, $a2, 0
	lu12i.w	$a2, 1
	ori	$a2, $a2, 2024
	add.d	$a2, $sp, $a2
	st.d	$a1, $a2, 0
	lu12i.w	$a1, 1
	ori	$a1, $a1, 2032
	add.d	$a1, $sp, $a1
	st.b	$a0, $a1, 0
	ori	$a0, $zero, 9
	lu12i.w	$a1, 1
	ori	$a1, $a1, 2016
	add.d	$a1, $sp, $a1
	st.d	$a0, $a1, 0
	lu12i.w	$a0, 1
	ori	$a0, $a0, 2033
	add.d	$a0, $sp, $a0
	st.b	$zero, $a0, 0
	lu12i.w	$a0, 1
	ori	$a0, $a0, 1992
	add.d	$s5, $sp, $a0
	lu12i.w	$a0, 1
	ori	$a0, $a0, 2216
	add.d	$a0, $sp, $a0
	ld.d	$s2, $a0, 0
	lu12i.w	$a0, 1
	ori	$a0, $a0, 2208
	add.d	$a0, $sp, $a0
	ld.d	$s3, $a0, 0
	lu12i.w	$a0, 1
	ori	$a0, $a0, 1976
	add.d	$a0, $sp, $a0
	st.d	$s5, $a0, 0
	ori	$a1, $zero, 16
	lu12i.w	$a0, 1
	ori	$a0, $a0, 3904
	add.d	$a0, $sp, $a0
	st.d	$s2, $a0, 0
	move	$a0, $s5
	bltu	$s2, $a1, .LBB7_162
# %bb.160:                              # %.noexc.i.i946
.Ltmp258:
	lu12i.w	$a0, 1
	ori	$a0, $a0, 1976
	add.d	$a0, $sp, $a0
	lu12i.w	$a1, 1
	ori	$a1, $a1, 3904
	add.d	$a1, $sp, $a1
	move	$a2, $zero
	pcaddu18i	$ra, %call36(_ZNSt7__cxx1112basic_stringIcSt11char_traitsIcESaIcEE9_M_createERmm)
	jirl	$ra, $ra, 0
.Ltmp259:
# %bb.161:                              # %.noexc947
	lu12i.w	$a1, 1
	ori	$a1, $a1, 3904
	add.d	$a1, $sp, $a1
	ld.d	$a1, $a1, 0
	lu12i.w	$a2, 1
	ori	$a2, $a2, 1976
	add.d	$a2, $sp, $a2
	st.d	$a0, $a2, 0
	lu12i.w	$a2, 1
	ori	$a2, $a2, 1992
	add.d	$a2, $sp, $a2
	st.d	$a1, $a2, 0
.LBB7_162:                              # %._crit_edge.i.i.i945
	beqz	$s2, .LBB7_166
# %bb.163:                              # %._crit_edge.i.i.i945
	ori	$a1, $zero, 1
	bne	$s2, $a1, .LBB7_165
# %bb.164:
	ld.b	$a1, $s3, 0
	st.b	$a1, $a0, 0
	b	.LBB7_166
.LBB7_165:
	move	$a1, $s3
	move	$a2, $s2
	pcaddu18i	$ra, %call36(memcpy)
	jirl	$ra, $ra, 0
.LBB7_166:                              # %._crit_edge.i.i949
	lu12i.w	$a0, 1
	ori	$a0, $a0, 3904
	add.d	$a0, $sp, $a0
	ld.d	$a0, $a0, 0
	lu12i.w	$a1, 1
	ori	$a1, $a1, 1976
	add.d	$a1, $sp, $a1
	ld.d	$a1, $a1, 0
	lu12i.w	$a2, 1
	ori	$a2, $a2, 1984
	add.d	$a2, $sp, $a2
	st.d	$a0, $a2, 0
	stx.b	$zero, $a1, $a0
	pcalau12i	$a0, %pc_hi20(.L.str.134)
	addi.d	$a0, $a0, %pc_lo12(.L.str.134)
	ld.d	$a1, $a0, 0
	ld.d	$a0, $a0, 7
	lu12i.w	$a2, 1
	ori	$a2, $a2, 1960
	add.d	$s2, $sp, $a2
	lu12i.w	$a2, 1
	ori	$a2, $a2, 1944
	add.d	$a2, $sp, $a2
	st.d	$s2, $a2, 0
	lu12i.w	$a2, 1
	ori	$a2, $a2, 1960
	add.d	$a2, $sp, $a2
	st.d	$a1, $a2, 0
	lu12i.w	$a1, 1
	ori	$a1, $a1, 1967
	add.d	$a1, $sp, $a1
	st.d	$a0, $a1, 0
	ori	$a0, $zero, 15
	lu12i.w	$a1, 1
	ori	$a1, $a1, 1952
	add.d	$a1, $sp, $a1
	st.d	$a0, $a1, 0
	lu12i.w	$a0, 1
	ori	$a0, $a0, 1975
	add.d	$a0, $sp, $a0
	st.b	$zero, $a0, 0
.Ltmp261:
	lu12i.w	$a0, 1
	ori	$a0, $a0, 2040
	add.d	$a0, $sp, $a0
	lu12i.w	$a1, 1
	ori	$a1, $a1, 2008
	add.d	$a1, $sp, $a1
	lu12i.w	$a2, 1
	ori	$a2, $a2, 1976
	add.d	$a2, $sp, $a2
	ori	$a3, $zero, 1
	lu12i.w	$a4, 1
	ori	$a4, $a4, 1944
	add.d	$a4, $sp, $a4
	pcaddu18i	$ra, %call36(_ZN2PP8VariableC1ENSt7__cxx1112basic_stringIcSt11char_traitsIcESaIcEEES6_bS6_)
	jirl	$ra, $ra, 0
.Ltmp262:
# %bb.167:
	lu12i.w	$a0, 1
	ori	$a0, $a0, 1944
	add.d	$a0, $sp, $a0
	ld.d	$a0, $a0, 0
	beq	$a0, $s2, .LBB7_169
# %bb.168:                              # %_ZNKSt7__cxx1112basic_stringIcSt11char_traitsIcESaIcEE11_M_is_localEv.exit.i.i953
	lu12i.w	$a1, 1
	ori	$a1, $a1, 1960
	add.d	$a1, $sp, $a1
	ld.d	$a1, $a1, 0
	addi.d	$a1, $a1, 1
	pcaddu18i	$ra, %call36(_ZdlPvm)
	jirl	$ra, $ra, 0
.LBB7_169:                              # %_ZNSt7__cxx1112basic_stringIcSt11char_traitsIcESaIcEED2Ev.exit955
	lu12i.w	$a0, 1
	ori	$a0, $a0, 1976
	add.d	$a0, $sp, $a0
	ld.d	$a0, $a0, 0
	beq	$a0, $s5, .LBB7_171
# %bb.170:                              # %_ZNKSt7__cxx1112basic_stringIcSt11char_traitsIcESaIcEE11_M_is_localEv.exit.i.i956
	lu12i.w	$a1, 1
	ori	$a1, $a1, 1992
	add.d	$a1, $sp, $a1
	ld.d	$a1, $a1, 0
	addi.d	$a1, $a1, 1
	pcaddu18i	$ra, %call36(_ZdlPvm)
	jirl	$ra, $ra, 0
.LBB7_171:                              # %_ZNSt7__cxx1112basic_stringIcSt11char_traitsIcESaIcEED2Ev.exit958
	lu12i.w	$a0, 1
	ori	$a0, $a0, 2008
	add.d	$a0, $sp, $a0
	ld.d	$a0, $a0, 0
	beq	$a0, $s4, .LBB7_173
# %bb.172:                              # %_ZNKSt7__cxx1112basic_stringIcSt11char_traitsIcESaIcEE11_M_is_localEv.exit.i.i959
	lu12i.w	$a1, 1
	ori	$a1, $a1, 2024
	add.d	$a1, $sp, $a1
	ld.d	$a1, $a1, 0
	addi.d	$a1, $a1, 1
	pcaddu18i	$ra, %call36(_ZdlPvm)
	jirl	$ra, $ra, 0
.LBB7_173:                              # %_ZNSt7__cxx1112basic_stringIcSt11char_traitsIcESaIcEED2Ev.exit961
	lu12i.w	$a0, 1
	ori	$a0, $a0, 1664
	add.d	$s2, $sp, $a0
	lu12i.w	$a0, 1
	ori	$a0, $a0, 2048
	add.d	$a0, $sp, $a0
	ld.d	$s3, $a0, 0
	lu12i.w	$a0, 1
	ori	$a0, $a0, 2040
	add.d	$a0, $sp, $a0
	ld.d	$s4, $a0, 0
	lu12i.w	$a0, 1
	ori	$a0, $a0, 1648
	add.d	$a0, $sp, $a0
	st.d	$s2, $a0, 0
	ori	$a1, $zero, 16
	lu12i.w	$a0, 1
	ori	$a0, $a0, 1816
	add.d	$a0, $sp, $a0
	st.d	$s3, $a0, 0
	move	$a0, $s2
	bltu	$s3, $a1, .LBB7_176
# %bb.174:                              # %.noexc.i.i963
.Ltmp264:
	lu12i.w	$a0, 1
	ori	$a0, $a0, 1648
	add.d	$a0, $sp, $a0
	lu12i.w	$a1, 1
	ori	$a1, $a1, 1816
	add.d	$a1, $sp, $a1
	move	$a2, $zero
	pcaddu18i	$ra, %call36(_ZNSt7__cxx1112basic_stringIcSt11char_traitsIcESaIcEE9_M_createERmm)
	jirl	$ra, $ra, 0
.Ltmp265:
# %bb.175:                              # %.noexc964
	lu12i.w	$a1, 1
	ori	$a1, $a1, 1816
	add.d	$a1, $sp, $a1
	ld.d	$a1, $a1, 0
	lu12i.w	$a2, 1
	ori	$a2, $a2, 1648
	add.d	$a2, $sp, $a2
	st.d	$a0, $a2, 0
	lu12i.w	$a2, 1
	ori	$a2, $a2, 1664
	add.d	$a2, $sp, $a2
	st.d	$a1, $a2, 0
.LBB7_176:                              # %._crit_edge.i.i.i962
	beqz	$s3, .LBB7_180
# %bb.177:                              # %._crit_edge.i.i.i962
	ori	$a1, $zero, 1
	bne	$s3, $a1, .LBB7_179
# %bb.178:
	ld.b	$a1, $s4, 0
	st.b	$a1, $a0, 0
	b	.LBB7_180
.LBB7_179:
	move	$a1, $s4
	move	$a2, $s3
	pcaddu18i	$ra, %call36(memcpy)
	jirl	$ra, $ra, 0
.LBB7_180:
	lu12i.w	$a0, 1
	ori	$a0, $a0, 1816
	add.d	$a0, $sp, $a0
	ld.d	$a0, $a0, 0
	lu12i.w	$a1, 1
	ori	$a1, $a1, 1648
	add.d	$a1, $sp, $a1
	ld.d	$a1, $a1, 0
	lu12i.w	$a2, 1
	ori	$a2, $a2, 1656
	add.d	$a2, $sp, $a2
	st.d	$a0, $a2, 0
	stx.b	$zero, $a1, $a0
	lu12i.w	$a0, 1
	ori	$a0, $a0, 1648
	add.d	$a0, $sp, $a0
	ld.d	$a0, $a0, 0
	lu12i.w	$a1, 1
	ori	$a1, $a1, 3904
	add.d	$a1, $sp, $a1
	st.d	$fp, $a1, 0
	beq	$a0, $s2, .LBB7_182
# %bb.181:                              # %_ZNKSt7__cxx1112basic_stringIcSt11char_traitsIcESaIcEE11_M_is_localEv.exit.i.i966
	lu12i.w	$a1, 1
	ori	$a1, $a1, 1664
	add.d	$a1, $sp, $a1
	ld.d	$a1, $a1, 0
	lu12i.w	$a2, 1
	ori	$a2, $a2, 1656
	add.d	$a2, $sp, $a2
	ld.d	$s3, $a2, 0
	lu12i.w	$a2, 1
	ori	$a2, $a2, 3904
	add.d	$a2, $sp, $a2
	st.d	$a0, $a2, 0
	lu12i.w	$a0, 1
	ori	$a0, $a0, 3920
	add.d	$a0, $sp, $a0
	st.d	$a1, $a0, 0
	b	.LBB7_183
.LBB7_182:
	lu12i.w	$a0, 1
	ori	$a0, $a0, 1656
	add.d	$a0, $sp, $a0
	ld.d	$s3, $a0, 0
	addi.d	$a2, $s3, 1
	move	$a0, $fp
	move	$a1, $s2
	pcaddu18i	$ra, %call36(memcpy)
	jirl	$ra, $ra, 0
.LBB7_183:                              # %_ZNSt7__cxx1112basic_stringIcSt11char_traitsIcESaIcEEC2EOS4_.exit.i967
	lu12i.w	$a0, 1
	ori	$a0, $a0, 3912
	add.d	$a0, $sp, $a0
	st.d	$s3, $a0, 0
	lu12i.w	$a0, 1
	ori	$a0, $a0, 1648
	add.d	$a0, $sp, $a0
	st.d	$s2, $a0, 0
	lu12i.w	$a0, 1
	ori	$a0, $a0, 1656
	add.d	$a0, $sp, $a0
	st.d	$zero, $a0, 0
	lu12i.w	$a0, 1
	ori	$a0, $a0, 1664
	add.d	$a0, $sp, $a0
	st.b	$zero, $a0, 0
	lu12i.w	$a0, 1
	ori	$a0, $a0, 3936
	add.d	$a0, $sp, $a0
.Ltmp267:
	lu12i.w	$a1, 1
	ori	$a1, $a1, 2040
	add.d	$a1, $sp, $a1
	pcaddu18i	$ra, %call36(_ZN2PP8VariableC2ERKS0_)
	jirl	$ra, $ra, 0
.Ltmp268:
# %bb.184:                              # %_ZNSt4pairINSt7__cxx1112basic_stringIcSt11char_traitsIcESaIcEEEN2PP8VariableEEC2IS5_RS7_TnNSt9enable_ifIXaaclsr5_PCCPE22_MoveConstructiblePairIT_T0_EEclsr5_PCCPE30_ImplicitlyMoveConvertiblePairISC_SD_EEEbE4typeELb1EEEOSC_OSD_.exit973
.Ltmp270:
	lu12i.w	$a0, 1
	ori	$a0, $a0, 3904
	add.d	$a1, $sp, $a0
	move	$a0, $s1
	pcaddu18i	$ra, %call36(_ZNSt3mapINSt7__cxx1112basic_stringIcSt11char_traitsIcESaIcEEEN2PP8VariableESt4lessIS5_ESaISt4pairIKS5_S7_EEE6insertISA_IS5_S7_EEENSt9enable_ifIXsr16is_constructibleISC_T_EE5valueESA_ISt17_Rb_tree_iteratorISC_EbEE4typeEOSI_)
	jirl	$ra, $ra, 0
.Ltmp271:
# %bb.185:
	lu12i.w	$a0, 1
	ori	$a0, $a0, 3904
	add.d	$a0, $sp, $a0
	pcaddu18i	$ra, %call36(_ZNSt4pairINSt7__cxx1112basic_stringIcSt11char_traitsIcESaIcEEEN2PP8VariableEED2Ev)
	jirl	$ra, $ra, 0
	lu12i.w	$a0, 1
	ori	$a0, $a0, 1648
	add.d	$a0, $sp, $a0
	ld.d	$a0, $a0, 0
	beq	$a0, $s2, .LBB7_187
# %bb.186:                              # %_ZNKSt7__cxx1112basic_stringIcSt11char_traitsIcESaIcEE11_M_is_localEv.exit.i.i974
	lu12i.w	$a1, 1
	ori	$a1, $a1, 1664
	add.d	$a1, $sp, $a1
	ld.d	$a1, $a1, 0
	addi.d	$a1, $a1, 1
	pcaddu18i	$ra, %call36(_ZdlPvm)
	jirl	$ra, $ra, 0
.LBB7_187:                              # %_ZNSt7__cxx1112basic_stringIcSt11char_traitsIcESaIcEED2Ev.exit976
	ld.d	$a0, $s0, 520
	ld.w	$a1, $a0, 4
	lu12i.w	$a0, 1
	ori	$a0, $a0, 1800
	add.d	$s2, $sp, $a0
	lu12i.w	$a0, 1
	ori	$a0, $a0, 1784
	add.d	$a0, $sp, $a0
	st.d	$s2, $a0, 0
	lu12i.w	$a0, 1
	ori	$a0, $a0, 1792
	add.d	$a0, $sp, $a0
	st.d	$zero, $a0, 0
	lu12i.w	$a0, 1
	ori	$a0, $a0, 1800
	add.d	$a0, $sp, $a0
	st.b	$zero, $a0, 0
.Ltmp273:
	lu12i.w	$a0, 1
	ori	$a0, $a0, 1816
	add.d	$a0, $sp, $a0
	ori	$a2, $zero, 1
	ori	$a3, $zero, 1
	lu12i.w	$a4, 1
	ori	$a4, $a4, 1784
	add.d	$a4, $sp, $a4
	move	$a5, $zero
	pcaddu18i	$ra, %call36(_ZN2PP4WordC1EiiiNSt7__cxx1112basic_stringIcSt11char_traitsIcESaIcEEEPSt5dequeIS6_SaIS6_EE)
	jirl	$ra, $ra, 0
.Ltmp274:
# %bb.188:
	lu12i.w	$a0, 1
	ori	$a0, $a0, 1784
	add.d	$a0, $sp, $a0
	ld.d	$a0, $a0, 0
	beq	$a0, $s2, .LBB7_190
# %bb.189:                              # %_ZNKSt7__cxx1112basic_stringIcSt11char_traitsIcESaIcEE11_M_is_localEv.exit.i.i981
	lu12i.w	$a1, 1
	ori	$a1, $a1, 1800
	add.d	$a1, $sp, $a1
	ld.d	$a1, $a1, 0
	addi.d	$a1, $a1, 1
	pcaddu18i	$ra, %call36(_ZdlPvm)
	jirl	$ra, $ra, 0
.LBB7_190:                              # %_ZNSt7__cxx1112basic_stringIcSt11char_traitsIcESaIcEED2Ev.exit983
	pcalau12i	$a0, %pc_hi20(.L.str.135)
	addi.d	$a0, $a0, %pc_lo12(.L.str.135)
	ld.d	$a1, $a0, 0
	ld.w	$a0, $a0, 7
	lu12i.w	$a2, 1
	ori	$a2, $a2, 1632
	add.d	$s4, $sp, $a2
	lu12i.w	$a2, 1
	ori	$a2, $a2, 1616
	add.d	$a2, $sp, $a2
	st.d	$s4, $a2, 0
	lu12i.w	$a2, 1
	ori	$a2, $a2, 1632
	add.d	$a2, $sp, $a2
	st.d	$a1, $a2, 0
	lu12i.w	$a1, 1
	ori	$a1, $a1, 1639
	add.d	$a1, $sp, $a1
	st.w	$a0, $a1, 0
	ori	$a0, $zero, 11
	lu12i.w	$a1, 1
	ori	$a1, $a1, 1624
	add.d	$a1, $sp, $a1
	st.d	$a0, $a1, 0
	lu12i.w	$a0, 1
	ori	$a0, $a0, 1643
	add.d	$a0, $sp, $a0
	st.b	$zero, $a0, 0
	lu12i.w	$a0, 1
	ori	$a0, $a0, 1600
	add.d	$s5, $sp, $a0
	lu12i.w	$a0, 1
	ori	$a0, $a0, 1824
	add.d	$a0, $sp, $a0
	ld.d	$s2, $a0, 0
	lu12i.w	$a0, 1
	ori	$a0, $a0, 1816
	add.d	$a0, $sp, $a0
	ld.d	$s3, $a0, 0
	lu12i.w	$a0, 1
	ori	$a0, $a0, 1584
	add.d	$a0, $sp, $a0
	st.d	$s5, $a0, 0
	ori	$a1, $zero, 16
	lu12i.w	$a0, 1
	ori	$a0, $a0, 3904
	add.d	$a0, $sp, $a0
	st.d	$s2, $a0, 0
	move	$a0, $s5
	bltu	$s2, $a1, .LBB7_193
# %bb.191:                              # %.noexc.i.i989
.Ltmp276:
	lu12i.w	$a0, 1
	ori	$a0, $a0, 1584
	add.d	$a0, $sp, $a0
	lu12i.w	$a1, 1
	ori	$a1, $a1, 3904
	add.d	$a1, $sp, $a1
	move	$a2, $zero
	pcaddu18i	$ra, %call36(_ZNSt7__cxx1112basic_stringIcSt11char_traitsIcESaIcEE9_M_createERmm)
	jirl	$ra, $ra, 0
.Ltmp277:
# %bb.192:                              # %.noexc990
	lu12i.w	$a1, 1
	ori	$a1, $a1, 3904
	add.d	$a1, $sp, $a1
	ld.d	$a1, $a1, 0
	lu12i.w	$a2, 1
	ori	$a2, $a2, 1584
	add.d	$a2, $sp, $a2
	st.d	$a0, $a2, 0
	lu12i.w	$a2, 1
	ori	$a2, $a2, 1600
	add.d	$a2, $sp, $a2
	st.d	$a1, $a2, 0
.LBB7_193:                              # %._crit_edge.i.i.i988
	beqz	$s2, .LBB7_197
# %bb.194:                              # %._crit_edge.i.i.i988
	ori	$a1, $zero, 1
	bne	$s2, $a1, .LBB7_196
# %bb.195:
	ld.b	$a1, $s3, 0
	st.b	$a1, $a0, 0
	b	.LBB7_197
.LBB7_196:
	move	$a1, $s3
	move	$a2, $s2
	pcaddu18i	$ra, %call36(memcpy)
	jirl	$ra, $ra, 0
.LBB7_197:                              # %.noexc.i993
	lu12i.w	$a0, 1
	ori	$a0, $a0, 3904
	add.d	$a0, $sp, $a0
	ld.d	$a0, $a0, 0
	lu12i.w	$a1, 1
	ori	$a1, $a1, 1584
	add.d	$a1, $sp, $a1
	ld.d	$a1, $a1, 0
	lu12i.w	$a2, 1
	ori	$a2, $a2, 1592
	add.d	$a2, $sp, $a2
	st.d	$a0, $a2, 0
	stx.b	$zero, $a1, $a0
	lu12i.w	$a0, 1
	ori	$a0, $a0, 1568
	add.d	$s2, $sp, $a0
	lu12i.w	$a0, 1
	ori	$a0, $a0, 1552
	add.d	$a0, $sp, $a0
	st.d	$s2, $a0, 0
	ori	$a0, $zero, 21
	lu12i.w	$a1, 1
	ori	$a1, $a1, 3904
	add.d	$a1, $sp, $a1
	st.d	$a0, $a1, 0
.Ltmp279:
	lu12i.w	$a0, 1
	ori	$a0, $a0, 1552
	add.d	$a0, $sp, $a0
	lu12i.w	$a1, 1
	ori	$a1, $a1, 3904
	add.d	$a1, $sp, $a1
	move	$a2, $zero
	pcaddu18i	$ra, %call36(_ZNSt7__cxx1112basic_stringIcSt11char_traitsIcESaIcEE9_M_createERmm)
	jirl	$ra, $ra, 0
.Ltmp280:
# %bb.198:                              # %.noexc994
	lu12i.w	$a1, 1
	ori	$a1, $a1, 3904
	add.d	$a1, $sp, $a1
	ld.d	$a1, $a1, 0
	pcalau12i	$a2, %pc_hi20(.L.str.136)
	addi.d	$a2, $a2, %pc_lo12(.L.str.136)
	vld	$vr0, $a2, 0
	ld.d	$a2, $a2, 13
	lu12i.w	$a3, 1
	ori	$a3, $a3, 1552
	add.d	$a3, $sp, $a3
	st.d	$a0, $a3, 0
	lu12i.w	$a3, 1
	ori	$a3, $a3, 1568
	add.d	$a3, $sp, $a3
	st.d	$a1, $a3, 0
	vst	$vr0, $a0, 0
	st.d	$a2, $a0, 13
	lu12i.w	$a0, 1
	ori	$a0, $a0, 1552
	add.d	$a0, $sp, $a0
	ld.d	$a0, $a0, 0
	lu12i.w	$a2, 1
	ori	$a2, $a2, 1560
	add.d	$a2, $sp, $a2
	st.d	$a1, $a2, 0
	stx.b	$zero, $a0, $a1
.Ltmp282:
	lu12i.w	$a0, 1
	ori	$a0, $a0, 1648
	add.d	$a0, $sp, $a0
	lu12i.w	$a1, 1
	ori	$a1, $a1, 1616
	add.d	$a1, $sp, $a1
	lu12i.w	$a2, 1
	ori	$a2, $a2, 1584
	add.d	$a2, $sp, $a2
	ori	$a3, $zero, 1
	lu12i.w	$a4, 1
	ori	$a4, $a4, 1552
	add.d	$a4, $sp, $a4
	pcaddu18i	$ra, %call36(_ZN2PP8VariableC1ENSt7__cxx1112basic_stringIcSt11char_traitsIcESaIcEEES6_bS6_)
	jirl	$ra, $ra, 0
.Ltmp283:
# %bb.199:
	lu12i.w	$a0, 1
	ori	$a0, $a0, 1552
	add.d	$a0, $sp, $a0
	ld.d	$a0, $a0, 0
	beq	$a0, $s2, .LBB7_201
# %bb.200:                              # %_ZNKSt7__cxx1112basic_stringIcSt11char_traitsIcESaIcEE11_M_is_localEv.exit.i.i996
	lu12i.w	$a1, 1
	ori	$a1, $a1, 1568
	add.d	$a1, $sp, $a1
	ld.d	$a1, $a1, 0
	addi.d	$a1, $a1, 1
	pcaddu18i	$ra, %call36(_ZdlPvm)
	jirl	$ra, $ra, 0
.LBB7_201:                              # %_ZNSt7__cxx1112basic_stringIcSt11char_traitsIcESaIcEED2Ev.exit998
	lu12i.w	$a0, 1
	ori	$a0, $a0, 1584
	add.d	$a0, $sp, $a0
	ld.d	$a0, $a0, 0
	beq	$a0, $s5, .LBB7_203
# %bb.202:                              # %_ZNKSt7__cxx1112basic_stringIcSt11char_traitsIcESaIcEE11_M_is_localEv.exit.i.i999
	lu12i.w	$a1, 1
	ori	$a1, $a1, 1600
	add.d	$a1, $sp, $a1
	ld.d	$a1, $a1, 0
	addi.d	$a1, $a1, 1
	pcaddu18i	$ra, %call36(_ZdlPvm)
	jirl	$ra, $ra, 0
.LBB7_203:                              # %_ZNSt7__cxx1112basic_stringIcSt11char_traitsIcESaIcEED2Ev.exit1001
	lu12i.w	$a0, 1
	ori	$a0, $a0, 1616
	add.d	$a0, $sp, $a0
	ld.d	$a0, $a0, 0
	beq	$a0, $s4, .LBB7_205
# %bb.204:                              # %_ZNKSt7__cxx1112basic_stringIcSt11char_traitsIcESaIcEE11_M_is_localEv.exit.i.i1002
	lu12i.w	$a1, 1
	ori	$a1, $a1, 1632
	add.d	$a1, $sp, $a1
	ld.d	$a1, $a1, 0
	addi.d	$a1, $a1, 1
	pcaddu18i	$ra, %call36(_ZdlPvm)
	jirl	$ra, $ra, 0
.LBB7_205:                              # %_ZNSt7__cxx1112basic_stringIcSt11char_traitsIcESaIcEED2Ev.exit1004
	lu12i.w	$a0, 1
	ori	$a0, $a0, 1464
	add.d	$s2, $sp, $a0
	lu12i.w	$a0, 1
	ori	$a0, $a0, 1656
	add.d	$a0, $sp, $a0
	ld.d	$s3, $a0, 0
	lu12i.w	$a0, 1
	ori	$a0, $a0, 1648
	add.d	$a0, $sp, $a0
	ld.d	$s4, $a0, 0
	lu12i.w	$a0, 1
	ori	$a0, $a0, 1448
	add.d	$a0, $sp, $a0
	st.d	$s2, $a0, 0
	ori	$a1, $zero, 16
	lu12i.w	$a0, 1
	ori	$a0, $a0, 1248
	add.d	$a0, $sp, $a0
	st.d	$s3, $a0, 0
	move	$a0, $s2
	bltu	$s3, $a1, .LBB7_208
# %bb.206:                              # %.noexc.i.i1006
.Ltmp285:
	lu12i.w	$a0, 1
	ori	$a0, $a0, 1448
	add.d	$a0, $sp, $a0
	lu12i.w	$a1, 1
	ori	$a1, $a1, 1248
	add.d	$a1, $sp, $a1
	move	$a2, $zero
	pcaddu18i	$ra, %call36(_ZNSt7__cxx1112basic_stringIcSt11char_traitsIcESaIcEE9_M_createERmm)
	jirl	$ra, $ra, 0
.Ltmp286:
# %bb.207:                              # %.noexc1007
	lu12i.w	$a1, 1
	ori	$a1, $a1, 1248
	add.d	$a1, $sp, $a1
	ld.d	$a1, $a1, 0
	lu12i.w	$a2, 1
	ori	$a2, $a2, 1448
	add.d	$a2, $sp, $a2
	st.d	$a0, $a2, 0
	lu12i.w	$a2, 1
	ori	$a2, $a2, 1464
	add.d	$a2, $sp, $a2
	st.d	$a1, $a2, 0
.LBB7_208:                              # %._crit_edge.i.i.i1005
	beqz	$s3, .LBB7_212
# %bb.209:                              # %._crit_edge.i.i.i1005
	ori	$a1, $zero, 1
	bne	$s3, $a1, .LBB7_211
# %bb.210:
	ld.b	$a1, $s4, 0
	st.b	$a1, $a0, 0
	b	.LBB7_212
.LBB7_211:
	move	$a1, $s4
	move	$a2, $s3
	pcaddu18i	$ra, %call36(memcpy)
	jirl	$ra, $ra, 0
.LBB7_212:
	lu12i.w	$a0, 1
	ori	$a0, $a0, 1248
	add.d	$a0, $sp, $a0
	ld.d	$a0, $a0, 0
	lu12i.w	$a1, 1
	ori	$a1, $a1, 1448
	add.d	$a1, $sp, $a1
	ld.d	$a1, $a1, 0
	lu12i.w	$a2, 1
	ori	$a2, $a2, 1456
	add.d	$a2, $sp, $a2
	st.d	$a0, $a2, 0
	stx.b	$zero, $a1, $a0
	lu12i.w	$a0, 1
	ori	$a0, $a0, 1448
	add.d	$a0, $sp, $a0
	ld.d	$a0, $a0, 0
	lu12i.w	$a1, 1
	ori	$a1, $a1, 3904
	add.d	$a1, $sp, $a1
	st.d	$fp, $a1, 0
	beq	$a0, $s2, .LBB7_214
# %bb.213:                              # %_ZNKSt7__cxx1112basic_stringIcSt11char_traitsIcESaIcEE11_M_is_localEv.exit.i.i1009
	lu12i.w	$a1, 1
	ori	$a1, $a1, 1464
	add.d	$a1, $sp, $a1
	ld.d	$a1, $a1, 0
	lu12i.w	$a2, 1
	ori	$a2, $a2, 1456
	add.d	$a2, $sp, $a2
	ld.d	$s3, $a2, 0
	lu12i.w	$a2, 1
	ori	$a2, $a2, 3904
	add.d	$a2, $sp, $a2
	st.d	$a0, $a2, 0
	lu12i.w	$a0, 1
	ori	$a0, $a0, 3920
	add.d	$a0, $sp, $a0
	st.d	$a1, $a0, 0
	b	.LBB7_215
.LBB7_214:
	lu12i.w	$a0, 1
	ori	$a0, $a0, 1456
	add.d	$a0, $sp, $a0
	ld.d	$s3, $a0, 0
	addi.d	$a2, $s3, 1
	move	$a0, $fp
	move	$a1, $s2
	pcaddu18i	$ra, %call36(memcpy)
	jirl	$ra, $ra, 0
.LBB7_215:                              # %_ZNSt7__cxx1112basic_stringIcSt11char_traitsIcESaIcEEC2EOS4_.exit.i1010
	lu12i.w	$a0, 1
	ori	$a0, $a0, 3912
	add.d	$a0, $sp, $a0
	st.d	$s3, $a0, 0
	lu12i.w	$a0, 1
	ori	$a0, $a0, 1448
	add.d	$a0, $sp, $a0
	st.d	$s2, $a0, 0
	lu12i.w	$a0, 1
	ori	$a0, $a0, 1456
	add.d	$a0, $sp, $a0
	st.d	$zero, $a0, 0
	lu12i.w	$a0, 1
	ori	$a0, $a0, 1464
	add.d	$a0, $sp, $a0
	st.b	$zero, $a0, 0
	lu12i.w	$a0, 1
	ori	$a0, $a0, 3936
	add.d	$a0, $sp, $a0
.Ltmp288:
	lu12i.w	$a1, 1
	ori	$a1, $a1, 1648
	add.d	$a1, $sp, $a1
	pcaddu18i	$ra, %call36(_ZN2PP8VariableC2ERKS0_)
	jirl	$ra, $ra, 0
.Ltmp289:
# %bb.216:                              # %_ZNSt4pairINSt7__cxx1112basic_stringIcSt11char_traitsIcESaIcEEEN2PP8VariableEEC2IS5_RS7_TnNSt9enable_ifIXaaclsr5_PCCPE22_MoveConstructiblePairIT_T0_EEclsr5_PCCPE30_ImplicitlyMoveConvertiblePairISC_SD_EEEbE4typeELb1EEEOSC_OSD_.exit1016
.Ltmp291:
	lu12i.w	$a0, 1
	ori	$a0, $a0, 3904
	add.d	$a1, $sp, $a0
	move	$a0, $s1
	pcaddu18i	$ra, %call36(_ZNSt3mapINSt7__cxx1112basic_stringIcSt11char_traitsIcESaIcEEEN2PP8VariableESt4lessIS5_ESaISt4pairIKS5_S7_EEE6insertISA_IS5_S7_EEENSt9enable_ifIXsr16is_constructibleISC_T_EE5valueESA_ISt17_Rb_tree_iteratorISC_EbEE4typeEOSI_)
	jirl	$ra, $ra, 0
.Ltmp292:
# %bb.217:
	lu12i.w	$a0, 1
	ori	$a0, $a0, 3904
	add.d	$a0, $sp, $a0
	pcaddu18i	$ra, %call36(_ZNSt4pairINSt7__cxx1112basic_stringIcSt11char_traitsIcESaIcEEEN2PP8VariableEED2Ev)
	jirl	$ra, $ra, 0
	lu12i.w	$a0, 1
	ori	$a0, $a0, 1448
	add.d	$a0, $sp, $a0
	ld.d	$a0, $a0, 0
	beq	$a0, $s2, .LBB7_219
# %bb.218:                              # %_ZNKSt7__cxx1112basic_stringIcSt11char_traitsIcESaIcEE11_M_is_localEv.exit.i.i1017
	lu12i.w	$a1, 1
	ori	$a1, $a1, 1464
	add.d	$a1, $sp, $a1
	ld.d	$a1, $a1, 0
	addi.d	$a1, $a1, 1
	pcaddu18i	$ra, %call36(_ZdlPvm)
	jirl	$ra, $ra, 0
.LBB7_219:                              # %_ZNSt7__cxx1112basic_stringIcSt11char_traitsIcESaIcEED2Ev.exit1019
	lu12i.w	$a0, 1
	ori	$a0, $a0, 1432
	add.d	$s1, $sp, $a0
	lu12i.w	$a0, 1
	ori	$a0, $a0, 1416
	add.d	$a0, $sp, $a0
	st.d	$s1, $a0, 0
	lu12i.w	$a0, 472822
	ori	$a0, $a0, 865
	lu12i.w	$a1, 1
	ori	$a1, $a1, 1432
	add.d	$a1, $sp, $a1
	st.w	$a0, $a1, 0
	ori	$a0, $zero, 4
	lu12i.w	$a1, 1
	ori	$a1, $a1, 1424
	add.d	$a1, $sp, $a1
	st.d	$a0, $a1, 0
	lu12i.w	$a1, 1
	ori	$a1, $a1, 1436
	add.d	$a1, $sp, $a1
	st.b	$zero, $a1, 0
	lu12i.w	$a1, 1
	ori	$a1, $a1, 1400
	add.d	$s2, $sp, $a1
	lu12i.w	$a1, 1
	ori	$a1, $a1, 1384
	add.d	$a1, $sp, $a1
	st.d	$s2, $a1, 0
	lu12i.w	$a1, 443926
	ori	$s7, $a1, 1394
	lu12i.w	$a1, 1
	ori	$a1, $a1, 1400
	add.d	$a1, $sp, $a1
	st.w	$s7, $a1, 0
	lu12i.w	$a1, 1
	ori	$a1, $a1, 1392
	add.d	$a1, $sp, $a1
	st.d	$a0, $a1, 0
	lu12i.w	$a0, 1
	ori	$a0, $a0, 1404
	add.d	$a0, $sp, $a0
	st.b	$zero, $a0, 0
	lu12i.w	$a0, 1
	ori	$a0, $a0, 1368
	add.d	$s3, $sp, $a0
	lu12i.w	$a0, 1
	ori	$a0, $a0, 1352
	add.d	$a0, $sp, $a0
	st.d	$s3, $a0, 0
	ori	$a0, $zero, 31
	lu12i.w	$a1, 1
	ori	$a1, $a1, 3904
	add.d	$a1, $sp, $a1
	st.d	$a0, $a1, 0
.Ltmp294:
	lu12i.w	$a0, 1
	ori	$a0, $a0, 1352
	add.d	$a0, $sp, $a0
	lu12i.w	$a1, 1
	ori	$a1, $a1, 3904
	add.d	$a1, $sp, $a1
	move	$a2, $zero
	pcaddu18i	$ra, %call36(_ZNSt7__cxx1112basic_stringIcSt11char_traitsIcESaIcEE9_M_createERmm)
	jirl	$ra, $ra, 0
.Ltmp295:
# %bb.220:                              # %.noexc1030
	lu12i.w	$a1, 1
	ori	$a1, $a1, 1352
	add.d	$a1, $sp, $a1
	st.d	$a0, $a1, 0
	lu12i.w	$a1, 1
	ori	$a1, $a1, 3904
	add.d	$a1, $sp, $a1
	ld.d	$a1, $a1, 0
	pcalau12i	$a2, %pc_hi20(.L.str.139)
	addi.d	$a2, $a2, %pc_lo12(.L.str.139)
	vld	$vr0, $a2, 0
	ld.d	$a3, $a2, 23
	ld.d	$a2, $a2, 16
	lu12i.w	$a4, 1
	ori	$a4, $a4, 1368
	add.d	$a4, $sp, $a4
	st.d	$a1, $a4, 0
	vst	$vr0, $a0, 0
	st.d	$a3, $a0, 23
	st.d	$a2, $a0, 16
	lu12i.w	$a0, 1
	ori	$a0, $a0, 1352
	add.d	$a0, $sp, $a0
	ld.d	$a0, $a0, 0
	lu12i.w	$a2, 1
	ori	$a2, $a2, 1360
	add.d	$a2, $sp, $a2
	st.d	$a1, $a2, 0
	stx.b	$zero, $a0, $a1
.Ltmp297:
	lu12i.w	$a0, 1
	ori	$a0, $a0, 1448
	add.d	$a0, $sp, $a0
	lu12i.w	$a1, 1
	ori	$a1, $a1, 1416
	add.d	$a1, $sp, $a1
	ori	$a2, $zero, 1
	ori	$a3, $zero, 1
	lu12i.w	$a4, 1
	ori	$a4, $a4, 1384
	add.d	$a4, $sp, $a4
	lu12i.w	$a5, 1
	ori	$a5, $a5, 1352
	add.d	$a5, $sp, $a5
	pcaddu18i	$ra, %call36(_ZN2PP8FunctionC1ENSt7__cxx1112basic_stringIcSt11char_traitsIcESaIcEEEbiS6_S6_)
	jirl	$ra, $ra, 0
.Ltmp298:
# %bb.221:
	lu12i.w	$a0, 1
	ori	$a0, $a0, 1352
	add.d	$a0, $sp, $a0
	ld.d	$a0, $a0, 0
	beq	$a0, $s3, .LBB7_223
# %bb.222:                              # %_ZNKSt7__cxx1112basic_stringIcSt11char_traitsIcESaIcEE11_M_is_localEv.exit.i.i1032
	lu12i.w	$a1, 1
	ori	$a1, $a1, 1368
	add.d	$a1, $sp, $a1
	ld.d	$a1, $a1, 0
	addi.d	$a1, $a1, 1
	pcaddu18i	$ra, %call36(_ZdlPvm)
	jirl	$ra, $ra, 0
.LBB7_223:                              # %_ZNSt7__cxx1112basic_stringIcSt11char_traitsIcESaIcEED2Ev.exit1034
	lu12i.w	$a0, 1
	ori	$a0, $a0, 1384
	add.d	$a0, $sp, $a0
	ld.d	$a0, $a0, 0
	beq	$a0, $s2, .LBB7_225
# %bb.224:                              # %_ZNKSt7__cxx1112basic_stringIcSt11char_traitsIcESaIcEE11_M_is_localEv.exit.i.i1035
	lu12i.w	$a1, 1
	ori	$a1, $a1, 1400
	add.d	$a1, $sp, $a1
	ld.d	$a1, $a1, 0
	addi.d	$a1, $a1, 1
	pcaddu18i	$ra, %call36(_ZdlPvm)
	jirl	$ra, $ra, 0
.LBB7_225:                              # %_ZNSt7__cxx1112basic_stringIcSt11char_traitsIcESaIcEED2Ev.exit1037
	lu12i.w	$a0, 1
	ori	$a0, $a0, 1416
	add.d	$a0, $sp, $a0
	ld.d	$a0, $a0, 0
	beq	$a0, $s1, .LBB7_227
# %bb.226:                              # %_ZNKSt7__cxx1112basic_stringIcSt11char_traitsIcESaIcEE11_M_is_localEv.exit.i.i1038
	lu12i.w	$a1, 1
	ori	$a1, $a1, 1432
	add.d	$a1, $sp, $a1
	ld.d	$a1, $a1, 0
	addi.d	$a1, $a1, 1
	pcaddu18i	$ra, %call36(_ZdlPvm)
	jirl	$ra, $ra, 0
.LBB7_227:                              # %_ZNSt7__cxx1112basic_stringIcSt11char_traitsIcESaIcEED2Ev.exit1040
	lu12i.w	$a0, 1
	ori	$a0, $a0, 1264
	add.d	$s1, $sp, $a0
	lu12i.w	$a0, 1
	ori	$a0, $a0, 1456
	add.d	$a0, $sp, $a0
	ld.d	$s2, $a0, 0
	lu12i.w	$a0, 1
	ori	$a0, $a0, 1448
	add.d	$a0, $sp, $a0
	ld.d	$s3, $a0, 0
	lu12i.w	$a0, 1
	ori	$a0, $a0, 1248
	add.d	$a0, $sp, $a0
	st.d	$s1, $a0, 0
	ori	$a1, $zero, 16
	lu12i.w	$a0, 1
	ori	$a0, $a0, 1048
	add.d	$a0, $sp, $a0
	st.d	$s2, $a0, 0
	move	$a0, $s1
	bltu	$s2, $a1, .LBB7_230
# %bb.228:                              # %.noexc.i.i1042
.Ltmp300:
	lu12i.w	$a0, 1
	ori	$a0, $a0, 1248
	add.d	$a0, $sp, $a0
	lu12i.w	$a1, 1
	ori	$a1, $a1, 1048
	add.d	$a1, $sp, $a1
	move	$a2, $zero
	pcaddu18i	$ra, %call36(_ZNSt7__cxx1112basic_stringIcSt11char_traitsIcESaIcEE9_M_createERmm)
	jirl	$ra, $ra, 0
.Ltmp301:
# %bb.229:                              # %.noexc1043
	lu12i.w	$a1, 1
	ori	$a1, $a1, 1048
	add.d	$a1, $sp, $a1
	ld.d	$a1, $a1, 0
	lu12i.w	$a2, 1
	ori	$a2, $a2, 1248
	add.d	$a2, $sp, $a2
	st.d	$a0, $a2, 0
	lu12i.w	$a2, 1
	ori	$a2, $a2, 1264
	add.d	$a2, $sp, $a2
	st.d	$a1, $a2, 0
.LBB7_230:                              # %._crit_edge.i.i.i1041
	beqz	$s2, .LBB7_234
# %bb.231:                              # %._crit_edge.i.i.i1041
	ori	$a1, $zero, 1
	bne	$s2, $a1, .LBB7_233
# %bb.232:
	ld.b	$a1, $s3, 0
	st.b	$a1, $a0, 0
	b	.LBB7_234
.LBB7_233:
	move	$a1, $s3
	move	$a2, $s2
	pcaddu18i	$ra, %call36(memcpy)
	jirl	$ra, $ra, 0
.LBB7_234:
	lu12i.w	$a0, 1
	ori	$a0, $a0, 1048
	add.d	$a0, $sp, $a0
	ld.d	$a0, $a0, 0
	lu12i.w	$a1, 1
	ori	$a1, $a1, 1248
	add.d	$a1, $sp, $a1
	ld.d	$a1, $a1, 0
	lu12i.w	$a2, 1
	ori	$a2, $a2, 1256
	add.d	$a2, $sp, $a2
	st.d	$a0, $a2, 0
	stx.b	$zero, $a1, $a0
	lu12i.w	$a0, 1
	ori	$a0, $a0, 1248
	add.d	$a0, $sp, $a0
	ld.d	$a0, $a0, 0
	lu12i.w	$a1, 1
	ori	$a1, $a1, 3904
	add.d	$a1, $sp, $a1
	st.d	$fp, $a1, 0
	beq	$a0, $s1, .LBB7_236
# %bb.235:                              # %_ZNKSt7__cxx1112basic_stringIcSt11char_traitsIcESaIcEE11_M_is_localEv.exit.i.i1044
	lu12i.w	$a1, 1
	ori	$a1, $a1, 1264
	add.d	$a1, $sp, $a1
	ld.d	$a1, $a1, 0
	lu12i.w	$a2, 1
	ori	$a2, $a2, 1256
	add.d	$a2, $sp, $a2
	ld.d	$s2, $a2, 0
	lu12i.w	$a2, 1
	ori	$a2, $a2, 3904
	add.d	$a2, $sp, $a2
	st.d	$a0, $a2, 0
	lu12i.w	$a0, 1
	ori	$a0, $a0, 3920
	add.d	$a0, $sp, $a0
	st.d	$a1, $a0, 0
	b	.LBB7_237
.LBB7_236:
	lu12i.w	$a0, 1
	ori	$a0, $a0, 1256
	add.d	$a0, $sp, $a0
	ld.d	$s2, $a0, 0
	addi.d	$a2, $s2, 1
	move	$a0, $fp
	move	$a1, $s1
	pcaddu18i	$ra, %call36(memcpy)
	jirl	$ra, $ra, 0
.LBB7_237:                              # %_ZNSt7__cxx1112basic_stringIcSt11char_traitsIcESaIcEEC2EOS4_.exit.i1045
	lu12i.w	$a0, 1
	ori	$a0, $a0, 3912
	add.d	$a0, $sp, $a0
	st.d	$s2, $a0, 0
	lu12i.w	$a0, 1
	ori	$a0, $a0, 1248
	add.d	$a0, $sp, $a0
	st.d	$s1, $a0, 0
	lu12i.w	$a0, 1
	ori	$a0, $a0, 1256
	add.d	$a0, $sp, $a0
	st.d	$zero, $a0, 0
	lu12i.w	$a0, 1
	ori	$a0, $a0, 1264
	add.d	$a0, $sp, $a0
	st.b	$zero, $a0, 0
	lu12i.w	$a0, 1
	ori	$a0, $a0, 3936
	add.d	$a0, $sp, $a0
.Ltmp303:
	lu12i.w	$a1, 1
	ori	$a1, $a1, 1448
	add.d	$a1, $sp, $a1
	pcaddu18i	$ra, %call36(_ZN2PP8FunctionC2ERKS0_)
	jirl	$ra, $ra, 0
.Ltmp304:
# %bb.238:                              # %_ZNSt4pairINSt7__cxx1112basic_stringIcSt11char_traitsIcESaIcEEEN2PP8FunctionEEC2IS5_RS7_TnNSt9enable_ifIXaaclsr5_PCCPE22_MoveConstructiblePairIT_T0_EEclsr5_PCCPE30_ImplicitlyMoveConvertiblePairISC_SD_EEEbE4typeELb1EEEOSC_OSD_.exit
.Ltmp306:
	addi.d	$s0, $s0, 776
	lu12i.w	$a0, 1
	ori	$a0, $a0, 3904
	add.d	$a1, $sp, $a0
	move	$a0, $s0
	pcaddu18i	$ra, %call36(_ZNSt3mapINSt7__cxx1112basic_stringIcSt11char_traitsIcESaIcEEEN2PP8FunctionESt4lessIS5_ESaISt4pairIKS5_S7_EEE6insertISA_IS5_S7_EEENSt9enable_ifIXsr16is_constructibleISC_T_EE5valueESA_ISt17_Rb_tree_iteratorISC_EbEE4typeEOSI_)
	jirl	$ra, $ra, 0
.Ltmp307:
# %bb.239:
	lu12i.w	$a0, 1
	ori	$a0, $a0, 4008
	add.d	$a0, $sp, $a0
	ld.d	$a0, $a0, 0
	lu12i.w	$a1, 1
	ori	$a1, $a1, 4024
	add.d	$s4, $sp, $a1
	beq	$a0, $s4, .LBB7_241
# %bb.240:                              # %_ZNKSt7__cxx1112basic_stringIcSt11char_traitsIcESaIcEE11_M_is_localEv.exit.i.i.i.i
	lu12i.w	$a1, 1
	ori	$a1, $a1, 4024
	add.d	$a1, $sp, $a1
	ld.d	$a1, $a1, 0
	addi.d	$a1, $a1, 1
	pcaddu18i	$ra, %call36(_ZdlPvm)
	jirl	$ra, $ra, 0
.LBB7_241:                              # %_ZNSt7__cxx1112basic_stringIcSt11char_traitsIcESaIcEED2Ev.exit.i.i
	lu12i.w	$a0, 1
	ori	$a0, $a0, 3976
	add.d	$a0, $sp, $a0
	ld.d	$a0, $a0, 0
	lu12i.w	$a1, 1
	ori	$a1, $a1, 3992
	add.d	$s5, $sp, $a1
	beq	$a0, $s5, .LBB7_243
# %bb.242:                              # %_ZNKSt7__cxx1112basic_stringIcSt11char_traitsIcESaIcEE11_M_is_localEv.exit.i.i1.i.i
	lu12i.w	$a1, 1
	ori	$a1, $a1, 3992
	add.d	$a1, $sp, $a1
	ld.d	$a1, $a1, 0
	addi.d	$a1, $a1, 1
	pcaddu18i	$ra, %call36(_ZdlPvm)
	jirl	$ra, $ra, 0
.LBB7_243:                              # %_ZNSt7__cxx1112basic_stringIcSt11char_traitsIcESaIcEED2Ev.exit3.i.i
	lu12i.w	$a0, 1
	ori	$a0, $a0, 3936
	add.d	$a0, $sp, $a0
	ld.d	$a0, $a0, 0
	lu12i.w	$a1, 1
	ori	$a1, $a1, 3952
	add.d	$s6, $sp, $a1
	beq	$a0, $s6, .LBB7_245
# %bb.244:                              # %_ZNKSt7__cxx1112basic_stringIcSt11char_traitsIcESaIcEE11_M_is_localEv.exit.i.i4.i.i
	lu12i.w	$a1, 1
	ori	$a1, $a1, 3952
	add.d	$a1, $sp, $a1
	ld.d	$a1, $a1, 0
	addi.d	$a1, $a1, 1
	pcaddu18i	$ra, %call36(_ZdlPvm)
	jirl	$ra, $ra, 0
.LBB7_245:                              # %_ZN2PP8FunctionD2Ev.exit.i
	lu12i.w	$a0, 1
	ori	$a0, $a0, 3904
	add.d	$a0, $sp, $a0
	ld.d	$a0, $a0, 0
	beq	$a0, $fp, .LBB7_247
# %bb.246:                              # %_ZNKSt7__cxx1112basic_stringIcSt11char_traitsIcESaIcEE11_M_is_localEv.exit.i.i.i1051
	lu12i.w	$a1, 1
	ori	$a1, $a1, 3920
	add.d	$a1, $sp, $a1
	ld.d	$a1, $a1, 0
	addi.d	$a1, $a1, 1
	pcaddu18i	$ra, %call36(_ZdlPvm)
	jirl	$ra, $ra, 0
.LBB7_247:                              # %_ZNSt4pairINSt7__cxx1112basic_stringIcSt11char_traitsIcESaIcEEEN2PP8FunctionEED2Ev.exit
	lu12i.w	$a0, 1
	ori	$a0, $a0, 1248
	add.d	$a0, $sp, $a0
	ld.d	$a0, $a0, 0
	beq	$a0, $s1, .LBB7_249
# %bb.248:                              # %_ZNKSt7__cxx1112basic_stringIcSt11char_traitsIcESaIcEE11_M_is_localEv.exit.i.i1054
	lu12i.w	$a1, 1
	ori	$a1, $a1, 1264
	add.d	$a1, $sp, $a1
	ld.d	$a1, $a1, 0
	addi.d	$a1, $a1, 1
	pcaddu18i	$ra, %call36(_ZdlPvm)
	jirl	$ra, $ra, 0
.LBB7_249:                              # %_ZNSt7__cxx1112basic_stringIcSt11char_traitsIcESaIcEED2Ev.exit1056
	lu12i.w	$a0, 1
	ori	$a0, $a0, 1232
	add.d	$s1, $sp, $a0
	lu12i.w	$a0, 1
	ori	$a0, $a0, 1216
	add.d	$a0, $sp, $a0
	st.d	$s1, $a0, 0
	lu12i.w	$a0, 452247
	ori	$a0, $a0, 865
	lu12i.w	$a1, 1
	ori	$a1, $a1, 1232
	add.d	$a1, $sp, $a1
	st.w	$a0, $a1, 0
	ori	$a0, $zero, 4
	lu12i.w	$a1, 1
	ori	$a1, $a1, 1224
	add.d	$a1, $sp, $a1
	st.d	$a0, $a1, 0
	lu12i.w	$a1, 1
	ori	$a1, $a1, 1236
	add.d	$a1, $sp, $a1
	st.b	$zero, $a1, 0
	lu12i.w	$a1, 1
	ori	$a1, $a1, 1200
	add.d	$s2, $sp, $a1
	lu12i.w	$a1, 1
	ori	$a1, $a1, 1184
	add.d	$a1, $sp, $a1
	st.d	$s2, $a1, 0
	lu12i.w	$a1, 1
	ori	$a1, $a1, 1200
	add.d	$a1, $sp, $a1
	st.w	$s7, $a1, 0
	lu12i.w	$a1, 1
	ori	$a1, $a1, 1192
	add.d	$a1, $sp, $a1
	st.d	$a0, $a1, 0
	lu12i.w	$a0, 1
	ori	$a0, $a0, 1204
	add.d	$a0, $sp, $a0
	st.b	$zero, $a0, 0
	lu12i.w	$a0, 1
	ori	$a0, $a0, 1168
	add.d	$s3, $sp, $a0
	lu12i.w	$a0, 1
	ori	$a0, $a0, 1152
	add.d	$a0, $sp, $a0
	st.d	$s3, $a0, 0
	ori	$a0, $zero, 29
	lu12i.w	$a1, 1
	ori	$a1, $a1, 3904
	add.d	$a1, $sp, $a1
	st.d	$a0, $a1, 0
.Ltmp309:
	lu12i.w	$a0, 1
	ori	$a0, $a0, 1152
	add.d	$a0, $sp, $a0
	lu12i.w	$a1, 1
	ori	$a1, $a1, 3904
	add.d	$a1, $sp, $a1
	move	$a2, $zero
	pcaddu18i	$ra, %call36(_ZNSt7__cxx1112basic_stringIcSt11char_traitsIcESaIcEE9_M_createERmm)
	jirl	$ra, $ra, 0
.Ltmp310:
# %bb.250:                              # %.noexc1067
	lu12i.w	$a1, 1
	ori	$a1, $a1, 1152
	add.d	$a1, $sp, $a1
	st.d	$a0, $a1, 0
	lu12i.w	$a1, 1
	ori	$a1, $a1, 3904
	add.d	$a1, $sp, $a1
	ld.d	$a1, $a1, 0
	pcalau12i	$a2, %pc_hi20(.L.str.141)
	addi.d	$a2, $a2, %pc_lo12(.L.str.141)
	vld	$vr0, $a2, 0
	ld.d	$a3, $a2, 21
	ld.d	$a2, $a2, 16
	lu12i.w	$a4, 1
	ori	$a4, $a4, 1168
	add.d	$a4, $sp, $a4
	st.d	$a1, $a4, 0
	vst	$vr0, $a0, 0
	st.d	$a3, $a0, 21
	st.d	$a2, $a0, 16
	lu12i.w	$a0, 1
	ori	$a0, $a0, 1152
	add.d	$a0, $sp, $a0
	ld.d	$a0, $a0, 0
	lu12i.w	$a2, 1
	ori	$a2, $a2, 1160
	add.d	$a2, $sp, $a2
	st.d	$a1, $a2, 0
	stx.b	$zero, $a0, $a1
.Ltmp312:
	lu12i.w	$a0, 1
	ori	$a0, $a0, 1248
	add.d	$a0, $sp, $a0
	lu12i.w	$a1, 1
	ori	$a1, $a1, 1216
	add.d	$a1, $sp, $a1
	ori	$a2, $zero, 1
	ori	$a3, $zero, 1
	lu12i.w	$a4, 1
	ori	$a4, $a4, 1184
	add.d	$a4, $sp, $a4
	lu12i.w	$a5, 1
	ori	$a5, $a5, 1152
	add.d	$a5, $sp, $a5
	pcaddu18i	$ra, %call36(_ZN2PP8FunctionC1ENSt7__cxx1112basic_stringIcSt11char_traitsIcESaIcEEEbiS6_S6_)
	jirl	$ra, $ra, 0
.Ltmp313:
# %bb.251:
	lu12i.w	$a0, 1
	ori	$a0, $a0, 1152
	add.d	$a0, $sp, $a0
	ld.d	$a0, $a0, 0
	beq	$a0, $s3, .LBB7_253
# %bb.252:                              # %_ZNKSt7__cxx1112basic_stringIcSt11char_traitsIcESaIcEE11_M_is_localEv.exit.i.i1069
	lu12i.w	$a1, 1
	ori	$a1, $a1, 1168
	add.d	$a1, $sp, $a1
	ld.d	$a1, $a1, 0
	addi.d	$a1, $a1, 1
	pcaddu18i	$ra, %call36(_ZdlPvm)
	jirl	$ra, $ra, 0
.LBB7_253:                              # %_ZNSt7__cxx1112basic_stringIcSt11char_traitsIcESaIcEED2Ev.exit1071
	lu12i.w	$a0, 1
	ori	$a0, $a0, 1184
	add.d	$a0, $sp, $a0
	ld.d	$a0, $a0, 0
	beq	$a0, $s2, .LBB7_255
# %bb.254:                              # %_ZNKSt7__cxx1112basic_stringIcSt11char_traitsIcESaIcEE11_M_is_localEv.exit.i.i1072
	lu12i.w	$a1, 1
	ori	$a1, $a1, 1200
	add.d	$a1, $sp, $a1
	ld.d	$a1, $a1, 0
	addi.d	$a1, $a1, 1
	pcaddu18i	$ra, %call36(_ZdlPvm)
	jirl	$ra, $ra, 0
.LBB7_255:                              # %_ZNSt7__cxx1112basic_stringIcSt11char_traitsIcESaIcEED2Ev.exit1074
	lu12i.w	$a0, 1
	ori	$a0, $a0, 1216
	add.d	$a0, $sp, $a0
	ld.d	$a0, $a0, 0
	beq	$a0, $s1, .LBB7_257
# %bb.256:                              # %_ZNKSt7__cxx1112basic_stringIcSt11char_traitsIcESaIcEE11_M_is_localEv.exit.i.i1075
	lu12i.w	$a1, 1
	ori	$a1, $a1, 1232
	add.d	$a1, $sp, $a1
	ld.d	$a1, $a1, 0
	addi.d	$a1, $a1, 1
	pcaddu18i	$ra, %call36(_ZdlPvm)
	jirl	$ra, $ra, 0
.LBB7_257:                              # %_ZNSt7__cxx1112basic_stringIcSt11char_traitsIcESaIcEED2Ev.exit1077
	lu12i.w	$a0, 1
	ori	$a0, $a0, 1064
	add.d	$s1, $sp, $a0
	lu12i.w	$a0, 1
	ori	$a0, $a0, 1256
	add.d	$a0, $sp, $a0
	ld.d	$s2, $a0, 0
	lu12i.w	$a0, 1
	ori	$a0, $a0, 1248
	add.d	$a0, $sp, $a0
	ld.d	$s3, $a0, 0
	lu12i.w	$a0, 1
	ori	$a0, $a0, 1048
	add.d	$a0, $sp, $a0
	st.d	$s1, $a0, 0
	ori	$a1, $zero, 16
	lu12i.w	$a0, 1
	ori	$a0, $a0, 848
	add.d	$a0, $sp, $a0
	st.d	$s2, $a0, 0
	move	$a0, $s1
	bltu	$s2, $a1, .LBB7_260
# %bb.258:                              # %.noexc.i.i1079
.Ltmp315:
	lu12i.w	$a0, 1
	ori	$a0, $a0, 1048
	add.d	$a0, $sp, $a0
	lu12i.w	$a1, 1
	ori	$a1, $a1, 848
	add.d	$a1, $sp, $a1
	move	$a2, $zero
	pcaddu18i	$ra, %call36(_ZNSt7__cxx1112basic_stringIcSt11char_traitsIcESaIcEE9_M_createERmm)
	jirl	$ra, $ra, 0
.Ltmp316:
# %bb.259:                              # %.noexc1080
	lu12i.w	$a1, 1
	ori	$a1, $a1, 848
	add.d	$a1, $sp, $a1
	ld.d	$a1, $a1, 0
	lu12i.w	$a2, 1
	ori	$a2, $a2, 1048
	add.d	$a2, $sp, $a2
	st.d	$a0, $a2, 0
	lu12i.w	$a2, 1
	ori	$a2, $a2, 1064
	add.d	$a2, $sp, $a2
	st.d	$a1, $a2, 0
.LBB7_260:                              # %._crit_edge.i.i.i1078
	beqz	$s2, .LBB7_264
# %bb.261:                              # %._crit_edge.i.i.i1078
	ori	$a1, $zero, 1
	bne	$s2, $a1, .LBB7_263
# %bb.262:
	ld.b	$a1, $s3, 0
	st.b	$a1, $a0, 0
	b	.LBB7_264
.LBB7_263:
	move	$a1, $s3
	move	$a2, $s2
	pcaddu18i	$ra, %call36(memcpy)
	jirl	$ra, $ra, 0
.LBB7_264:
	lu12i.w	$a0, 1
	ori	$a0, $a0, 848
	add.d	$a0, $sp, $a0
	ld.d	$a0, $a0, 0
	lu12i.w	$a1, 1
	ori	$a1, $a1, 1048
	add.d	$a1, $sp, $a1
	ld.d	$a1, $a1, 0
	lu12i.w	$a2, 1
	ori	$a2, $a2, 1056
	add.d	$a2, $sp, $a2
	st.d	$a0, $a2, 0
	stx.b	$zero, $a1, $a0
	lu12i.w	$a0, 1
	ori	$a0, $a0, 1048
	add.d	$a0, $sp, $a0
	ld.d	$a0, $a0, 0
	lu12i.w	$a1, 1
	ori	$a1, $a1, 3904
	add.d	$a1, $sp, $a1
	st.d	$fp, $a1, 0
	beq	$a0, $s1, .LBB7_266
# %bb.265:                              # %_ZNKSt7__cxx1112basic_stringIcSt11char_traitsIcESaIcEE11_M_is_localEv.exit.i.i1082
	lu12i.w	$a1, 1
	ori	$a1, $a1, 1064
	add.d	$a1, $sp, $a1
	ld.d	$a1, $a1, 0
	lu12i.w	$a2, 1
	ori	$a2, $a2, 1056
	add.d	$a2, $sp, $a2
	ld.d	$s2, $a2, 0
	lu12i.w	$a2, 1
	ori	$a2, $a2, 3904
	add.d	$a2, $sp, $a2
	st.d	$a0, $a2, 0
	lu12i.w	$a0, 1
	ori	$a0, $a0, 3920
	add.d	$a0, $sp, $a0
	st.d	$a1, $a0, 0
	b	.LBB7_267
.LBB7_266:
	lu12i.w	$a0, 1
	ori	$a0, $a0, 1056
	add.d	$a0, $sp, $a0
	ld.d	$s2, $a0, 0
	addi.d	$a2, $s2, 1
	move	$a0, $fp
	move	$a1, $s1
	pcaddu18i	$ra, %call36(memcpy)
	jirl	$ra, $ra, 0
.LBB7_267:                              # %_ZNSt7__cxx1112basic_stringIcSt11char_traitsIcESaIcEEC2EOS4_.exit.i1083
	lu12i.w	$a0, 1
	ori	$a0, $a0, 3912
	add.d	$a0, $sp, $a0
	st.d	$s2, $a0, 0
	lu12i.w	$a0, 1
	ori	$a0, $a0, 1048
	add.d	$a0, $sp, $a0
	st.d	$s1, $a0, 0
	lu12i.w	$a0, 1
	ori	$a0, $a0, 1056
	add.d	$a0, $sp, $a0
	st.d	$zero, $a0, 0
	lu12i.w	$a0, 1
	ori	$a0, $a0, 1064
	add.d	$a0, $sp, $a0
	st.b	$zero, $a0, 0
	lu12i.w	$a0, 1
	ori	$a0, $a0, 3936
	add.d	$a0, $sp, $a0
.Ltmp318:
	lu12i.w	$a1, 1
	ori	$a1, $a1, 1248
	add.d	$a1, $sp, $a1
	pcaddu18i	$ra, %call36(_ZN2PP8FunctionC2ERKS0_)
	jirl	$ra, $ra, 0
.Ltmp319:
# %bb.268:                              # %_ZNSt4pairINSt7__cxx1112basic_stringIcSt11char_traitsIcESaIcEEEN2PP8FunctionEEC2IS5_RS7_TnNSt9enable_ifIXaaclsr5_PCCPE22_MoveConstructiblePairIT_T0_EEclsr5_PCCPE30_ImplicitlyMoveConvertiblePairISC_SD_EEEbE4typeELb1EEEOSC_OSD_.exit1089
.Ltmp321:
	lu12i.w	$a0, 1
	ori	$a0, $a0, 3904
	add.d	$a1, $sp, $a0
	move	$a0, $s0
	pcaddu18i	$ra, %call36(_ZNSt3mapINSt7__cxx1112basic_stringIcSt11char_traitsIcESaIcEEEN2PP8FunctionESt4lessIS5_ESaISt4pairIKS5_S7_EEE6insertISA_IS5_S7_EEENSt9enable_ifIXsr16is_constructibleISC_T_EE5valueESA_ISt17_Rb_tree_iteratorISC_EbEE4typeEOSI_)
	jirl	$ra, $ra, 0
.Ltmp322:
# %bb.269:
	lu12i.w	$a0, 1
	ori	$a0, $a0, 4008
	add.d	$a0, $sp, $a0
	ld.d	$a0, $a0, 0
	beq	$a0, $s4, .LBB7_271
# %bb.270:                              # %_ZNKSt7__cxx1112basic_stringIcSt11char_traitsIcESaIcEE11_M_is_localEv.exit.i.i.i.i1090
	lu12i.w	$a1, 1
	ori	$a1, $a1, 4024
	add.d	$a1, $sp, $a1
	ld.d	$a1, $a1, 0
	addi.d	$a1, $a1, 1
	pcaddu18i	$ra, %call36(_ZdlPvm)
	jirl	$ra, $ra, 0
.LBB7_271:                              # %_ZNSt7__cxx1112basic_stringIcSt11char_traitsIcESaIcEED2Ev.exit.i.i1091
	lu12i.w	$a0, 1
	ori	$a0, $a0, 3976
	add.d	$a0, $sp, $a0
	ld.d	$a0, $a0, 0
	beq	$a0, $s5, .LBB7_273
# %bb.272:                              # %_ZNKSt7__cxx1112basic_stringIcSt11char_traitsIcESaIcEE11_M_is_localEv.exit.i.i1.i.i1092
	lu12i.w	$a1, 1
	ori	$a1, $a1, 3992
	add.d	$a1, $sp, $a1
	ld.d	$a1, $a1, 0
	addi.d	$a1, $a1, 1
	pcaddu18i	$ra, %call36(_ZdlPvm)
	jirl	$ra, $ra, 0
.LBB7_273:                              # %_ZNSt7__cxx1112basic_stringIcSt11char_traitsIcESaIcEED2Ev.exit3.i.i1093
	lu12i.w	$a0, 1
	ori	$a0, $a0, 3936
	add.d	$a0, $sp, $a0
	ld.d	$a0, $a0, 0
	beq	$a0, $s6, .LBB7_275
# %bb.274:                              # %_ZNKSt7__cxx1112basic_stringIcSt11char_traitsIcESaIcEE11_M_is_localEv.exit.i.i4.i.i1094
	lu12i.w	$a1, 1
	ori	$a1, $a1, 3952
	add.d	$a1, $sp, $a1
	ld.d	$a1, $a1, 0
	addi.d	$a1, $a1, 1
	pcaddu18i	$ra, %call36(_ZdlPvm)
	jirl	$ra, $ra, 0
.LBB7_275:                              # %_ZN2PP8FunctionD2Ev.exit.i1095
	lu12i.w	$a0, 1
	ori	$a0, $a0, 3904
	add.d	$a0, $sp, $a0
	ld.d	$a0, $a0, 0
	beq	$a0, $fp, .LBB7_277
# %bb.276:                              # %_ZNKSt7__cxx1112basic_stringIcSt11char_traitsIcESaIcEE11_M_is_localEv.exit.i.i.i1096
	lu12i.w	$a1, 1
	ori	$a1, $a1, 3920
	add.d	$a1, $sp, $a1
	ld.d	$a1, $a1, 0
	addi.d	$a1, $a1, 1
	pcaddu18i	$ra, %call36(_ZdlPvm)
	jirl	$ra, $ra, 0
.LBB7_277:                              # %_ZNSt4pairINSt7__cxx1112basic_stringIcSt11char_traitsIcESaIcEEEN2PP8FunctionEED2Ev.exit1102
	lu12i.w	$a0, 1
	ori	$a0, $a0, 1048
	add.d	$a0, $sp, $a0
	ld.d	$a0, $a0, 0
	beq	$a0, $s1, .LBB7_279
# %bb.278:                              # %_ZNKSt7__cxx1112basic_stringIcSt11char_traitsIcESaIcEE11_M_is_localEv.exit.i.i1103
	lu12i.w	$a1, 1
	ori	$a1, $a1, 1064
	add.d	$a1, $sp, $a1
	ld.d	$a1, $a1, 0
	addi.d	$a1, $a1, 1
	pcaddu18i	$ra, %call36(_ZdlPvm)
	jirl	$ra, $ra, 0
.LBB7_279:                              # %_ZNSt7__cxx1112basic_stringIcSt11char_traitsIcESaIcEED2Ev.exit1105
	lu12i.w	$a0, 1
	ori	$a0, $a0, 1032
	add.d	$s1, $sp, $a0
	lu12i.w	$a0, 1
	ori	$a0, $a0, 1016
	add.d	$a0, $sp, $a0
	st.d	$s1, $a0, 0
	lu12i.w	$a0, 452119
	ori	$a0, $a0, 1121
	lu12i.w	$a1, 1
	ori	$a1, $a1, 1032
	add.d	$a1, $sp, $a1
	st.w	$a0, $a1, 0
	ori	$a0, $zero, 4
	lu12i.w	$a1, 1
	ori	$a1, $a1, 1024
	add.d	$a1, $sp, $a1
	st.d	$a0, $a1, 0
	lu12i.w	$a1, 1
	ori	$a1, $a1, 1036
	add.d	$a1, $sp, $a1
	st.b	$zero, $a1, 0
	lu12i.w	$a1, 1
	ori	$a1, $a1, 1000
	add.d	$s2, $sp, $a1
	lu12i.w	$a1, 1
	ori	$a1, $a1, 984
	add.d	$a1, $sp, $a1
	st.d	$s2, $a1, 0
	lu12i.w	$a1, 1
	ori	$a1, $a1, 1000
	add.d	$a1, $sp, $a1
	st.w	$s7, $a1, 0
	lu12i.w	$a1, 1
	ori	$a1, $a1, 992
	add.d	$a1, $sp, $a1
	st.d	$a0, $a1, 0
	lu12i.w	$a0, 1
	ori	$a0, $a0, 1004
	add.d	$a0, $sp, $a0
	st.b	$zero, $a0, 0
	lu12i.w	$a0, 1
	ori	$a0, $a0, 968
	add.d	$s3, $sp, $a0
	lu12i.w	$a0, 1
	ori	$a0, $a0, 952
	add.d	$a0, $sp, $a0
	st.d	$s3, $a0, 0
	ori	$a0, $zero, 27
	lu12i.w	$a1, 1
	ori	$a1, $a1, 3904
	add.d	$a1, $sp, $a1
	st.d	$a0, $a1, 0
.Ltmp324:
	lu12i.w	$a0, 1
	ori	$a0, $a0, 952
	add.d	$a0, $sp, $a0
	lu12i.w	$a1, 1
	ori	$a1, $a1, 3904
	add.d	$a1, $sp, $a1
	move	$a2, $zero
	pcaddu18i	$ra, %call36(_ZNSt7__cxx1112basic_stringIcSt11char_traitsIcESaIcEE9_M_createERmm)
	jirl	$ra, $ra, 0
.Ltmp325:
# %bb.280:                              # %.noexc1116
	lu12i.w	$a1, 1
	ori	$a1, $a1, 952
	add.d	$a1, $sp, $a1
	st.d	$a0, $a1, 0
	lu12i.w	$a1, 1
	ori	$a1, $a1, 3904
	add.d	$a1, $sp, $a1
	ld.d	$a1, $a1, 0
	pcalau12i	$a2, %pc_hi20(.L.str.143)
	addi.d	$a2, $a2, %pc_lo12(.L.str.143)
	vld	$vr0, $a2, 0
	ld.w	$a3, $a2, 23
	ld.d	$a2, $a2, 16
	lu12i.w	$a4, 1
	ori	$a4, $a4, 968
	add.d	$a4, $sp, $a4
	st.d	$a1, $a4, 0
	vst	$vr0, $a0, 0
	st.w	$a3, $a0, 23
	st.d	$a2, $a0, 16
	lu12i.w	$a0, 1
	ori	$a0, $a0, 952
	add.d	$a0, $sp, $a0
	ld.d	$a0, $a0, 0
	lu12i.w	$a2, 1
	ori	$a2, $a2, 960
	add.d	$a2, $sp, $a2
	st.d	$a1, $a2, 0
	stx.b	$zero, $a0, $a1
.Ltmp327:
	lu12i.w	$a0, 1
	ori	$a0, $a0, 1048
	add.d	$a0, $sp, $a0
	lu12i.w	$a1, 1
	ori	$a1, $a1, 1016
	add.d	$a1, $sp, $a1
	ori	$a2, $zero, 1
	ori	$a3, $zero, 1
	lu12i.w	$a4, 1
	ori	$a4, $a4, 984
	add.d	$a4, $sp, $a4
	lu12i.w	$a5, 1
	ori	$a5, $a5, 952
	add.d	$a5, $sp, $a5
	pcaddu18i	$ra, %call36(_ZN2PP8FunctionC1ENSt7__cxx1112basic_stringIcSt11char_traitsIcESaIcEEEbiS6_S6_)
	jirl	$ra, $ra, 0
.Ltmp328:
# %bb.281:
	lu12i.w	$a0, 1
	ori	$a0, $a0, 952
	add.d	$a0, $sp, $a0
	ld.d	$a0, $a0, 0
	beq	$a0, $s3, .LBB7_283
# %bb.282:                              # %_ZNKSt7__cxx1112basic_stringIcSt11char_traitsIcESaIcEE11_M_is_localEv.exit.i.i1118
	lu12i.w	$a1, 1
	ori	$a1, $a1, 968
	add.d	$a1, $sp, $a1
	ld.d	$a1, $a1, 0
	addi.d	$a1, $a1, 1
	pcaddu18i	$ra, %call36(_ZdlPvm)
	jirl	$ra, $ra, 0
.LBB7_283:                              # %_ZNSt7__cxx1112basic_stringIcSt11char_traitsIcESaIcEED2Ev.exit1120
	lu12i.w	$a0, 1
	ori	$a0, $a0, 984
	add.d	$a0, $sp, $a0
	ld.d	$a0, $a0, 0
	beq	$a0, $s2, .LBB7_285
# %bb.284:                              # %_ZNKSt7__cxx1112basic_stringIcSt11char_traitsIcESaIcEE11_M_is_localEv.exit.i.i1121
	lu12i.w	$a1, 1
	ori	$a1, $a1, 1000
	add.d	$a1, $sp, $a1
	ld.d	$a1, $a1, 0
	addi.d	$a1, $a1, 1
	pcaddu18i	$ra, %call36(_ZdlPvm)
	jirl	$ra, $ra, 0
.LBB7_285:                              # %_ZNSt7__cxx1112basic_stringIcSt11char_traitsIcESaIcEED2Ev.exit1123
	lu12i.w	$a0, 1
	ori	$a0, $a0, 1016
	add.d	$a0, $sp, $a0
	ld.d	$a0, $a0, 0
	beq	$a0, $s1, .LBB7_287
# %bb.286:                              # %_ZNKSt7__cxx1112basic_stringIcSt11char_traitsIcESaIcEE11_M_is_localEv.exit.i.i1124
	lu12i.w	$a1, 1
	ori	$a1, $a1, 1032
	add.d	$a1, $sp, $a1
	ld.d	$a1, $a1, 0
	addi.d	$a1, $a1, 1
	pcaddu18i	$ra, %call36(_ZdlPvm)
	jirl	$ra, $ra, 0
.LBB7_287:                              # %_ZNSt7__cxx1112basic_stringIcSt11char_traitsIcESaIcEED2Ev.exit1126
	lu12i.w	$a0, 1
	ori	$a0, $a0, 864
	add.d	$s1, $sp, $a0
	lu12i.w	$a0, 1
	ori	$a0, $a0, 1056
	add.d	$a0, $sp, $a0
	ld.d	$s2, $a0, 0
	lu12i.w	$a0, 1
	ori	$a0, $a0, 1048
	add.d	$a0, $sp, $a0
	ld.d	$s3, $a0, 0
	lu12i.w	$a0, 1
	ori	$a0, $a0, 848
	add.d	$a0, $sp, $a0
	st.d	$s1, $a0, 0
	ori	$a1, $zero, 16
	lu12i.w	$a0, 1
	ori	$a0, $a0, 648
	add.d	$a0, $sp, $a0
	st.d	$s2, $a0, 0
	move	$a0, $s1
	bltu	$s2, $a1, .LBB7_290
# %bb.288:                              # %.noexc.i.i1128
.Ltmp330:
	lu12i.w	$a0, 1
	ori	$a0, $a0, 848
	add.d	$a0, $sp, $a0
	lu12i.w	$a1, 1
	ori	$a1, $a1, 648
	add.d	$a1, $sp, $a1
	move	$a2, $zero
	pcaddu18i	$ra, %call36(_ZNSt7__cxx1112basic_stringIcSt11char_traitsIcESaIcEE9_M_createERmm)
	jirl	$ra, $ra, 0
.Ltmp331:
# %bb.289:                              # %.noexc1129
	lu12i.w	$a1, 1
	ori	$a1, $a1, 648
	add.d	$a1, $sp, $a1
	ld.d	$a1, $a1, 0
	lu12i.w	$a2, 1
	ori	$a2, $a2, 848
	add.d	$a2, $sp, $a2
	st.d	$a0, $a2, 0
	lu12i.w	$a2, 1
	ori	$a2, $a2, 864
	add.d	$a2, $sp, $a2
	st.d	$a1, $a2, 0
.LBB7_290:                              # %._crit_edge.i.i.i1127
	beqz	$s2, .LBB7_294
# %bb.291:                              # %._crit_edge.i.i.i1127
	ori	$a1, $zero, 1
	bne	$s2, $a1, .LBB7_293
# %bb.292:
	ld.b	$a1, $s3, 0
	st.b	$a1, $a0, 0
	b	.LBB7_294
.LBB7_293:
	move	$a1, $s3
	move	$a2, $s2
	pcaddu18i	$ra, %call36(memcpy)
	jirl	$ra, $ra, 0
.LBB7_294:
	lu12i.w	$a0, 1
	ori	$a0, $a0, 648
	add.d	$a0, $sp, $a0
	ld.d	$a0, $a0, 0
	lu12i.w	$a1, 1
	ori	$a1, $a1, 848
	add.d	$a1, $sp, $a1
	ld.d	$a1, $a1, 0
	lu12i.w	$a2, 1
	ori	$a2, $a2, 856
	add.d	$a2, $sp, $a2
	st.d	$a0, $a2, 0
	stx.b	$zero, $a1, $a0
	lu12i.w	$a0, 1
	ori	$a0, $a0, 848
	add.d	$a0, $sp, $a0
	ld.d	$a0, $a0, 0
	lu12i.w	$a1, 1
	ori	$a1, $a1, 3904
	add.d	$a1, $sp, $a1
	st.d	$fp, $a1, 0
	beq	$a0, $s1, .LBB7_296
# %bb.295:                              # %_ZNKSt7__cxx1112basic_stringIcSt11char_traitsIcESaIcEE11_M_is_localEv.exit.i.i1131
	lu12i.w	$a1, 1
	ori	$a1, $a1, 864
	add.d	$a1, $sp, $a1
	ld.d	$a1, $a1, 0
	lu12i.w	$a2, 1
	ori	$a2, $a2, 856
	add.d	$a2, $sp, $a2
	ld.d	$s2, $a2, 0
	lu12i.w	$a2, 1
	ori	$a2, $a2, 3904
	add.d	$a2, $sp, $a2
	st.d	$a0, $a2, 0
	lu12i.w	$a0, 1
	ori	$a0, $a0, 3920
	add.d	$a0, $sp, $a0
	st.d	$a1, $a0, 0
	b	.LBB7_297
.LBB7_296:
	lu12i.w	$a0, 1
	ori	$a0, $a0, 856
	add.d	$a0, $sp, $a0
	ld.d	$s2, $a0, 0
	addi.d	$a2, $s2, 1
	move	$a0, $fp
	move	$a1, $s1
	pcaddu18i	$ra, %call36(memcpy)
	jirl	$ra, $ra, 0
.LBB7_297:                              # %_ZNSt7__cxx1112basic_stringIcSt11char_traitsIcESaIcEEC2EOS4_.exit.i1132
	lu12i.w	$a0, 1
	ori	$a0, $a0, 3912
	add.d	$a0, $sp, $a0
	st.d	$s2, $a0, 0
	lu12i.w	$a0, 1
	ori	$a0, $a0, 848
	add.d	$a0, $sp, $a0
	st.d	$s1, $a0, 0
	lu12i.w	$a0, 1
	ori	$a0, $a0, 856
	add.d	$a0, $sp, $a0
	st.d	$zero, $a0, 0
	lu12i.w	$a0, 1
	ori	$a0, $a0, 864
	add.d	$a0, $sp, $a0
	st.b	$zero, $a0, 0
	lu12i.w	$a0, 1
	ori	$a0, $a0, 3936
	add.d	$a0, $sp, $a0
.Ltmp333:
	lu12i.w	$a1, 1
	ori	$a1, $a1, 1048
	add.d	$a1, $sp, $a1
	pcaddu18i	$ra, %call36(_ZN2PP8FunctionC2ERKS0_)
	jirl	$ra, $ra, 0
.Ltmp334:
# %bb.298:                              # %_ZNSt4pairINSt7__cxx1112basic_stringIcSt11char_traitsIcESaIcEEEN2PP8FunctionEEC2IS5_RS7_TnNSt9enable_ifIXaaclsr5_PCCPE22_MoveConstructiblePairIT_T0_EEclsr5_PCCPE30_ImplicitlyMoveConvertiblePairISC_SD_EEEbE4typeELb1EEEOSC_OSD_.exit1138
.Ltmp336:
	lu12i.w	$a0, 1
	ori	$a0, $a0, 3904
	add.d	$a1, $sp, $a0
	move	$a0, $s0
	pcaddu18i	$ra, %call36(_ZNSt3mapINSt7__cxx1112basic_stringIcSt11char_traitsIcESaIcEEEN2PP8FunctionESt4lessIS5_ESaISt4pairIKS5_S7_EEE6insertISA_IS5_S7_EEENSt9enable_ifIXsr16is_constructibleISC_T_EE5valueESA_ISt17_Rb_tree_iteratorISC_EbEE4typeEOSI_)
	jirl	$ra, $ra, 0
.Ltmp337:
# %bb.299:
	lu12i.w	$a0, 1
	ori	$a0, $a0, 4008
	add.d	$a0, $sp, $a0
	ld.d	$a0, $a0, 0
	beq	$a0, $s4, .LBB7_301
# %bb.300:                              # %_ZNKSt7__cxx1112basic_stringIcSt11char_traitsIcESaIcEE11_M_is_localEv.exit.i.i.i.i1139
	lu12i.w	$a1, 1
	ori	$a1, $a1, 4024
	add.d	$a1, $sp, $a1
	ld.d	$a1, $a1, 0
	addi.d	$a1, $a1, 1
	pcaddu18i	$ra, %call36(_ZdlPvm)
	jirl	$ra, $ra, 0
.LBB7_301:                              # %_ZNSt7__cxx1112basic_stringIcSt11char_traitsIcESaIcEED2Ev.exit.i.i1140
	lu12i.w	$a0, 1
	ori	$a0, $a0, 3976
	add.d	$a0, $sp, $a0
	ld.d	$a0, $a0, 0
	beq	$a0, $s5, .LBB7_303
# %bb.302:                              # %_ZNKSt7__cxx1112basic_stringIcSt11char_traitsIcESaIcEE11_M_is_localEv.exit.i.i1.i.i1141
	lu12i.w	$a1, 1
	ori	$a1, $a1, 3992
	add.d	$a1, $sp, $a1
	ld.d	$a1, $a1, 0
	addi.d	$a1, $a1, 1
	pcaddu18i	$ra, %call36(_ZdlPvm)
	jirl	$ra, $ra, 0
.LBB7_303:                              # %_ZNSt7__cxx1112basic_stringIcSt11char_traitsIcESaIcEED2Ev.exit3.i.i1142
	lu12i.w	$a0, 1
	ori	$a0, $a0, 3936
	add.d	$a0, $sp, $a0
	ld.d	$a0, $a0, 0
	beq	$a0, $s6, .LBB7_305
# %bb.304:                              # %_ZNKSt7__cxx1112basic_stringIcSt11char_traitsIcESaIcEE11_M_is_localEv.exit.i.i4.i.i1143
	lu12i.w	$a1, 1
	ori	$a1, $a1, 3952
	add.d	$a1, $sp, $a1
	ld.d	$a1, $a1, 0
	addi.d	$a1, $a1, 1
	pcaddu18i	$ra, %call36(_ZdlPvm)
	jirl	$ra, $ra, 0
.LBB7_305:                              # %_ZN2PP8FunctionD2Ev.exit.i1144
	lu12i.w	$a0, 1
	ori	$a0, $a0, 3904
	add.d	$a0, $sp, $a0
	ld.d	$a0, $a0, 0
	beq	$a0, $fp, .LBB7_307
# %bb.306:                              # %_ZNKSt7__cxx1112basic_stringIcSt11char_traitsIcESaIcEE11_M_is_localEv.exit.i.i.i1145
	lu12i.w	$a1, 1
	ori	$a1, $a1, 3920
	add.d	$a1, $sp, $a1
	ld.d	$a1, $a1, 0
	addi.d	$a1, $a1, 1
	pcaddu18i	$ra, %call36(_ZdlPvm)
	jirl	$ra, $ra, 0
.LBB7_307:                              # %_ZNSt4pairINSt7__cxx1112basic_stringIcSt11char_traitsIcESaIcEEEN2PP8FunctionEED2Ev.exit1151
	lu12i.w	$a0, 1
	ori	$a0, $a0, 848
	add.d	$a0, $sp, $a0
	ld.d	$a0, $a0, 0
	beq	$a0, $s1, .LBB7_309
# %bb.308:                              # %_ZNKSt7__cxx1112basic_stringIcSt11char_traitsIcESaIcEE11_M_is_localEv.exit.i.i1152
	lu12i.w	$a1, 1
	ori	$a1, $a1, 864
	add.d	$a1, $sp, $a1
	ld.d	$a1, $a1, 0
	addi.d	$a1, $a1, 1
	pcaddu18i	$ra, %call36(_ZdlPvm)
	jirl	$ra, $ra, 0
.LBB7_309:                              # %_ZNSt7__cxx1112basic_stringIcSt11char_traitsIcESaIcEED2Ev.exit1154
	lu12i.w	$a0, 1
	ori	$a0, $a0, 832
	add.d	$s1, $sp, $a0
	lu12i.w	$a0, 1
	ori	$a0, $a0, 816
	add.d	$a0, $sp, $a0
	st.d	$s1, $a0, 0
	lu12i.w	$a0, 444054
	ori	$a0, $a0, 1379
	lu12i.w	$a1, 1
	ori	$a1, $a1, 832
	add.d	$a1, $sp, $a1
	st.w	$a0, $a1, 0
	ori	$a0, $zero, 4
	lu12i.w	$a1, 1
	ori	$a1, $a1, 824
	add.d	$a1, $sp, $a1
	st.d	$a0, $a1, 0
	lu12i.w	$a1, 1
	ori	$a1, $a1, 836
	add.d	$a1, $sp, $a1
	st.b	$zero, $a1, 0
	lu12i.w	$a1, 1
	ori	$a1, $a1, 800
	add.d	$s2, $sp, $a1
	lu12i.w	$a1, 1
	ori	$a1, $a1, 784
	add.d	$a1, $sp, $a1
	st.d	$s2, $a1, 0
	lu12i.w	$a1, 1
	ori	$a1, $a1, 800
	add.d	$a1, $sp, $a1
	st.w	$s7, $a1, 0
	lu12i.w	$a1, 1
	ori	$a1, $a1, 792
	add.d	$a1, $sp, $a1
	st.d	$a0, $a1, 0
	lu12i.w	$a0, 1
	ori	$a0, $a0, 804
	add.d	$a0, $sp, $a0
	st.b	$zero, $a0, 0
	lu12i.w	$a0, 1
	ori	$a0, $a0, 768
	add.d	$s3, $sp, $a0
	lu12i.w	$a0, 1
	ori	$a0, $a0, 752
	add.d	$a0, $sp, $a0
	st.d	$s3, $a0, 0
	ori	$a0, $zero, 30
	lu12i.w	$a1, 1
	ori	$a1, $a1, 3904
	add.d	$a1, $sp, $a1
	st.d	$a0, $a1, 0
.Ltmp339:
	lu12i.w	$a0, 1
	ori	$a0, $a0, 752
	add.d	$a0, $sp, $a0
	lu12i.w	$a1, 1
	ori	$a1, $a1, 3904
	add.d	$a1, $sp, $a1
	move	$a2, $zero
	pcaddu18i	$ra, %call36(_ZNSt7__cxx1112basic_stringIcSt11char_traitsIcESaIcEE9_M_createERmm)
	jirl	$ra, $ra, 0
.Ltmp340:
# %bb.310:                              # %.noexc1165
	lu12i.w	$a1, 1
	ori	$a1, $a1, 752
	add.d	$a1, $sp, $a1
	st.d	$a0, $a1, 0
	lu12i.w	$a1, 1
	ori	$a1, $a1, 3904
	add.d	$a1, $sp, $a1
	ld.d	$a1, $a1, 0
	pcalau12i	$a2, %pc_hi20(.L.str.145)
	addi.d	$a2, $a2, %pc_lo12(.L.str.145)
	vld	$vr0, $a2, 0
	ld.d	$a3, $a2, 22
	ld.d	$a2, $a2, 16
	lu12i.w	$a4, 1
	ori	$a4, $a4, 768
	add.d	$a4, $sp, $a4
	st.d	$a1, $a4, 0
	vst	$vr0, $a0, 0
	st.d	$a3, $a0, 22
	st.d	$a2, $a0, 16
	lu12i.w	$a0, 1
	ori	$a0, $a0, 752
	add.d	$a0, $sp, $a0
	ld.d	$a0, $a0, 0
	lu12i.w	$a2, 1
	ori	$a2, $a2, 760
	add.d	$a2, $sp, $a2
	st.d	$a1, $a2, 0
	stx.b	$zero, $a0, $a1
.Ltmp342:
	lu12i.w	$a0, 1
	ori	$a0, $a0, 848
	add.d	$a0, $sp, $a0
	lu12i.w	$a1, 1
	ori	$a1, $a1, 816
	add.d	$a1, $sp, $a1
	ori	$a2, $zero, 1
	ori	$a3, $zero, 1
	lu12i.w	$a4, 1
	ori	$a4, $a4, 784
	add.d	$a4, $sp, $a4
	lu12i.w	$a5, 1
	ori	$a5, $a5, 752
	add.d	$a5, $sp, $a5
	pcaddu18i	$ra, %call36(_ZN2PP8FunctionC1ENSt7__cxx1112basic_stringIcSt11char_traitsIcESaIcEEEbiS6_S6_)
	jirl	$ra, $ra, 0
.Ltmp343:
# %bb.311:
	lu12i.w	$a0, 1
	ori	$a0, $a0, 752
	add.d	$a0, $sp, $a0
	ld.d	$a0, $a0, 0
	beq	$a0, $s3, .LBB7_313
# %bb.312:                              # %_ZNKSt7__cxx1112basic_stringIcSt11char_traitsIcESaIcEE11_M_is_localEv.exit.i.i1167
	lu12i.w	$a1, 1
	ori	$a1, $a1, 768
	add.d	$a1, $sp, $a1
	ld.d	$a1, $a1, 0
	addi.d	$a1, $a1, 1
	pcaddu18i	$ra, %call36(_ZdlPvm)
	jirl	$ra, $ra, 0
.LBB7_313:                              # %_ZNSt7__cxx1112basic_stringIcSt11char_traitsIcESaIcEED2Ev.exit1169
	lu12i.w	$a0, 1
	ori	$a0, $a0, 784
	add.d	$a0, $sp, $a0
	ld.d	$a0, $a0, 0
	beq	$a0, $s2, .LBB7_315
# %bb.314:                              # %_ZNKSt7__cxx1112basic_stringIcSt11char_traitsIcESaIcEE11_M_is_localEv.exit.i.i1170
	lu12i.w	$a1, 1
	ori	$a1, $a1, 800
	add.d	$a1, $sp, $a1
	ld.d	$a1, $a1, 0
	addi.d	$a1, $a1, 1
	pcaddu18i	$ra, %call36(_ZdlPvm)
	jirl	$ra, $ra, 0
.LBB7_315:                              # %_ZNSt7__cxx1112basic_stringIcSt11char_traitsIcESaIcEED2Ev.exit1172
	lu12i.w	$a0, 1
	ori	$a0, $a0, 816
	add.d	$a0, $sp, $a0
	ld.d	$a0, $a0, 0
	beq	$a0, $s1, .LBB7_317
# %bb.316:                              # %_ZNKSt7__cxx1112basic_stringIcSt11char_traitsIcESaIcEE11_M_is_localEv.exit.i.i1173
	lu12i.w	$a1, 1
	ori	$a1, $a1, 832
	add.d	$a1, $sp, $a1
	ld.d	$a1, $a1, 0
	addi.d	$a1, $a1, 1
	pcaddu18i	$ra, %call36(_ZdlPvm)
	jirl	$ra, $ra, 0
.LBB7_317:                              # %_ZNSt7__cxx1112basic_stringIcSt11char_traitsIcESaIcEED2Ev.exit1175
	lu12i.w	$a0, 1
	ori	$a0, $a0, 664
	add.d	$s1, $sp, $a0
	lu12i.w	$a0, 1
	ori	$a0, $a0, 856
	add.d	$a0, $sp, $a0
	ld.d	$s2, $a0, 0
	lu12i.w	$a0, 1
	ori	$a0, $a0, 848
	add.d	$a0, $sp, $a0
	ld.d	$s3, $a0, 0
	lu12i.w	$a0, 1
	ori	$a0, $a0, 648
	add.d	$a0, $sp, $a0
	st.d	$s1, $a0, 0
	ori	$a1, $zero, 16
	lu12i.w	$a0, 1
	ori	$a0, $a0, 448
	add.d	$a0, $sp, $a0
	st.d	$s2, $a0, 0
	move	$a0, $s1
	bltu	$s2, $a1, .LBB7_320
# %bb.318:                              # %.noexc.i.i1177
.Ltmp345:
	lu12i.w	$a0, 1
	ori	$a0, $a0, 648
	add.d	$a0, $sp, $a0
	lu12i.w	$a1, 1
	ori	$a1, $a1, 448
	add.d	$a1, $sp, $a1
	move	$a2, $zero
	pcaddu18i	$ra, %call36(_ZNSt7__cxx1112basic_stringIcSt11char_traitsIcESaIcEE9_M_createERmm)
	jirl	$ra, $ra, 0
.Ltmp346:
# %bb.319:                              # %.noexc1178
	lu12i.w	$a1, 1
	ori	$a1, $a1, 448
	add.d	$a1, $sp, $a1
	ld.d	$a1, $a1, 0
	lu12i.w	$a2, 1
	ori	$a2, $a2, 648
	add.d	$a2, $sp, $a2
	st.d	$a0, $a2, 0
	lu12i.w	$a2, 1
	ori	$a2, $a2, 664
	add.d	$a2, $sp, $a2
	st.d	$a1, $a2, 0
.LBB7_320:                              # %._crit_edge.i.i.i1176
	beqz	$s2, .LBB7_324
# %bb.321:                              # %._crit_edge.i.i.i1176
	ori	$a1, $zero, 1
	bne	$s2, $a1, .LBB7_323
# %bb.322:
	ld.b	$a1, $s3, 0
	st.b	$a1, $a0, 0
	b	.LBB7_324
.LBB7_323:
	move	$a1, $s3
	move	$a2, $s2
	pcaddu18i	$ra, %call36(memcpy)
	jirl	$ra, $ra, 0
.LBB7_324:
	lu12i.w	$a0, 1
	ori	$a0, $a0, 448
	add.d	$a0, $sp, $a0
	ld.d	$a0, $a0, 0
	lu12i.w	$a1, 1
	ori	$a1, $a1, 648
	add.d	$a1, $sp, $a1
	ld.d	$a1, $a1, 0
	lu12i.w	$a2, 1
	ori	$a2, $a2, 656
	add.d	$a2, $sp, $a2
	st.d	$a0, $a2, 0
	stx.b	$zero, $a1, $a0
	lu12i.w	$a0, 1
	ori	$a0, $a0, 648
	add.d	$a0, $sp, $a0
	ld.d	$a0, $a0, 0
	lu12i.w	$a1, 1
	ori	$a1, $a1, 3904
	add.d	$a1, $sp, $a1
	st.d	$fp, $a1, 0
	beq	$a0, $s1, .LBB7_326
# %bb.325:                              # %_ZNKSt7__cxx1112basic_stringIcSt11char_traitsIcESaIcEE11_M_is_localEv.exit.i.i1180
	lu12i.w	$a1, 1
	ori	$a1, $a1, 664
	add.d	$a1, $sp, $a1
	ld.d	$a1, $a1, 0
	lu12i.w	$a2, 1
	ori	$a2, $a2, 656
	add.d	$a2, $sp, $a2
	ld.d	$s2, $a2, 0
	lu12i.w	$a2, 1
	ori	$a2, $a2, 3904
	add.d	$a2, $sp, $a2
	st.d	$a0, $a2, 0
	lu12i.w	$a0, 1
	ori	$a0, $a0, 3920
	add.d	$a0, $sp, $a0
	st.d	$a1, $a0, 0
	b	.LBB7_327
.LBB7_326:
	lu12i.w	$a0, 1
	ori	$a0, $a0, 656
	add.d	$a0, $sp, $a0
	ld.d	$s2, $a0, 0
	addi.d	$a2, $s2, 1
	move	$a0, $fp
	move	$a1, $s1
	pcaddu18i	$ra, %call36(memcpy)
	jirl	$ra, $ra, 0
.LBB7_327:                              # %_ZNSt7__cxx1112basic_stringIcSt11char_traitsIcESaIcEEC2EOS4_.exit.i1181
	lu12i.w	$a0, 1
	ori	$a0, $a0, 3912
	add.d	$a0, $sp, $a0
	st.d	$s2, $a0, 0
	lu12i.w	$a0, 1
	ori	$a0, $a0, 648
	add.d	$a0, $sp, $a0
	st.d	$s1, $a0, 0
	lu12i.w	$a0, 1
	ori	$a0, $a0, 656
	add.d	$a0, $sp, $a0
	st.d	$zero, $a0, 0
	lu12i.w	$a0, 1
	ori	$a0, $a0, 664
	add.d	$a0, $sp, $a0
	st.b	$zero, $a0, 0
	lu12i.w	$a0, 1
	ori	$a0, $a0, 3936
	add.d	$a0, $sp, $a0
.Ltmp348:
	lu12i.w	$a1, 1
	ori	$a1, $a1, 848
	add.d	$a1, $sp, $a1
	pcaddu18i	$ra, %call36(_ZN2PP8FunctionC2ERKS0_)
	jirl	$ra, $ra, 0
.Ltmp349:
# %bb.328:                              # %_ZNSt4pairINSt7__cxx1112basic_stringIcSt11char_traitsIcESaIcEEEN2PP8FunctionEEC2IS5_RS7_TnNSt9enable_ifIXaaclsr5_PCCPE22_MoveConstructiblePairIT_T0_EEclsr5_PCCPE30_ImplicitlyMoveConvertiblePairISC_SD_EEEbE4typeELb1EEEOSC_OSD_.exit1187
.Ltmp351:
	lu12i.w	$a0, 1
	ori	$a0, $a0, 3904
	add.d	$a1, $sp, $a0
	move	$a0, $s0
	pcaddu18i	$ra, %call36(_ZNSt3mapINSt7__cxx1112basic_stringIcSt11char_traitsIcESaIcEEEN2PP8FunctionESt4lessIS5_ESaISt4pairIKS5_S7_EEE6insertISA_IS5_S7_EEENSt9enable_ifIXsr16is_constructibleISC_T_EE5valueESA_ISt17_Rb_tree_iteratorISC_EbEE4typeEOSI_)
	jirl	$ra, $ra, 0
.Ltmp352:
# %bb.329:
	lu12i.w	$a0, 1
	ori	$a0, $a0, 4008
	add.d	$a0, $sp, $a0
	ld.d	$a0, $a0, 0
	beq	$a0, $s4, .LBB7_331
# %bb.330:                              # %_ZNKSt7__cxx1112basic_stringIcSt11char_traitsIcESaIcEE11_M_is_localEv.exit.i.i.i.i1188
	lu12i.w	$a1, 1
	ori	$a1, $a1, 4024
	add.d	$a1, $sp, $a1
	ld.d	$a1, $a1, 0
	addi.d	$a1, $a1, 1
	pcaddu18i	$ra, %call36(_ZdlPvm)
	jirl	$ra, $ra, 0
.LBB7_331:                              # %_ZNSt7__cxx1112basic_stringIcSt11char_traitsIcESaIcEED2Ev.exit.i.i1189
	lu12i.w	$a0, 1
	ori	$a0, $a0, 3976
	add.d	$a0, $sp, $a0
	ld.d	$a0, $a0, 0
	beq	$a0, $s5, .LBB7_333
# %bb.332:                              # %_ZNKSt7__cxx1112basic_stringIcSt11char_traitsIcESaIcEE11_M_is_localEv.exit.i.i1.i.i1190
	lu12i.w	$a1, 1
	ori	$a1, $a1, 3992
	add.d	$a1, $sp, $a1
	ld.d	$a1, $a1, 0
	addi.d	$a1, $a1, 1
	pcaddu18i	$ra, %call36(_ZdlPvm)
	jirl	$ra, $ra, 0
.LBB7_333:                              # %_ZNSt7__cxx1112basic_stringIcSt11char_traitsIcESaIcEED2Ev.exit3.i.i1191
	lu12i.w	$a0, 1
	ori	$a0, $a0, 3936
	add.d	$a0, $sp, $a0
	ld.d	$a0, $a0, 0
	beq	$a0, $s6, .LBB7_335
# %bb.334:                              # %_ZNKSt7__cxx1112basic_stringIcSt11char_traitsIcESaIcEE11_M_is_localEv.exit.i.i4.i.i1192
	lu12i.w	$a1, 1
	ori	$a1, $a1, 3952
	add.d	$a1, $sp, $a1
	ld.d	$a1, $a1, 0
	addi.d	$a1, $a1, 1
	pcaddu18i	$ra, %call36(_ZdlPvm)
	jirl	$ra, $ra, 0
.LBB7_335:                              # %_ZN2PP8FunctionD2Ev.exit.i1193
	lu12i.w	$a0, 1
	ori	$a0, $a0, 3904
	add.d	$a0, $sp, $a0
	ld.d	$a0, $a0, 0
	beq	$a0, $fp, .LBB7_337
# %bb.336:                              # %_ZNKSt7__cxx1112basic_stringIcSt11char_traitsIcESaIcEE11_M_is_localEv.exit.i.i.i1194
	lu12i.w	$a1, 1
	ori	$a1, $a1, 3920
	add.d	$a1, $sp, $a1
	ld.d	$a1, $a1, 0
	addi.d	$a1, $a1, 1
	pcaddu18i	$ra, %call36(_ZdlPvm)
	jirl	$ra, $ra, 0
.LBB7_337:                              # %_ZNSt4pairINSt7__cxx1112basic_stringIcSt11char_traitsIcESaIcEEEN2PP8FunctionEED2Ev.exit1200
	lu12i.w	$a0, 1
	ori	$a0, $a0, 648
	add.d	$a0, $sp, $a0
	ld.d	$a0, $a0, 0
	beq	$a0, $s1, .LBB7_339
# %bb.338:                              # %_ZNKSt7__cxx1112basic_stringIcSt11char_traitsIcESaIcEE11_M_is_localEv.exit.i.i1201
	lu12i.w	$a1, 1
	ori	$a1, $a1, 664
	add.d	$a1, $sp, $a1
	ld.d	$a1, $a1, 0
	addi.d	$a1, $a1, 1
	pcaddu18i	$ra, %call36(_ZdlPvm)
	jirl	$ra, $ra, 0
.LBB7_339:                              # %_ZNSt7__cxx1112basic_stringIcSt11char_traitsIcESaIcEED2Ev.exit1203
	pcalau12i	$a0, %pc_hi20(.L.str.146)
	addi.d	$a0, $a0, %pc_lo12(.L.str.146)
	ld.h	$a1, $a0, 0
	ld.b	$a0, $a0, 2
	lu12i.w	$a2, 1
	ori	$a2, $a2, 632
	add.d	$s1, $sp, $a2
	lu12i.w	$a2, 1
	ori	$a2, $a2, 616
	add.d	$a2, $sp, $a2
	st.d	$s1, $a2, 0
	lu12i.w	$a2, 1
	ori	$a2, $a2, 632
	add.d	$a2, $sp, $a2
	st.h	$a1, $a2, 0
	lu12i.w	$a1, 1
	ori	$a1, $a1, 634
	add.d	$a1, $sp, $a1
	st.b	$a0, $a1, 0
	ori	$a0, $zero, 3
	lu12i.w	$a1, 1
	ori	$a1, $a1, 624
	add.d	$a1, $sp, $a1
	st.d	$a0, $a1, 0
	lu12i.w	$a0, 1
	ori	$a0, $a0, 635
	add.d	$a0, $sp, $a0
	st.b	$zero, $a0, 0
	lu12i.w	$a0, 1
	ori	$a0, $a0, 600
	add.d	$s2, $sp, $a0
	lu12i.w	$a0, 1
	ori	$a0, $a0, 584
	add.d	$a0, $sp, $a0
	st.d	$s2, $a0, 0
	lu12i.w	$a0, 1
	ori	$a0, $a0, 600
	add.d	$a0, $sp, $a0
	st.w	$s7, $a0, 0
	ori	$a0, $zero, 4
	lu12i.w	$a1, 1
	ori	$a1, $a1, 592
	add.d	$a1, $sp, $a1
	st.d	$a0, $a1, 0
	lu12i.w	$a0, 1
	ori	$a0, $a0, 604
	add.d	$a0, $sp, $a0
	st.b	$zero, $a0, 0
	lu12i.w	$a0, 1
	ori	$a0, $a0, 568
	add.d	$s3, $sp, $a0
	lu12i.w	$a0, 1
	ori	$a0, $a0, 552
	add.d	$a0, $sp, $a0
	st.d	$s3, $a0, 0
	ori	$a0, $zero, 22
	lu12i.w	$a1, 1
	ori	$a1, $a1, 3904
	add.d	$a1, $sp, $a1
	st.d	$a0, $a1, 0
.Ltmp354:
	lu12i.w	$a0, 1
	ori	$a0, $a0, 552
	add.d	$a0, $sp, $a0
	lu12i.w	$a1, 1
	ori	$a1, $a1, 3904
	add.d	$a1, $sp, $a1
	move	$a2, $zero
	pcaddu18i	$ra, %call36(_ZNSt7__cxx1112basic_stringIcSt11char_traitsIcESaIcEE9_M_createERmm)
	jirl	$ra, $ra, 0
.Ltmp355:
# %bb.340:                              # %.noexc1214
	lu12i.w	$a1, 1
	ori	$a1, $a1, 3904
	add.d	$a1, $sp, $a1
	ld.d	$a1, $a1, 0
	pcalau12i	$a2, %pc_hi20(.L.str.147)
	addi.d	$a2, $a2, %pc_lo12(.L.str.147)
	vld	$vr0, $a2, 0
	ld.d	$a2, $a2, 14
	lu12i.w	$a3, 1
	ori	$a3, $a3, 552
	add.d	$a3, $sp, $a3
	st.d	$a0, $a3, 0
	lu12i.w	$a3, 1
	ori	$a3, $a3, 568
	add.d	$a3, $sp, $a3
	st.d	$a1, $a3, 0
	vst	$vr0, $a0, 0
	st.d	$a2, $a0, 14
	lu12i.w	$a0, 1
	ori	$a0, $a0, 552
	add.d	$a0, $sp, $a0
	ld.d	$a0, $a0, 0
	lu12i.w	$a2, 1
	ori	$a2, $a2, 560
	add.d	$a2, $sp, $a2
	st.d	$a1, $a2, 0
	stx.b	$zero, $a0, $a1
.Ltmp357:
	lu12i.w	$a0, 1
	ori	$a0, $a0, 648
	add.d	$a0, $sp, $a0
	lu12i.w	$a1, 1
	ori	$a1, $a1, 616
	add.d	$a1, $sp, $a1
	ori	$a2, $zero, 1
	ori	$a3, $zero, 1
	lu12i.w	$a4, 1
	ori	$a4, $a4, 584
	add.d	$a4, $sp, $a4
	lu12i.w	$a5, 1
	ori	$a5, $a5, 552
	add.d	$a5, $sp, $a5
	pcaddu18i	$ra, %call36(_ZN2PP8FunctionC1ENSt7__cxx1112basic_stringIcSt11char_traitsIcESaIcEEEbiS6_S6_)
	jirl	$ra, $ra, 0
.Ltmp358:
# %bb.341:
	lu12i.w	$a0, 1
	ori	$a0, $a0, 552
	add.d	$a0, $sp, $a0
	ld.d	$a0, $a0, 0
	beq	$a0, $s3, .LBB7_343
# %bb.342:                              # %_ZNKSt7__cxx1112basic_stringIcSt11char_traitsIcESaIcEE11_M_is_localEv.exit.i.i1216
	lu12i.w	$a1, 1
	ori	$a1, $a1, 568
	add.d	$a1, $sp, $a1
	ld.d	$a1, $a1, 0
	addi.d	$a1, $a1, 1
	pcaddu18i	$ra, %call36(_ZdlPvm)
	jirl	$ra, $ra, 0
.LBB7_343:                              # %_ZNSt7__cxx1112basic_stringIcSt11char_traitsIcESaIcEED2Ev.exit1218
	lu12i.w	$a0, 1
	ori	$a0, $a0, 584
	add.d	$a0, $sp, $a0
	ld.d	$a0, $a0, 0
	beq	$a0, $s2, .LBB7_345
# %bb.344:                              # %_ZNKSt7__cxx1112basic_stringIcSt11char_traitsIcESaIcEE11_M_is_localEv.exit.i.i1219
	lu12i.w	$a1, 1
	ori	$a1, $a1, 600
	add.d	$a1, $sp, $a1
	ld.d	$a1, $a1, 0
	addi.d	$a1, $a1, 1
	pcaddu18i	$ra, %call36(_ZdlPvm)
	jirl	$ra, $ra, 0
.LBB7_345:                              # %_ZNSt7__cxx1112basic_stringIcSt11char_traitsIcESaIcEED2Ev.exit1221
	lu12i.w	$a0, 1
	ori	$a0, $a0, 616
	add.d	$a0, $sp, $a0
	ld.d	$a0, $a0, 0
	beq	$a0, $s1, .LBB7_347
# %bb.346:                              # %_ZNKSt7__cxx1112basic_stringIcSt11char_traitsIcESaIcEE11_M_is_localEv.exit.i.i1222
	lu12i.w	$a1, 1
	ori	$a1, $a1, 632
	add.d	$a1, $sp, $a1
	ld.d	$a1, $a1, 0
	addi.d	$a1, $a1, 1
	pcaddu18i	$ra, %call36(_ZdlPvm)
	jirl	$ra, $ra, 0
.LBB7_347:                              # %_ZNSt7__cxx1112basic_stringIcSt11char_traitsIcESaIcEED2Ev.exit1224
	lu12i.w	$a0, 1
	ori	$a0, $a0, 464
	add.d	$s1, $sp, $a0
	lu12i.w	$a0, 1
	ori	$a0, $a0, 656
	add.d	$a0, $sp, $a0
	ld.d	$s2, $a0, 0
	lu12i.w	$a0, 1
	ori	$a0, $a0, 648
	add.d	$a0, $sp, $a0
	ld.d	$s3, $a0, 0
	lu12i.w	$a0, 1
	ori	$a0, $a0, 448
	add.d	$a0, $sp, $a0
	st.d	$s1, $a0, 0
	ori	$a1, $zero, 16
	lu12i.w	$a0, 1
	ori	$a0, $a0, 248
	add.d	$a0, $sp, $a0
	st.d	$s2, $a0, 0
	move	$a0, $s1
	bltu	$s2, $a1, .LBB7_350
# %bb.348:                              # %.noexc.i.i1226
.Ltmp360:
	lu12i.w	$a0, 1
	ori	$a0, $a0, 448
	add.d	$a0, $sp, $a0
	lu12i.w	$a1, 1
	ori	$a1, $a1, 248
	add.d	$a1, $sp, $a1
	move	$a2, $zero
	pcaddu18i	$ra, %call36(_ZNSt7__cxx1112basic_stringIcSt11char_traitsIcESaIcEE9_M_createERmm)
	jirl	$ra, $ra, 0
.Ltmp361:
# %bb.349:                              # %.noexc1227
	lu12i.w	$a1, 1
	ori	$a1, $a1, 248
	add.d	$a1, $sp, $a1
	ld.d	$a1, $a1, 0
	lu12i.w	$a2, 1
	ori	$a2, $a2, 448
	add.d	$a2, $sp, $a2
	st.d	$a0, $a2, 0
	lu12i.w	$a2, 1
	ori	$a2, $a2, 464
	add.d	$a2, $sp, $a2
	st.d	$a1, $a2, 0
.LBB7_350:                              # %._crit_edge.i.i.i1225
	beqz	$s2, .LBB7_354
# %bb.351:                              # %._crit_edge.i.i.i1225
	ori	$a1, $zero, 1
	bne	$s2, $a1, .LBB7_353
# %bb.352:
	ld.b	$a1, $s3, 0
	st.b	$a1, $a0, 0
	b	.LBB7_354
.LBB7_353:
	move	$a1, $s3
	move	$a2, $s2
	pcaddu18i	$ra, %call36(memcpy)
	jirl	$ra, $ra, 0
.LBB7_354:
	lu12i.w	$a0, 1
	ori	$a0, $a0, 248
	add.d	$a0, $sp, $a0
	ld.d	$a0, $a0, 0
	lu12i.w	$a1, 1
	ori	$a1, $a1, 448
	add.d	$a1, $sp, $a1
	ld.d	$a1, $a1, 0
	lu12i.w	$a2, 1
	ori	$a2, $a2, 456
	add.d	$a2, $sp, $a2
	st.d	$a0, $a2, 0
	stx.b	$zero, $a1, $a0
	lu12i.w	$a0, 1
	ori	$a0, $a0, 448
	add.d	$a0, $sp, $a0
	ld.d	$a0, $a0, 0
	lu12i.w	$a1, 1
	ori	$a1, $a1, 3904
	add.d	$a1, $sp, $a1
	st.d	$fp, $a1, 0
	beq	$a0, $s1, .LBB7_356
# %bb.355:                              # %_ZNKSt7__cxx1112basic_stringIcSt11char_traitsIcESaIcEE11_M_is_localEv.exit.i.i1229
	lu12i.w	$a1, 1
	ori	$a1, $a1, 464
	add.d	$a1, $sp, $a1
	ld.d	$a1, $a1, 0
	lu12i.w	$a2, 1
	ori	$a2, $a2, 456
	add.d	$a2, $sp, $a2
	ld.d	$s2, $a2, 0
	lu12i.w	$a2, 1
	ori	$a2, $a2, 3904
	add.d	$a2, $sp, $a2
	st.d	$a0, $a2, 0
	lu12i.w	$a0, 1
	ori	$a0, $a0, 3920
	add.d	$a0, $sp, $a0
	st.d	$a1, $a0, 0
	b	.LBB7_357
.LBB7_356:
	lu12i.w	$a0, 1
	ori	$a0, $a0, 456
	add.d	$a0, $sp, $a0
	ld.d	$s2, $a0, 0
	addi.d	$a2, $s2, 1
	move	$a0, $fp
	move	$a1, $s1
	pcaddu18i	$ra, %call36(memcpy)
	jirl	$ra, $ra, 0
.LBB7_357:                              # %_ZNSt7__cxx1112basic_stringIcSt11char_traitsIcESaIcEEC2EOS4_.exit.i1230
	lu12i.w	$a0, 1
	ori	$a0, $a0, 3912
	add.d	$a0, $sp, $a0
	st.d	$s2, $a0, 0
	lu12i.w	$a0, 1
	ori	$a0, $a0, 448
	add.d	$a0, $sp, $a0
	st.d	$s1, $a0, 0
	lu12i.w	$a0, 1
	ori	$a0, $a0, 456
	add.d	$a0, $sp, $a0
	st.d	$zero, $a0, 0
	lu12i.w	$a0, 1
	ori	$a0, $a0, 464
	add.d	$a0, $sp, $a0
	st.b	$zero, $a0, 0
	lu12i.w	$a0, 1
	ori	$a0, $a0, 3936
	add.d	$a0, $sp, $a0
.Ltmp363:
	lu12i.w	$a1, 1
	ori	$a1, $a1, 648
	add.d	$a1, $sp, $a1
	pcaddu18i	$ra, %call36(_ZN2PP8FunctionC2ERKS0_)
	jirl	$ra, $ra, 0
.Ltmp364:
# %bb.358:                              # %_ZNSt4pairINSt7__cxx1112basic_stringIcSt11char_traitsIcESaIcEEEN2PP8FunctionEEC2IS5_RS7_TnNSt9enable_ifIXaaclsr5_PCCPE22_MoveConstructiblePairIT_T0_EEclsr5_PCCPE30_ImplicitlyMoveConvertiblePairISC_SD_EEEbE4typeELb1EEEOSC_OSD_.exit1236
.Ltmp366:
	lu12i.w	$a0, 1
	ori	$a0, $a0, 3904
	add.d	$a1, $sp, $a0
	move	$a0, $s0
	pcaddu18i	$ra, %call36(_ZNSt3mapINSt7__cxx1112basic_stringIcSt11char_traitsIcESaIcEEEN2PP8FunctionESt4lessIS5_ESaISt4pairIKS5_S7_EEE6insertISA_IS5_S7_EEENSt9enable_ifIXsr16is_constructibleISC_T_EE5valueESA_ISt17_Rb_tree_iteratorISC_EbEE4typeEOSI_)
	jirl	$ra, $ra, 0
.Ltmp367:
# %bb.359:
	lu12i.w	$a0, 1
	ori	$a0, $a0, 4008
	add.d	$a0, $sp, $a0
	ld.d	$a0, $a0, 0
	beq	$a0, $s4, .LBB7_361
# %bb.360:                              # %_ZNKSt7__cxx1112basic_stringIcSt11char_traitsIcESaIcEE11_M_is_localEv.exit.i.i.i.i1237
	lu12i.w	$a1, 1
	ori	$a1, $a1, 4024
	add.d	$a1, $sp, $a1
	ld.d	$a1, $a1, 0
	addi.d	$a1, $a1, 1
	pcaddu18i	$ra, %call36(_ZdlPvm)
	jirl	$ra, $ra, 0
.LBB7_361:                              # %_ZNSt7__cxx1112basic_stringIcSt11char_traitsIcESaIcEED2Ev.exit.i.i1238
	lu12i.w	$a0, 1
	ori	$a0, $a0, 3976
	add.d	$a0, $sp, $a0
	ld.d	$a0, $a0, 0
	beq	$a0, $s5, .LBB7_363
# %bb.362:                              # %_ZNKSt7__cxx1112basic_stringIcSt11char_traitsIcESaIcEE11_M_is_localEv.exit.i.i1.i.i1239
	lu12i.w	$a1, 1
	ori	$a1, $a1, 3992
	add.d	$a1, $sp, $a1
	ld.d	$a1, $a1, 0
	addi.d	$a1, $a1, 1
	pcaddu18i	$ra, %call36(_ZdlPvm)
	jirl	$ra, $ra, 0
.LBB7_363:                              # %_ZNSt7__cxx1112basic_stringIcSt11char_traitsIcESaIcEED2Ev.exit3.i.i1240
	lu12i.w	$a0, 1
	ori	$a0, $a0, 3936
	add.d	$a0, $sp, $a0
	ld.d	$a0, $a0, 0
	beq	$a0, $s6, .LBB7_365
# %bb.364:                              # %_ZNKSt7__cxx1112basic_stringIcSt11char_traitsIcESaIcEE11_M_is_localEv.exit.i.i4.i.i1241
	lu12i.w	$a1, 1
	ori	$a1, $a1, 3952
	add.d	$a1, $sp, $a1
	ld.d	$a1, $a1, 0
	addi.d	$a1, $a1, 1
	pcaddu18i	$ra, %call36(_ZdlPvm)
	jirl	$ra, $ra, 0
.LBB7_365:                              # %_ZN2PP8FunctionD2Ev.exit.i1242
	lu12i.w	$a0, 1
	ori	$a0, $a0, 3904
	add.d	$a0, $sp, $a0
	ld.d	$a0, $a0, 0
	beq	$a0, $fp, .LBB7_367
# %bb.366:                              # %_ZNKSt7__cxx1112basic_stringIcSt11char_traitsIcESaIcEE11_M_is_localEv.exit.i.i.i1243
	lu12i.w	$a1, 1
	ori	$a1, $a1, 3920
	add.d	$a1, $sp, $a1
	ld.d	$a1, $a1, 0
	addi.d	$a1, $a1, 1
	pcaddu18i	$ra, %call36(_ZdlPvm)
	jirl	$ra, $ra, 0
.LBB7_367:                              # %_ZNSt4pairINSt7__cxx1112basic_stringIcSt11char_traitsIcESaIcEEEN2PP8FunctionEED2Ev.exit1249
	lu12i.w	$a0, 1
	ori	$a0, $a0, 448
	add.d	$a0, $sp, $a0
	ld.d	$a0, $a0, 0
	beq	$a0, $s1, .LBB7_369
# %bb.368:                              # %_ZNKSt7__cxx1112basic_stringIcSt11char_traitsIcESaIcEE11_M_is_localEv.exit.i.i1250
	lu12i.w	$a1, 1
	ori	$a1, $a1, 464
	add.d	$a1, $sp, $a1
	ld.d	$a1, $a1, 0
	addi.d	$a1, $a1, 1
	pcaddu18i	$ra, %call36(_ZdlPvm)
	jirl	$ra, $ra, 0
.LBB7_369:                              # %_ZNSt7__cxx1112basic_stringIcSt11char_traitsIcESaIcEED2Ev.exit1252
	lu12i.w	$a0, 1
	ori	$a0, $a0, 432
	add.d	$s1, $sp, $a0
	lu12i.w	$a0, 1
	ori	$a0, $a0, 416
	add.d	$a0, $sp, $a0
	st.d	$s1, $a0, 0
	lu12i.w	$a0, 427830
	ori	$a0, $a0, 3939
	lu12i.w	$a1, 1
	ori	$a1, $a1, 432
	add.d	$a1, $sp, $a1
	st.w	$a0, $a1, 0
	ori	$a0, $zero, 4
	lu12i.w	$a1, 1
	ori	$a1, $a1, 424
	add.d	$a1, $sp, $a1
	st.d	$a0, $a1, 0
	lu12i.w	$a1, 1
	ori	$a1, $a1, 436
	add.d	$a1, $sp, $a1
	st.b	$zero, $a1, 0
	lu12i.w	$a1, 1
	ori	$a1, $a1, 400
	add.d	$s2, $sp, $a1
	lu12i.w	$a1, 1
	ori	$a1, $a1, 384
	add.d	$a1, $sp, $a1
	st.d	$s2, $a1, 0
	lu12i.w	$a1, 1
	ori	$a1, $a1, 400
	add.d	$a1, $sp, $a1
	st.w	$s7, $a1, 0
	lu12i.w	$a1, 1
	ori	$a1, $a1, 392
	add.d	$a1, $sp, $a1
	st.d	$a0, $a1, 0
	lu12i.w	$a0, 1
	ori	$a0, $a0, 404
	add.d	$a0, $sp, $a0
	st.b	$zero, $a0, 0
	lu12i.w	$a0, 1
	ori	$a0, $a0, 368
	add.d	$s3, $sp, $a0
	lu12i.w	$a0, 1
	ori	$a0, $a0, 352
	add.d	$a0, $sp, $a0
	st.d	$s3, $a0, 0
	ori	$a0, $zero, 17
	lu12i.w	$a1, 1
	ori	$a1, $a1, 3904
	add.d	$a1, $sp, $a1
	st.d	$a0, $a1, 0
.Ltmp369:
	lu12i.w	$a0, 1
	ori	$a0, $a0, 352
	add.d	$a0, $sp, $a0
	lu12i.w	$a1, 1
	ori	$a1, $a1, 3904
	add.d	$a1, $sp, $a1
	move	$a2, $zero
	pcaddu18i	$ra, %call36(_ZNSt7__cxx1112basic_stringIcSt11char_traitsIcESaIcEE9_M_createERmm)
	jirl	$ra, $ra, 0
.Ltmp370:
# %bb.370:                              # %.noexc1263
	lu12i.w	$a1, 1
	ori	$a1, $a1, 3904
	add.d	$a1, $sp, $a1
	ld.d	$a1, $a1, 0
	pcalau12i	$a2, %pc_hi20(.L.str.149)
	addi.d	$a2, $a2, %pc_lo12(.L.str.149)
	vld	$vr0, $a2, 0
	ld.b	$a2, $a2, 16
	lu12i.w	$a3, 1
	ori	$a3, $a3, 352
	add.d	$a3, $sp, $a3
	st.d	$a0, $a3, 0
	lu12i.w	$a3, 1
	ori	$a3, $a3, 368
	add.d	$a3, $sp, $a3
	st.d	$a1, $a3, 0
	vst	$vr0, $a0, 0
	st.b	$a2, $a0, 16
	lu12i.w	$a0, 1
	ori	$a0, $a0, 352
	add.d	$a0, $sp, $a0
	ld.d	$a0, $a0, 0
	lu12i.w	$a2, 1
	ori	$a2, $a2, 360
	add.d	$a2, $sp, $a2
	st.d	$a1, $a2, 0
	stx.b	$zero, $a0, $a1
.Ltmp372:
	lu12i.w	$a0, 1
	ori	$a0, $a0, 448
	add.d	$a0, $sp, $a0
	lu12i.w	$a1, 1
	ori	$a1, $a1, 416
	add.d	$a1, $sp, $a1
	ori	$a2, $zero, 1
	ori	$a3, $zero, 1
	lu12i.w	$a4, 1
	ori	$a4, $a4, 384
	add.d	$a4, $sp, $a4
	lu12i.w	$a5, 1
	ori	$a5, $a5, 352
	add.d	$a5, $sp, $a5
	pcaddu18i	$ra, %call36(_ZN2PP8FunctionC1ENSt7__cxx1112basic_stringIcSt11char_traitsIcESaIcEEEbiS6_S6_)
	jirl	$ra, $ra, 0
.Ltmp373:
# %bb.371:
	lu12i.w	$a0, 1
	ori	$a0, $a0, 352
	add.d	$a0, $sp, $a0
	ld.d	$a0, $a0, 0
	beq	$a0, $s3, .LBB7_373
# %bb.372:                              # %_ZNKSt7__cxx1112basic_stringIcSt11char_traitsIcESaIcEE11_M_is_localEv.exit.i.i1265
	lu12i.w	$a1, 1
	ori	$a1, $a1, 368
	add.d	$a1, $sp, $a1
	ld.d	$a1, $a1, 0
	addi.d	$a1, $a1, 1
	pcaddu18i	$ra, %call36(_ZdlPvm)
	jirl	$ra, $ra, 0
.LBB7_373:                              # %_ZNSt7__cxx1112basic_stringIcSt11char_traitsIcESaIcEED2Ev.exit1267
	lu12i.w	$a0, 1
	ori	$a0, $a0, 384
	add.d	$a0, $sp, $a0
	ld.d	$a0, $a0, 0
	beq	$a0, $s2, .LBB7_375
# %bb.374:                              # %_ZNKSt7__cxx1112basic_stringIcSt11char_traitsIcESaIcEE11_M_is_localEv.exit.i.i1268
	lu12i.w	$a1, 1
	ori	$a1, $a1, 400
	add.d	$a1, $sp, $a1
	ld.d	$a1, $a1, 0
	addi.d	$a1, $a1, 1
	pcaddu18i	$ra, %call36(_ZdlPvm)
	jirl	$ra, $ra, 0
.LBB7_375:                              # %_ZNSt7__cxx1112basic_stringIcSt11char_traitsIcESaIcEED2Ev.exit1270
	lu12i.w	$a0, 1
	ori	$a0, $a0, 416
	add.d	$a0, $sp, $a0
	ld.d	$a0, $a0, 0
	beq	$a0, $s1, .LBB7_377
# %bb.376:                              # %_ZNKSt7__cxx1112basic_stringIcSt11char_traitsIcESaIcEE11_M_is_localEv.exit.i.i1271
	lu12i.w	$a1, 1
	ori	$a1, $a1, 432
	add.d	$a1, $sp, $a1
	ld.d	$a1, $a1, 0
	addi.d	$a1, $a1, 1
	pcaddu18i	$ra, %call36(_ZdlPvm)
	jirl	$ra, $ra, 0
.LBB7_377:                              # %_ZNSt7__cxx1112basic_stringIcSt11char_traitsIcESaIcEED2Ev.exit1273
	lu12i.w	$a0, 1
	ori	$a0, $a0, 264
	add.d	$s1, $sp, $a0
	lu12i.w	$a0, 1
	ori	$a0, $a0, 456
	add.d	$a0, $sp, $a0
	ld.d	$s2, $a0, 0
	lu12i.w	$a0, 1
	ori	$a0, $a0, 448
	add.d	$a0, $sp, $a0
	ld.d	$s3, $a0, 0
	lu12i.w	$a0, 1
	ori	$a0, $a0, 248
	add.d	$a0, $sp, $a0
	st.d	$s1, $a0, 0
	ori	$a1, $zero, 16
	lu12i.w	$a0, 1
	ori	$a0, $a0, 48
	add.d	$a0, $sp, $a0
	st.d	$s2, $a0, 0
	move	$a0, $s1
	bltu	$s2, $a1, .LBB7_380
# %bb.378:                              # %.noexc.i.i1275
.Ltmp375:
	lu12i.w	$a0, 1
	ori	$a0, $a0, 248
	add.d	$a0, $sp, $a0
	lu12i.w	$a1, 1
	ori	$a1, $a1, 48
	add.d	$a1, $sp, $a1
	move	$a2, $zero
	pcaddu18i	$ra, %call36(_ZNSt7__cxx1112basic_stringIcSt11char_traitsIcESaIcEE9_M_createERmm)
	jirl	$ra, $ra, 0
.Ltmp376:
# %bb.379:                              # %.noexc1276
	lu12i.w	$a1, 1
	ori	$a1, $a1, 48
	add.d	$a1, $sp, $a1
	ld.d	$a1, $a1, 0
	lu12i.w	$a2, 1
	ori	$a2, $a2, 248
	add.d	$a2, $sp, $a2
	st.d	$a0, $a2, 0
	lu12i.w	$a2, 1
	ori	$a2, $a2, 264
	add.d	$a2, $sp, $a2
	st.d	$a1, $a2, 0
.LBB7_380:                              # %._crit_edge.i.i.i1274
	beqz	$s2, .LBB7_384
# %bb.381:                              # %._crit_edge.i.i.i1274
	ori	$a1, $zero, 1
	bne	$s2, $a1, .LBB7_383
# %bb.382:
	ld.b	$a1, $s3, 0
	st.b	$a1, $a0, 0
	b	.LBB7_384
.LBB7_383:
	move	$a1, $s3
	move	$a2, $s2
	pcaddu18i	$ra, %call36(memcpy)
	jirl	$ra, $ra, 0
.LBB7_384:
	lu12i.w	$a0, 1
	ori	$a0, $a0, 48
	add.d	$a0, $sp, $a0
	ld.d	$a0, $a0, 0
	lu12i.w	$a1, 1
	ori	$a1, $a1, 248
	add.d	$a1, $sp, $a1
	ld.d	$a1, $a1, 0
	lu12i.w	$a2, 1
	ori	$a2, $a2, 256
	add.d	$a2, $sp, $a2
	st.d	$a0, $a2, 0
	stx.b	$zero, $a1, $a0
	lu12i.w	$a0, 1
	ori	$a0, $a0, 248
	add.d	$a0, $sp, $a0
	ld.d	$a0, $a0, 0
	lu12i.w	$a1, 1
	ori	$a1, $a1, 3904
	add.d	$a1, $sp, $a1
	st.d	$fp, $a1, 0
	beq	$a0, $s1, .LBB7_386
# %bb.385:                              # %_ZNKSt7__cxx1112basic_stringIcSt11char_traitsIcESaIcEE11_M_is_localEv.exit.i.i1278
	lu12i.w	$a1, 1
	ori	$a1, $a1, 264
	add.d	$a1, $sp, $a1
	ld.d	$a1, $a1, 0
	lu12i.w	$a2, 1
	ori	$a2, $a2, 256
	add.d	$a2, $sp, $a2
	ld.d	$s2, $a2, 0
	lu12i.w	$a2, 1
	ori	$a2, $a2, 3904
	add.d	$a2, $sp, $a2
	st.d	$a0, $a2, 0
	lu12i.w	$a0, 1
	ori	$a0, $a0, 3920
	add.d	$a0, $sp, $a0
	st.d	$a1, $a0, 0
	b	.LBB7_387
.LBB7_386:
	lu12i.w	$a0, 1
	ori	$a0, $a0, 256
	add.d	$a0, $sp, $a0
	ld.d	$s2, $a0, 0
	addi.d	$a2, $s2, 1
	move	$a0, $fp
	move	$a1, $s1
	pcaddu18i	$ra, %call36(memcpy)
	jirl	$ra, $ra, 0
.LBB7_387:                              # %_ZNSt7__cxx1112basic_stringIcSt11char_traitsIcESaIcEEC2EOS4_.exit.i1279
	lu12i.w	$a0, 1
	ori	$a0, $a0, 3912
	add.d	$a0, $sp, $a0
	st.d	$s2, $a0, 0
	lu12i.w	$a0, 1
	ori	$a0, $a0, 248
	add.d	$a0, $sp, $a0
	st.d	$s1, $a0, 0
	lu12i.w	$a0, 1
	ori	$a0, $a0, 256
	add.d	$a0, $sp, $a0
	st.d	$zero, $a0, 0
	lu12i.w	$a0, 1
	ori	$a0, $a0, 264
	add.d	$a0, $sp, $a0
	st.b	$zero, $a0, 0
	lu12i.w	$a0, 1
	ori	$a0, $a0, 3936
	add.d	$a0, $sp, $a0
.Ltmp378:
	lu12i.w	$a1, 1
	ori	$a1, $a1, 448
	add.d	$a1, $sp, $a1
	pcaddu18i	$ra, %call36(_ZN2PP8FunctionC2ERKS0_)
	jirl	$ra, $ra, 0
.Ltmp379:
# %bb.388:                              # %_ZNSt4pairINSt7__cxx1112basic_stringIcSt11char_traitsIcESaIcEEEN2PP8FunctionEEC2IS5_RS7_TnNSt9enable_ifIXaaclsr5_PCCPE22_MoveConstructiblePairIT_T0_EEclsr5_PCCPE30_ImplicitlyMoveConvertiblePairISC_SD_EEEbE4typeELb1EEEOSC_OSD_.exit1285
.Ltmp381:
	lu12i.w	$a0, 1
	ori	$a0, $a0, 3904
	add.d	$a1, $sp, $a0
	move	$a0, $s0
	pcaddu18i	$ra, %call36(_ZNSt3mapINSt7__cxx1112basic_stringIcSt11char_traitsIcESaIcEEEN2PP8FunctionESt4lessIS5_ESaISt4pairIKS5_S7_EEE6insertISA_IS5_S7_EEENSt9enable_ifIXsr16is_constructibleISC_T_EE5valueESA_ISt17_Rb_tree_iteratorISC_EbEE4typeEOSI_)
	jirl	$ra, $ra, 0
.Ltmp382:
# %bb.389:
	lu12i.w	$a0, 1
	ori	$a0, $a0, 4008
	add.d	$a0, $sp, $a0
	ld.d	$a0, $a0, 0
	beq	$a0, $s4, .LBB7_391
# %bb.390:                              # %_ZNKSt7__cxx1112basic_stringIcSt11char_traitsIcESaIcEE11_M_is_localEv.exit.i.i.i.i1286
	lu12i.w	$a1, 1
	ori	$a1, $a1, 4024
	add.d	$a1, $sp, $a1
	ld.d	$a1, $a1, 0
	addi.d	$a1, $a1, 1
	pcaddu18i	$ra, %call36(_ZdlPvm)
	jirl	$ra, $ra, 0
.LBB7_391:                              # %_ZNSt7__cxx1112basic_stringIcSt11char_traitsIcESaIcEED2Ev.exit.i.i1287
	lu12i.w	$a0, 1
	ori	$a0, $a0, 3976
	add.d	$a0, $sp, $a0
	ld.d	$a0, $a0, 0
	beq	$a0, $s5, .LBB7_393
# %bb.392:                              # %_ZNKSt7__cxx1112basic_stringIcSt11char_traitsIcESaIcEE11_M_is_localEv.exit.i.i1.i.i1288
	lu12i.w	$a1, 1
	ori	$a1, $a1, 3992
	add.d	$a1, $sp, $a1
	ld.d	$a1, $a1, 0
	addi.d	$a1, $a1, 1
	pcaddu18i	$ra, %call36(_ZdlPvm)
	jirl	$ra, $ra, 0
.LBB7_393:                              # %_ZNSt7__cxx1112basic_stringIcSt11char_traitsIcESaIcEED2Ev.exit3.i.i1289
	lu12i.w	$a0, 1
	ori	$a0, $a0, 3936
	add.d	$a0, $sp, $a0
	ld.d	$a0, $a0, 0
	beq	$a0, $s6, .LBB7_395
# %bb.394:                              # %_ZNKSt7__cxx1112basic_stringIcSt11char_traitsIcESaIcEE11_M_is_localEv.exit.i.i4.i.i1290
	lu12i.w	$a1, 1
	ori	$a1, $a1, 3952
	add.d	$a1, $sp, $a1
	ld.d	$a1, $a1, 0
	addi.d	$a1, $a1, 1
	pcaddu18i	$ra, %call36(_ZdlPvm)
	jirl	$ra, $ra, 0
.LBB7_395:                              # %_ZN2PP8FunctionD2Ev.exit.i1291
	lu12i.w	$a0, 1
	ori	$a0, $a0, 3904
	add.d	$a0, $sp, $a0
	ld.d	$a0, $a0, 0
	beq	$a0, $fp, .LBB7_397
# %bb.396:                              # %_ZNKSt7__cxx1112basic_stringIcSt11char_traitsIcESaIcEE11_M_is_localEv.exit.i.i.i1292
	lu12i.w	$a1, 1
	ori	$a1, $a1, 3920
	add.d	$a1, $sp, $a1
	ld.d	$a1, $a1, 0
	addi.d	$a1, $a1, 1
	pcaddu18i	$ra, %call36(_ZdlPvm)
	jirl	$ra, $ra, 0
.LBB7_397:                              # %_ZNSt4pairINSt7__cxx1112basic_stringIcSt11char_traitsIcESaIcEEEN2PP8FunctionEED2Ev.exit1298
	lu12i.w	$a0, 1
	ori	$a0, $a0, 248
	add.d	$a0, $sp, $a0
	ld.d	$a0, $a0, 0
	beq	$a0, $s1, .LBB7_399
# %bb.398:                              # %_ZNKSt7__cxx1112basic_stringIcSt11char_traitsIcESaIcEE11_M_is_localEv.exit.i.i1299
	lu12i.w	$a1, 1
	ori	$a1, $a1, 264
	add.d	$a1, $sp, $a1
	ld.d	$a1, $a1, 0
	addi.d	$a1, $a1, 1
	pcaddu18i	$ra, %call36(_ZdlPvm)
	jirl	$ra, $ra, 0
.LBB7_399:                              # %_ZNSt7__cxx1112basic_stringIcSt11char_traitsIcESaIcEED2Ev.exit1301
	pcalau12i	$a0, %pc_hi20(.L.str.150)
	addi.d	$a0, $a0, %pc_lo12(.L.str.150)
	ld.h	$a1, $a0, 0
	ld.b	$a0, $a0, 2
	lu12i.w	$a2, 1
	ori	$a2, $a2, 232
	add.d	$s1, $sp, $a2
	lu12i.w	$a2, 1
	ori	$a2, $a2, 216
	add.d	$a2, $sp, $a2
	st.d	$s1, $a2, 0
	lu12i.w	$a2, 1
	ori	$a2, $a2, 232
	add.d	$a2, $sp, $a2
	st.h	$a1, $a2, 0
	lu12i.w	$a1, 1
	ori	$a1, $a1, 234
	add.d	$a1, $sp, $a1
	st.b	$a0, $a1, 0
	ori	$a0, $zero, 3
	lu12i.w	$a1, 1
	ori	$a1, $a1, 224
	add.d	$a1, $sp, $a1
	st.d	$a0, $a1, 0
	lu12i.w	$a0, 1
	ori	$a0, $a0, 235
	add.d	$a0, $sp, $a0
	st.b	$zero, $a0, 0
	lu12i.w	$a0, 1
	ori	$a0, $a0, 200
	add.d	$s2, $sp, $a0
	lu12i.w	$a0, 1
	ori	$a0, $a0, 184
	add.d	$a0, $sp, $a0
	st.d	$s2, $a0, 0
	lu12i.w	$a0, 1
	ori	$a0, $a0, 200
	add.d	$a0, $sp, $a0
	st.w	$s7, $a0, 0
	ori	$a0, $zero, 4
	lu12i.w	$a1, 1
	ori	$a1, $a1, 192
	add.d	$a1, $sp, $a1
	st.d	$a0, $a1, 0
	lu12i.w	$a0, 1
	ori	$a0, $a0, 204
	add.d	$a0, $sp, $a0
	st.b	$zero, $a0, 0
	pcalau12i	$a0, %pc_hi20(.L.str.151)
	addi.d	$a0, $a0, %pc_lo12(.L.str.151)
	ld.d	$a1, $a0, 0
	ld.w	$a0, $a0, 7
	lu12i.w	$a2, 1
	ori	$a2, $a2, 168
	add.d	$s3, $sp, $a2
	lu12i.w	$a2, 1
	ori	$a2, $a2, 152
	add.d	$a2, $sp, $a2
	st.d	$s3, $a2, 0
	lu12i.w	$a2, 1
	ori	$a2, $a2, 168
	add.d	$a2, $sp, $a2
	st.d	$a1, $a2, 0
	lu12i.w	$a1, 1
	ori	$a1, $a1, 175
	add.d	$a1, $sp, $a1
	st.w	$a0, $a1, 0
	ori	$a0, $zero, 11
	lu12i.w	$a1, 1
	ori	$a1, $a1, 160
	add.d	$a1, $sp, $a1
	st.d	$a0, $a1, 0
	lu12i.w	$a0, 1
	ori	$a0, $a0, 179
	add.d	$a0, $sp, $a0
	st.b	$zero, $a0, 0
.Ltmp384:
	lu12i.w	$a0, 1
	ori	$a0, $a0, 248
	add.d	$a0, $sp, $a0
	lu12i.w	$a1, 1
	ori	$a1, $a1, 216
	add.d	$a1, $sp, $a1
	ori	$a2, $zero, 1
	ori	$a3, $zero, 1
	lu12i.w	$a4, 1
	ori	$a4, $a4, 184
	add.d	$a4, $sp, $a4
	lu12i.w	$a5, 1
	ori	$a5, $a5, 152
	add.d	$a5, $sp, $a5
	pcaddu18i	$ra, %call36(_ZN2PP8FunctionC1ENSt7__cxx1112basic_stringIcSt11char_traitsIcESaIcEEEbiS6_S6_)
	jirl	$ra, $ra, 0
.Ltmp385:
# %bb.400:
	lu12i.w	$a0, 1
	ori	$a0, $a0, 152
	add.d	$a0, $sp, $a0
	ld.d	$a0, $a0, 0
	beq	$a0, $s3, .LBB7_402
# %bb.401:                              # %_ZNKSt7__cxx1112basic_stringIcSt11char_traitsIcESaIcEE11_M_is_localEv.exit.i.i1314
	lu12i.w	$a1, 1
	ori	$a1, $a1, 168
	add.d	$a1, $sp, $a1
	ld.d	$a1, $a1, 0
	addi.d	$a1, $a1, 1
	pcaddu18i	$ra, %call36(_ZdlPvm)
	jirl	$ra, $ra, 0
.LBB7_402:                              # %_ZNSt7__cxx1112basic_stringIcSt11char_traitsIcESaIcEED2Ev.exit1316
	lu12i.w	$a0, 1
	ori	$a0, $a0, 184
	add.d	$a0, $sp, $a0
	ld.d	$a0, $a0, 0
	beq	$a0, $s2, .LBB7_404
# %bb.403:                              # %_ZNKSt7__cxx1112basic_stringIcSt11char_traitsIcESaIcEE11_M_is_localEv.exit.i.i1317
	lu12i.w	$a1, 1
	ori	$a1, $a1, 200
	add.d	$a1, $sp, $a1
	ld.d	$a1, $a1, 0
	addi.d	$a1, $a1, 1
	pcaddu18i	$ra, %call36(_ZdlPvm)
	jirl	$ra, $ra, 0
.LBB7_404:                              # %_ZNSt7__cxx1112basic_stringIcSt11char_traitsIcESaIcEED2Ev.exit1319
	lu12i.w	$a0, 1
	ori	$a0, $a0, 216
	add.d	$a0, $sp, $a0
	ld.d	$a0, $a0, 0
	beq	$a0, $s1, .LBB7_406
# %bb.405:                              # %_ZNKSt7__cxx1112basic_stringIcSt11char_traitsIcESaIcEE11_M_is_localEv.exit.i.i1320
	lu12i.w	$a1, 1
	ori	$a1, $a1, 232
	add.d	$a1, $sp, $a1
	ld.d	$a1, $a1, 0
	addi.d	$a1, $a1, 1
	pcaddu18i	$ra, %call36(_ZdlPvm)
	jirl	$ra, $ra, 0
.LBB7_406:                              # %_ZNSt7__cxx1112basic_stringIcSt11char_traitsIcESaIcEED2Ev.exit1322
	lu12i.w	$a0, 1
	ori	$a0, $a0, 64
	add.d	$s1, $sp, $a0
	lu12i.w	$a0, 1
	ori	$a0, $a0, 256
	add.d	$a0, $sp, $a0
	ld.d	$s2, $a0, 0
	lu12i.w	$a0, 1
	ori	$a0, $a0, 248
	add.d	$a0, $sp, $a0
	ld.d	$s3, $a0, 0
	lu12i.w	$a0, 1
	ori	$a0, $a0, 48
	add.d	$a0, $sp, $a0
	st.d	$s1, $a0, 0
	ori	$a1, $zero, 16
	ori	$a0, $zero, 3944
	add.d	$a0, $sp, $a0
	st.d	$s2, $a0, 0
	move	$a0, $s1
	bltu	$s2, $a1, .LBB7_409
# %bb.407:                              # %.noexc.i.i1324
.Ltmp387:
	lu12i.w	$a0, 1
	ori	$a0, $a0, 48
	add.d	$a0, $sp, $a0
	ori	$a1, $zero, 3944
	add.d	$a1, $sp, $a1
	move	$a2, $zero
	pcaddu18i	$ra, %call36(_ZNSt7__cxx1112basic_stringIcSt11char_traitsIcESaIcEE9_M_createERmm)
	jirl	$ra, $ra, 0
.Ltmp388:
# %bb.408:                              # %.noexc1325
	ori	$a1, $zero, 3944
	add.d	$a1, $sp, $a1
	ld.d	$a1, $a1, 0
	lu12i.w	$a2, 1
	ori	$a2, $a2, 48
	add.d	$a2, $sp, $a2
	st.d	$a0, $a2, 0
	lu12i.w	$a2, 1
	ori	$a2, $a2, 64
	add.d	$a2, $sp, $a2
	st.d	$a1, $a2, 0
.LBB7_409:                              # %._crit_edge.i.i.i1323
	beqz	$s2, .LBB7_413
# %bb.410:                              # %._crit_edge.i.i.i1323
	ori	$a1, $zero, 1
	bne	$s2, $a1, .LBB7_412
# %bb.411:
	ld.b	$a1, $s3, 0
	st.b	$a1, $a0, 0
	b	.LBB7_413
.LBB7_412:
	move	$a1, $s3
	move	$a2, $s2
	pcaddu18i	$ra, %call36(memcpy)
	jirl	$ra, $ra, 0
.LBB7_413:
	ori	$a0, $zero, 3944
	add.d	$a0, $sp, $a0
	ld.d	$a0, $a0, 0
	lu12i.w	$a1, 1
	ori	$a1, $a1, 48
	add.d	$a1, $sp, $a1
	ld.d	$a1, $a1, 0
	lu12i.w	$a2, 1
	ori	$a2, $a2, 56
	add.d	$a2, $sp, $a2
	st.d	$a0, $a2, 0
	stx.b	$zero, $a1, $a0
	lu12i.w	$a0, 1
	ori	$a0, $a0, 48
	add.d	$a0, $sp, $a0
	ld.d	$a0, $a0, 0
	lu12i.w	$a1, 1
	ori	$a1, $a1, 3904
	add.d	$a1, $sp, $a1
	st.d	$fp, $a1, 0
	beq	$a0, $s1, .LBB7_415
# %bb.414:                              # %_ZNKSt7__cxx1112basic_stringIcSt11char_traitsIcESaIcEE11_M_is_localEv.exit.i.i1327
	lu12i.w	$a1, 1
	ori	$a1, $a1, 64
	add.d	$a1, $sp, $a1
	ld.d	$a1, $a1, 0
	lu12i.w	$a2, 1
	ori	$a2, $a2, 56
	add.d	$a2, $sp, $a2
	ld.d	$s2, $a2, 0
	lu12i.w	$a2, 1
	ori	$a2, $a2, 3904
	add.d	$a2, $sp, $a2
	st.d	$a0, $a2, 0
	lu12i.w	$a0, 1
	ori	$a0, $a0, 3920
	add.d	$a0, $sp, $a0
	st.d	$a1, $a0, 0
	b	.LBB7_416
.LBB7_415:
	lu12i.w	$a0, 1
	ori	$a0, $a0, 56
	add.d	$a0, $sp, $a0
	ld.d	$s2, $a0, 0
	addi.d	$a2, $s2, 1
	move	$a0, $fp
	move	$a1, $s1
	pcaddu18i	$ra, %call36(memcpy)
	jirl	$ra, $ra, 0
.LBB7_416:                              # %_ZNSt7__cxx1112basic_stringIcSt11char_traitsIcESaIcEEC2EOS4_.exit.i1328
	lu12i.w	$a0, 1
	ori	$a0, $a0, 3912
	add.d	$a0, $sp, $a0
	st.d	$s2, $a0, 0
	lu12i.w	$a0, 1
	ori	$a0, $a0, 48
	add.d	$a0, $sp, $a0
	st.d	$s1, $a0, 0
	lu12i.w	$a0, 1
	ori	$a0, $a0, 56
	add.d	$a0, $sp, $a0
	st.d	$zero, $a0, 0
	lu12i.w	$a0, 1
	ori	$a0, $a0, 64
	add.d	$a0, $sp, $a0
	st.b	$zero, $a0, 0
	lu12i.w	$a0, 1
	ori	$a0, $a0, 3936
	add.d	$a0, $sp, $a0
.Ltmp390:
	lu12i.w	$a1, 1
	ori	$a1, $a1, 248
	add.d	$a1, $sp, $a1
	pcaddu18i	$ra, %call36(_ZN2PP8FunctionC2ERKS0_)
	jirl	$ra, $ra, 0
.Ltmp391:
# %bb.417:                              # %_ZNSt4pairINSt7__cxx1112basic_stringIcSt11char_traitsIcESaIcEEEN2PP8FunctionEEC2IS5_RS7_TnNSt9enable_ifIXaaclsr5_PCCPE22_MoveConstructiblePairIT_T0_EEclsr5_PCCPE30_ImplicitlyMoveConvertiblePairISC_SD_EEEbE4typeELb1EEEOSC_OSD_.exit1334
.Ltmp393:
	lu12i.w	$a0, 1
	ori	$a0, $a0, 3904
	add.d	$a1, $sp, $a0
	move	$a0, $s0
	pcaddu18i	$ra, %call36(_ZNSt3mapINSt7__cxx1112basic_stringIcSt11char_traitsIcESaIcEEEN2PP8FunctionESt4lessIS5_ESaISt4pairIKS5_S7_EEE6insertISA_IS5_S7_EEENSt9enable_ifIXsr16is_constructibleISC_T_EE5valueESA_ISt17_Rb_tree_iteratorISC_EbEE4typeEOSI_)
	jirl	$ra, $ra, 0
.Ltmp394:
# %bb.418:
	lu12i.w	$a0, 1
	ori	$a0, $a0, 4008
	add.d	$a0, $sp, $a0
	ld.d	$a0, $a0, 0
	beq	$a0, $s4, .LBB7_420
# %bb.419:                              # %_ZNKSt7__cxx1112basic_stringIcSt11char_traitsIcESaIcEE11_M_is_localEv.exit.i.i.i.i1335
	lu12i.w	$a1, 1
	ori	$a1, $a1, 4024
	add.d	$a1, $sp, $a1
	ld.d	$a1, $a1, 0
	addi.d	$a1, $a1, 1
	pcaddu18i	$ra, %call36(_ZdlPvm)
	jirl	$ra, $ra, 0
.LBB7_420:                              # %_ZNSt7__cxx1112basic_stringIcSt11char_traitsIcESaIcEED2Ev.exit.i.i1336
	lu12i.w	$a0, 1
	ori	$a0, $a0, 3976
	add.d	$a0, $sp, $a0
	ld.d	$a0, $a0, 0
	beq	$a0, $s5, .LBB7_422
# %bb.421:                              # %_ZNKSt7__cxx1112basic_stringIcSt11char_traitsIcESaIcEE11_M_is_localEv.exit.i.i1.i.i1337
	lu12i.w	$a1, 1
	ori	$a1, $a1, 3992
	add.d	$a1, $sp, $a1
	ld.d	$a1, $a1, 0
	addi.d	$a1, $a1, 1
	pcaddu18i	$ra, %call36(_ZdlPvm)
	jirl	$ra, $ra, 0
.LBB7_422:                              # %_ZNSt7__cxx1112basic_stringIcSt11char_traitsIcESaIcEED2Ev.exit3.i.i1338
	lu12i.w	$a0, 1
	ori	$a0, $a0, 3936
	add.d	$a0, $sp, $a0
	ld.d	$a0, $a0, 0
	beq	$a0, $s6, .LBB7_424
# %bb.423:                              # %_ZNKSt7__cxx1112basic_stringIcSt11char_traitsIcESaIcEE11_M_is_localEv.exit.i.i4.i.i1339
	lu12i.w	$a1, 1
	ori	$a1, $a1, 3952
	add.d	$a1, $sp, $a1
	ld.d	$a1, $a1, 0
	addi.d	$a1, $a1, 1
	pcaddu18i	$ra, %call36(_ZdlPvm)
	jirl	$ra, $ra, 0
.LBB7_424:                              # %_ZN2PP8FunctionD2Ev.exit.i1340
	lu12i.w	$a0, 1
	ori	$a0, $a0, 3904
	add.d	$a0, $sp, $a0
	ld.d	$a0, $a0, 0
	beq	$a0, $fp, .LBB7_426
# %bb.425:                              # %_ZNKSt7__cxx1112basic_stringIcSt11char_traitsIcESaIcEE11_M_is_localEv.exit.i.i.i1341
	lu12i.w	$a1, 1
	ori	$a1, $a1, 3920
	add.d	$a1, $sp, $a1
	ld.d	$a1, $a1, 0
	addi.d	$a1, $a1, 1
	pcaddu18i	$ra, %call36(_ZdlPvm)
	jirl	$ra, $ra, 0
.LBB7_426:                              # %_ZNSt4pairINSt7__cxx1112basic_stringIcSt11char_traitsIcESaIcEEEN2PP8FunctionEED2Ev.exit1347
	lu12i.w	$a0, 1
	ori	$a0, $a0, 48
	add.d	$a0, $sp, $a0
	ld.d	$a0, $a0, 0
	beq	$a0, $s1, .LBB7_428
# %bb.427:                              # %_ZNKSt7__cxx1112basic_stringIcSt11char_traitsIcESaIcEE11_M_is_localEv.exit.i.i1348
	lu12i.w	$a1, 1
	ori	$a1, $a1, 64
	add.d	$a1, $sp, $a1
	ld.d	$a1, $a1, 0
	addi.d	$a1, $a1, 1
	pcaddu18i	$ra, %call36(_ZdlPvm)
	jirl	$ra, $ra, 0
.LBB7_428:                              # %_ZNSt7__cxx1112basic_stringIcSt11char_traitsIcESaIcEED2Ev.exit1350
	lu12i.w	$a0, 1
	ori	$a0, $a0, 32
	add.d	$s1, $sp, $a0
	lu12i.w	$a0, 1
	ori	$a0, $a0, 16
	add.d	$a0, $sp, $a0
	st.d	$s1, $a0, 0
	lu12i.w	$a0, 472614
	ori	$a0, $a0, 358
	lu12i.w	$a1, 1
	ori	$a1, $a1, 32
	add.d	$a1, $sp, $a1
	st.w	$a0, $a1, 0
	ori	$a0, $zero, 4
	lu12i.w	$a1, 1
	ori	$a1, $a1, 24
	add.d	$a1, $sp, $a1
	st.d	$a0, $a1, 0
	lu12i.w	$a1, 1
	ori	$a1, $a1, 36
	add.d	$a1, $sp, $a1
	st.b	$zero, $a1, 0
	lu12i.w	$a1, 1
	add.d	$s2, $sp, $a1
	ori	$a1, $zero, 4080
	add.d	$a1, $sp, $a1
	st.d	$s2, $a1, 0
	lu12i.w	$a1, 1
	add.d	$a1, $sp, $a1
	st.w	$s7, $a1, 0
	ori	$a1, $zero, 4088
	add.d	$a1, $sp, $a1
	st.d	$a0, $a1, 0
	lu12i.w	$a0, 1
	ori	$a0, $a0, 4
	add.d	$a0, $sp, $a0
	st.b	$zero, $a0, 0
	ori	$a0, $zero, 4064
	add.d	$s3, $sp, $a0
	ori	$a0, $zero, 4048
	add.d	$a0, $sp, $a0
	st.d	$s3, $a0, 0
	ori	$a0, $zero, 24
	lu12i.w	$a1, 1
	ori	$a1, $a1, 3904
	add.d	$a1, $sp, $a1
	st.d	$a0, $a1, 0
.Ltmp396:
	ori	$a0, $zero, 4048
	add.d	$a0, $sp, $a0
	lu12i.w	$a1, 1
	ori	$a1, $a1, 3904
	add.d	$a1, $sp, $a1
	move	$a2, $zero
	pcaddu18i	$ra, %call36(_ZNSt7__cxx1112basic_stringIcSt11char_traitsIcESaIcEE9_M_createERmm)
	jirl	$ra, $ra, 0
.Ltmp397:
# %bb.429:                              # %.noexc1361
	lu12i.w	$a1, 1
	ori	$a1, $a1, 3904
	add.d	$a1, $sp, $a1
	ld.d	$a1, $a1, 0
	pcalau12i	$a2, %pc_hi20(.L.str.153)
	addi.d	$a2, $a2, %pc_lo12(.L.str.153)
	vld	$vr0, $a2, 0
	ld.d	$a2, $a2, 16
	ori	$a3, $zero, 4048
	add.d	$a3, $sp, $a3
	st.d	$a0, $a3, 0
	ori	$a3, $zero, 4064
	add.d	$a3, $sp, $a3
	st.d	$a1, $a3, 0
	vst	$vr0, $a0, 0
	st.d	$a2, $a0, 16
	ori	$a0, $zero, 4048
	add.d	$a0, $sp, $a0
	ld.d	$a0, $a0, 0
	ori	$a2, $zero, 4056
	add.d	$a2, $sp, $a2
	st.d	$a1, $a2, 0
	stx.b	$zero, $a0, $a1
.Ltmp399:
	lu12i.w	$a0, 1
	ori	$a0, $a0, 48
	add.d	$a0, $sp, $a0
	lu12i.w	$a1, 1
	ori	$a1, $a1, 16
	add.d	$a1, $sp, $a1
	ori	$a2, $zero, 1
	ori	$a3, $zero, 1
	ori	$a4, $zero, 4080
	add.d	$a4, $sp, $a4
	ori	$a5, $zero, 4048
	add.d	$a5, $sp, $a5
	pcaddu18i	$ra, %call36(_ZN2PP8FunctionC1ENSt7__cxx1112basic_stringIcSt11char_traitsIcESaIcEEEbiS6_S6_)
	jirl	$ra, $ra, 0
.Ltmp400:
# %bb.430:
	ori	$a0, $zero, 4048
	add.d	$a0, $sp, $a0
	ld.d	$a0, $a0, 0
	beq	$a0, $s3, .LBB7_432
# %bb.431:                              # %_ZNKSt7__cxx1112basic_stringIcSt11char_traitsIcESaIcEE11_M_is_localEv.exit.i.i1363
	ori	$a1, $zero, 4064
	add.d	$a1, $sp, $a1
	ld.d	$a1, $a1, 0
	addi.d	$a1, $a1, 1
	pcaddu18i	$ra, %call36(_ZdlPvm)
	jirl	$ra, $ra, 0
.LBB7_432:                              # %_ZNSt7__cxx1112basic_stringIcSt11char_traitsIcESaIcEED2Ev.exit1365
	ori	$a0, $zero, 4080
	add.d	$a0, $sp, $a0
	ld.d	$a0, $a0, 0
	beq	$a0, $s2, .LBB7_434
# %bb.433:                              # %_ZNKSt7__cxx1112basic_stringIcSt11char_traitsIcESaIcEE11_M_is_localEv.exit.i.i1366
	lu12i.w	$a1, 1
	add.d	$a1, $sp, $a1
	ld.d	$a1, $a1, 0
	addi.d	$a1, $a1, 1
	pcaddu18i	$ra, %call36(_ZdlPvm)
	jirl	$ra, $ra, 0
.LBB7_434:                              # %_ZNSt7__cxx1112basic_stringIcSt11char_traitsIcESaIcEED2Ev.exit1368
	lu12i.w	$a0, 1
	ori	$a0, $a0, 16
	add.d	$a0, $sp, $a0
	ld.d	$a0, $a0, 0
	beq	$a0, $s1, .LBB7_436
# %bb.435:                              # %_ZNKSt7__cxx1112basic_stringIcSt11char_traitsIcESaIcEE11_M_is_localEv.exit.i.i1369
	lu12i.w	$a1, 1
	ori	$a1, $a1, 32
	add.d	$a1, $sp, $a1
	ld.d	$a1, $a1, 0
	addi.d	$a1, $a1, 1
	pcaddu18i	$ra, %call36(_ZdlPvm)
	jirl	$ra, $ra, 0
.LBB7_436:                              # %_ZNSt7__cxx1112basic_stringIcSt11char_traitsIcESaIcEED2Ev.exit1371
	ori	$a0, $zero, 3960
	add.d	$s1, $sp, $a0
	lu12i.w	$a0, 1
	ori	$a0, $a0, 56
	add.d	$a0, $sp, $a0
	ld.d	$s2, $a0, 0
	lu12i.w	$a0, 1
	ori	$a0, $a0, 48
	add.d	$a0, $sp, $a0
	ld.d	$s3, $a0, 0
	ori	$a0, $zero, 3944
	add.d	$a0, $sp, $a0
	st.d	$s1, $a0, 0
	ori	$a1, $zero, 16
	ori	$a0, $zero, 3744
	add.d	$a0, $sp, $a0
	st.d	$s2, $a0, 0
	move	$a0, $s1
	bltu	$s2, $a1, .LBB7_439
# %bb.437:                              # %.noexc.i.i1373
.Ltmp402:
	ori	$a0, $zero, 3944
	add.d	$a0, $sp, $a0
	ori	$a1, $zero, 3744
	add.d	$a1, $sp, $a1
	move	$a2, $zero
	pcaddu18i	$ra, %call36(_ZNSt7__cxx1112basic_stringIcSt11char_traitsIcESaIcEE9_M_createERmm)
	jirl	$ra, $ra, 0
.Ltmp403:
# %bb.438:                              # %.noexc1374
	ori	$a1, $zero, 3744
	add.d	$a1, $sp, $a1
	ld.d	$a1, $a1, 0
	ori	$a2, $zero, 3944
	add.d	$a2, $sp, $a2
	st.d	$a0, $a2, 0
	ori	$a2, $zero, 3960
	add.d	$a2, $sp, $a2
	st.d	$a1, $a2, 0
.LBB7_439:                              # %._crit_edge.i.i.i1372
	beqz	$s2, .LBB7_443
