	.file	"ExportGold.cc"
                                        # Start of file scope inline assembly
	.globl	_ZSt21ios_base_library_initv

                                        # End of file scope inline assembly
	.text
	.globl	_ZN10ExportGoldC2EP4Mesh        # -- Begin function _ZN10ExportGoldC2EP4Mesh
	.p2align	2
	.type	_ZN10ExportGoldC2EP4Mesh,@function
_ZN10ExportGoldC2EP4Mesh:               # @_ZN10ExportGoldC2EP4Mesh
# %bb.0:
	addi.d	$a3, $a0, 8
	ori	$a2, $zero, 168
	st.d	$a1, $a0, 0
	move	$a0, $a3
	move	$a1, $zero
	pcaddu18i	$t8, %call36(memset)
	jr	$t8
.Lfunc_end0:
	.size	_ZN10ExportGoldC2EP4Mesh, .Lfunc_end0-_ZN10ExportGoldC2EP4Mesh
                                        # -- End function
	.globl	_ZN10ExportGoldD2Ev             # -- Begin function _ZN10ExportGoldD2Ev
	.p2align	2
	.type	_ZN10ExportGoldD2Ev,@function
_ZN10ExportGoldD2Ev:                    # @_ZN10ExportGoldD2Ev
	.cfi_startproc
# %bb.0:
	addi.d	$sp, $sp, -16
	.cfi_def_cfa_offset 16
	st.d	$ra, $sp, 8                     # 8-byte Folded Spill
	st.d	$fp, $sp, 0                     # 8-byte Folded Spill
	.cfi_offset 1, -8
	.cfi_offset 22, -16
	move	$fp, $a0
	ld.d	$a0, $a0, 152
	beqz	$a0, .LBB1_2
# %bb.1:
	ld.d	$a1, $fp, 168
	sub.d	$a1, $a1, $a0
	pcaddu18i	$ra, %call36(_ZdlPvm)
	jirl	$ra, $ra, 0
.LBB1_2:                                # %_ZNSt6vectorIiSaIiEED2Ev.exit
	ld.d	$a0, $fp, 128
	beqz	$a0, .LBB1_4
# %bb.3:
	ld.d	$a1, $fp, 144
	sub.d	$a1, $a1, $a0
	pcaddu18i	$ra, %call36(_ZdlPvm)
	jirl	$ra, $ra, 0
.LBB1_4:                                # %_ZNSt6vectorIiSaIiEED2Ev.exit2
	ld.d	$a0, $fp, 104
	beqz	$a0, .LBB1_6
# %bb.5:
	ld.d	$a1, $fp, 120
	sub.d	$a1, $a1, $a0
	pcaddu18i	$ra, %call36(_ZdlPvm)
	jirl	$ra, $ra, 0
.LBB1_6:                                # %_ZNSt6vectorIiSaIiEED2Ev.exit4
	ld.d	$a0, $fp, 80
	beqz	$a0, .LBB1_8
# %bb.7:
	ld.d	$a1, $fp, 96
	sub.d	$a1, $a1, $a0
	pcaddu18i	$ra, %call36(_ZdlPvm)
	jirl	$ra, $ra, 0
.LBB1_8:                                # %_ZNSt6vectorIiSaIiEED2Ev.exit6
	ld.d	$a0, $fp, 56
	beqz	$a0, .LBB1_10
# %bb.9:
	ld.d	$a1, $fp, 72
	sub.d	$a1, $a1, $a0
	pcaddu18i	$ra, %call36(_ZdlPvm)
	jirl	$ra, $ra, 0
.LBB1_10:                               # %_ZNSt6vectorIiSaIiEED2Ev.exit8
	ld.d	$a0, $fp, 32
	beqz	$a0, .LBB1_12
# %bb.11:
	ld.d	$a1, $fp, 48
	sub.d	$a1, $a1, $a0
	pcaddu18i	$ra, %call36(_ZdlPvm)
	jirl	$ra, $ra, 0
.LBB1_12:                               # %_ZNSt6vectorIiSaIiEED2Ev.exit10
	ld.d	$a0, $fp, 8
	beqz	$a0, .LBB1_14
# %bb.13:
	ld.d	$a1, $fp, 24
	sub.d	$a1, $a1, $a0
	ld.d	$fp, $sp, 0                     # 8-byte Folded Reload
	ld.d	$ra, $sp, 8                     # 8-byte Folded Reload
	addi.d	$sp, $sp, 16
	pcaddu18i	$t8, %call36(_ZdlPvm)
	jr	$t8
.LBB1_14:                               # %_ZNSt6vectorIiSaIiEED2Ev.exit12
	ld.d	$fp, $sp, 0                     # 8-byte Folded Reload
	ld.d	$ra, $sp, 8                     # 8-byte Folded Reload
	addi.d	$sp, $sp, 16
	ret
.Lfunc_end1:
	.size	_ZN10ExportGoldD2Ev, .Lfunc_end1-_ZN10ExportGoldD2Ev
	.cfi_endproc
                                        # -- End function
	.globl	_ZN10ExportGold5writeERKNSt7__cxx1112basic_stringIcSt11char_traitsIcESaIcEEEidPKdS9_S9_ # -- Begin function _ZN10ExportGold5writeERKNSt7__cxx1112basic_stringIcSt11char_traitsIcESaIcEEEidPKdS9_S9_
	.p2align	2
	.type	_ZN10ExportGold5writeERKNSt7__cxx1112basic_stringIcSt11char_traitsIcESaIcEEEidPKdS9_S9_,@function
_ZN10ExportGold5writeERKNSt7__cxx1112basic_stringIcSt11char_traitsIcESaIcEEEidPKdS9_S9_: # @_ZN10ExportGold5writeERKNSt7__cxx1112basic_stringIcSt11char_traitsIcESaIcEEEidPKdS9_S9_
.Lfunc_begin0:
	.cfi_startproc
	.cfi_personality 155, DW.ref.__gxx_personality_v0
	.cfi_lsda 27, .Lexception0
# %bb.0:                                # %._crit_edge.i.i
	addi.d	$sp, $sp, -112
	.cfi_def_cfa_offset 112
	st.d	$ra, $sp, 104                   # 8-byte Folded Spill
	st.d	$fp, $sp, 96                    # 8-byte Folded Spill
	st.d	$s0, $sp, 88                    # 8-byte Folded Spill
	st.d	$s1, $sp, 80                    # 8-byte Folded Spill
	st.d	$s2, $sp, 72                    # 8-byte Folded Spill
	st.d	$s3, $sp, 64                    # 8-byte Folded Spill
	st.d	$s4, $sp, 56                    # 8-byte Folded Spill
	st.d	$s5, $sp, 48                    # 8-byte Folded Spill
	fst.d	$fs0, $sp, 40                   # 8-byte Folded Spill
	.cfi_offset 1, -8
	.cfi_offset 22, -16
	.cfi_offset 23, -24
	.cfi_offset 24, -32
	.cfi_offset 25, -40
	.cfi_offset 26, -48
	.cfi_offset 27, -56
	.cfi_offset 28, -64
	.cfi_offset 56, -72
	move	$fp, $a5
	move	$s2, $a4
	move	$s3, $a3
	fmov.d	$fs0, $fa0
	move	$s4, $a2
	move	$s0, $a1
	move	$s1, $a0
	pcaddu18i	$ra, %call36(_ZN10ExportGold13writeCaseFileERKNSt7__cxx1112basic_stringIcSt11char_traitsIcESaIcEEE)
	jirl	$ra, $ra, 0
	move	$a0, $s1
	pcaddu18i	$ra, %call36(_ZN10ExportGold9sortZonesEv)
	jirl	$ra, $ra, 0
	move	$a0, $s1
	move	$a1, $s0
	move	$a2, $s4
	fmov.d	$fa0, $fs0
	pcaddu18i	$ra, %call36(_ZN10ExportGold12writeGeoFileERKNSt7__cxx1112basic_stringIcSt11char_traitsIcESaIcEEEid)
	jirl	$ra, $ra, 0
	addi.d	$s4, $sp, 24
	st.d	$s4, $sp, 8
	lu12i.w	$s5, 7
	ori	$a0, $s5, 634
	st.h	$a0, $sp, 24
	ori	$a0, $zero, 2
	st.d	$a0, $sp, 16
	st.b	$zero, $sp, 26
.Ltmp0:                                 # EH_LABEL
	addi.d	$a2, $sp, 8
	move	$a0, $s1
	move	$a1, $s0
	move	$a3, $s3
	pcaddu18i	$ra, %call36(_ZN10ExportGold12writeVarFileERKNSt7__cxx1112basic_stringIcSt11char_traitsIcESaIcEEES7_PKd)
	jirl	$ra, $ra, 0
.Ltmp1:                                 # EH_LABEL
# %bb.1:
	ld.d	$a0, $sp, 8
	beq	$a0, $s4, .LBB2_3
# %bb.2:                                # %_ZNKSt7__cxx1112basic_stringIcSt11char_traitsIcESaIcEE11_M_is_localEv.exit.i.i
	ld.d	$a1, $sp, 24
	addi.d	$a1, $a1, 1
	pcaddu18i	$ra, %call36(_ZdlPvm)
	jirl	$ra, $ra, 0
.LBB2_3:                                # %_ZNSt7__cxx1112basic_stringIcSt11char_traitsIcESaIcEED2Ev.exit
	st.d	$s4, $sp, 8
	lu12i.w	$a0, 6
	ori	$a0, $a0, 1402
	st.h	$a0, $sp, 24
	ori	$a0, $zero, 2
	st.d	$a0, $sp, 16
	st.b	$zero, $sp, 26
.Ltmp3:                                 # EH_LABEL
	addi.d	$a2, $sp, 8
	move	$a0, $s1
	move	$a1, $s0
	move	$a3, $s2
	pcaddu18i	$ra, %call36(_ZN10ExportGold12writeVarFileERKNSt7__cxx1112basic_stringIcSt11char_traitsIcESaIcEEES7_PKd)
	jirl	$ra, $ra, 0
.Ltmp4:                                 # EH_LABEL
# %bb.4:
	ld.d	$a0, $sp, 8
	beq	$a0, $s4, .LBB2_6
# %bb.5:                                # %_ZNKSt7__cxx1112basic_stringIcSt11char_traitsIcESaIcEE11_M_is_localEv.exit.i.i26
	ld.d	$a1, $sp, 24
	addi.d	$a1, $a1, 1
	pcaddu18i	$ra, %call36(_ZdlPvm)
	jirl	$ra, $ra, 0
.LBB2_6:                                # %_ZNSt7__cxx1112basic_stringIcSt11char_traitsIcESaIcEED2Ev.exit28
	st.d	$s4, $sp, 8
	ori	$a0, $s5, 122
	st.h	$a0, $sp, 24
	ori	$a0, $zero, 2
	st.d	$a0, $sp, 16
	st.b	$zero, $sp, 26
.Ltmp6:                                 # EH_LABEL
	addi.d	$a2, $sp, 8
	move	$a0, $s1
	move	$a1, $s0
	move	$a3, $fp
	pcaddu18i	$ra, %call36(_ZN10ExportGold12writeVarFileERKNSt7__cxx1112basic_stringIcSt11char_traitsIcESaIcEEES7_PKd)
	jirl	$ra, $ra, 0
.Ltmp7:                                 # EH_LABEL
# %bb.7:
	ld.d	$a0, $sp, 8
	beq	$a0, $s4, .LBB2_9
# %bb.8:                                # %_ZNKSt7__cxx1112basic_stringIcSt11char_traitsIcESaIcEE11_M_is_localEv.exit.i.i33
	ld.d	$a1, $sp, 24
	addi.d	$a1, $a1, 1
	pcaddu18i	$ra, %call36(_ZdlPvm)
	jirl	$ra, $ra, 0
.LBB2_9:                                # %_ZNSt7__cxx1112basic_stringIcSt11char_traitsIcESaIcEED2Ev.exit35
	fld.d	$fs0, $sp, 40                   # 8-byte Folded Reload
	ld.d	$s5, $sp, 48                    # 8-byte Folded Reload
	ld.d	$s4, $sp, 56                    # 8-byte Folded Reload
	ld.d	$s3, $sp, 64                    # 8-byte Folded Reload
	ld.d	$s2, $sp, 72                    # 8-byte Folded Reload
	ld.d	$s1, $sp, 80                    # 8-byte Folded Reload
	ld.d	$s0, $sp, 88                    # 8-byte Folded Reload
	ld.d	$fp, $sp, 96                    # 8-byte Folded Reload
	ld.d	$ra, $sp, 104                   # 8-byte Folded Reload
	addi.d	$sp, $sp, 112
	ret
.LBB2_10:
.Ltmp8:                                 # EH_LABEL
	b	.LBB2_13
.LBB2_11:
.Ltmp5:                                 # EH_LABEL
	b	.LBB2_13
.LBB2_12:
.Ltmp2:                                 # EH_LABEL
.LBB2_13:
	ld.d	$a2, $sp, 8
	move	$fp, $a0
	beq	$a2, $s4, .LBB2_15
# %bb.14:                               # %_ZNKSt7__cxx1112basic_stringIcSt11char_traitsIcESaIcEE11_M_is_localEv.exit.i.i42
	ld.d	$a0, $sp, 24
	addi.d	$a1, $a0, 1
	move	$a0, $a2
	pcaddu18i	$ra, %call36(_ZdlPvm)
	jirl	$ra, $ra, 0
.LBB2_15:
	move	$a0, $fp
	pcaddu18i	$ra, %call36(_Unwind_Resume)
	jirl	$ra, $ra, 0
.Lfunc_end2:
	.size	_ZN10ExportGold5writeERKNSt7__cxx1112basic_stringIcSt11char_traitsIcESaIcEEEidPKdS9_S9_, .Lfunc_end2-_ZN10ExportGold5writeERKNSt7__cxx1112basic_stringIcSt11char_traitsIcESaIcEEEidPKdS9_S9_
	.cfi_endproc
	.section	.gcc_except_table,"a",@progbits
	.p2align	2, 0x0
GCC_except_table2:
.Lexception0:
	.byte	255                             # @LPStart Encoding = omit
	.byte	255                             # @TType Encoding = omit
	.byte	1                               # Call site Encoding = uleb128
	.uleb128 .Lcst_end0-.Lcst_begin0
.Lcst_begin0:
	.uleb128 .Lfunc_begin0-.Lfunc_begin0    # >> Call Site 1 <<
	.uleb128 .Ltmp0-.Lfunc_begin0           #   Call between .Lfunc_begin0 and .Ltmp0
	.byte	0                               #     has no landing pad
	.byte	0                               #   On action: cleanup
	.uleb128 .Ltmp0-.Lfunc_begin0           # >> Call Site 2 <<
	.uleb128 .Ltmp1-.Ltmp0                  #   Call between .Ltmp0 and .Ltmp1
	.uleb128 .Ltmp2-.Lfunc_begin0           #     jumps to .Ltmp2
	.byte	0                               #   On action: cleanup
	.uleb128 .Ltmp1-.Lfunc_begin0           # >> Call Site 3 <<
	.uleb128 .Ltmp3-.Ltmp1                  #   Call between .Ltmp1 and .Ltmp3
	.byte	0                               #     has no landing pad
	.byte	0                               #   On action: cleanup
	.uleb128 .Ltmp3-.Lfunc_begin0           # >> Call Site 4 <<
	.uleb128 .Ltmp4-.Ltmp3                  #   Call between .Ltmp3 and .Ltmp4
	.uleb128 .Ltmp5-.Lfunc_begin0           #     jumps to .Ltmp5
	.byte	0                               #   On action: cleanup
	.uleb128 .Ltmp4-.Lfunc_begin0           # >> Call Site 5 <<
	.uleb128 .Ltmp6-.Ltmp4                  #   Call between .Ltmp4 and .Ltmp6
	.byte	0                               #     has no landing pad
	.byte	0                               #   On action: cleanup
	.uleb128 .Ltmp6-.Lfunc_begin0           # >> Call Site 6 <<
	.uleb128 .Ltmp7-.Ltmp6                  #   Call between .Ltmp6 and .Ltmp7
	.uleb128 .Ltmp8-.Lfunc_begin0           #     jumps to .Ltmp8
	.byte	0                               #   On action: cleanup
	.uleb128 .Ltmp7-.Lfunc_begin0           # >> Call Site 7 <<
	.uleb128 .Lfunc_end2-.Ltmp7             #   Call between .Ltmp7 and .Lfunc_end2
	.byte	0                               #     has no landing pad
	.byte	0                               #   On action: cleanup
.Lcst_end0:
	.p2align	2, 0x0
                                        # -- End function
	.text
	.globl	_ZN10ExportGold13writeCaseFileERKNSt7__cxx1112basic_stringIcSt11char_traitsIcESaIcEEE # -- Begin function _ZN10ExportGold13writeCaseFileERKNSt7__cxx1112basic_stringIcSt11char_traitsIcESaIcEEE
	.p2align	2
	.type	_ZN10ExportGold13writeCaseFileERKNSt7__cxx1112basic_stringIcSt11char_traitsIcESaIcEEE,@function
_ZN10ExportGold13writeCaseFileERKNSt7__cxx1112basic_stringIcSt11char_traitsIcESaIcEEE: # @_ZN10ExportGold13writeCaseFileERKNSt7__cxx1112basic_stringIcSt11char_traitsIcESaIcEEE
.Lfunc_begin1:
	.cfi_startproc
	.cfi_personality 155, DW.ref.__gxx_personality_v0
	.cfi_lsda 27, .Lexception1
# %bb.0:
	addi.d	$sp, $sp, -592
	.cfi_def_cfa_offset 592
	st.d	$ra, $sp, 584                   # 8-byte Folded Spill
	st.d	$fp, $sp, 576                   # 8-byte Folded Spill
	st.d	$s0, $sp, 568                   # 8-byte Folded Spill
	st.d	$s1, $sp, 560                   # 8-byte Folded Spill
	st.d	$s2, $sp, 552                   # 8-byte Folded Spill
	.cfi_offset 1, -8
	.cfi_offset 22, -16
	.cfi_offset 23, -24
	.cfi_offset 24, -32
	.cfi_offset 25, -40
	pcalau12i	$a0, %got_pc_hi20(_ZN8Parallel4mypeE)
	ld.d	$a0, $a0, %got_pc_lo12(_ZN8Parallel4mypeE)
	ld.w	$a0, $a0, 0
	bgtz	$a0, .LBB3_109
# %bb.1:
	move	$fp, $a1
	ld.d	$s0, $a1, 0
	ld.d	$s1, $a1, 8
	addi.d	$s2, $sp, 536
	st.d	$s2, $sp, 520
	st.d	$zero, $sp, 528
	st.b	$zero, $sp, 536
	addi.d	$a1, $s1, 5
.Ltmp9:                                 # EH_LABEL
	addi.d	$a0, $sp, 520
	pcaddu18i	$ra, %call36(_ZNSt7__cxx1112basic_stringIcSt11char_traitsIcESaIcEE7reserveEm)
	jirl	$ra, $ra, 0
.Ltmp10:                                # EH_LABEL
# %bb.2:
	ld.d	$a0, $sp, 528
	addi.w	$a1, $zero, -2
	lu52i.d	$a1, $a1, 2047
	sub.d	$a0, $a1, $a0
	bltu	$a0, $s1, .LBB3_112
# %bb.3:                                # %_ZNKSt7__cxx1112basic_stringIcSt11char_traitsIcESaIcEE15_M_check_lengthEmmPKc.exit.i.i.i
.Ltmp11:                                # EH_LABEL
	addi.d	$a0, $sp, 520
	move	$a1, $s0
	move	$a2, $s1
	pcaddu18i	$ra, %call36(_ZNSt7__cxx1112basic_stringIcSt11char_traitsIcESaIcEE9_M_appendEPKcm)
	jirl	$ra, $ra, 0
.Ltmp12:                                # EH_LABEL
# %bb.4:                                # %_ZNSt7__cxx1112basic_stringIcSt11char_traitsIcESaIcEE6appendEPKcm.exit.i.i
	ld.d	$a0, $sp, 528
	addi.w	$a1, $zero, -6
	lu52i.d	$a1, $a1, 2047
	bgeu	$a0, $a1, .LBB3_112
# %bb.5:                                # %_ZNKSt7__cxx1112basic_stringIcSt11char_traitsIcESaIcEE15_M_check_lengthEmmPKc.exit.i10.i.i
.Ltmp13:                                # EH_LABEL
	pcalau12i	$a0, %pc_hi20(.L.str.3)
	addi.d	$a1, $a0, %pc_lo12(.L.str.3)
	addi.d	$a0, $sp, 520
	ori	$a2, $zero, 5
	pcaddu18i	$ra, %call36(_ZNSt7__cxx1112basic_stringIcSt11char_traitsIcESaIcEE9_M_appendEPKcm)
	jirl	$ra, $ra, 0
.Ltmp14:                                # EH_LABEL
# %bb.6:                                # %_ZStplIcSt11char_traitsIcESaIcEENSt7__cxx1112basic_stringIT_T0_T1_EERKS8_PKS5_.exit
	ld.d	$a1, $sp, 520
.Ltmp15:                                # EH_LABEL
	addi.d	$a0, $sp, 8
	ori	$a2, $zero, 16
	addi.d	$s0, $sp, 8
	pcaddu18i	$ra, %call36(_ZNSt14basic_ofstreamIcSt11char_traitsIcEEC1EPKcSt13_Ios_Openmode)
	jirl	$ra, $ra, 0
.Ltmp16:                                # EH_LABEL
# %bb.7:
	ld.d	$a0, $sp, 8
	ld.d	$a0, $a0, -24
	add.d	$a0, $s0, $a0
	ld.w	$a0, $a0, 32
	bnez	$a0, .LBB3_114
# %bb.8:
.Ltmp26:                                # EH_LABEL
	pcalau12i	$a0, %pc_hi20(.L.str.6)
	addi.d	$a1, $a0, %pc_lo12(.L.str.6)
	addi.d	$a0, $sp, 8
	ori	$a2, $zero, 1
	addi.d	$s0, $sp, 8
	pcaddu18i	$ra, %call36(_ZSt16__ostream_insertIcSt11char_traitsIcEERSt13basic_ostreamIT_T0_ES6_PKS3_l)
	jirl	$ra, $ra, 0
.Ltmp27:                                # EH_LABEL
# %bb.9:                                # %_ZStlsISt11char_traitsIcEERSt13basic_ostreamIcT_ES5_PKc.exit10
	ld.d	$a0, $sp, 8
	ld.d	$a0, $a0, -24
	add.d	$a0, $s0, $a0
	ld.d	$s0, $a0, 240
	beqz	$s0, .LBB3_110
# %bb.10:                               # %_ZSt13__check_facetISt5ctypeIcEERKT_PS3_.exit.i.i
	ld.bu	$a0, $s0, 56
	beqz	$a0, .LBB3_12
# %bb.11:
	ld.bu	$a0, $s0, 67
	b	.LBB3_14
.LBB3_12:
.Ltmp28:                                # EH_LABEL
	move	$a0, $s0
	pcaddu18i	$ra, %call36(_ZNKSt5ctypeIcE13_M_widen_initEv)
	jirl	$ra, $ra, 0
.Ltmp29:                                # EH_LABEL
# %bb.13:                               # %.noexc45
	ld.d	$a0, $s0, 0
	ld.d	$a2, $a0, 48
.Ltmp30:                                # EH_LABEL
	ori	$a1, $zero, 10
	move	$a0, $s0
	jirl	$ra, $a2, 0
.Ltmp31:                                # EH_LABEL
.LBB3_14:                               # %_ZNKSt9basic_iosIcSt11char_traitsIcEE5widenEc.exit.i
.Ltmp32:                                # EH_LABEL
	ext.w.b	$a1, $a0
	addi.d	$a0, $sp, 8
	pcaddu18i	$ra, %call36(_ZNSo3putEc)
	jirl	$ra, $ra, 0
.Ltmp33:                                # EH_LABEL
# %bb.15:                               # %.noexc47
.Ltmp34:                                # EH_LABEL
	pcaddu18i	$ra, %call36(_ZNSo5flushEv)
	jirl	$ra, $ra, 0
.Ltmp35:                                # EH_LABEL
# %bb.16:                               # %_ZNSolsEPFRSoS_E.exit11
.Ltmp36:                                # EH_LABEL
	pcalau12i	$a0, %pc_hi20(.L.str.7)
	addi.d	$a1, $a0, %pc_lo12(.L.str.7)
	addi.d	$a0, $sp, 8
	ori	$a2, $zero, 20
	addi.d	$s0, $sp, 8
	pcaddu18i	$ra, %call36(_ZSt16__ostream_insertIcSt11char_traitsIcEERSt13basic_ostreamIT_T0_ES6_PKS3_l)
	jirl	$ra, $ra, 0
.Ltmp37:                                # EH_LABEL
# %bb.17:                               # %_ZStlsISt11char_traitsIcEERSt13basic_ostreamIcT_ES5_PKc.exit12
	ld.d	$a0, $sp, 8
	ld.d	$a0, $a0, -24
	add.d	$a0, $s0, $a0
	ld.d	$s0, $a0, 240
	beqz	$s0, .LBB3_110
# %bb.18:                               # %_ZSt13__check_facetISt5ctypeIcEERKT_PS3_.exit.i.i50
	ld.bu	$a0, $s0, 56
	beqz	$a0, .LBB3_20
# %bb.19:
	ld.bu	$a0, $s0, 67
	b	.LBB3_22
.LBB3_20:
.Ltmp38:                                # EH_LABEL
	move	$a0, $s0
	pcaddu18i	$ra, %call36(_ZNKSt5ctypeIcE13_M_widen_initEv)
	jirl	$ra, $ra, 0
.Ltmp39:                                # EH_LABEL
# %bb.21:                               # %.noexc55
	ld.d	$a0, $s0, 0
	ld.d	$a2, $a0, 48
.Ltmp40:                                # EH_LABEL
	ori	$a1, $zero, 10
	move	$a0, $s0
	jirl	$ra, $a2, 0
.Ltmp41:                                # EH_LABEL
.LBB3_22:                               # %_ZNKSt9basic_iosIcSt11char_traitsIcEE5widenEc.exit.i52
.Ltmp42:                                # EH_LABEL
	ext.w.b	$a1, $a0
	addi.d	$a0, $sp, 8
	pcaddu18i	$ra, %call36(_ZNSo3putEc)
	jirl	$ra, $ra, 0
.Ltmp43:                                # EH_LABEL
# %bb.23:                               # %.noexc57
.Ltmp44:                                # EH_LABEL
	pcaddu18i	$ra, %call36(_ZNSo5flushEv)
	jirl	$ra, $ra, 0
.Ltmp45:                                # EH_LABEL
# %bb.24:                               # %_ZNSolsEPFRSoS_E.exit13
.Ltmp46:                                # EH_LABEL
	pcalau12i	$a0, %pc_hi20(.L.str.6)
	addi.d	$a1, $a0, %pc_lo12(.L.str.6)
	addi.d	$a0, $sp, 8
	ori	$a2, $zero, 1
	addi.d	$s0, $sp, 8
	pcaddu18i	$ra, %call36(_ZSt16__ostream_insertIcSt11char_traitsIcEERSt13basic_ostreamIT_T0_ES6_PKS3_l)
	jirl	$ra, $ra, 0
.Ltmp47:                                # EH_LABEL
# %bb.25:                               # %_ZStlsISt11char_traitsIcEERSt13basic_ostreamIcT_ES5_PKc.exit14
	ld.d	$a0, $sp, 8
	ld.d	$a0, $a0, -24
	add.d	$a0, $s0, $a0
	ld.d	$s0, $a0, 240
	beqz	$s0, .LBB3_110
# %bb.26:                               # %_ZSt13__check_facetISt5ctypeIcEERKT_PS3_.exit.i.i61
	ld.bu	$a0, $s0, 56
	beqz	$a0, .LBB3_28
# %bb.27:
	ld.bu	$a0, $s0, 67
	b	.LBB3_30
.LBB3_28:
.Ltmp48:                                # EH_LABEL
	move	$a0, $s0
	pcaddu18i	$ra, %call36(_ZNKSt5ctypeIcE13_M_widen_initEv)
	jirl	$ra, $ra, 0
.Ltmp49:                                # EH_LABEL
# %bb.29:                               # %.noexc66
	ld.d	$a0, $s0, 0
	ld.d	$a2, $a0, 48
.Ltmp50:                                # EH_LABEL
	ori	$a1, $zero, 10
	move	$a0, $s0
	jirl	$ra, $a2, 0
.Ltmp51:                                # EH_LABEL
.LBB3_30:                               # %_ZNKSt9basic_iosIcSt11char_traitsIcEE5widenEc.exit.i63
.Ltmp52:                                # EH_LABEL
	ext.w.b	$a1, $a0
	addi.d	$a0, $sp, 8
	pcaddu18i	$ra, %call36(_ZNSo3putEc)
	jirl	$ra, $ra, 0
.Ltmp53:                                # EH_LABEL
# %bb.31:                               # %.noexc68
.Ltmp54:                                # EH_LABEL
	pcaddu18i	$ra, %call36(_ZNSo5flushEv)
	jirl	$ra, $ra, 0
.Ltmp55:                                # EH_LABEL
# %bb.32:                               # %_ZNSolsEPFRSoS_E.exit15
.Ltmp56:                                # EH_LABEL
	pcalau12i	$a0, %pc_hi20(.L.str.8)
	addi.d	$a1, $a0, %pc_lo12(.L.str.8)
	addi.d	$a0, $sp, 8
	ori	$a2, $zero, 6
	addi.d	$s0, $sp, 8
	pcaddu18i	$ra, %call36(_ZSt16__ostream_insertIcSt11char_traitsIcEERSt13basic_ostreamIT_T0_ES6_PKS3_l)
	jirl	$ra, $ra, 0
.Ltmp57:                                # EH_LABEL
# %bb.33:                               # %_ZStlsISt11char_traitsIcEERSt13basic_ostreamIcT_ES5_PKc.exit16
	ld.d	$a0, $sp, 8
	ld.d	$a0, $a0, -24
	add.d	$a0, $s0, $a0
	ld.d	$s0, $a0, 240
	beqz	$s0, .LBB3_110
# %bb.34:                               # %_ZSt13__check_facetISt5ctypeIcEERKT_PS3_.exit.i.i72
	ld.bu	$a0, $s0, 56
	beqz	$a0, .LBB3_36
# %bb.35:
	ld.bu	$a0, $s0, 67
	b	.LBB3_38
.LBB3_36:
.Ltmp58:                                # EH_LABEL
	move	$a0, $s0
	pcaddu18i	$ra, %call36(_ZNKSt5ctypeIcE13_M_widen_initEv)
	jirl	$ra, $ra, 0
.Ltmp59:                                # EH_LABEL
# %bb.37:                               # %.noexc77
	ld.d	$a0, $s0, 0
	ld.d	$a2, $a0, 48
.Ltmp60:                                # EH_LABEL
	ori	$a1, $zero, 10
	move	$a0, $s0
	jirl	$ra, $a2, 0
.Ltmp61:                                # EH_LABEL
.LBB3_38:                               # %_ZNKSt9basic_iosIcSt11char_traitsIcEE5widenEc.exit.i74
.Ltmp62:                                # EH_LABEL
	ext.w.b	$a1, $a0
	addi.d	$a0, $sp, 8
	pcaddu18i	$ra, %call36(_ZNSo3putEc)
	jirl	$ra, $ra, 0
.Ltmp63:                                # EH_LABEL
# %bb.39:                               # %.noexc79
.Ltmp64:                                # EH_LABEL
	pcaddu18i	$ra, %call36(_ZNSo5flushEv)
	jirl	$ra, $ra, 0
.Ltmp65:                                # EH_LABEL
# %bb.40:                               # %_ZNSolsEPFRSoS_E.exit17
.Ltmp66:                                # EH_LABEL
	pcalau12i	$a0, %pc_hi20(.L.str.9)
	addi.d	$a1, $a0, %pc_lo12(.L.str.9)
	addi.d	$a0, $sp, 8
	ori	$a2, $zero, 18
	addi.d	$s0, $sp, 8
	pcaddu18i	$ra, %call36(_ZSt16__ostream_insertIcSt11char_traitsIcEERSt13basic_ostreamIT_T0_ES6_PKS3_l)
	jirl	$ra, $ra, 0
.Ltmp67:                                # EH_LABEL
# %bb.41:                               # %_ZStlsISt11char_traitsIcEERSt13basic_ostreamIcT_ES5_PKc.exit18
	ld.d	$a0, $sp, 8
	ld.d	$a0, $a0, -24
	add.d	$a0, $s0, $a0
	ld.d	$s0, $a0, 240
	beqz	$s0, .LBB3_110
# %bb.42:                               # %_ZSt13__check_facetISt5ctypeIcEERKT_PS3_.exit.i.i83
	ld.bu	$a0, $s0, 56
	beqz	$a0, .LBB3_44
# %bb.43:
	ld.bu	$a0, $s0, 67
	b	.LBB3_46
.LBB3_44:
.Ltmp68:                                # EH_LABEL
	move	$a0, $s0
	pcaddu18i	$ra, %call36(_ZNKSt5ctypeIcE13_M_widen_initEv)
	jirl	$ra, $ra, 0
.Ltmp69:                                # EH_LABEL
# %bb.45:                               # %.noexc88
	ld.d	$a0, $s0, 0
	ld.d	$a2, $a0, 48
.Ltmp70:                                # EH_LABEL
	ori	$a1, $zero, 10
	move	$a0, $s0
	jirl	$ra, $a2, 0
.Ltmp71:                                # EH_LABEL
.LBB3_46:                               # %_ZNKSt9basic_iosIcSt11char_traitsIcEE5widenEc.exit.i85
.Ltmp72:                                # EH_LABEL
	ext.w.b	$a1, $a0
	addi.d	$a0, $sp, 8
	pcaddu18i	$ra, %call36(_ZNSo3putEc)
	jirl	$ra, $ra, 0
.Ltmp73:                                # EH_LABEL
# %bb.47:                               # %.noexc90
.Ltmp74:                                # EH_LABEL
	pcaddu18i	$ra, %call36(_ZNSo5flushEv)
	jirl	$ra, $ra, 0
.Ltmp75:                                # EH_LABEL
# %bb.48:                               # %_ZNSolsEPFRSoS_E.exit19
.Ltmp76:                                # EH_LABEL
	pcalau12i	$a0, %pc_hi20(.L.str.10)
	addi.d	$a1, $a0, %pc_lo12(.L.str.10)
	addi.d	$a0, $sp, 8
	ori	$a2, $zero, 8
	addi.d	$s0, $sp, 8
	pcaddu18i	$ra, %call36(_ZSt16__ostream_insertIcSt11char_traitsIcEERSt13basic_ostreamIT_T0_ES6_PKS3_l)
	jirl	$ra, $ra, 0
.Ltmp77:                                # EH_LABEL
# %bb.49:                               # %_ZStlsISt11char_traitsIcEERSt13basic_ostreamIcT_ES5_PKc.exit20
	ld.d	$a0, $sp, 8
	ld.d	$a0, $a0, -24
	add.d	$a0, $s0, $a0
	ld.d	$s0, $a0, 240
	beqz	$s0, .LBB3_110
# %bb.50:                               # %_ZSt13__check_facetISt5ctypeIcEERKT_PS3_.exit.i.i94
	ld.bu	$a0, $s0, 56
	beqz	$a0, .LBB3_52
# %bb.51:
	ld.bu	$a0, $s0, 67
	b	.LBB3_54
.LBB3_52:
.Ltmp78:                                # EH_LABEL
	move	$a0, $s0
	pcaddu18i	$ra, %call36(_ZNKSt5ctypeIcE13_M_widen_initEv)
	jirl	$ra, $ra, 0
.Ltmp79:                                # EH_LABEL
# %bb.53:                               # %.noexc99
	ld.d	$a0, $s0, 0
	ld.d	$a2, $a0, 48
.Ltmp80:                                # EH_LABEL
	ori	$a1, $zero, 10
	move	$a0, $s0
	jirl	$ra, $a2, 0
.Ltmp81:                                # EH_LABEL
.LBB3_54:                               # %_ZNKSt9basic_iosIcSt11char_traitsIcEE5widenEc.exit.i96
.Ltmp82:                                # EH_LABEL
	ext.w.b	$a1, $a0
	addi.d	$a0, $sp, 8
	pcaddu18i	$ra, %call36(_ZNSo3putEc)
	jirl	$ra, $ra, 0
.Ltmp83:                                # EH_LABEL
# %bb.55:                               # %.noexc101
.Ltmp84:                                # EH_LABEL
	pcaddu18i	$ra, %call36(_ZNSo5flushEv)
	jirl	$ra, $ra, 0
.Ltmp85:                                # EH_LABEL
# %bb.56:                               # %_ZNSolsEPFRSoS_E.exit21
.Ltmp86:                                # EH_LABEL
	pcalau12i	$a0, %pc_hi20(.L.str.11)
	addi.d	$a1, $a0, %pc_lo12(.L.str.11)
	addi.d	$a0, $sp, 8
	ori	$a2, $zero, 7
	pcaddu18i	$ra, %call36(_ZSt16__ostream_insertIcSt11char_traitsIcEERSt13basic_ostreamIT_T0_ES6_PKS3_l)
	jirl	$ra, $ra, 0
.Ltmp87:                                # EH_LABEL
# %bb.57:                               # %_ZStlsISt11char_traitsIcEERSt13basic_ostreamIcT_ES5_PKc.exit22
	ld.d	$a1, $fp, 0
	ld.d	$a2, $fp, 8
.Ltmp88:                                # EH_LABEL
	addi.d	$a0, $sp, 8
	pcaddu18i	$ra, %call36(_ZSt16__ostream_insertIcSt11char_traitsIcEERSt13basic_ostreamIT_T0_ES6_PKS3_l)
	jirl	$ra, $ra, 0
.Ltmp89:                                # EH_LABEL
# %bb.58:                               # %_ZStlsIcSt11char_traitsIcESaIcEERSt13basic_ostreamIT_T0_ES7_RKNSt7__cxx1112basic_stringIS4_S5_T1_EE.exit23
.Ltmp90:                                # EH_LABEL
	move	$s0, $a0
	pcalau12i	$a0, %pc_hi20(.L.str.12)
	addi.d	$a1, $a0, %pc_lo12(.L.str.12)
	ori	$a2, $zero, 4
	move	$a0, $s0
	pcaddu18i	$ra, %call36(_ZSt16__ostream_insertIcSt11char_traitsIcEERSt13basic_ostreamIT_T0_ES6_PKS3_l)
	jirl	$ra, $ra, 0
.Ltmp91:                                # EH_LABEL
# %bb.59:                               # %_ZStlsISt11char_traitsIcEERSt13basic_ostreamIcT_ES5_PKc.exit24
	ld.d	$a0, $s0, 0
	ld.d	$a0, $a0, -24
	add.d	$a0, $s0, $a0
	ld.d	$s1, $a0, 240
	beqz	$s1, .LBB3_110
# %bb.60:                               # %_ZSt13__check_facetISt5ctypeIcEERKT_PS3_.exit.i.i105
	ld.bu	$a0, $s1, 56
	beqz	$a0, .LBB3_62
# %bb.61:
	ld.bu	$a0, $s1, 67
	b	.LBB3_64
.LBB3_62:
.Ltmp92:                                # EH_LABEL
	move	$a0, $s1
	pcaddu18i	$ra, %call36(_ZNKSt5ctypeIcE13_M_widen_initEv)
	jirl	$ra, $ra, 0
.Ltmp93:                                # EH_LABEL
# %bb.63:                               # %.noexc110
	ld.d	$a0, $s1, 0
	ld.d	$a2, $a0, 48
.Ltmp94:                                # EH_LABEL
	ori	$a1, $zero, 10
	move	$a0, $s1
	jirl	$ra, $a2, 0
.Ltmp95:                                # EH_LABEL
.LBB3_64:                               # %_ZNKSt9basic_iosIcSt11char_traitsIcEE5widenEc.exit.i107
.Ltmp96:                                # EH_LABEL
	ext.w.b	$a1, $a0
	move	$a0, $s0
	pcaddu18i	$ra, %call36(_ZNSo3putEc)
	jirl	$ra, $ra, 0
.Ltmp97:                                # EH_LABEL
# %bb.65:                               # %.noexc112
.Ltmp98:                                # EH_LABEL
	pcaddu18i	$ra, %call36(_ZNSo5flushEv)
	jirl	$ra, $ra, 0
.Ltmp99:                                # EH_LABEL
# %bb.66:                               # %_ZNSolsEPFRSoS_E.exit25
.Ltmp100:                               # EH_LABEL
	pcalau12i	$a0, %pc_hi20(.L.str.13)
	addi.d	$a1, $a0, %pc_lo12(.L.str.13)
	addi.d	$a0, $sp, 8
	ori	$a2, $zero, 8
	addi.d	$s0, $sp, 8
	pcaddu18i	$ra, %call36(_ZSt16__ostream_insertIcSt11char_traitsIcEERSt13basic_ostreamIT_T0_ES6_PKS3_l)
	jirl	$ra, $ra, 0
.Ltmp101:                               # EH_LABEL
# %bb.67:                               # %_ZStlsISt11char_traitsIcEERSt13basic_ostreamIcT_ES5_PKc.exit26
	ld.d	$a0, $sp, 8
	ld.d	$a0, $a0, -24
	add.d	$a0, $s0, $a0
	ld.d	$s0, $a0, 240
	beqz	$s0, .LBB3_110
# %bb.68:                               # %_ZSt13__check_facetISt5ctypeIcEERKT_PS3_.exit.i.i116
	ld.bu	$a0, $s0, 56
	beqz	$a0, .LBB3_70
# %bb.69:
	ld.bu	$a0, $s0, 67
	b	.LBB3_72
.LBB3_70:
.Ltmp102:                               # EH_LABEL
	move	$a0, $s0
	pcaddu18i	$ra, %call36(_ZNKSt5ctypeIcE13_M_widen_initEv)
	jirl	$ra, $ra, 0
.Ltmp103:                               # EH_LABEL
# %bb.71:                               # %.noexc121
	ld.d	$a0, $s0, 0
	ld.d	$a2, $a0, 48
.Ltmp104:                               # EH_LABEL
	ori	$a1, $zero, 10
	move	$a0, $s0
	jirl	$ra, $a2, 0
.Ltmp105:                               # EH_LABEL
.LBB3_72:                               # %_ZNKSt9basic_iosIcSt11char_traitsIcEE5widenEc.exit.i118
.Ltmp106:                               # EH_LABEL
	ext.w.b	$a1, $a0
	addi.d	$a0, $sp, 8
	pcaddu18i	$ra, %call36(_ZNSo3putEc)
	jirl	$ra, $ra, 0
.Ltmp107:                               # EH_LABEL
# %bb.73:                               # %.noexc123
.Ltmp108:                               # EH_LABEL
	pcaddu18i	$ra, %call36(_ZNSo5flushEv)
	jirl	$ra, $ra, 0
.Ltmp109:                               # EH_LABEL
# %bb.74:                               # %_ZNSolsEPFRSoS_E.exit27
.Ltmp110:                               # EH_LABEL
	pcalau12i	$a0, %pc_hi20(.L.str.14)
	addi.d	$a1, $a0, %pc_lo12(.L.str.14)
	addi.d	$a0, $sp, 8
	ori	$a2, $zero, 23
	pcaddu18i	$ra, %call36(_ZSt16__ostream_insertIcSt11char_traitsIcEERSt13basic_ostreamIT_T0_ES6_PKS3_l)
	jirl	$ra, $ra, 0
.Ltmp111:                               # EH_LABEL
# %bb.75:                               # %_ZStlsISt11char_traitsIcEERSt13basic_ostreamIcT_ES5_PKc.exit28
	ld.d	$a1, $fp, 0
	ld.d	$a2, $fp, 8
.Ltmp112:                               # EH_LABEL
	addi.d	$a0, $sp, 8
	pcaddu18i	$ra, %call36(_ZSt16__ostream_insertIcSt11char_traitsIcEERSt13basic_ostreamIT_T0_ES6_PKS3_l)
	jirl	$ra, $ra, 0
.Ltmp113:                               # EH_LABEL
# %bb.76:                               # %_ZStlsIcSt11char_traitsIcESaIcEERSt13basic_ostreamIT_T0_ES7_RKNSt7__cxx1112basic_stringIS4_S5_T1_EE.exit29
.Ltmp114:                               # EH_LABEL
	move	$s0, $a0
	pcalau12i	$a0, %pc_hi20(.L.str.15)
	addi.d	$a1, $a0, %pc_lo12(.L.str.15)
	ori	$a2, $zero, 3
	move	$a0, $s0
	pcaddu18i	$ra, %call36(_ZSt16__ostream_insertIcSt11char_traitsIcEERSt13basic_ostreamIT_T0_ES6_PKS3_l)
	jirl	$ra, $ra, 0
.Ltmp115:                               # EH_LABEL
# %bb.77:                               # %_ZStlsISt11char_traitsIcEERSt13basic_ostreamIcT_ES5_PKc.exit30
	ld.d	$a0, $s0, 0
	ld.d	$a0, $a0, -24
	add.d	$a0, $s0, $a0
	ld.d	$s1, $a0, 240
	beqz	$s1, .LBB3_110
# %bb.78:                               # %_ZSt13__check_facetISt5ctypeIcEERKT_PS3_.exit.i.i127
	ld.bu	$a0, $s1, 56
	beqz	$a0, .LBB3_80
# %bb.79:
	ld.bu	$a0, $s1, 67
	b	.LBB3_82
.LBB3_80:
.Ltmp116:                               # EH_LABEL
	move	$a0, $s1
	pcaddu18i	$ra, %call36(_ZNKSt5ctypeIcE13_M_widen_initEv)
	jirl	$ra, $ra, 0
.Ltmp117:                               # EH_LABEL
# %bb.81:                               # %.noexc132
	ld.d	$a0, $s1, 0
	ld.d	$a2, $a0, 48
.Ltmp118:                               # EH_LABEL
	ori	$a1, $zero, 10
	move	$a0, $s1
	jirl	$ra, $a2, 0
.Ltmp119:                               # EH_LABEL
.LBB3_82:                               # %_ZNKSt9basic_iosIcSt11char_traitsIcEE5widenEc.exit.i129
.Ltmp120:                               # EH_LABEL
	ext.w.b	$a1, $a0
	move	$a0, $s0
	pcaddu18i	$ra, %call36(_ZNSo3putEc)
	jirl	$ra, $ra, 0
.Ltmp121:                               # EH_LABEL
# %bb.83:                               # %.noexc134
.Ltmp122:                               # EH_LABEL
	pcaddu18i	$ra, %call36(_ZNSo5flushEv)
	jirl	$ra, $ra, 0
.Ltmp123:                               # EH_LABEL
# %bb.84:                               # %_ZNSolsEPFRSoS_E.exit31
.Ltmp124:                               # EH_LABEL
	pcalau12i	$a0, %pc_hi20(.L.str.16)
	addi.d	$a1, $a0, %pc_lo12(.L.str.16)
	addi.d	$a0, $sp, 8
	ori	$a2, $zero, 23
	pcaddu18i	$ra, %call36(_ZSt16__ostream_insertIcSt11char_traitsIcEERSt13basic_ostreamIT_T0_ES6_PKS3_l)
	jirl	$ra, $ra, 0
.Ltmp125:                               # EH_LABEL
# %bb.85:                               # %_ZStlsISt11char_traitsIcEERSt13basic_ostreamIcT_ES5_PKc.exit32
	ld.d	$a1, $fp, 0
	ld.d	$a2, $fp, 8
.Ltmp126:                               # EH_LABEL
	addi.d	$a0, $sp, 8
	pcaddu18i	$ra, %call36(_ZSt16__ostream_insertIcSt11char_traitsIcEERSt13basic_ostreamIT_T0_ES6_PKS3_l)
	jirl	$ra, $ra, 0
.Ltmp127:                               # EH_LABEL
# %bb.86:                               # %_ZStlsIcSt11char_traitsIcESaIcEERSt13basic_ostreamIT_T0_ES7_RKNSt7__cxx1112basic_stringIS4_S5_T1_EE.exit33
.Ltmp128:                               # EH_LABEL
	move	$s0, $a0
	pcalau12i	$a0, %pc_hi20(.L.str.17)
	addi.d	$a1, $a0, %pc_lo12(.L.str.17)
	ori	$a2, $zero, 3
	move	$a0, $s0
	pcaddu18i	$ra, %call36(_ZSt16__ostream_insertIcSt11char_traitsIcEERSt13basic_ostreamIT_T0_ES6_PKS3_l)
	jirl	$ra, $ra, 0
.Ltmp129:                               # EH_LABEL
# %bb.87:                               # %_ZStlsISt11char_traitsIcEERSt13basic_ostreamIcT_ES5_PKc.exit34
	ld.d	$a0, $s0, 0
	ld.d	$a0, $a0, -24
	add.d	$a0, $s0, $a0
	ld.d	$s1, $a0, 240
	beqz	$s1, .LBB3_110
# %bb.88:                               # %_ZSt13__check_facetISt5ctypeIcEERKT_PS3_.exit.i.i138
	ld.bu	$a0, $s1, 56
	beqz	$a0, .LBB3_90
# %bb.89:
	ld.bu	$a0, $s1, 67
	b	.LBB3_92
.LBB3_90:
.Ltmp130:                               # EH_LABEL
	move	$a0, $s1
	pcaddu18i	$ra, %call36(_ZNKSt5ctypeIcE13_M_widen_initEv)
	jirl	$ra, $ra, 0
.Ltmp131:                               # EH_LABEL
# %bb.91:                               # %.noexc143
	ld.d	$a0, $s1, 0
	ld.d	$a2, $a0, 48
.Ltmp132:                               # EH_LABEL
	ori	$a1, $zero, 10
	move	$a0, $s1
	jirl	$ra, $a2, 0
.Ltmp133:                               # EH_LABEL
.LBB3_92:                               # %_ZNKSt9basic_iosIcSt11char_traitsIcEE5widenEc.exit.i140
.Ltmp134:                               # EH_LABEL
	ext.w.b	$a1, $a0
	move	$a0, $s0
	pcaddu18i	$ra, %call36(_ZNSo3putEc)
	jirl	$ra, $ra, 0
.Ltmp135:                               # EH_LABEL
# %bb.93:                               # %.noexc145
.Ltmp136:                               # EH_LABEL
	pcaddu18i	$ra, %call36(_ZNSo5flushEv)
	jirl	$ra, $ra, 0
.Ltmp137:                               # EH_LABEL
# %bb.94:                               # %_ZNSolsEPFRSoS_E.exit35
.Ltmp138:                               # EH_LABEL
	pcalau12i	$a0, %pc_hi20(.L.str.18)
	addi.d	$a1, $a0, %pc_lo12(.L.str.18)
	addi.d	$a0, $sp, 8
	ori	$a2, $zero, 23
	pcaddu18i	$ra, %call36(_ZSt16__ostream_insertIcSt11char_traitsIcEERSt13basic_ostreamIT_T0_ES6_PKS3_l)
	jirl	$ra, $ra, 0
.Ltmp139:                               # EH_LABEL
# %bb.95:                               # %_ZStlsISt11char_traitsIcEERSt13basic_ostreamIcT_ES5_PKc.exit36
	ld.d	$a1, $fp, 0
	ld.d	$a2, $fp, 8
.Ltmp140:                               # EH_LABEL
	addi.d	$a0, $sp, 8
	pcaddu18i	$ra, %call36(_ZSt16__ostream_insertIcSt11char_traitsIcEERSt13basic_ostreamIT_T0_ES6_PKS3_l)
	jirl	$ra, $ra, 0
.Ltmp141:                               # EH_LABEL
# %bb.96:                               # %_ZStlsIcSt11char_traitsIcESaIcEERSt13basic_ostreamIT_T0_ES7_RKNSt7__cxx1112basic_stringIS4_S5_T1_EE.exit37
.Ltmp142:                               # EH_LABEL
	move	$fp, $a0
	pcalau12i	$a0, %pc_hi20(.L.str.19)
	addi.d	$a1, $a0, %pc_lo12(.L.str.19)
	ori	$a2, $zero, 3
	move	$a0, $fp
	pcaddu18i	$ra, %call36(_ZSt16__ostream_insertIcSt11char_traitsIcEERSt13basic_ostreamIT_T0_ES6_PKS3_l)
	jirl	$ra, $ra, 0
.Ltmp143:                               # EH_LABEL
# %bb.97:                               # %_ZStlsISt11char_traitsIcEERSt13basic_ostreamIcT_ES5_PKc.exit38
	ld.d	$a0, $fp, 0
	ld.d	$a0, $a0, -24
	add.d	$a0, $fp, $a0
	ld.d	$s0, $a0, 240
	beqz	$s0, .LBB3_110
# %bb.98:                               # %_ZSt13__check_facetISt5ctypeIcEERKT_PS3_.exit.i.i149
	ld.bu	$a0, $s0, 56
	beqz	$a0, .LBB3_100
# %bb.99:
	ld.bu	$a0, $s0, 67
	b	.LBB3_102
.LBB3_100:
.Ltmp144:                               # EH_LABEL
	move	$a0, $s0
	pcaddu18i	$ra, %call36(_ZNKSt5ctypeIcE13_M_widen_initEv)
	jirl	$ra, $ra, 0
.Ltmp145:                               # EH_LABEL
# %bb.101:                              # %.noexc154
	ld.d	$a0, $s0, 0
	ld.d	$a2, $a0, 48
.Ltmp146:                               # EH_LABEL
	ori	$a1, $zero, 10
	move	$a0, $s0
	jirl	$ra, $a2, 0
.Ltmp147:                               # EH_LABEL
.LBB3_102:                              # %_ZNKSt9basic_iosIcSt11char_traitsIcEE5widenEc.exit.i151
.Ltmp148:                               # EH_LABEL
	ext.w.b	$a1, $a0
	move	$a0, $fp
	pcaddu18i	$ra, %call36(_ZNSo3putEc)
	jirl	$ra, $ra, 0
.Ltmp149:                               # EH_LABEL
# %bb.103:                              # %.noexc156
.Ltmp150:                               # EH_LABEL
	pcaddu18i	$ra, %call36(_ZNSo5flushEv)
	jirl	$ra, $ra, 0
.Ltmp151:                               # EH_LABEL
# %bb.104:                              # %_ZNSolsEPFRSoS_E.exit39
	addi.d	$a0, $sp, 16
.Ltmp152:                               # EH_LABEL
	pcaddu18i	$ra, %call36(_ZNSt13basic_filebufIcSt11char_traitsIcEE5closeEv)
	jirl	$ra, $ra, 0
.Ltmp153:                               # EH_LABEL
# %bb.105:                              # %.noexc
	bnez	$a0, .LBB3_107
# %bb.106:
	ld.d	$a0, $sp, 8
	ld.d	$a0, $a0, -24
	addi.d	$a1, $sp, 8
	add.d	$a0, $a1, $a0
	ld.w	$a1, $a0, 32
	ori	$a1, $a1, 4
.Ltmp154:                               # EH_LABEL
	pcaddu18i	$ra, %call36(_ZNSt9basic_iosIcSt11char_traitsIcEE5clearESt12_Ios_Iostate)
	jirl	$ra, $ra, 0
.Ltmp155:                               # EH_LABEL
.LBB3_107:                              # %_ZNSt14basic_ofstreamIcSt11char_traitsIcEE5closeEv.exit
	addi.d	$a0, $sp, 8
	pcaddu18i	$ra, %call36(_ZNSt14basic_ofstreamIcSt11char_traitsIcEED1Ev)
	jirl	$ra, $ra, 0
	ld.d	$a0, $sp, 520
	beq	$a0, $s2, .LBB3_109
# %bb.108:                              # %_ZNKSt7__cxx1112basic_stringIcSt11char_traitsIcESaIcEE11_M_is_localEv.exit.i.i
	ld.d	$a1, $sp, 536
	addi.d	$a1, $a1, 1
	pcaddu18i	$ra, %call36(_ZdlPvm)
	jirl	$ra, $ra, 0
.LBB3_109:
	ld.d	$s2, $sp, 552                   # 8-byte Folded Reload
	ld.d	$s1, $sp, 560                   # 8-byte Folded Reload
	ld.d	$s0, $sp, 568                   # 8-byte Folded Reload
	ld.d	$fp, $sp, 576                   # 8-byte Folded Reload
	ld.d	$ra, $sp, 584                   # 8-byte Folded Reload
	addi.d	$sp, $sp, 592
	ret
.LBB3_110:                              # %.invoke
.Ltmp156:                               # EH_LABEL
	pcaddu18i	$ra, %call36(_ZSt16__throw_bad_castv)
	jirl	$ra, $ra, 0
.Ltmp157:                               # EH_LABEL
# %bb.111:                              # %.cont
.LBB3_112:                              # %.invoke.i.i
.Ltmp159:                               # EH_LABEL
	pcalau12i	$a0, %pc_hi20(.L.str.32)
	addi.d	$a0, $a0, %pc_lo12(.L.str.32)
	pcaddu18i	$ra, %call36(_ZSt20__throw_length_errorPKc)
	jirl	$ra, $ra, 0
.Ltmp160:                               # EH_LABEL
# %bb.113:                              # %.cont.i.i
.LBB3_114:
.Ltmp18:                                # EH_LABEL
	pcalau12i	$a0, %got_pc_hi20(_ZSt4cerr)
	ld.d	$a0, $a0, %got_pc_lo12(_ZSt4cerr)
	pcalau12i	$a1, %pc_hi20(.L.str.4)
	addi.d	$a1, $a1, %pc_lo12(.L.str.4)
	ori	$a2, $zero, 17
	pcaddu18i	$ra, %call36(_ZSt16__ostream_insertIcSt11char_traitsIcEERSt13basic_ostreamIT_T0_ES6_PKS3_l)
	jirl	$ra, $ra, 0
.Ltmp19:                                # EH_LABEL
# %bb.115:                              # %_ZStlsISt11char_traitsIcEERSt13basic_ostreamIcT_ES5_PKc.exit
	ld.d	$a1, $sp, 520
	ld.d	$a2, $sp, 528
.Ltmp20:                                # EH_LABEL
	pcalau12i	$a0, %got_pc_hi20(_ZSt4cerr)
	ld.d	$a0, $a0, %got_pc_lo12(_ZSt4cerr)
	pcaddu18i	$ra, %call36(_ZSt16__ostream_insertIcSt11char_traitsIcEERSt13basic_ostreamIT_T0_ES6_PKS3_l)
	jirl	$ra, $ra, 0
.Ltmp21:                                # EH_LABEL
# %bb.116:                              # %_ZStlsIcSt11char_traitsIcESaIcEERSt13basic_ostreamIT_T0_ES7_RKNSt7__cxx1112basic_stringIS4_S5_T1_EE.exit
.Ltmp22:                                # EH_LABEL
	move	$fp, $a0
	pcalau12i	$a0, %pc_hi20(.L.str.5)
	addi.d	$a1, $a0, %pc_lo12(.L.str.5)
	ori	$a2, $zero, 12
	move	$a0, $fp
	pcaddu18i	$ra, %call36(_ZSt16__ostream_insertIcSt11char_traitsIcEERSt13basic_ostreamIT_T0_ES6_PKS3_l)
	jirl	$ra, $ra, 0
.Ltmp23:                                # EH_LABEL
# %bb.117:                              # %_ZStlsISt11char_traitsIcEERSt13basic_ostreamIcT_ES5_PKc.exit9
.Ltmp24:                                # EH_LABEL
	move	$a0, $fp
	pcaddu18i	$ra, %call36(_ZSt4endlIcSt11char_traitsIcEERSt13basic_ostreamIT_T0_ES6_)
	jirl	$ra, $ra, 0
.Ltmp25:                                # EH_LABEL
# %bb.118:                              # %_ZNSolsEPFRSoS_E.exit
	ori	$a0, $zero, 1
	pcaddu18i	$ra, %call36(exit)
	jirl	$ra, $ra, 0
.LBB3_119:
.Ltmp17:                                # EH_LABEL
	move	$fp, $a0
	b	.LBB3_123
.LBB3_120:
.Ltmp161:                               # EH_LABEL
	ld.d	$a2, $sp, 520
	move	$fp, $a0
	beq	$a2, $s2, .LBB3_126
# %bb.121:                              # %_ZNKSt7__cxx1112basic_stringIcSt11char_traitsIcESaIcEE11_M_is_localEv.exit.i.i.i.i
	ld.d	$a0, $sp, 536
	addi.d	$a1, $a0, 1
	move	$a0, $a2
	b	.LBB3_125
.LBB3_122:
.Ltmp158:                               # EH_LABEL
	move	$fp, $a0
	addi.d	$a0, $sp, 8
	pcaddu18i	$ra, %call36(_ZNSt14basic_ofstreamIcSt11char_traitsIcEED1Ev)
	jirl	$ra, $ra, 0
.LBB3_123:
	ld.d	$a0, $sp, 520
	beq	$a0, $s2, .LBB3_126
# %bb.124:                              # %_ZNKSt7__cxx1112basic_stringIcSt11char_traitsIcESaIcEE11_M_is_localEv.exit.i.i41
	ld.d	$a1, $sp, 536
	addi.d	$a1, $a1, 1
.LBB3_125:                              # %common.resume
	pcaddu18i	$ra, %call36(_ZdlPvm)
	jirl	$ra, $ra, 0
.LBB3_126:                              # %common.resume
	move	$a0, $fp
	pcaddu18i	$ra, %call36(_Unwind_Resume)
	jirl	$ra, $ra, 0
.Lfunc_end3:
	.size	_ZN10ExportGold13writeCaseFileERKNSt7__cxx1112basic_stringIcSt11char_traitsIcESaIcEEE, .Lfunc_end3-_ZN10ExportGold13writeCaseFileERKNSt7__cxx1112basic_stringIcSt11char_traitsIcESaIcEEE
	.cfi_endproc
	.section	.gcc_except_table,"a",@progbits
	.p2align	2, 0x0
GCC_except_table3:
.Lexception1:
	.byte	255                             # @LPStart Encoding = omit
	.byte	255                             # @TType Encoding = omit
	.byte	1                               # Call site Encoding = uleb128
	.uleb128 .Lcst_end1-.Lcst_begin1
.Lcst_begin1:
	.uleb128 .Ltmp9-.Lfunc_begin1           # >> Call Site 1 <<
	.uleb128 .Ltmp14-.Ltmp9                 #   Call between .Ltmp9 and .Ltmp14
	.uleb128 .Ltmp161-.Lfunc_begin1         #     jumps to .Ltmp161
	.byte	0                               #   On action: cleanup
	.uleb128 .Ltmp15-.Lfunc_begin1          # >> Call Site 2 <<
	.uleb128 .Ltmp16-.Ltmp15                #   Call between .Ltmp15 and .Ltmp16
	.uleb128 .Ltmp17-.Lfunc_begin1          #     jumps to .Ltmp17
	.byte	0                               #   On action: cleanup
	.uleb128 .Ltmp26-.Lfunc_begin1          # >> Call Site 3 <<
	.uleb128 .Ltmp155-.Ltmp26               #   Call between .Ltmp26 and .Ltmp155
	.uleb128 .Ltmp158-.Lfunc_begin1         #     jumps to .Ltmp158
	.byte	0                               #   On action: cleanup
	.uleb128 .Ltmp155-.Lfunc_begin1         # >> Call Site 4 <<
	.uleb128 .Ltmp156-.Ltmp155              #   Call between .Ltmp155 and .Ltmp156
	.byte	0                               #     has no landing pad
	.byte	0                               #   On action: cleanup
	.uleb128 .Ltmp156-.Lfunc_begin1         # >> Call Site 5 <<
	.uleb128 .Ltmp157-.Ltmp156              #   Call between .Ltmp156 and .Ltmp157
	.uleb128 .Ltmp158-.Lfunc_begin1         #     jumps to .Ltmp158
	.byte	0                               #   On action: cleanup
	.uleb128 .Ltmp159-.Lfunc_begin1         # >> Call Site 6 <<
	.uleb128 .Ltmp160-.Ltmp159              #   Call between .Ltmp159 and .Ltmp160
	.uleb128 .Ltmp161-.Lfunc_begin1         #     jumps to .Ltmp161
	.byte	0                               #   On action: cleanup
	.uleb128 .Ltmp18-.Lfunc_begin1          # >> Call Site 7 <<
	.uleb128 .Ltmp25-.Ltmp18                #   Call between .Ltmp18 and .Ltmp25
	.uleb128 .Ltmp158-.Lfunc_begin1         #     jumps to .Ltmp158
	.byte	0                               #   On action: cleanup
	.uleb128 .Ltmp25-.Lfunc_begin1          # >> Call Site 8 <<
	.uleb128 .Lfunc_end3-.Ltmp25            #   Call between .Ltmp25 and .Lfunc_end3
	.byte	0                               #     has no landing pad
	.byte	0                               #   On action: cleanup
.Lcst_end1:
	.p2align	2, 0x0
                                        # -- End function
	.text
	.globl	_ZN10ExportGold9sortZonesEv     # -- Begin function _ZN10ExportGold9sortZonesEv
	.p2align	2
	.type	_ZN10ExportGold9sortZonesEv,@function
_ZN10ExportGold9sortZonesEv:            # @_ZN10ExportGold9sortZonesEv
	.cfi_startproc
# %bb.0:
	addi.d	$sp, $sp, -144
	.cfi_def_cfa_offset 144
	st.d	$ra, $sp, 136                   # 8-byte Folded Spill
	st.d	$fp, $sp, 128                   # 8-byte Folded Spill
	st.d	$s0, $sp, 120                   # 8-byte Folded Spill
	st.d	$s1, $sp, 112                   # 8-byte Folded Spill
	st.d	$s2, $sp, 104                   # 8-byte Folded Spill
	st.d	$s3, $sp, 96                    # 8-byte Folded Spill
	st.d	$s4, $sp, 88                    # 8-byte Folded Spill
	st.d	$s5, $sp, 80                    # 8-byte Folded Spill
	st.d	$s6, $sp, 72                    # 8-byte Folded Spill
	st.d	$s7, $sp, 64                    # 8-byte Folded Spill
	st.d	$s8, $sp, 56                    # 8-byte Folded Spill
	.cfi_offset 1, -8
	.cfi_offset 22, -16
	.cfi_offset 23, -24
	.cfi_offset 24, -32
	.cfi_offset 25, -40
	.cfi_offset 26, -48
	.cfi_offset 27, -56
	.cfi_offset 28, -64
	.cfi_offset 29, -72
	.cfi_offset 30, -80
	.cfi_offset 31, -88
	move	$fp, $a0
	ld.d	$a2, $a0, 0
	ld.d	$a0, $a0, 88
	ld.d	$a1, $fp, 80
	ld.w	$s1, $a2, 68
	ld.d	$s0, $a2, 232
	sub.d	$a2, $a0, $a1
	srai.d	$a2, $a2, 2
	addi.d	$s2, $fp, 80
	bgeu	$a2, $s1, .LBB4_2
# %bb.1:
	sub.d	$a1, $s1, $a2
	move	$a0, $s2
	pcaddu18i	$ra, %call36(_ZNSt6vectorIiSaIiEE17_M_default_appendEm)
	jirl	$ra, $ra, 0
	b	.LBB4_5
.LBB4_2:
	bgeu	$s1, $a2, .LBB4_5
# %bb.3:
	alsl.d	$a1, $s1, $a1, 2
	beq	$a0, $a1, .LBB4_5
# %bb.4:
	st.d	$a1, $fp, 88
.LBB4_5:                                # %_ZNSt6vectorIiSaIiEE6resizeEm.exit
	ori	$a0, $zero, 1
	blt	$s1, $a0, .LBB4_35
# %bb.6:                                # %.lr.ph
	move	$s6, $zero
	move	$s7, $zero
	move	$s8, $zero
	slli.d	$a2, $s1, 2
	ori	$a3, $zero, 4
	addi.w	$a0, $zero, -4
	lu52i.d	$a0, $a0, 2047
	st.d	$a0, $sp, 48                    # 8-byte Folded Spill
	addi.w	$a0, $zero, -1
	lu52i.d	$a0, $a0, 511
	st.d	$a0, $sp, 16                    # 8-byte Folded Spill
	st.d	$s0, $sp, 40                    # 8-byte Folded Spill
	st.d	$s2, $sp, 32                    # 8-byte Folded Spill
	st.d	$a2, $sp, 24                    # 8-byte Folded Spill
	b	.LBB4_10
.LBB4_7:                                # %_ZNSt6vectorIiSaIiEE17_M_realloc_appendIJRKiEEEvDpOT_.exit.i
                                        #   in Loop: Header=BB4_10 Depth=1
	add.d	$a0, $s3, $s1
	addi.d	$a0, $a0, 4
	st.d	$s3, $fp, 8
	st.d	$a0, $fp, 16
	alsl.d	$a0, $s0, $s3, 2
	st.d	$a0, $fp, 24
.LBB4_8:                                # %_ZNSt6vectorIiSaIiEE9push_backERKi.exit
                                        #   in Loop: Header=BB4_10 Depth=1
	ld.d	$s0, $sp, 40                    # 8-byte Folded Reload
	ld.d	$s2, $sp, 32                    # 8-byte Folded Reload
	ld.d	$a2, $sp, 24                    # 8-byte Folded Reload
	ori	$a3, $zero, 4
.LBB4_9:                                # %_ZNSt6vectorIiSaIiEE9push_backERKi.exit
                                        #   in Loop: Header=BB4_10 Depth=1
	ld.d	$a0, $s2, 0
	stx.w	$s8, $a0, $s6
	add.d	$s8, $s4, $s8
	addi.d	$s6, $s6, 4
	addi.d	$s7, $s7, 1
	beq	$a2, $s6, .LBB4_35
.LBB4_10:                               # =>This Inner Loop Header: Depth=1
	ldx.w	$s4, $s0, $s6
	beq	$s4, $a3, .LBB4_14
# %bb.11:                               #   in Loop: Header=BB4_10 Depth=1
	ori	$a0, $zero, 3
	bne	$s4, $a0, .LBB4_16
# %bb.12:                               #   in Loop: Header=BB4_10 Depth=1
	ld.d	$a0, $fp, 16
	ld.d	$a1, $fp, 24
	beq	$a0, $a1, .LBB4_18
# %bb.13:                               #   in Loop: Header=BB4_10 Depth=1
	st.w	$s7, $a0, 0
	addi.d	$a0, $a0, 4
	st.d	$a0, $fp, 16
	b	.LBB4_9
	.p2align	4, , 16
.LBB4_14:                               #   in Loop: Header=BB4_10 Depth=1
	ld.d	$a0, $fp, 40
	ld.d	$a1, $fp, 48
	beq	$a0, $a1, .LBB4_23
# %bb.15:                               #   in Loop: Header=BB4_10 Depth=1
	st.w	$s7, $a0, 0
	addi.d	$a0, $a0, 4
	st.d	$a0, $fp, 40
	b	.LBB4_9
	.p2align	4, , 16
.LBB4_16:                               #   in Loop: Header=BB4_10 Depth=1
	ld.d	$a0, $fp, 64
	ld.d	$a1, $fp, 72
	beq	$a0, $a1, .LBB4_29
# %bb.17:                               #   in Loop: Header=BB4_10 Depth=1
	st.w	$s7, $a0, 0
	addi.d	$a0, $a0, 4
	st.d	$a0, $fp, 64
	b	.LBB4_9
.LBB4_18:                               #   in Loop: Header=BB4_10 Depth=1
	ld.d	$s2, $fp, 8
	sub.d	$s1, $a0, $s2
	ld.d	$a0, $sp, 48                    # 8-byte Folded Reload
	beq	$s1, $a0, .LBB4_36
# %bb.19:                               # %_ZNKSt6vectorIiSaIiEE12_M_check_lenEmPKc.exit.i.i
                                        #   in Loop: Header=BB4_10 Depth=1
	srai.d	$a0, $s1, 2
	ori	$s5, $zero, 1
	sltu	$a1, $s5, $a0
	masknez	$a2, $s5, $a1
	maskeqz	$a1, $a0, $a1
	or	$a1, $a1, $a2
	add.d	$a0, $a1, $a0
	ld.d	$a2, $sp, 16                    # 8-byte Folded Reload
	sltu	$a1, $a0, $a2
	maskeqz	$a0, $a0, $a1
	masknez	$a1, $a2, $a1
	or	$s0, $a0, $a1
	slli.d	$a0, $s0, 2
	pcaddu18i	$ra, %call36(_Znwm)
	jirl	$ra, $ra, 0
	move	$s3, $a0
	stx.w	$s7, $a0, $s1
	blt	$s1, $s5, .LBB4_21
# %bb.20:                               #   in Loop: Header=BB4_10 Depth=1
	move	$a0, $s3
	move	$a1, $s2
	move	$a2, $s1
	pcaddu18i	$ra, %call36(memcpy)
	jirl	$ra, $ra, 0
.LBB4_21:                               # %_ZNSt6vectorIiSaIiEE11_S_relocateEPiS2_S2_RS0_.exit.i.i
                                        #   in Loop: Header=BB4_10 Depth=1
	beqz	$s2, .LBB4_7
# %bb.22:                               # %_ZNSt12_Vector_baseIiSaIiEE13_M_deallocateEPim.exit.i.i.i
                                        #   in Loop: Header=BB4_10 Depth=1
	move	$a0, $s2
	move	$a1, $s1
	pcaddu18i	$ra, %call36(_ZdlPvm)
	jirl	$ra, $ra, 0
	b	.LBB4_7
.LBB4_23:                               #   in Loop: Header=BB4_10 Depth=1
	ld.d	$s2, $fp, 32
	sub.d	$s1, $a0, $s2
	ld.d	$a0, $sp, 48                    # 8-byte Folded Reload
	beq	$s1, $a0, .LBB4_36
# %bb.24:                               # %_ZNKSt6vectorIiSaIiEE12_M_check_lenEmPKc.exit.i.i11
                                        #   in Loop: Header=BB4_10 Depth=1
	srai.d	$a0, $s1, 2
	ori	$s5, $zero, 1
	sltu	$a1, $s5, $a0
	masknez	$a2, $s5, $a1
	maskeqz	$a1, $a0, $a1
	or	$a1, $a1, $a2
	add.d	$a0, $a1, $a0
	ld.d	$a2, $sp, 16                    # 8-byte Folded Reload
	sltu	$a1, $a0, $a2
	maskeqz	$a0, $a0, $a1
	masknez	$a1, $a2, $a1
	or	$s0, $a0, $a1
	slli.d	$a0, $s0, 2
	pcaddu18i	$ra, %call36(_Znwm)
	jirl	$ra, $ra, 0
	move	$s3, $a0
	stx.w	$s7, $a0, $s1
	blt	$s1, $s5, .LBB4_26
# %bb.25:                               #   in Loop: Header=BB4_10 Depth=1
	move	$a0, $s3
	move	$a1, $s2
	move	$a2, $s1
	pcaddu18i	$ra, %call36(memcpy)
	jirl	$ra, $ra, 0
.LBB4_26:                               # %_ZNSt6vectorIiSaIiEE11_S_relocateEPiS2_S2_RS0_.exit.i.i13
                                        #   in Loop: Header=BB4_10 Depth=1
	beqz	$s2, .LBB4_28
# %bb.27:                               # %_ZNSt12_Vector_baseIiSaIiEE13_M_deallocateEPim.exit.i.i.i15
                                        #   in Loop: Header=BB4_10 Depth=1
	move	$a0, $s2
	move	$a1, $s1
	pcaddu18i	$ra, %call36(_ZdlPvm)
	jirl	$ra, $ra, 0
.LBB4_28:                               # %_ZNSt6vectorIiSaIiEE17_M_realloc_appendIJRKiEEEvDpOT_.exit.i16
                                        #   in Loop: Header=BB4_10 Depth=1
	add.d	$a0, $s3, $s1
	addi.d	$a0, $a0, 4
	st.d	$s3, $fp, 32
	st.d	$a0, $fp, 40
	alsl.d	$a0, $s0, $s3, 2
	st.d	$a0, $fp, 48
	b	.LBB4_8
.LBB4_29:                               #   in Loop: Header=BB4_10 Depth=1
	ld.d	$s2, $fp, 56
	sub.d	$s1, $a0, $s2
	ld.d	$a0, $sp, 48                    # 8-byte Folded Reload
	beq	$s1, $a0, .LBB4_36
# %bb.30:                               # %_ZNKSt6vectorIiSaIiEE12_M_check_lenEmPKc.exit.i.i19
                                        #   in Loop: Header=BB4_10 Depth=1
	srai.d	$a0, $s1, 2
	ori	$s5, $zero, 1
	sltu	$a1, $s5, $a0
	masknez	$a2, $s5, $a1
	maskeqz	$a1, $a0, $a1
	or	$a1, $a1, $a2
	add.d	$a0, $a1, $a0
	ld.d	$a2, $sp, 16                    # 8-byte Folded Reload
	sltu	$a1, $a0, $a2
	maskeqz	$a0, $a0, $a1
	masknez	$a1, $a2, $a1
	or	$s0, $a0, $a1
	slli.d	$a0, $s0, 2
	pcaddu18i	$ra, %call36(_Znwm)
	jirl	$ra, $ra, 0
	move	$s3, $a0
	stx.w	$s7, $a0, $s1
	blt	$s1, $s5, .LBB4_32
# %bb.31:                               #   in Loop: Header=BB4_10 Depth=1
	move	$a0, $s3
	move	$a1, $s2
	move	$a2, $s1
	pcaddu18i	$ra, %call36(memcpy)
	jirl	$ra, $ra, 0
.LBB4_32:                               # %_ZNSt6vectorIiSaIiEE11_S_relocateEPiS2_S2_RS0_.exit.i.i21
                                        #   in Loop: Header=BB4_10 Depth=1
	beqz	$s2, .LBB4_34
# %bb.33:                               # %_ZNSt12_Vector_baseIiSaIiEE13_M_deallocateEPim.exit.i.i.i23
                                        #   in Loop: Header=BB4_10 Depth=1
	move	$a0, $s2
	move	$a1, $s1
	pcaddu18i	$ra, %call36(_ZdlPvm)
	jirl	$ra, $ra, 0
.LBB4_34:                               # %_ZNSt6vectorIiSaIiEE17_M_realloc_appendIJRKiEEEvDpOT_.exit.i24
                                        #   in Loop: Header=BB4_10 Depth=1
	add.d	$a0, $s3, $s1
	addi.d	$a0, $a0, 4
	st.d	$s3, $fp, 56
	st.d	$a0, $fp, 64
	alsl.d	$a0, $s0, $s3, 2
	st.d	$a0, $fp, 72
	b	.LBB4_8
.LBB4_35:                               # %._crit_edge
	ld.d	$s8, $sp, 56                    # 8-byte Folded Reload
	ld.d	$s7, $sp, 64                    # 8-byte Folded Reload
	ld.d	$s6, $sp, 72                    # 8-byte Folded Reload
	ld.d	$s5, $sp, 80                    # 8-byte Folded Reload
	ld.d	$s4, $sp, 88                    # 8-byte Folded Reload
	ld.d	$s3, $sp, 96                    # 8-byte Folded Reload
	ld.d	$s2, $sp, 104                   # 8-byte Folded Reload
	ld.d	$s1, $sp, 112                   # 8-byte Folded Reload
	ld.d	$s0, $sp, 120                   # 8-byte Folded Reload
	ld.d	$fp, $sp, 128                   # 8-byte Folded Reload
	ld.d	$ra, $sp, 136                   # 8-byte Folded Reload
	addi.d	$sp, $sp, 144
	ret
.LBB4_36:
	pcalau12i	$a0, %pc_hi20(.L.str.35)
	addi.d	$a0, $a0, %pc_lo12(.L.str.35)
	pcaddu18i	$ra, %call36(_ZSt20__throw_length_errorPKc)
	jirl	$ra, $ra, 0
.Lfunc_end4:
	.size	_ZN10ExportGold9sortZonesEv, .Lfunc_end4-_ZN10ExportGold9sortZonesEv
	.cfi_endproc
                                        # -- End function
	.globl	_ZN10ExportGold12writeGeoFileERKNSt7__cxx1112basic_stringIcSt11char_traitsIcESaIcEEEid # -- Begin function _ZN10ExportGold12writeGeoFileERKNSt7__cxx1112basic_stringIcSt11char_traitsIcESaIcEEEid
	.p2align	2
	.type	_ZN10ExportGold12writeGeoFileERKNSt7__cxx1112basic_stringIcSt11char_traitsIcESaIcEEEid,@function
_ZN10ExportGold12writeGeoFileERKNSt7__cxx1112basic_stringIcSt11char_traitsIcESaIcEEEid: # @_ZN10ExportGold12writeGeoFileERKNSt7__cxx1112basic_stringIcSt11char_traitsIcESaIcEEEid
.Lfunc_begin2:
	.cfi_startproc
	.cfi_personality 155, DW.ref.__gxx_personality_v0
	.cfi_lsda 27, .Lexception2
# %bb.0:
	addi.d	$sp, $sp, -960
	.cfi_def_cfa_offset 960
	st.d	$ra, $sp, 952                   # 8-byte Folded Spill
	st.d	$fp, $sp, 944                   # 8-byte Folded Spill
	st.d	$s0, $sp, 936                   # 8-byte Folded Spill
	st.d	$s1, $sp, 928                   # 8-byte Folded Spill
	st.d	$s2, $sp, 920                   # 8-byte Folded Spill
	st.d	$s3, $sp, 912                   # 8-byte Folded Spill
	st.d	$s4, $sp, 904                   # 8-byte Folded Spill
	st.d	$s5, $sp, 896                   # 8-byte Folded Spill
	st.d	$s6, $sp, 888                   # 8-byte Folded Spill
	st.d	$s7, $sp, 880                   # 8-byte Folded Spill
	st.d	$s8, $sp, 872                   # 8-byte Folded Spill
	fst.d	$fs0, $sp, 864                  # 8-byte Folded Spill
	.cfi_offset 1, -8
	.cfi_offset 22, -16
	.cfi_offset 23, -24
	.cfi_offset 24, -32
	.cfi_offset 25, -40
	.cfi_offset 26, -48
	.cfi_offset 27, -56
	.cfi_offset 28, -64
	.cfi_offset 29, -72
	.cfi_offset 30, -80
	.cfi_offset 31, -88
	.cfi_offset 56, -96
	fmov.d	$fs0, $fa0
	move	$fp, $a2
	move	$s2, $a1
	move	$s4, $a0
	addi.d	$a0, $sp, 352
	pcaddu18i	$ra, %call36(_ZNSt14basic_ofstreamIcSt11char_traitsIcEEC1Ev)
	jirl	$ra, $ra, 0
	pcalau12i	$a0, %got_pc_hi20(_ZN8Parallel4mypeE)
	ld.d	$s3, $a0, %got_pc_lo12(_ZN8Parallel4mypeE)
	ld.w	$a0, $s3, 0
	st.d	$s3, $sp, 200                   # 8-byte Folded Spill
	bnez	$a0, .LBB5_73
# %bb.1:
	ld.d	$s0, $s2, 0
	ld.d	$s2, $s2, 8
	addi.d	$s3, $sp, 336
	st.d	$s3, $sp, 320
	st.d	$zero, $sp, 328
	st.b	$zero, $sp, 336
	addi.d	$a1, $s2, 4
.Ltmp162:                               # EH_LABEL
	addi.d	$a0, $sp, 320
	pcaddu18i	$ra, %call36(_ZNSt7__cxx1112basic_stringIcSt11char_traitsIcESaIcEE7reserveEm)
	jirl	$ra, $ra, 0
.Ltmp163:                               # EH_LABEL
# %bb.2:
	ld.d	$a0, $sp, 328
	addi.w	$a1, $zero, -2
	lu52i.d	$a1, $a1, 2047
	sub.d	$a0, $a1, $a0
	bltu	$a0, $s2, .LBB5_497
# %bb.3:                                # %_ZNKSt7__cxx1112basic_stringIcSt11char_traitsIcESaIcEE15_M_check_lengthEmmPKc.exit.i.i.i
.Ltmp164:                               # EH_LABEL
	addi.d	$a0, $sp, 320
	move	$a1, $s0
	move	$a2, $s2
	pcaddu18i	$ra, %call36(_ZNSt7__cxx1112basic_stringIcSt11char_traitsIcESaIcEE9_M_appendEPKcm)
	jirl	$ra, $ra, 0
.Ltmp165:                               # EH_LABEL
# %bb.4:                                # %_ZNSt7__cxx1112basic_stringIcSt11char_traitsIcESaIcEE6appendEPKcm.exit.i.i
	ld.d	$a0, $sp, 328
	addi.w	$a1, $zero, -5
	lu52i.d	$a1, $a1, 2047
	bgeu	$a0, $a1, .LBB5_497
# %bb.5:                                # %_ZNKSt7__cxx1112basic_stringIcSt11char_traitsIcESaIcEE15_M_check_lengthEmmPKc.exit.i10.i.i
.Ltmp166:                               # EH_LABEL
	pcalau12i	$a0, %pc_hi20(.L.str.12)
	addi.d	$a1, $a0, %pc_lo12(.L.str.12)
	addi.d	$a0, $sp, 320
	ori	$a2, $zero, 4
	pcaddu18i	$ra, %call36(_ZNSt7__cxx1112basic_stringIcSt11char_traitsIcESaIcEE9_M_appendEPKcm)
	jirl	$ra, $ra, 0
.Ltmp167:                               # EH_LABEL
# %bb.6:                                # %_ZStplIcSt11char_traitsIcESaIcEENSt7__cxx1112basic_stringIT_T0_T1_EERKS8_PKS5_.exit
	ld.d	$a1, $sp, 320
	addi.d	$a0, $sp, 360
.Ltmp168:                               # EH_LABEL
	ori	$a2, $zero, 16
	pcaddu18i	$ra, %call36(_ZNSt13basic_filebufIcSt11char_traitsIcEE4openEPKcSt13_Ios_Openmode)
	jirl	$ra, $ra, 0
	move	$a1, $a0
.Ltmp169:                               # EH_LABEL
# %bb.7:                                # %.noexc
	ld.d	$a0, $sp, 352
	ld.d	$a0, $a0, -24
	addi.d	$a2, $sp, 352
	add.d	$a0, $a2, $a0
	beqz	$a1, .LBB5_9
# %bb.8:
	move	$a1, $zero
	b	.LBB5_10
.LBB5_9:
	ld.w	$a1, $a0, 32
	ori	$a1, $a1, 4
.LBB5_10:
.Ltmp170:                               # EH_LABEL
	pcaddu18i	$ra, %call36(_ZNSt9basic_iosIcSt11char_traitsIcEE5clearESt12_Ios_Iostate)
	jirl	$ra, $ra, 0
.Ltmp171:                               # EH_LABEL
# %bb.11:                               # %_ZNSt14basic_ofstreamIcSt11char_traitsIcEE4openEPKcSt13_Ios_Openmode.exit
	ld.d	$a0, $sp, 352
	ld.d	$a0, $a0, -24
	addi.d	$a1, $sp, 352
	add.d	$a0, $a1, $a0
	ld.w	$a0, $a0, 32
	bnez	$a0, .LBB5_503
# %bb.12:
	ld.d	$a0, $sp, 320
	beq	$a0, $s3, .LBB5_14
# %bb.13:                               # %_ZNKSt7__cxx1112basic_stringIcSt11char_traitsIcESaIcEE11_M_is_localEv.exit.i.i240
	ld.d	$a1, $sp, 336
	addi.d	$a1, $a1, 1
	pcaddu18i	$ra, %call36(_ZdlPvm)
	jirl	$ra, $ra, 0
.LBB5_14:
	ld.d	$s3, $sp, 200                   # 8-byte Folded Reload
	ld.w	$a0, $s3, 0
	bnez	$a0, .LBB5_73
# %bb.15:
	ld.d	$a0, $sp, 352
	ld.d	$a0, $a0, -24
	addi.d	$s0, $sp, 352
	add.d	$a0, $s0, $a0
	ld.wu	$a1, $a0, 24
	addi.w	$a2, $zero, -261
	lu32i.d	$a2, 0
	and	$a1, $a1, $a2
	addi.d	$a1, $a1, 256
	st.w	$a1, $a0, 24
.Ltmp181:                               # EH_LABEL
	pcalau12i	$a0, %pc_hi20(.L.str.20)
	addi.d	$a1, $a0, %pc_lo12(.L.str.20)
	addi.d	$a0, $sp, 352
	ori	$a2, $zero, 8
	ori	$s1, $zero, 8
	pcaddu18i	$ra, %call36(_ZSt16__ostream_insertIcSt11char_traitsIcEERSt13basic_ostreamIT_T0_ES6_PKS3_l)
	jirl	$ra, $ra, 0
.Ltmp182:                               # EH_LABEL
# %bb.16:
	ld.d	$a0, $sp, 352
	ld.d	$a0, $a0, -24
	add.d	$a0, $s0, $a0
	st.d	$s1, $a0, 16
.Ltmp183:                               # EH_LABEL
	addi.d	$a0, $sp, 352
	move	$a1, $fp
	pcaddu18i	$ra, %call36(_ZNSolsEi)
	jirl	$ra, $ra, 0
.Ltmp184:                               # EH_LABEL
# %bb.17:
	move	$fp, $a0
	ld.d	$a0, $a0, 0
	ld.d	$a0, $a0, -24
	add.d	$a0, $fp, $a0
	ld.d	$s0, $a0, 240
	beqz	$s0, .LBB5_495
# %bb.18:                               # %_ZSt13__check_facetISt5ctypeIcEERKT_PS3_.exit.i.i
	ld.bu	$a0, $s0, 56
	beqz	$a0, .LBB5_20
# %bb.19:
	ld.bu	$a0, $s0, 67
	b	.LBB5_22
.LBB5_20:
.Ltmp185:                               # EH_LABEL
	move	$a0, $s0
	pcaddu18i	$ra, %call36(_ZNKSt5ctypeIcE13_M_widen_initEv)
	jirl	$ra, $ra, 0
.Ltmp186:                               # EH_LABEL
# %bb.21:                               # %.noexc545
	ld.d	$a0, $s0, 0
	ld.d	$a2, $a0, 48
.Ltmp187:                               # EH_LABEL
	ori	$a1, $zero, 10
	move	$a0, $s0
	jirl	$ra, $a2, 0
.Ltmp188:                               # EH_LABEL
.LBB5_22:                               # %_ZNKSt9basic_iosIcSt11char_traitsIcEE5widenEc.exit.i
.Ltmp189:                               # EH_LABEL
	ext.w.b	$a1, $a0
	move	$a0, $fp
	pcaddu18i	$ra, %call36(_ZNSo3putEc)
	jirl	$ra, $ra, 0
.Ltmp190:                               # EH_LABEL
# %bb.23:                               # %.noexc547
.Ltmp191:                               # EH_LABEL
	pcaddu18i	$ra, %call36(_ZNSo5flushEv)
	jirl	$ra, $ra, 0
.Ltmp192:                               # EH_LABEL
# %bb.24:
	ld.d	$a0, $sp, 352
	ld.d	$a0, $a0, -24
	addi.d	$fp, $sp, 352
	add.d	$a0, $fp, $a0
	ori	$a1, $zero, 8
	st.d	$a1, $a0, 8
.Ltmp193:                               # EH_LABEL
	pcalau12i	$a0, %pc_hi20(.L.str.21)
	addi.d	$a1, $a0, %pc_lo12(.L.str.21)
	addi.d	$a0, $sp, 352
	ori	$a2, $zero, 4
	pcaddu18i	$ra, %call36(_ZSt16__ostream_insertIcSt11char_traitsIcEERSt13basic_ostreamIT_T0_ES6_PKS3_l)
	jirl	$ra, $ra, 0
.Ltmp194:                               # EH_LABEL
# %bb.25:
	ld.d	$a0, $sp, 352
	ld.d	$a0, $a0, -24
	add.d	$a0, $fp, $a0
	ori	$a1, $zero, 15
	st.d	$a1, $a0, 16
.Ltmp195:                               # EH_LABEL
	addi.d	$a0, $sp, 352
	fmov.d	$fa0, $fs0
	pcaddu18i	$ra, %call36(_ZNSo9_M_insertIdEERSoT_)
	jirl	$ra, $ra, 0
.Ltmp196:                               # EH_LABEL
# %bb.26:                               # %_ZNSolsEd.exit
	move	$fp, $a0
	ld.d	$a0, $a0, 0
	ld.d	$a0, $a0, -24
	add.d	$a0, $fp, $a0
	ld.d	$s0, $a0, 240
	beqz	$s0, .LBB5_495
# %bb.27:                               # %_ZSt13__check_facetISt5ctypeIcEERKT_PS3_.exit.i.i550
	ld.bu	$a0, $s0, 56
	beqz	$a0, .LBB5_29
# %bb.28:
	ld.bu	$a0, $s0, 67
	b	.LBB5_31
.LBB5_29:
.Ltmp197:                               # EH_LABEL
	move	$a0, $s0
	pcaddu18i	$ra, %call36(_ZNKSt5ctypeIcE13_M_widen_initEv)
	jirl	$ra, $ra, 0
.Ltmp198:                               # EH_LABEL
# %bb.30:                               # %.noexc555
	ld.d	$a0, $s0, 0
	ld.d	$a2, $a0, 48
.Ltmp199:                               # EH_LABEL
	ori	$a1, $zero, 10
	move	$a0, $s0
	jirl	$ra, $a2, 0
.Ltmp200:                               # EH_LABEL
.LBB5_31:                               # %_ZNKSt9basic_iosIcSt11char_traitsIcEE5widenEc.exit.i552
.Ltmp201:                               # EH_LABEL
	ext.w.b	$a1, $a0
	move	$a0, $fp
	pcaddu18i	$ra, %call36(_ZNSo3putEc)
	jirl	$ra, $ra, 0
.Ltmp202:                               # EH_LABEL
# %bb.32:                               # %.noexc557
.Ltmp203:                               # EH_LABEL
	pcaddu18i	$ra, %call36(_ZNSo5flushEv)
	jirl	$ra, $ra, 0
.Ltmp204:                               # EH_LABEL
# %bb.33:                               # %_ZNSolsEPFRSoS_E.exit254
.Ltmp205:                               # EH_LABEL
	pcalau12i	$a0, %pc_hi20(.L.str.22)
	addi.d	$a1, $a0, %pc_lo12(.L.str.22)
	addi.d	$a0, $sp, 352
	ori	$a2, $zero, 14
	addi.d	$fp, $sp, 352
	pcaddu18i	$ra, %call36(_ZSt16__ostream_insertIcSt11char_traitsIcEERSt13basic_ostreamIT_T0_ES6_PKS3_l)
	jirl	$ra, $ra, 0
.Ltmp206:                               # EH_LABEL
# %bb.34:                               # %_ZStlsISt11char_traitsIcEERSt13basic_ostreamIcT_ES5_PKc.exit256
	ld.d	$a0, $sp, 352
	ld.d	$a0, $a0, -24
	add.d	$a0, $fp, $a0
	ld.d	$fp, $a0, 240
	beqz	$fp, .LBB5_495
# %bb.35:                               # %_ZSt13__check_facetISt5ctypeIcEERKT_PS3_.exit.i.i561
	ld.bu	$a0, $fp, 56
	beqz	$a0, .LBB5_37
# %bb.36:
	ld.bu	$a0, $fp, 67
	b	.LBB5_39
.LBB5_37:
.Ltmp207:                               # EH_LABEL
	move	$a0, $fp
	pcaddu18i	$ra, %call36(_ZNKSt5ctypeIcE13_M_widen_initEv)
	jirl	$ra, $ra, 0
.Ltmp208:                               # EH_LABEL
# %bb.38:                               # %.noexc566
	ld.d	$a0, $fp, 0
	ld.d	$a2, $a0, 48
.Ltmp209:                               # EH_LABEL
	ori	$a1, $zero, 10
	move	$a0, $fp
	jirl	$ra, $a2, 0
.Ltmp210:                               # EH_LABEL
.LBB5_39:                               # %_ZNKSt9basic_iosIcSt11char_traitsIcEE5widenEc.exit.i563
.Ltmp211:                               # EH_LABEL
	ext.w.b	$a1, $a0
	addi.d	$a0, $sp, 352
	pcaddu18i	$ra, %call36(_ZNSo3putEc)
	jirl	$ra, $ra, 0
.Ltmp212:                               # EH_LABEL
# %bb.40:                               # %.noexc568
.Ltmp213:                               # EH_LABEL
	pcaddu18i	$ra, %call36(_ZNSo5flushEv)
	jirl	$ra, $ra, 0
.Ltmp214:                               # EH_LABEL
# %bb.41:                               # %_ZNSolsEPFRSoS_E.exit258
.Ltmp215:                               # EH_LABEL
	pcalau12i	$a0, %pc_hi20(.L.str.23)
	addi.d	$a1, $a0, %pc_lo12(.L.str.23)
	addi.d	$a0, $sp, 352
	ori	$a2, $zero, 16
	addi.d	$fp, $sp, 352
	pcaddu18i	$ra, %call36(_ZSt16__ostream_insertIcSt11char_traitsIcEERSt13basic_ostreamIT_T0_ES6_PKS3_l)
	jirl	$ra, $ra, 0
.Ltmp216:                               # EH_LABEL
# %bb.42:                               # %_ZStlsISt11char_traitsIcEERSt13basic_ostreamIcT_ES5_PKc.exit260
	ld.d	$a0, $sp, 352
	ld.d	$a0, $a0, -24
	add.d	$a0, $fp, $a0
	ld.d	$fp, $a0, 240
	beqz	$fp, .LBB5_495
# %bb.43:                               # %_ZSt13__check_facetISt5ctypeIcEERKT_PS3_.exit.i.i572
	ld.bu	$a0, $fp, 56
	beqz	$a0, .LBB5_45
# %bb.44:
	ld.bu	$a0, $fp, 67
	b	.LBB5_47
.LBB5_45:
.Ltmp217:                               # EH_LABEL
	move	$a0, $fp
	pcaddu18i	$ra, %call36(_ZNKSt5ctypeIcE13_M_widen_initEv)
	jirl	$ra, $ra, 0
.Ltmp218:                               # EH_LABEL
# %bb.46:                               # %.noexc577
	ld.d	$a0, $fp, 0
	ld.d	$a2, $a0, 48
.Ltmp219:                               # EH_LABEL
	ori	$a1, $zero, 10
	move	$a0, $fp
	jirl	$ra, $a2, 0
.Ltmp220:                               # EH_LABEL
.LBB5_47:                               # %_ZNKSt9basic_iosIcSt11char_traitsIcEE5widenEc.exit.i574
.Ltmp221:                               # EH_LABEL
	ext.w.b	$a1, $a0
	addi.d	$a0, $sp, 352
	pcaddu18i	$ra, %call36(_ZNSo3putEc)
	jirl	$ra, $ra, 0
.Ltmp222:                               # EH_LABEL
# %bb.48:                               # %.noexc579
.Ltmp223:                               # EH_LABEL
	pcaddu18i	$ra, %call36(_ZNSo5flushEv)
	jirl	$ra, $ra, 0
.Ltmp224:                               # EH_LABEL
# %bb.49:                               # %_ZNSolsEPFRSoS_E.exit262
.Ltmp225:                               # EH_LABEL
	pcalau12i	$a0, %pc_hi20(.L.str.24)
	addi.d	$a1, $a0, %pc_lo12(.L.str.24)
	addi.d	$a0, $sp, 352
	ori	$a2, $zero, 4
	addi.d	$fp, $sp, 352
	pcaddu18i	$ra, %call36(_ZSt16__ostream_insertIcSt11char_traitsIcEERSt13basic_ostreamIT_T0_ES6_PKS3_l)
	jirl	$ra, $ra, 0
.Ltmp226:                               # EH_LABEL
# %bb.50:                               # %_ZStlsISt11char_traitsIcEERSt13basic_ostreamIcT_ES5_PKc.exit264
	ld.d	$a0, $sp, 352
	ld.d	$a0, $a0, -24
	add.d	$a0, $fp, $a0
	ld.d	$fp, $a0, 240
	beqz	$fp, .LBB5_495
# %bb.51:                               # %_ZSt13__check_facetISt5ctypeIcEERKT_PS3_.exit.i.i583
	ld.bu	$a0, $fp, 56
	beqz	$a0, .LBB5_53
# %bb.52:
	ld.bu	$a0, $fp, 67
	b	.LBB5_55
.LBB5_53:
.Ltmp227:                               # EH_LABEL
	move	$a0, $fp
	pcaddu18i	$ra, %call36(_ZNKSt5ctypeIcE13_M_widen_initEv)
	jirl	$ra, $ra, 0
.Ltmp228:                               # EH_LABEL
# %bb.54:                               # %.noexc588
	ld.d	$a0, $fp, 0
	ld.d	$a2, $a0, 48
.Ltmp229:                               # EH_LABEL
	ori	$a1, $zero, 10
	move	$a0, $fp
	jirl	$ra, $a2, 0
.Ltmp230:                               # EH_LABEL
.LBB5_55:                               # %_ZNKSt9basic_iosIcSt11char_traitsIcEE5widenEc.exit.i585
.Ltmp231:                               # EH_LABEL
	ext.w.b	$a1, $a0
	addi.d	$a0, $sp, 352
	pcaddu18i	$ra, %call36(_ZNSo3putEc)
	jirl	$ra, $ra, 0
.Ltmp232:                               # EH_LABEL
# %bb.56:                               # %.noexc590
.Ltmp233:                               # EH_LABEL
	pcaddu18i	$ra, %call36(_ZNSo5flushEv)
	jirl	$ra, $ra, 0
.Ltmp234:                               # EH_LABEL
# %bb.57:
	ld.d	$a0, $sp, 352
	ld.d	$a0, $a0, -24
	addi.d	$a1, $sp, 352
	add.d	$a0, $a1, $a0
	ori	$a1, $zero, 10
	st.d	$a1, $a0, 16
.Ltmp235:                               # EH_LABEL
	addi.d	$a0, $sp, 352
	ori	$a1, $zero, 1
	pcaddu18i	$ra, %call36(_ZNSolsEi)
	jirl	$ra, $ra, 0
.Ltmp236:                               # EH_LABEL
# %bb.58:
	move	$fp, $a0
	ld.d	$a0, $a0, 0
	ld.d	$a0, $a0, -24
	add.d	$a0, $fp, $a0
	ld.d	$s0, $a0, 240
	beqz	$s0, .LBB5_495
# %bb.59:                               # %_ZSt13__check_facetISt5ctypeIcEERKT_PS3_.exit.i.i594
	ld.bu	$a0, $s0, 56
	beqz	$a0, .LBB5_61
# %bb.60:
	ld.bu	$a0, $s0, 67
	b	.LBB5_63
.LBB5_61:
.Ltmp237:                               # EH_LABEL
	move	$a0, $s0
	pcaddu18i	$ra, %call36(_ZNKSt5ctypeIcE13_M_widen_initEv)
	jirl	$ra, $ra, 0
.Ltmp238:                               # EH_LABEL
# %bb.62:                               # %.noexc599
	ld.d	$a0, $s0, 0
	ld.d	$a2, $a0, 48
.Ltmp239:                               # EH_LABEL
	ori	$a1, $zero, 10
	move	$a0, $s0
	jirl	$ra, $a2, 0
.Ltmp240:                               # EH_LABEL
.LBB5_63:                               # %_ZNKSt9basic_iosIcSt11char_traitsIcEE5widenEc.exit.i596
.Ltmp241:                               # EH_LABEL
	ext.w.b	$a1, $a0
	move	$a0, $fp
	pcaddu18i	$ra, %call36(_ZNSo3putEc)
	jirl	$ra, $ra, 0
.Ltmp242:                               # EH_LABEL
# %bb.64:                               # %.noexc601
.Ltmp243:                               # EH_LABEL
	pcaddu18i	$ra, %call36(_ZNSo5flushEv)
	jirl	$ra, $ra, 0
.Ltmp244:                               # EH_LABEL
# %bb.65:                               # %_ZNSolsEPFRSoS_E.exit269
.Ltmp245:                               # EH_LABEL
	pcalau12i	$a0, %pc_hi20(.L.str.25)
	addi.d	$a1, $a0, %pc_lo12(.L.str.25)
	addi.d	$a0, $sp, 352
	ori	$a2, $zero, 8
	addi.d	$fp, $sp, 352
	pcaddu18i	$ra, %call36(_ZSt16__ostream_insertIcSt11char_traitsIcEERSt13basic_ostreamIT_T0_ES6_PKS3_l)
	jirl	$ra, $ra, 0
.Ltmp246:                               # EH_LABEL
# %bb.66:                               # %_ZStlsISt11char_traitsIcEERSt13basic_ostreamIcT_ES5_PKc.exit271
	ld.d	$a0, $sp, 352
	ld.d	$a0, $a0, -24
	add.d	$a0, $fp, $a0
	ld.d	$fp, $a0, 240
	beqz	$fp, .LBB5_495
# %bb.67:                               # %_ZSt13__check_facetISt5ctypeIcEERKT_PS3_.exit.i.i605
	ld.bu	$a0, $fp, 56
	beqz	$a0, .LBB5_69
# %bb.68:
	ld.bu	$a0, $fp, 67
	b	.LBB5_71
.LBB5_69:
.Ltmp247:                               # EH_LABEL
	move	$a0, $fp
	pcaddu18i	$ra, %call36(_ZNKSt5ctypeIcE13_M_widen_initEv)
	jirl	$ra, $ra, 0
.Ltmp248:                               # EH_LABEL
# %bb.70:                               # %.noexc610
	ld.d	$a0, $fp, 0
	ld.d	$a2, $a0, 48
.Ltmp249:                               # EH_LABEL
	ori	$a1, $zero, 10
	move	$a0, $fp
	jirl	$ra, $a2, 0
.Ltmp250:                               # EH_LABEL
.LBB5_71:                               # %_ZNKSt9basic_iosIcSt11char_traitsIcEE5widenEc.exit.i607
.Ltmp251:                               # EH_LABEL
	ext.w.b	$a1, $a0
	addi.d	$a0, $sp, 352
	pcaddu18i	$ra, %call36(_ZNSo3putEc)
	jirl	$ra, $ra, 0
.Ltmp252:                               # EH_LABEL
# %bb.72:                               # %.noexc612
.Ltmp253:                               # EH_LABEL
	pcaddu18i	$ra, %call36(_ZNSo5flushEv)
	jirl	$ra, $ra, 0
.Ltmp254:                               # EH_LABEL
.LBB5_73:                               # %_ZNSolsEPFRSoS_E.exit273
	ld.d	$a0, $s4, 0
	ld.w	$fp, $a0, 60
	ld.d	$s0, $a0, 240
	st.w	$fp, $sp, 320
.Ltmp255:                               # EH_LABEL
	addi.d	$a0, $sp, 320
	pcaddu18i	$ra, %call36(_ZN8Parallel9globalSumERi)
	jirl	$ra, $ra, 0
.Ltmp256:                               # EH_LABEL
# %bb.74:
	pcalau12i	$a0, %got_pc_hi20(_ZN8Parallel5numpeE)
	ld.d	$s8, $a0, %got_pc_lo12(_ZN8Parallel5numpeE)
	ld.w	$a0, $s3, 0
	ld.w	$a1, $s8, 0
	sltui	$a0, $a0, 1
	maskeqz	$s1, $a1, $a0
	addi.w	$a0, $zero, -1
	st.d	$a0, $sp, 224                   # 8-byte Folded Spill
	bge	$a0, $s1, .LBB5_475
# %bb.75:                               # %_ZNSt6vectorIiSaIiEE17_S_check_init_lenEmRKS0_.exit.i
	st.d	$s4, $sp, 272                   # 8-byte Folded Spill
	beqz	$s1, .LBB5_80
# %bb.76:
	slli.d	$s3, $s1, 2
.Ltmp258:                               # EH_LABEL
	move	$a0, $s3
	pcaddu18i	$ra, %call36(_Znwm)
	jirl	$ra, $ra, 0
.Ltmp259:                               # EH_LABEL
# %bb.77:                               # %.noexc275
	move	$s5, $a0
	alsl.d	$a0, $s1, $a0, 2
	st.d	$a0, $sp, 136                   # 8-byte Folded Spill
	st.w	$zero, $s5, 0
	ori	$a0, $zero, 1
	addi.d	$s2, $s5, 4
	beq	$s1, $a0, .LBB5_79
# %bb.78:                               # %.lr.ph.i.preheader.i.i.i.i.i
	add.d	$s1, $s5, $s3
	addi.d	$a2, $s3, -4
	move	$a0, $s2
	move	$a1, $zero
	pcaddu18i	$ra, %call36(memset)
	jirl	$ra, $ra, 0
	move	$s2, $s1
.LBB5_79:                               # %_ZNSt6vectorIiSaIiEEC2EmRKS0_.exit
	ld.d	$s3, $sp, 200                   # 8-byte Folded Reload
	b	.LBB5_81
.LBB5_80:
	st.d	$zero, $sp, 136                 # 8-byte Folded Spill
	move	$s5, $zero
	move	$s2, $zero
.LBB5_81:                               # %_ZNSt6vectorIiSaIiEEC2EmRKS0_.exit
.Ltmp260:                               # EH_LABEL
	move	$a0, $fp
	move	$a1, $s5
	pcaddu18i	$ra, %call36(_ZN8Parallel6gatherEiPi)
	jirl	$ra, $ra, 0
.Ltmp261:                               # EH_LABEL
# %bb.82:
	ld.w	$a0, $s3, 0
	ld.w	$a1, $s8, 0
	sltui	$a0, $a0, 1
	addi.w	$a1, $a1, 1
	ori	$a2, $zero, 1
	masknez	$a2, $a2, $a0
	maskeqz	$a0, $a1, $a0
	or	$s1, $a0, $a2
	ld.d	$a0, $sp, 224                   # 8-byte Folded Reload
	bge	$a0, $s1, .LBB5_477
# %bb.83:                               # %_ZNSt6vectorIiSaIiEE17_S_check_init_lenEmRKS0_.exit.i276
	beqz	$s1, .LBB5_88
# %bb.84:
	slli.d	$s3, $s1, 2
.Ltmp263:                               # EH_LABEL
	move	$a0, $s3
	pcaddu18i	$ra, %call36(_Znwm)
	jirl	$ra, $ra, 0
.Ltmp264:                               # EH_LABEL
# %bb.85:                               # %.noexc282
	move	$s4, $a0
	alsl.d	$a0, $s1, $a0, 2
	st.d	$a0, $sp, 120                   # 8-byte Folded Spill
	ori	$a0, $zero, 1
	st.w	$zero, $s4, 0
	beq	$s1, $a0, .LBB5_87
# %bb.86:                               # %.lr.ph.i.preheader.i.i.i.i.i278
	addi.d	$a0, $s4, 4
	addi.d	$a2, $s3, -4
	move	$a1, $zero
	pcaddu18i	$ra, %call36(memset)
	jirl	$ra, $ra, 0
.LBB5_87:                               # %_ZNSt6vectorIiSaIiEEC2EmRKS0_.exit283
	ld.d	$s3, $sp, 200                   # 8-byte Folded Reload
	bne	$s5, $s2, .LBB5_89
	b	.LBB5_92
.LBB5_88:
	st.d	$zero, $sp, 120                 # 8-byte Folded Spill
	move	$s4, $zero
	beq	$s5, $s2, .LBB5_92
.LBB5_89:
	ld.w	$a0, $s5, 0
	addi.d	$a1, $s5, 4
	st.w	$a0, $s4, 4
	beq	$a1, $s2, .LBB5_92
# %bb.90:                               # %.lr.ph.i.preheader
	addi.d	$a2, $s4, 8
	.p2align	4, , 16
.LBB5_91:                               # %.lr.ph.i
                                        # =>This Inner Loop Header: Depth=1
	ld.w	$a3, $a1, 0
	add.d	$a0, $a3, $a0
	st.w	$a0, $a2, 0
	addi.d	$a1, $a1, 4
	addi.d	$a2, $a2, 4
	bne	$a1, $s2, .LBB5_91
.LBB5_92:                               # %_ZSt11partial_sumIN9__gnu_cxx17__normal_iteratorIPiSt6vectorIiSaIiEEEES2_ET0_T_S8_S7_.exit
.Ltmp265:                               # EH_LABEL
	addi.d	$a1, $sp, 316
	move	$a0, $s4
	st.d	$s4, $sp, 128                   # 8-byte Folded Spill
	pcaddu18i	$ra, %call36(_ZN8Parallel7scatterEPKiRi)
	jirl	$ra, $ra, 0
.Ltmp266:                               # EH_LABEL
# %bb.93:
	ld.w	$a0, $s3, 0
	ld.w	$a1, $sp, 320
	sltui	$a0, $a0, 1
	maskeqz	$s1, $a1, $a0
	ld.d	$a0, $sp, 224                   # 8-byte Folded Reload
	bge	$a0, $s1, .LBB5_479
# %bb.94:                               # %_ZNSt6vectorI7double2SaIS0_EE17_S_check_init_lenEmRKS1_.exit.i
	beqz	$s1, .LBB5_97
# %bb.95:                               # %.lr.ph.preheader.i.i.i.i.i
	slli.d	$s2, $s1, 4
.Ltmp268:                               # EH_LABEL
	move	$a0, $s2
	pcaddu18i	$ra, %call36(_Znwm)
	jirl	$ra, $ra, 0
.Ltmp269:                               # EH_LABEL
# %bb.96:                               # %.noexc288
	move	$s6, $a0
	alsl.d	$a0, $s1, $a0, 4
	st.d	$a0, $sp, 112                   # 8-byte Folded Spill
	move	$a0, $s6
	move	$a1, $zero
	move	$a2, $s2
	pcaddu18i	$ra, %call36(memset)
	jirl	$ra, $ra, 0
	b	.LBB5_98
.LBB5_97:
	move	$s6, $zero
	st.d	$zero, $sp, 112                 # 8-byte Folded Spill
.LBB5_98:                               # %_ZNSt6vectorI7double2SaIS0_EEC2EmRKS1_.exit
.Ltmp270:                               # EH_LABEL
	move	$a0, $s0
	move	$a1, $fp
	move	$a2, $s6
	move	$a3, $s5
	pcaddu18i	$ra, %call36(_ZN8Parallel7gathervI7double2EEvPKT_iPS2_PKi)
	jirl	$ra, $ra, 0
.Ltmp271:                               # EH_LABEL
# %bb.99:
	ld.w	$a0, $s3, 0
	st.d	$s6, $sp, 288                   # 8-byte Folded Spill
	beqz	$a0, .LBB5_104
.LBB5_100:                              # %.loopexit1095
	st.d	$s5, $sp, 104                   # 8-byte Folded Spill
	ld.d	$s3, $sp, 272                   # 8-byte Folded Reload
	ld.d	$a0, $s3, 0
	ld.d	$a1, $a0, 232
	st.d	$a1, $sp, 248                   # 8-byte Folded Spill
	ld.d	$a0, $a0, 88
	st.d	$a0, $sp, 232                   # 8-byte Folded Spill
	ld.d	$fp, $s3, 16
	ld.d	$s5, $s3, 8
	ld.d	$s1, $s3, 40
	ld.d	$s4, $s3, 32
	ld.d	$s0, $s3, 64
	ld.d	$a0, $sp, 200                   # 8-byte Folded Reload
	ld.w	$a0, $a0, 0
	ld.d	$s2, $s3, 56
	bnez	$a0, .LBB5_122
# %bb.101:
	ld.d	$a0, $s3, 112
	ld.d	$a2, $s3, 104
	ld.w	$a1, $s8, 0
	sub.d	$a3, $a0, $a2
	srai.d	$a3, $a3, 2
	bgeu	$a3, $a1, .LBB5_108
# %bb.102:
	addi.d	$a0, $s3, 104
	sub.d	$a1, $a1, $a3
.Ltmp325:                               # EH_LABEL
	pcaddu18i	$ra, %call36(_ZNSt6vectorIiSaIiEE17_M_default_appendEm)
	jirl	$ra, $ra, 0
.Ltmp326:                               # EH_LABEL
# %bb.103:                              # %._ZNSt6vectorIiSaIiEE6resizeEm.exit_crit_edge
	ld.w	$a1, $s8, 0
	b	.LBB5_111
.LBB5_104:
.Ltmp272:                               # EH_LABEL
	pcalau12i	$a0, %pc_hi20(.L.str.26)
	addi.d	$a1, $a0, %pc_lo12(.L.str.26)
	addi.d	$a0, $sp, 352
	ori	$a2, $zero, 11
	addi.d	$fp, $sp, 352
	pcaddu18i	$ra, %call36(_ZSt16__ostream_insertIcSt11char_traitsIcEERSt13basic_ostreamIT_T0_ES6_PKS3_l)
	jirl	$ra, $ra, 0
.Ltmp273:                               # EH_LABEL
# %bb.105:                              # %_ZStlsISt11char_traitsIcEERSt13basic_ostreamIcT_ES5_PKc.exit290
	ld.d	$a0, $sp, 352
	ld.d	$a0, $a0, -24
	add.d	$a0, $fp, $a0
	ld.d	$fp, $a0, 240
	beqz	$fp, .LBB5_499
# %bb.106:                              # %_ZSt13__check_facetISt5ctypeIcEERKT_PS3_.exit.i.i616
	ld.bu	$a0, $fp, 56
	beqz	$a0, .LBB5_408
# %bb.107:
	ld.bu	$a0, $fp, 67
	b	.LBB5_410
.LBB5_108:
	bgeu	$a1, $a3, .LBB5_111
# %bb.109:
	alsl.d	$a2, $a1, $a2, 2
	beq	$a0, $a2, .LBB5_111
# %bb.110:
	ld.d	$a0, $sp, 272                   # 8-byte Folded Reload
	st.d	$a2, $a0, 112
.LBB5_111:                              # %_ZNSt6vectorIiSaIiEE6resizeEm.exit
	ld.d	$a4, $sp, 272                   # 8-byte Folded Reload
	ld.d	$a0, $a4, 136
	ld.d	$a2, $a4, 128
	sub.d	$a3, $a0, $a2
	srai.d	$a3, $a3, 2
	bgeu	$a3, $a1, .LBB5_114
# %bb.112:
	addi.d	$a0, $a4, 128
	sub.d	$a1, $a1, $a3
.Ltmp327:                               # EH_LABEL
	pcaddu18i	$ra, %call36(_ZNSt6vectorIiSaIiEE17_M_default_appendEm)
	jirl	$ra, $ra, 0
.Ltmp328:                               # EH_LABEL
# %bb.113:                              # %._ZNSt6vectorIiSaIiEE6resizeEm.exit315_crit_edge
	ld.w	$a1, $s8, 0
	b	.LBB5_117
.LBB5_114:
	bgeu	$a1, $a3, .LBB5_117
# %bb.115:
	alsl.d	$a2, $a1, $a2, 2
	beq	$a0, $a2, .LBB5_117
# %bb.116:
	ld.d	$a0, $sp, 272                   # 8-byte Folded Reload
	st.d	$a2, $a0, 136
.LBB5_117:                              # %_ZNSt6vectorIiSaIiEE6resizeEm.exit315
	ld.d	$s3, $sp, 272                   # 8-byte Folded Reload
	ld.d	$a0, $s3, 160
	ld.d	$a2, $s3, 152
	sub.d	$a3, $a0, $a2
	srai.d	$a3, $a3, 2
	bgeu	$a3, $a1, .LBB5_119
# %bb.118:
	addi.d	$a0, $s3, 152
	sub.d	$a1, $a1, $a3
.Ltmp329:                               # EH_LABEL
	pcaddu18i	$ra, %call36(_ZNSt6vectorIiSaIiEE17_M_default_appendEm)
	jirl	$ra, $ra, 0
.Ltmp330:                               # EH_LABEL
	b	.LBB5_122
.LBB5_119:
	bgeu	$a1, $a3, .LBB5_122
# %bb.120:
	alsl.d	$a1, $a1, $a2, 2
	beq	$a0, $a1, .LBB5_122
# %bb.121:
	st.d	$a1, $s3, 160
.LBB5_122:                              # %_ZNSt6vectorIiSaIiEE6resizeEm.exit318
	ld.d	$a1, $s3, 104
	sub.d	$a0, $fp, $s5
	srai.d	$s7, $a0, 2
.Ltmp331:                               # EH_LABEL
	addi.w	$fp, $s7, 0
	move	$a0, $fp
	pcaddu18i	$ra, %call36(_ZN8Parallel6gatherEiPi)
	jirl	$ra, $ra, 0
.Ltmp332:                               # EH_LABEL
# %bb.123:
	ld.d	$a1, $s3, 128
	sub.d	$a0, $s1, $s4
	srai.d	$a0, $a0, 2
.Ltmp333:                               # EH_LABEL
	st.d	$a0, $sp, 264                   # 8-byte Folded Spill
	addi.w	$s1, $a0, 0
	move	$a0, $s1
	pcaddu18i	$ra, %call36(_ZN8Parallel6gatherEiPi)
	jirl	$ra, $ra, 0
.Ltmp334:                               # EH_LABEL
# %bb.124:
	ld.d	$a1, $s3, 152
	sub.d	$s0, $s0, $s2
	srai.d	$s2, $s0, 2
.Ltmp335:                               # EH_LABEL
	addi.w	$a0, $s2, 0
	st.d	$a0, $sp, 168                   # 8-byte Folded Spill
	pcaddu18i	$ra, %call36(_ZN8Parallel6gatherEiPi)
	jirl	$ra, $ra, 0
.Ltmp336:                               # EH_LABEL
# %bb.125:
	ld.d	$a4, $s3, 104
	ld.d	$a0, $s3, 112
	move	$s5, $s3
	st.d	$a4, $sp, 296                   # 8-byte Folded Spill
	beq	$a4, $a0, .LBB5_128
# %bb.126:                              # %.lr.ph.i319.preheader
	sub.d	$a1, $a0, $a4
	addi.d	$a1, $a1, -4
	ori	$a2, $zero, 28
	ld.d	$s3, $sp, 200                   # 8-byte Folded Reload
	bgeu	$a1, $a2, .LBB5_129
# %bb.127:
	move	$a1, $a4
	move	$s6, $zero
	b	.LBB5_132
.LBB5_128:
	move	$s6, $zero
	ld.d	$s3, $sp, 200                   # 8-byte Folded Reload
	b	.LBB5_133
.LBB5_129:                              # %vector.ph
	srli.d	$a1, $a1, 2
	addi.d	$a2, $a1, 1
	bstrpick.d	$a1, $a2, 62, 3
	slli.d	$a3, $a1, 3
	slli.d	$a1, $a1, 5
	add.d	$a1, $a4, $a1
	vrepli.b	$vr0, 0
	addi.d	$a4, $a4, 16
	move	$a5, $a3
	vori.b	$vr1, $vr0, 0
	.p2align	4, , 16
.LBB5_130:                              # %vector.body
                                        # =>This Inner Loop Header: Depth=1
	vld	$vr2, $a4, -16
	vld	$vr3, $a4, 0
	vadd.w	$vr0, $vr2, $vr0
	vadd.w	$vr1, $vr3, $vr1
	addi.d	$a5, $a5, -8
	addi.d	$a4, $a4, 32
	bnez	$a5, .LBB5_130
# %bb.131:                              # %middle.block
	vadd.w	$vr0, $vr1, $vr0
	vhaddw.d.w	$vr0, $vr0, $vr0
	vhaddw.q.d	$vr0, $vr0, $vr0
	vpickve2gr.d	$s6, $vr0, 0
	beq	$a2, $a3, .LBB5_133
	.p2align	4, , 16
.LBB5_132:                              # %.lr.ph.i319
                                        # =>This Inner Loop Header: Depth=1
	ld.w	$a2, $a1, 0
	addi.d	$a1, $a1, 4
	add.d	$s6, $a2, $s6
	bne	$a1, $a0, .LBB5_132
.LBB5_133:                              # %_ZSt10accumulateIN9__gnu_cxx17__normal_iteratorIPiSt6vectorIiSaIiEEEEiET0_T_S8_S7_.exit
	ld.d	$a5, $s5, 128
	ld.d	$a0, $s5, 136
	st.w	$s6, $s5, 176
	beq	$a5, $a0, .LBB5_136
# %bb.134:                              # %.lr.ph.i324.preheader
	sub.d	$a1, $a0, $a5
	addi.d	$a1, $a1, -4
	ori	$a2, $zero, 28
	bgeu	$a1, $a2, .LBB5_137
# %bb.135:
	move	$a4, $zero
	move	$a1, $a5
	b	.LBB5_140
.LBB5_136:
	move	$a4, $zero
	b	.LBB5_141
.LBB5_137:                              # %vector.ph1391
	srli.d	$a1, $a1, 2
	addi.d	$a2, $a1, 1
	bstrpick.d	$a1, $a2, 62, 3
	slli.d	$a3, $a1, 3
	slli.d	$a1, $a1, 5
	add.d	$a1, $a5, $a1
	vrepli.b	$vr0, 0
	addi.d	$a4, $a5, 16
	move	$a5, $a3
	vori.b	$vr1, $vr0, 0
	.p2align	4, , 16
.LBB5_138:                              # %vector.body1394
                                        # =>This Inner Loop Header: Depth=1
	vld	$vr2, $a4, -16
	vld	$vr3, $a4, 0
	vadd.w	$vr0, $vr2, $vr0
	vadd.w	$vr1, $vr3, $vr1
	addi.d	$a5, $a5, -8
	addi.d	$a4, $a4, 32
	bnez	$a5, .LBB5_138
# %bb.139:                              # %middle.block1403
	vadd.w	$vr0, $vr1, $vr0
	vhaddw.d.w	$vr0, $vr0, $vr0
	vhaddw.q.d	$vr0, $vr0, $vr0
	vpickve2gr.d	$a4, $vr0, 0
	beq	$a2, $a3, .LBB5_141
	.p2align	4, , 16
.LBB5_140:                              # %.lr.ph.i324
                                        # =>This Inner Loop Header: Depth=1
	ld.w	$a2, $a1, 0
	addi.d	$a1, $a1, 4
	add.d	$a4, $a2, $a4
	bne	$a1, $a0, .LBB5_140
.LBB5_141:                              # %_ZSt10accumulateIN9__gnu_cxx17__normal_iteratorIPiSt6vectorIiSaIiEEEEiET0_T_S8_S7_.exit330
	ld.d	$a5, $s5, 152
	ld.d	$a0, $s5, 160
	st.w	$a4, $s5, 180
	st.d	$s1, $sp, 304                   # 8-byte Folded Spill
	st.d	$s0, $sp, 256                   # 8-byte Folded Spill
	beq	$a5, $a0, .LBB5_144
# %bb.142:                              # %.lr.ph.i333.preheader
	sub.d	$a1, $a0, $a5
	addi.d	$a1, $a1, -4
	ori	$a2, $zero, 28
	bgeu	$a1, $a2, .LBB5_145
# %bb.143:
	move	$a4, $zero
	move	$a1, $a5
	b	.LBB5_148
.LBB5_144:
	move	$a4, $zero
	b	.LBB5_149
.LBB5_145:                              # %vector.ph1410
	srli.d	$a1, $a1, 2
	addi.d	$a2, $a1, 1
	bstrpick.d	$a1, $a2, 62, 3
	slli.d	$a3, $a1, 3
	slli.d	$a1, $a1, 5
	add.d	$a1, $a5, $a1
	vrepli.b	$vr0, 0
	addi.d	$a4, $a5, 16
	move	$a5, $a3
	vori.b	$vr1, $vr0, 0
	.p2align	4, , 16
.LBB5_146:                              # %vector.body1413
                                        # =>This Inner Loop Header: Depth=1
	vld	$vr2, $a4, -16
	vld	$vr3, $a4, 0
	vadd.w	$vr0, $vr2, $vr0
	vadd.w	$vr1, $vr3, $vr1
	addi.d	$a5, $a5, -8
	addi.d	$a4, $a4, 32
	bnez	$a5, .LBB5_146
# %bb.147:                              # %middle.block1422
	vadd.w	$vr0, $vr1, $vr0
	vhaddw.d.w	$vr0, $vr0, $vr0
	vhaddw.q.d	$vr0, $vr0, $vr0
	vpickve2gr.d	$a4, $vr0, 0
	beq	$a2, $a3, .LBB5_149
	.p2align	4, , 16
.LBB5_148:                              # %.lr.ph.i333
                                        # =>This Inner Loop Header: Depth=1
	ld.w	$a2, $a1, 0
	addi.d	$a1, $a1, 4
	add.d	$a4, $a2, $a4
	bne	$a1, $a0, .LBB5_148
.LBB5_149:                              # %_ZSt10accumulateIN9__gnu_cxx17__normal_iteratorIPiSt6vectorIiSaIiEEEEiET0_T_S8_S7_.exit339
	ld.w	$a0, $s3, 0
	ld.w	$a1, $s8, 0
	sltui	$a0, $a0, 1
	maskeqz	$s1, $a1, $a0
	st.w	$a4, $s5, 184
	ld.d	$a0, $sp, 224                   # 8-byte Folded Reload
	bge	$a0, $s1, .LBB5_481
# %bb.150:                              # %_ZNSt6vectorIiSaIiEE17_S_check_init_lenEmRKS0_.exit.i340
	st.d	$s2, $sp, 240                   # 8-byte Folded Spill
	beqz	$s1, .LBB5_154
# %bb.151:
	slli.d	$s2, $s1, 2
.Ltmp338:                               # EH_LABEL
	move	$a0, $s2
	pcaddu18i	$ra, %call36(_Znwm)
	jirl	$ra, $ra, 0
.Ltmp339:                               # EH_LABEL
# %bb.152:                              # %.noexc346
	alsl.d	$a1, $s1, $a0, 2
	st.d	$a1, $sp, 88                    # 8-byte Folded Spill
	st.w	$zero, $a0, 0
	ori	$a1, $zero, 1
	addi.d	$a3, $a0, 4
	st.d	$a0, $sp, 208                   # 8-byte Folded Spill
	bne	$s1, $a1, .LBB5_188
# %bb.153:
	st.d	$a3, $sp, 40                    # 8-byte Folded Spill
	ld.d	$a0, $sp, 224                   # 8-byte Folded Reload
	blt	$a0, $fp, .LBB5_155
	b	.LBB5_189
.LBB5_154:
	st.d	$zero, $sp, 88                  # 8-byte Folded Spill
	st.d	$zero, $sp, 208                 # 8-byte Folded Spill
	st.d	$zero, $sp, 40                  # 8-byte Folded Spill
	ld.d	$a0, $sp, 224                   # 8-byte Folded Reload
	bge	$a0, $fp, .LBB5_189
.LBB5_155:                              # %_ZNSt6vectorIiSaIiEE17_S_check_init_lenEmRKS0_.exit.i348
	alsl.w	$s0, $s7, $s7, 1
	beqz	$fp, .LBB5_164
# %bb.156:
	slli.d	$s4, $s0, 2
.Ltmp340:                               # EH_LABEL
	move	$a0, $s4
	pcaddu18i	$ra, %call36(_Znwm)
	jirl	$ra, $ra, 0
.Ltmp341:                               # EH_LABEL
# %bb.157:                              # %.noexc354
	alsl.d	$a1, $s0, $a0, 2
	st.d	$a1, $sp, 80                    # 8-byte Folded Spill
	st.w	$zero, $a0, 0
	st.d	$a0, $sp, 176                   # 8-byte Folded Spill
	addi.d	$a0, $a0, 4
	addi.d	$a2, $s4, -4
	move	$a1, $zero
	pcaddu18i	$ra, %call36(memset)
	jirl	$ra, $ra, 0
	st.d	$s8, $sp, 280                   # 8-byte Folded Spill
	addi.w	$s1, $s6, 0
	ld.d	$a0, $sp, 224                   # 8-byte Folded Reload
	bge	$a0, $s1, .LBB5_165
.LBB5_158:                              # %_ZNSt6vectorIiSaIiEE17_S_check_init_lenEmRKS0_.exit.i356
	beqz	$s1, .LBB5_167
# %bb.159:
	move	$s8, $s0
	move	$s2, $s7
	slli.d	$s4, $s1, 2
.Ltmp342:                               # EH_LABEL
	move	$a0, $s4
	pcaddu18i	$ra, %call36(_Znwm)
	jirl	$ra, $ra, 0
.Ltmp343:                               # EH_LABEL
# %bb.160:                              # %.noexc362
	move	$s7, $a0
	move	$s0, $s3
	ori	$a0, $zero, 1
	st.w	$zero, $s7, 0
	beq	$s1, $a0, .LBB5_162
# %bb.161:                              # %.lr.ph.i.preheader.i.i.i.i.i358
	addi.d	$a0, $s7, 4
	addi.d	$a2, $s4, -4
	move	$a1, $zero
	pcaddu18i	$ra, %call36(memset)
	jirl	$ra, $ra, 0
.LBB5_162:
	move	$s3, $s7
	alsl.d	$a0, $s1, $s7, 2
	st.d	$a0, $sp, 72                    # 8-byte Folded Spill
	alsl.w	$s1, $s6, $s6, 1
	slli.d	$s4, $s1, 2
.Ltmp344:                               # EH_LABEL
	move	$a0, $s4
	pcaddu18i	$ra, %call36(_Znwm)
	jirl	$ra, $ra, 0
.Ltmp345:                               # EH_LABEL
# %bb.163:                              # %.noexc370
	alsl.d	$a1, $s1, $a0, 2
	st.d	$a1, $sp, 96                    # 8-byte Folded Spill
	st.w	$zero, $a0, 0
	st.d	$a0, $sp, 192                   # 8-byte Folded Spill
	addi.d	$a0, $a0, 4
	addi.d	$a2, $s4, -4
	move	$a1, $zero
	pcaddu18i	$ra, %call36(memset)
	jirl	$ra, $ra, 0
	ld.d	$s6, $sp, 288                   # 8-byte Folded Reload
	move	$s4, $s3
	move	$s3, $s0
	move	$s7, $s2
	move	$s0, $s8
	b	.LBB5_168
.LBB5_164:
	st.d	$zero, $sp, 176                 # 8-byte Folded Spill
	st.d	$zero, $sp, 80                  # 8-byte Folded Spill
	st.d	$s8, $sp, 280                   # 8-byte Folded Spill
	addi.w	$s1, $s6, 0
	ld.d	$a0, $sp, 224                   # 8-byte Folded Reload
	blt	$a0, $s1, .LBB5_158
.LBB5_165:
.Ltmp586:                               # EH_LABEL
	pcalau12i	$a0, %pc_hi20(.L.str.33)
	addi.d	$a0, $a0, %pc_lo12(.L.str.33)
	pcaddu18i	$ra, %call36(_ZSt20__throw_length_errorPKc)
	jirl	$ra, $ra, 0
.Ltmp587:                               # EH_LABEL
# %bb.166:                              # %.noexc361
.LBB5_167:
	st.d	$zero, $sp, 72                  # 8-byte Folded Spill
	move	$s4, $zero
	st.d	$zero, $sp, 192                 # 8-byte Folded Spill
	st.d	$zero, $sp, 96                  # 8-byte Folded Spill
	ld.d	$s6, $sp, 288                   # 8-byte Folded Reload
.LBB5_168:                              # %_ZNSt6vectorIiSaIiEEC2EmRKS0_.exit371
	ld.d	$a0, $s5, 8
.Ltmp347:                               # EH_LABEL
	move	$a1, $fp
	move	$a2, $s4
	ld.d	$a3, $sp, 296                   # 8-byte Folded Reload
	pcaddu18i	$ra, %call36(_ZN8Parallel7gathervIiEEvPKT_iPS1_PKi)
	jirl	$ra, $ra, 0
.Ltmp348:                               # EH_LABEL
	ld.d	$t0, $sp, 232                   # 8-byte Folded Reload
	ld.d	$s8, $sp, 280                   # 8-byte Folded Reload
# %bb.169:
	ld.w	$a1, $s3, 0
	ld.d	$a0, $sp, 176                   # 8-byte Folded Reload
	bnez	$a1, .LBB5_178
# %bb.170:                              # %.preheader1092
	ld.w	$a6, $s8, 0
	ori	$a1, $zero, 1
	blt	$a6, $a1, .LBB5_178
# %bb.171:                              # %.lr.ph1137
	ld.d	$a1, $s5, 104
	ori	$a3, $zero, 8
	move	$a2, $zero
	bltu	$a6, $a3, .LBB5_176
# %bb.172:                              # %.lr.ph1137
	ld.d	$a3, $sp, 208                   # 8-byte Folded Reload
	sub.d	$a3, $a3, $a1
	ori	$a4, $zero, 32
	bltu	$a3, $a4, .LBB5_176
# %bb.173:                              # %vector.ph1430
	bstrpick.d	$a2, $a6, 30, 3
	slli.d	$a2, $a2, 3
	ld.d	$a3, $sp, 208                   # 8-byte Folded Reload
	addi.d	$a3, $a3, 16
	addi.d	$a4, $a1, 16
	vrepli.w	$vr0, 3
	move	$a5, $a2
	.p2align	4, , 16
.LBB5_174:                              # %vector.body1433
                                        # =>This Inner Loop Header: Depth=1
	vld	$vr1, $a4, -16
	vld	$vr2, $a4, 0
	vmul.w	$vr1, $vr1, $vr0
	vmul.w	$vr2, $vr2, $vr0
	vst	$vr1, $a3, -16
	vst	$vr2, $a3, 0
	addi.d	$a5, $a5, -8
	addi.d	$a3, $a3, 32
	addi.d	$a4, $a4, 32
	bnez	$a5, .LBB5_174
# %bb.175:                              # %middle.block1438
	beq	$a2, $a6, .LBB5_178
.LBB5_176:                              # %scalar.ph1428.preheader
	alsl.d	$a1, $a2, $a1, 2
	ld.d	$a3, $sp, 208                   # 8-byte Folded Reload
	alsl.d	$a3, $a2, $a3, 2
	sub.d	$a4, $a6, $a2
	.p2align	4, , 16
.LBB5_177:                              # %scalar.ph1428
                                        # =>This Inner Loop Header: Depth=1
	ld.w	$a2, $a1, 0
	alsl.d	$a2, $a2, $a2, 1
	st.w	$a2, $a3, 0
	addi.d	$a1, $a1, 4
	addi.d	$a4, $a4, -1
	addi.d	$a3, $a3, 4
	bnez	$a4, .LBB5_177
.LBB5_178:                              # %.loopexit1093
	beqz	$fp, .LBB5_181
# %bb.179:                              # %.lr.ph1140
	ld.d	$a7, $s5, 8
	ld.d	$a1, $s5, 80
	ld.w	$a2, $sp, 316
	bstrpick.d	$a3, $s7, 30, 0
	addi.d	$a4, $a0, 8
	.p2align	4, , 16
.LBB5_180:                              # =>This Inner Loop Header: Depth=1
	ld.w	$a5, $a7, 0
	slli.d	$a5, $a5, 2
	ldx.w	$a5, $a1, $a5
	slli.d	$a6, $a5, 2
	ldx.w	$a6, $t0, $a6
	alsl.d	$a5, $a5, $t0, 2
	add.d	$a6, $a2, $a6
	st.w	$a6, $a4, -8
	ld.w	$a6, $a5, 4
	add.d	$a6, $a2, $a6
	st.w	$a6, $a4, -4
	ld.w	$a5, $a5, 8
	add.d	$a5, $a2, $a5
	st.w	$a5, $a4, 0
	addi.d	$a4, $a4, 12
	addi.d	$a3, $a3, -1
	addi.d	$a7, $a7, 4
	bnez	$a3, .LBB5_180
.LBB5_181:                              # %._crit_edge
.Ltmp349:                               # EH_LABEL
	move	$a1, $s0
	ld.d	$a2, $sp, 192                   # 8-byte Folded Reload
	ld.d	$a3, $sp, 208                   # 8-byte Folded Reload
	pcaddu18i	$ra, %call36(_ZN8Parallel7gathervIiEEvPKT_iPS1_PKi)
	jirl	$ra, $ra, 0
.Ltmp350:                               # EH_LABEL
# %bb.182:
	st.d	$s4, $sp, 296                   # 8-byte Folded Spill
	ld.w	$a0, $s3, 0
	bnez	$a0, .LBB5_227
# %bb.183:
	ld.w	$a0, $s5, 176
	ori	$a1, $zero, 1
	blt	$a0, $a1, .LBB5_227
# %bb.184:
.Ltmp351:                               # EH_LABEL
	pcalau12i	$a0, %pc_hi20(.L.str.27)
	addi.d	$a1, $a0, %pc_lo12(.L.str.27)
	addi.d	$a0, $sp, 352
	ori	$a2, $zero, 5
	addi.d	$fp, $sp, 352
	ld.d	$s4, $sp, 296                   # 8-byte Folded Reload
	pcaddu18i	$ra, %call36(_ZSt16__ostream_insertIcSt11char_traitsIcEERSt13basic_ostreamIT_T0_ES6_PKS3_l)
	jirl	$ra, $ra, 0
.Ltmp352:                               # EH_LABEL
# %bb.185:                              # %_ZStlsISt11char_traitsIcEERSt13basic_ostreamIcT_ES5_PKc.exit373
	ld.d	$a0, $sp, 352
	ld.d	$a0, $a0, -24
	add.d	$a0, $fp, $a0
	ld.d	$fp, $a0, 240
	beqz	$fp, .LBB5_483
# %bb.186:                              # %_ZSt13__check_facetISt5ctypeIcEERKT_PS3_.exit.i.i671
	ld.bu	$a0, $fp, 56
	beqz	$a0, .LBB5_191
# %bb.187:
	ld.bu	$a0, $fp, 67
	b	.LBB5_193
.LBB5_188:                              # %.lr.ph.i.preheader.i.i.i.i.i342
	add.d	$s1, $a0, $s2
	addi.d	$a2, $s2, -4
	move	$a0, $a3
	move	$a1, $zero
	pcaddu18i	$ra, %call36(memset)
	jirl	$ra, $ra, 0
	st.d	$s1, $sp, 40                    # 8-byte Folded Spill
	ld.d	$a0, $sp, 224                   # 8-byte Folded Reload
	blt	$a0, $fp, .LBB5_155
.LBB5_189:
.Ltmp589:                               # EH_LABEL
	pcalau12i	$a0, %pc_hi20(.L.str.33)
	addi.d	$a0, $a0, %pc_lo12(.L.str.33)
	pcaddu18i	$ra, %call36(_ZSt20__throw_length_errorPKc)
	jirl	$ra, $ra, 0
.Ltmp590:                               # EH_LABEL
# %bb.190:                              # %.noexc353
.LBB5_191:
.Ltmp353:                               # EH_LABEL
	move	$a0, $fp
	pcaddu18i	$ra, %call36(_ZNKSt5ctypeIcE13_M_widen_initEv)
	jirl	$ra, $ra, 0
.Ltmp354:                               # EH_LABEL
# %bb.192:                              # %.noexc676
	ld.d	$a0, $fp, 0
	ld.d	$a2, $a0, 48
.Ltmp355:                               # EH_LABEL
	ori	$a1, $zero, 10
	move	$a0, $fp
	jirl	$ra, $a2, 0
.Ltmp356:                               # EH_LABEL
.LBB5_193:                              # %_ZNKSt9basic_iosIcSt11char_traitsIcEE5widenEc.exit.i673
.Ltmp357:                               # EH_LABEL
	ext.w.b	$a1, $a0
	addi.d	$a0, $sp, 352
	pcaddu18i	$ra, %call36(_ZNSo3putEc)
	jirl	$ra, $ra, 0
.Ltmp358:                               # EH_LABEL
# %bb.194:                              # %.noexc678
.Ltmp359:                               # EH_LABEL
	pcaddu18i	$ra, %call36(_ZNSo5flushEv)
	jirl	$ra, $ra, 0
.Ltmp360:                               # EH_LABEL
# %bb.195:
	ld.d	$a0, $sp, 352
	ld.d	$a0, $a0, -24
	addi.d	$a2, $sp, 352
	ld.w	$a1, $s5, 176
	add.d	$a0, $a2, $a0
	ori	$a2, $zero, 10
	st.d	$a2, $a0, 16
.Ltmp361:                               # EH_LABEL
	addi.d	$a0, $sp, 352
	pcaddu18i	$ra, %call36(_ZNSolsEi)
	jirl	$ra, $ra, 0
.Ltmp362:                               # EH_LABEL
# %bb.196:
	move	$fp, $a0
	ld.d	$a0, $a0, 0
	ld.d	$a0, $a0, -24
	add.d	$a0, $fp, $a0
	ld.d	$s0, $a0, 240
	beqz	$s0, .LBB5_483
# %bb.197:                              # %_ZSt13__check_facetISt5ctypeIcEERKT_PS3_.exit.i.i682
	ld.bu	$a0, $s0, 56
	beqz	$a0, .LBB5_199
# %bb.198:
	ld.bu	$a0, $s0, 67
	b	.LBB5_201
.LBB5_199:
.Ltmp363:                               # EH_LABEL
	move	$a0, $s0
	pcaddu18i	$ra, %call36(_ZNKSt5ctypeIcE13_M_widen_initEv)
	jirl	$ra, $ra, 0
.Ltmp364:                               # EH_LABEL
# %bb.200:                              # %.noexc687
	ld.d	$a0, $s0, 0
	ld.d	$a2, $a0, 48
.Ltmp365:                               # EH_LABEL
	ori	$a1, $zero, 10
	move	$a0, $s0
	jirl	$ra, $a2, 0
.Ltmp366:                               # EH_LABEL
.LBB5_201:                              # %_ZNKSt9basic_iosIcSt11char_traitsIcEE5widenEc.exit.i684
.Ltmp367:                               # EH_LABEL
	ext.w.b	$a1, $a0
	move	$a0, $fp
	pcaddu18i	$ra, %call36(_ZNSo3putEc)
	jirl	$ra, $ra, 0
.Ltmp368:                               # EH_LABEL
# %bb.202:                              # %.noexc689
.Ltmp369:                               # EH_LABEL
	pcaddu18i	$ra, %call36(_ZNSo5flushEv)
	jirl	$ra, $ra, 0
.Ltmp370:                               # EH_LABEL
# %bb.203:                              # %_ZNSolsEPFRSoS_E.exit378.preheader
	ld.w	$a0, $s5, 176
	ori	$a1, $zero, 1
	blt	$a0, $a1, .LBB5_227
# %bb.204:                              # %.lr.ph1142.preheader
	move	$s1, $zero
	addi.d	$s2, $sp, 352
	ori	$s3, $zero, 10
	ld.d	$s4, $sp, 296                   # 8-byte Folded Reload
	.p2align	4, , 16
.LBB5_205:                              # %.lr.ph1142
                                        # =>This Inner Loop Header: Depth=1
	ld.d	$a0, $sp, 352
	ld.d	$a0, $a0, -24
	ld.w	$a1, $s4, 0
	add.d	$a0, $s2, $a0
	st.d	$s3, $a0, 16
	addi.w	$a1, $a1, 1
.Ltmp371:                               # EH_LABEL
	addi.d	$a0, $sp, 352
	pcaddu18i	$ra, %call36(_ZNSolsEi)
	jirl	$ra, $ra, 0
.Ltmp372:                               # EH_LABEL
# %bb.206:                              #   in Loop: Header=BB5_205 Depth=1
	move	$fp, $a0
	ld.d	$a0, $a0, 0
	ld.d	$a0, $a0, -24
	add.d	$a0, $fp, $a0
	ld.d	$s0, $a0, 240
	beqz	$s0, .LBB5_455
# %bb.207:                              # %_ZSt13__check_facetISt5ctypeIcEERKT_PS3_.exit.i.i693
                                        #   in Loop: Header=BB5_205 Depth=1
	ld.bu	$a0, $s0, 56
	beqz	$a0, .LBB5_209
# %bb.208:                              #   in Loop: Header=BB5_205 Depth=1
	ld.bu	$a0, $s0, 67
	b	.LBB5_211
	.p2align	4, , 16
.LBB5_209:                              #   in Loop: Header=BB5_205 Depth=1
.Ltmp373:                               # EH_LABEL
	move	$a0, $s0
	pcaddu18i	$ra, %call36(_ZNKSt5ctypeIcE13_M_widen_initEv)
	jirl	$ra, $ra, 0
.Ltmp374:                               # EH_LABEL
# %bb.210:                              # %.noexc698
                                        #   in Loop: Header=BB5_205 Depth=1
	ld.d	$a0, $s0, 0
	ld.d	$a2, $a0, 48
.Ltmp375:                               # EH_LABEL
	ori	$a1, $zero, 10
	move	$a0, $s0
	jirl	$ra, $a2, 0
.Ltmp376:                               # EH_LABEL
.LBB5_211:                              # %_ZNKSt9basic_iosIcSt11char_traitsIcEE5widenEc.exit.i695
                                        #   in Loop: Header=BB5_205 Depth=1
.Ltmp377:                               # EH_LABEL
	ext.w.b	$a1, $a0
	move	$a0, $fp
	pcaddu18i	$ra, %call36(_ZNSo3putEc)
	jirl	$ra, $ra, 0
.Ltmp378:                               # EH_LABEL
# %bb.212:                              # %.noexc700
                                        #   in Loop: Header=BB5_205 Depth=1
.Ltmp379:                               # EH_LABEL
	pcaddu18i	$ra, %call36(_ZNSo5flushEv)
	jirl	$ra, $ra, 0
.Ltmp380:                               # EH_LABEL
# %bb.213:                              # %_ZNSolsEPFRSoS_E.exit381
                                        #   in Loop: Header=BB5_205 Depth=1
	ld.w	$a0, $s5, 176
	addi.d	$s1, $s1, 1
	addi.d	$s4, $s4, 4
	blt	$s1, $a0, .LBB5_205
# %bb.214:                              # %.preheader1080
	ori	$a1, $zero, 1
	ld.d	$s3, $sp, 200                   # 8-byte Folded Reload
	blt	$a0, $a1, .LBB5_227
# %bb.215:                              # %.preheader1079.preheader
	move	$s0, $zero
	ld.d	$a0, $sp, 192                   # 8-byte Folded Reload
	addi.d	$s1, $a0, 8
	addi.d	$s2, $sp, 352
	ori	$s4, $zero, 10
	.p2align	4, , 16
.LBB5_216:                              # %.preheader1079
                                        # =>This Inner Loop Header: Depth=1
	ld.d	$a0, $sp, 352
	ld.d	$a0, $a0, -24
	add.d	$a0, $s2, $a0
	st.d	$s4, $a0, 16
	ld.w	$a0, $s1, -8
	addi.w	$a1, $a0, 1
.Ltmp382:                               # EH_LABEL
	addi.d	$a0, $sp, 352
	pcaddu18i	$ra, %call36(_ZNSolsEi)
	jirl	$ra, $ra, 0
.Ltmp383:                               # EH_LABEL
# %bb.217:                              #   in Loop: Header=BB5_216 Depth=1
	ld.d	$a0, $sp, 352
	ld.d	$a0, $a0, -24
	add.d	$a0, $s2, $a0
	st.d	$s4, $a0, 16
	ld.w	$a0, $s1, -4
	addi.w	$a1, $a0, 1
.Ltmp384:                               # EH_LABEL
	addi.d	$a0, $sp, 352
	pcaddu18i	$ra, %call36(_ZNSolsEi)
	jirl	$ra, $ra, 0
.Ltmp385:                               # EH_LABEL
# %bb.218:                              #   in Loop: Header=BB5_216 Depth=1
	ld.d	$a0, $sp, 352
	ld.d	$a0, $a0, -24
	ld.w	$a1, $s1, 0
	add.d	$a0, $s2, $a0
	st.d	$s4, $a0, 16
	addi.w	$a1, $a1, 1
.Ltmp386:                               # EH_LABEL
	addi.d	$a0, $sp, 352
	pcaddu18i	$ra, %call36(_ZNSolsEi)
	jirl	$ra, $ra, 0
.Ltmp387:                               # EH_LABEL
# %bb.219:                              #   in Loop: Header=BB5_216 Depth=1
	ld.d	$a0, $sp, 352
	ld.d	$a0, $a0, -24
	add.d	$a0, $s2, $a0
	ld.d	$fp, $a0, 240
	beqz	$fp, .LBB5_463
# %bb.220:                              # %_ZSt13__check_facetISt5ctypeIcEERKT_PS3_.exit.i.i704
                                        #   in Loop: Header=BB5_216 Depth=1
	ld.bu	$a0, $fp, 56
	beqz	$a0, .LBB5_222
# %bb.221:                              #   in Loop: Header=BB5_216 Depth=1
	ld.bu	$a0, $fp, 67
	b	.LBB5_224
	.p2align	4, , 16
.LBB5_222:                              #   in Loop: Header=BB5_216 Depth=1
.Ltmp389:                               # EH_LABEL
	move	$a0, $fp
	pcaddu18i	$ra, %call36(_ZNKSt5ctypeIcE13_M_widen_initEv)
	jirl	$ra, $ra, 0
.Ltmp390:                               # EH_LABEL
# %bb.223:                              # %.noexc709
                                        #   in Loop: Header=BB5_216 Depth=1
	ld.d	$a0, $fp, 0
	ld.d	$a2, $a0, 48
.Ltmp391:                               # EH_LABEL
	ori	$a1, $zero, 10
	move	$a0, $fp
	jirl	$ra, $a2, 0
.Ltmp392:                               # EH_LABEL
.LBB5_224:                              # %_ZNKSt9basic_iosIcSt11char_traitsIcEE5widenEc.exit.i706
                                        #   in Loop: Header=BB5_216 Depth=1
.Ltmp393:                               # EH_LABEL
	ext.w.b	$a1, $a0
	addi.d	$a0, $sp, 352
	pcaddu18i	$ra, %call36(_ZNSo3putEc)
	jirl	$ra, $ra, 0
.Ltmp394:                               # EH_LABEL
# %bb.225:                              # %.noexc711
                                        #   in Loop: Header=BB5_216 Depth=1
.Ltmp395:                               # EH_LABEL
	pcaddu18i	$ra, %call36(_ZNSo5flushEv)
	jirl	$ra, $ra, 0
.Ltmp396:                               # EH_LABEL
# %bb.226:                              # %_ZNSolsEPFRSoS_E.exit383
                                        #   in Loop: Header=BB5_216 Depth=1
	ld.w	$a0, $s5, 176
	addi.d	$s0, $s0, 1
	addi.d	$s1, $s1, 12
	blt	$s0, $a0, .LBB5_216
.LBB5_227:                              # %.loopexit1081
	ld.d	$a0, $sp, 224                   # 8-byte Folded Reload
	ld.d	$a1, $sp, 304                   # 8-byte Folded Reload
	bge	$a0, $a1, .LBB5_485
# %bb.228:                              # %_ZNSt6vectorIiSaIiEE17_S_check_init_lenEmRKS0_.exit.i385
	move	$s7, $s3
	ld.d	$a0, $sp, 264                   # 8-byte Folded Reload
	slli.w	$fp, $a0, 2
	beqz	$a1, .LBB5_237
# %bb.229:
	slli.d	$s0, $fp, 2
.Ltmp398:                               # EH_LABEL
	move	$a0, $s0
	pcaddu18i	$ra, %call36(_Znwm)
	jirl	$ra, $ra, 0
.Ltmp399:                               # EH_LABEL
# %bb.230:                              # %.noexc391
	move	$s3, $a0
	alsl.d	$a0, $fp, $a0, 2
	st.d	$a0, $sp, 56                    # 8-byte Folded Spill
	st.w	$zero, $s3, 0
	addi.d	$a0, $s3, 4
	addi.d	$a2, $s0, -4
	move	$a1, $zero
	pcaddu18i	$ra, %call36(memset)
	jirl	$ra, $ra, 0
	ld.w	$s1, $s5, 180
	ld.d	$a0, $sp, 224                   # 8-byte Folded Reload
	bge	$a0, $s1, .LBB5_238
.LBB5_231:                              # %_ZNSt6vectorIiSaIiEE17_S_check_init_lenEmRKS0_.exit.i393
	beqz	$s1, .LBB5_240
# %bb.232:
	slli.d	$s0, $s1, 2
.Ltmp400:                               # EH_LABEL
	move	$a0, $s0
	pcaddu18i	$ra, %call36(_Znwm)
	jirl	$ra, $ra, 0
.Ltmp401:                               # EH_LABEL
# %bb.233:                              # %.noexc399
	move	$s2, $a0
	ori	$a0, $zero, 1
	st.w	$zero, $s2, 0
	beq	$s1, $a0, .LBB5_235
# %bb.234:                              # %.lr.ph.i.preheader.i.i.i.i.i395
	addi.d	$a0, $s2, 4
	addi.d	$a2, $s0, -4
	move	$a1, $zero
	pcaddu18i	$ra, %call36(memset)
	jirl	$ra, $ra, 0
.LBB5_235:
	move	$s8, $s2
	alsl.d	$a0, $s1, $s2, 2
	st.d	$a0, $sp, 48                    # 8-byte Folded Spill
	addi.w	$s1, $s0, 0
	slli.d	$s0, $s1, 2
.Ltmp402:                               # EH_LABEL
	move	$a0, $s0
	pcaddu18i	$ra, %call36(_Znwm)
	jirl	$ra, $ra, 0
.Ltmp403:                               # EH_LABEL
# %bb.236:                              # %.noexc407
	alsl.d	$a1, $s1, $a0, 2
	st.d	$a1, $sp, 64                    # 8-byte Folded Spill
	st.w	$zero, $a0, 0
	st.d	$a0, $sp, 184                   # 8-byte Folded Spill
	addi.d	$a0, $a0, 4
	addi.d	$a2, $s0, -4
	move	$a1, $zero
	pcaddu18i	$ra, %call36(memset)
	jirl	$ra, $ra, 0
	move	$a2, $s8
	ld.d	$s8, $sp, 280                   # 8-byte Folded Reload
	b	.LBB5_241
.LBB5_237:
	move	$s3, $zero
	st.d	$zero, $sp, 56                  # 8-byte Folded Spill
	ld.w	$s1, $s5, 180
	ld.d	$a0, $sp, 224                   # 8-byte Folded Reload
	blt	$a0, $s1, .LBB5_231
.LBB5_238:
.Ltmp571:                               # EH_LABEL
	pcalau12i	$a0, %pc_hi20(.L.str.33)
	addi.d	$a0, $a0, %pc_lo12(.L.str.33)
	pcaddu18i	$ra, %call36(_ZSt20__throw_length_errorPKc)
	jirl	$ra, $ra, 0
.Ltmp572:                               # EH_LABEL
# %bb.239:                              # %.noexc398
.LBB5_240:
	st.d	$zero, $sp, 48                  # 8-byte Folded Spill
	move	$a2, $zero
	st.d	$zero, $sp, 184                 # 8-byte Folded Spill
	st.d	$zero, $sp, 64                  # 8-byte Folded Spill
.LBB5_241:                              # %_ZNSt6vectorIiSaIiEEC2EmRKS0_.exit408
	ld.d	$a0, $s5, 32
	ld.d	$a3, $s5, 128
.Ltmp405:                               # EH_LABEL
	ld.d	$s0, $sp, 304                   # 8-byte Folded Reload
	move	$a1, $s0
	st.d	$a2, $sp, 160                   # 8-byte Folded Spill
	pcaddu18i	$ra, %call36(_ZN8Parallel7gathervIiEEvPKT_iPS1_PKi)
	jirl	$ra, $ra, 0
.Ltmp406:                               # EH_LABEL
	ld.d	$a7, $sp, 232                   # 8-byte Folded Reload
# %bb.242:
	ld.w	$a0, $s7, 0
	bnez	$a0, .LBB5_251
# %bb.243:                              # %.preheader1077
	ld.w	$a0, $s8, 0
	ori	$a1, $zero, 1
	blt	$a0, $a1, .LBB5_251
# %bb.244:                              # %.lr.ph1146
	ld.d	$a1, $s5, 128
	ori	$a3, $zero, 8
	move	$a2, $zero
	bltu	$a0, $a3, .LBB5_249
# %bb.245:                              # %.lr.ph1146
	ld.d	$a3, $sp, 208                   # 8-byte Folded Reload
	sub.d	$a3, $a3, $a1
	ori	$a4, $zero, 32
	bltu	$a3, $a4, .LBB5_249
# %bb.246:                              # %vector.ph1445
	bstrpick.d	$a2, $a0, 30, 3
	slli.d	$a2, $a2, 3
	ld.d	$a3, $sp, 208                   # 8-byte Folded Reload
	addi.d	$a3, $a3, 16
	addi.d	$a4, $a1, 16
	move	$a5, $a2
	.p2align	4, , 16
.LBB5_247:                              # %vector.body1448
                                        # =>This Inner Loop Header: Depth=1
	vld	$vr0, $a4, -16
	vld	$vr1, $a4, 0
	vslli.w	$vr0, $vr0, 2
	vslli.w	$vr1, $vr1, 2
	vst	$vr0, $a3, -16
	vst	$vr1, $a3, 0
	addi.d	$a5, $a5, -8
	addi.d	$a3, $a3, 32
	addi.d	$a4, $a4, 32
	bnez	$a5, .LBB5_247
# %bb.248:                              # %middle.block1453
	beq	$a2, $a0, .LBB5_251
.LBB5_249:                              # %scalar.ph1443.preheader
	alsl.d	$a1, $a2, $a1, 2
	ld.d	$a3, $sp, 208                   # 8-byte Folded Reload
	alsl.d	$a3, $a2, $a3, 2
	sub.d	$a0, $a0, $a2
	.p2align	4, , 16
.LBB5_250:                              # %scalar.ph1443
                                        # =>This Inner Loop Header: Depth=1
	ld.w	$a2, $a1, 0
	slli.d	$a2, $a2, 2
	st.w	$a2, $a3, 0
	addi.d	$a1, $a1, 4
	addi.d	$a0, $a0, -1
	addi.d	$a3, $a3, 4
	bnez	$a0, .LBB5_250
.LBB5_251:                              # %.loopexit1078
	beqz	$s0, .LBB5_254
# %bb.252:                              # %.lr.ph1150
	ld.d	$a0, $s5, 32
	ld.d	$a1, $s5, 80
	ld.w	$a2, $sp, 316
	ld.d	$a3, $sp, 264                   # 8-byte Folded Reload
	bstrpick.d	$a3, $a3, 30, 0
	addi.d	$a4, $s3, 8
	.p2align	4, , 16
.LBB5_253:                              # =>This Inner Loop Header: Depth=1
	ld.w	$a5, $a0, 0
	slli.d	$a5, $a5, 2
	ldx.w	$a5, $a1, $a5
	slli.d	$a6, $a5, 2
	ldx.w	$a6, $a7, $a6
	alsl.d	$a5, $a5, $a7, 2
	add.d	$a6, $a2, $a6
	st.w	$a6, $a4, -8
	ld.w	$a6, $a5, 4
	add.d	$a6, $a2, $a6
	st.w	$a6, $a4, -4
	ld.w	$a6, $a5, 8
	add.d	$a6, $a2, $a6
	st.w	$a6, $a4, 0
	ld.w	$a5, $a5, 12
	add.d	$a5, $a2, $a5
	st.w	$a5, $a4, 4
	addi.d	$a0, $a0, 4
	addi.d	$a3, $a3, -1
	addi.d	$a4, $a4, 16
	bnez	$a3, .LBB5_253
.LBB5_254:                              # %._crit_edge1151
.Ltmp407:                               # EH_LABEL
	move	$a0, $s3
	move	$a1, $fp
	ld.d	$a2, $sp, 184                   # 8-byte Folded Reload
	ld.d	$a3, $sp, 208                   # 8-byte Folded Reload
	pcaddu18i	$ra, %call36(_ZN8Parallel7gathervIiEEvPKT_iPS1_PKi)
	jirl	$ra, $ra, 0
.Ltmp408:                               # EH_LABEL
# %bb.255:
	ld.w	$a0, $s7, 0
	bnez	$a0, .LBB5_298
# %bb.256:
	ld.w	$a0, $s5, 180
	ori	$a1, $zero, 1
	blt	$a0, $a1, .LBB5_298
# %bb.257:
.Ltmp409:                               # EH_LABEL
	pcalau12i	$a0, %pc_hi20(.L.str.28)
	addi.d	$a1, $a0, %pc_lo12(.L.str.28)
	addi.d	$a0, $sp, 352
	ori	$a2, $zero, 5
	addi.d	$fp, $sp, 352
	pcaddu18i	$ra, %call36(_ZSt16__ostream_insertIcSt11char_traitsIcEERSt13basic_ostreamIT_T0_ES6_PKS3_l)
	jirl	$ra, $ra, 0
.Ltmp410:                               # EH_LABEL
# %bb.258:                              # %_ZStlsISt11char_traitsIcEERSt13basic_ostreamIcT_ES5_PKc.exit410
	ld.d	$a0, $sp, 352
	ld.d	$a0, $a0, -24
	add.d	$a0, $fp, $a0
	ld.d	$fp, $a0, 240
	beqz	$fp, .LBB5_487
# %bb.259:                              # %_ZSt13__check_facetISt5ctypeIcEERKT_PS3_.exit.i.i715
	ld.bu	$a0, $fp, 56
	beqz	$a0, .LBB5_261
# %bb.260:
	ld.bu	$a0, $fp, 67
	b	.LBB5_263
.LBB5_261:
.Ltmp411:                               # EH_LABEL
	move	$a0, $fp
	pcaddu18i	$ra, %call36(_ZNKSt5ctypeIcE13_M_widen_initEv)
	jirl	$ra, $ra, 0
.Ltmp412:                               # EH_LABEL
# %bb.262:                              # %.noexc720
	ld.d	$a0, $fp, 0
	ld.d	$a2, $a0, 48
.Ltmp413:                               # EH_LABEL
	ori	$a1, $zero, 10
	move	$a0, $fp
	jirl	$ra, $a2, 0
.Ltmp414:                               # EH_LABEL
.LBB5_263:                              # %_ZNKSt9basic_iosIcSt11char_traitsIcEE5widenEc.exit.i717
.Ltmp415:                               # EH_LABEL
	ext.w.b	$a1, $a0
	addi.d	$a0, $sp, 352
	pcaddu18i	$ra, %call36(_ZNSo3putEc)
	jirl	$ra, $ra, 0
.Ltmp416:                               # EH_LABEL
# %bb.264:                              # %.noexc722
.Ltmp417:                               # EH_LABEL
	pcaddu18i	$ra, %call36(_ZNSo5flushEv)
	jirl	$ra, $ra, 0
.Ltmp418:                               # EH_LABEL
# %bb.265:
	ld.d	$a0, $sp, 352
	ld.d	$a0, $a0, -24
	addi.d	$a2, $sp, 352
	ld.w	$a1, $s5, 180
	add.d	$a0, $a2, $a0
	ori	$a2, $zero, 10
	st.d	$a2, $a0, 16
.Ltmp419:                               # EH_LABEL
	addi.d	$a0, $sp, 352
	pcaddu18i	$ra, %call36(_ZNSolsEi)
	jirl	$ra, $ra, 0
.Ltmp420:                               # EH_LABEL
# %bb.266:
	move	$fp, $a0
	ld.d	$a0, $a0, 0
	ld.d	$a0, $a0, -24
	add.d	$a0, $fp, $a0
	ld.d	$s0, $a0, 240
	beqz	$s0, .LBB5_487
# %bb.267:                              # %_ZSt13__check_facetISt5ctypeIcEERKT_PS3_.exit.i.i726
	ld.bu	$a0, $s0, 56
	beqz	$a0, .LBB5_269
# %bb.268:
	ld.bu	$a0, $s0, 67
	b	.LBB5_271
.LBB5_269:
.Ltmp421:                               # EH_LABEL
	move	$a0, $s0
	pcaddu18i	$ra, %call36(_ZNKSt5ctypeIcE13_M_widen_initEv)
	jirl	$ra, $ra, 0
.Ltmp422:                               # EH_LABEL
# %bb.270:                              # %.noexc731
	ld.d	$a0, $s0, 0
	ld.d	$a2, $a0, 48
.Ltmp423:                               # EH_LABEL
	ori	$a1, $zero, 10
	move	$a0, $s0
	jirl	$ra, $a2, 0
.Ltmp424:                               # EH_LABEL
.LBB5_271:                              # %_ZNKSt9basic_iosIcSt11char_traitsIcEE5widenEc.exit.i728
.Ltmp425:                               # EH_LABEL
	ext.w.b	$a1, $a0
	move	$a0, $fp
	pcaddu18i	$ra, %call36(_ZNSo3putEc)
	jirl	$ra, $ra, 0
.Ltmp426:                               # EH_LABEL
# %bb.272:                              # %.noexc733
.Ltmp427:                               # EH_LABEL
	pcaddu18i	$ra, %call36(_ZNSo5flushEv)
	jirl	$ra, $ra, 0
.Ltmp428:                               # EH_LABEL
# %bb.273:                              # %_ZNSolsEPFRSoS_E.exit415.preheader
	ld.w	$a0, $s5, 180
	ori	$a1, $zero, 1
	blt	$a0, $a1, .LBB5_298
# %bb.274:                              # %.lr.ph1153.preheader
	move	$s8, $s3
	move	$s1, $zero
	addi.d	$s2, $sp, 352
	ori	$s3, $zero, 10
	ld.d	$s4, $sp, 160                   # 8-byte Folded Reload
	.p2align	4, , 16
.LBB5_275:                              # %.lr.ph1153
                                        # =>This Inner Loop Header: Depth=1
	ld.d	$a0, $sp, 352
	ld.d	$a0, $a0, -24
	ld.w	$a1, $s4, 0
	add.d	$a0, $s2, $a0
	st.d	$s3, $a0, 16
	addi.w	$a1, $a1, 1
.Ltmp429:                               # EH_LABEL
	addi.d	$a0, $sp, 352
	pcaddu18i	$ra, %call36(_ZNSolsEi)
	jirl	$ra, $ra, 0
.Ltmp430:                               # EH_LABEL
# %bb.276:                              #   in Loop: Header=BB5_275 Depth=1
	move	$fp, $a0
	ld.d	$a0, $a0, 0
	ld.d	$a0, $a0, -24
	add.d	$a0, $fp, $a0
	ld.d	$s0, $a0, 240
	beqz	$s0, .LBB5_457
# %bb.277:                              # %_ZSt13__check_facetISt5ctypeIcEERKT_PS3_.exit.i.i737
                                        #   in Loop: Header=BB5_275 Depth=1
	ld.bu	$a0, $s0, 56
	beqz	$a0, .LBB5_279
# %bb.278:                              #   in Loop: Header=BB5_275 Depth=1
	ld.bu	$a0, $s0, 67
	b	.LBB5_281
	.p2align	4, , 16
.LBB5_279:                              #   in Loop: Header=BB5_275 Depth=1
.Ltmp431:                               # EH_LABEL
	move	$a0, $s0
	pcaddu18i	$ra, %call36(_ZNKSt5ctypeIcE13_M_widen_initEv)
	jirl	$ra, $ra, 0
.Ltmp432:                               # EH_LABEL
# %bb.280:                              # %.noexc742
                                        #   in Loop: Header=BB5_275 Depth=1
	ld.d	$a0, $s0, 0
	ld.d	$a2, $a0, 48
.Ltmp433:                               # EH_LABEL
	ori	$a1, $zero, 10
	move	$a0, $s0
	jirl	$ra, $a2, 0
.Ltmp434:                               # EH_LABEL
.LBB5_281:                              # %_ZNKSt9basic_iosIcSt11char_traitsIcEE5widenEc.exit.i739
                                        #   in Loop: Header=BB5_275 Depth=1
.Ltmp435:                               # EH_LABEL
	ext.w.b	$a1, $a0
	move	$a0, $fp
	pcaddu18i	$ra, %call36(_ZNSo3putEc)
	jirl	$ra, $ra, 0
.Ltmp436:                               # EH_LABEL
# %bb.282:                              # %.noexc744
                                        #   in Loop: Header=BB5_275 Depth=1
.Ltmp437:                               # EH_LABEL
	pcaddu18i	$ra, %call36(_ZNSo5flushEv)
	jirl	$ra, $ra, 0
.Ltmp438:                               # EH_LABEL
# %bb.283:                              # %_ZNSolsEPFRSoS_E.exit418
                                        #   in Loop: Header=BB5_275 Depth=1
	ld.w	$a0, $s5, 180
	addi.d	$s1, $s1, 1
	addi.d	$s4, $s4, 4
	blt	$s1, $a0, .LBB5_275
# %bb.284:                              # %.preheader1065
	ori	$a1, $zero, 1
	ld.d	$s7, $sp, 200                   # 8-byte Folded Reload
	move	$s3, $s8
	blt	$a0, $a1, .LBB5_298
# %bb.285:                              # %.preheader1064.preheader
	move	$s0, $zero
	ld.d	$a0, $sp, 184                   # 8-byte Folded Reload
	addi.d	$s2, $a0, 8
	addi.d	$s4, $sp, 352
	ori	$s1, $zero, 10
	.p2align	4, , 16
.LBB5_286:                              # %.preheader1064
                                        # =>This Inner Loop Header: Depth=1
	ld.d	$a0, $sp, 352
	ld.d	$a0, $a0, -24
	add.d	$a0, $s4, $a0
	st.d	$s1, $a0, 16
	ld.w	$a0, $s2, -8
	addi.w	$a1, $a0, 1
.Ltmp440:                               # EH_LABEL
	addi.d	$a0, $sp, 352
	pcaddu18i	$ra, %call36(_ZNSolsEi)
	jirl	$ra, $ra, 0
.Ltmp441:                               # EH_LABEL
# %bb.287:                              #   in Loop: Header=BB5_286 Depth=1
	ld.d	$a0, $sp, 352
	ld.d	$a0, $a0, -24
	add.d	$a0, $s4, $a0
	st.d	$s1, $a0, 16
	ld.w	$a0, $s2, -4
	addi.w	$a1, $a0, 1
.Ltmp442:                               # EH_LABEL
	addi.d	$a0, $sp, 352
	pcaddu18i	$ra, %call36(_ZNSolsEi)
	jirl	$ra, $ra, 0
.Ltmp443:                               # EH_LABEL
# %bb.288:                              #   in Loop: Header=BB5_286 Depth=1
	ld.d	$a0, $sp, 352
	ld.d	$a0, $a0, -24
	ld.w	$a1, $s2, 0
	add.d	$a0, $s4, $a0
	st.d	$s1, $a0, 16
	addi.w	$a1, $a1, 1
.Ltmp444:                               # EH_LABEL
	addi.d	$a0, $sp, 352
	pcaddu18i	$ra, %call36(_ZNSolsEi)
	jirl	$ra, $ra, 0
.Ltmp445:                               # EH_LABEL
# %bb.289:                              #   in Loop: Header=BB5_286 Depth=1
	ld.d	$a0, $sp, 352
	ld.d	$a0, $a0, -24
	add.d	$a0, $s4, $a0
	st.d	$s1, $a0, 16
	ld.w	$a0, $s2, 4
	addi.w	$a1, $a0, 1
.Ltmp446:                               # EH_LABEL
	addi.d	$a0, $sp, 352
	pcaddu18i	$ra, %call36(_ZNSolsEi)
	jirl	$ra, $ra, 0
.Ltmp447:                               # EH_LABEL
# %bb.290:                              #   in Loop: Header=BB5_286 Depth=1
	ld.d	$a0, $sp, 352
	ld.d	$a0, $a0, -24
	add.d	$a0, $s4, $a0
	ld.d	$fp, $a0, 240
	beqz	$fp, .LBB5_465
# %bb.291:                              # %_ZSt13__check_facetISt5ctypeIcEERKT_PS3_.exit.i.i748
                                        #   in Loop: Header=BB5_286 Depth=1
	ld.bu	$a0, $fp, 56
	beqz	$a0, .LBB5_293
# %bb.292:                              #   in Loop: Header=BB5_286 Depth=1
	ld.bu	$a0, $fp, 67
	b	.LBB5_295
	.p2align	4, , 16
.LBB5_293:                              #   in Loop: Header=BB5_286 Depth=1
.Ltmp449:                               # EH_LABEL
	move	$a0, $fp
	pcaddu18i	$ra, %call36(_ZNKSt5ctypeIcE13_M_widen_initEv)
	jirl	$ra, $ra, 0
.Ltmp450:                               # EH_LABEL
# %bb.294:                              # %.noexc753
                                        #   in Loop: Header=BB5_286 Depth=1
	ld.d	$a0, $fp, 0
	ld.d	$a2, $a0, 48
.Ltmp451:                               # EH_LABEL
	ori	$a1, $zero, 10
	move	$a0, $fp
	jirl	$ra, $a2, 0
.Ltmp452:                               # EH_LABEL
.LBB5_295:                              # %_ZNKSt9basic_iosIcSt11char_traitsIcEE5widenEc.exit.i750
                                        #   in Loop: Header=BB5_286 Depth=1
.Ltmp453:                               # EH_LABEL
	ext.w.b	$a1, $a0
	addi.d	$a0, $sp, 352
	pcaddu18i	$ra, %call36(_ZNSo3putEc)
	jirl	$ra, $ra, 0
.Ltmp454:                               # EH_LABEL
# %bb.296:                              # %.noexc755
                                        #   in Loop: Header=BB5_286 Depth=1
.Ltmp455:                               # EH_LABEL
	pcaddu18i	$ra, %call36(_ZNSo5flushEv)
	jirl	$ra, $ra, 0
.Ltmp456:                               # EH_LABEL
# %bb.297:                              # %_ZNSolsEPFRSoS_E.exit420
                                        #   in Loop: Header=BB5_286 Depth=1
	ld.w	$a0, $s5, 180
	addi.d	$s0, $s0, 1
	addi.d	$s2, $s2, 16
	blt	$s0, $a0, .LBB5_286
.LBB5_298:                              # %.loopexit1066
	ld.d	$a0, $sp, 256                   # 8-byte Folded Reload
	slli.d	$s0, $a0, 30
	srai.d	$s1, $s0, 32
	srli.d	$a0, $s1, 61
	bnez	$a0, .LBB5_489
# %bb.299:                              # %_ZNSt6vectorIiSaIiEE17_S_check_init_lenEmRKS0_.exit.i422
	ld.d	$s4, $sp, 296                   # 8-byte Folded Reload
	beqz	$s0, .LBB5_303
# %bb.300:
	srai.d	$fp, $s0, 30
.Ltmp458:                               # EH_LABEL
	move	$a0, $fp
	pcaddu18i	$ra, %call36(_Znwm)
	jirl	$ra, $ra, 0
.Ltmp459:                               # EH_LABEL
# %bb.301:                              # %.noexc428
	move	$s2, $a0
	alsl.d	$a0, $s1, $a0, 2
	st.d	$a0, $sp, 32                    # 8-byte Folded Spill
	ori	$a0, $zero, 0
	lu32i.d	$a0, 1
	st.w	$zero, $s2, 0
	beq	$s0, $a0, .LBB5_304
# %bb.302:                              # %.lr.ph.i.preheader.i.i.i.i.i424
	addi.d	$a0, $s2, 4
	addi.d	$a2, $fp, -4
	move	$a1, $zero
	pcaddu18i	$ra, %call36(memset)
	jirl	$ra, $ra, 0
	b	.LBB5_304
.LBB5_303:
	move	$s2, $zero
	st.d	$zero, $sp, 32                  # 8-byte Folded Spill
.LBB5_304:                              # %_ZNSt6vectorIiSaIiEEC2EmRKS0_.exit429
	ld.w	$fp, $s5, 184
	ld.d	$a0, $sp, 224                   # 8-byte Folded Reload
	st.d	$s2, $sp, 256                   # 8-byte Folded Spill
	bge	$a0, $fp, .LBB5_491
# %bb.305:                              # %_ZNSt6vectorIiSaIiEE17_S_check_init_lenEmRKS0_.exit.i430
	beqz	$fp, .LBB5_313
# %bb.306:
	slli.d	$s0, $fp, 2
.Ltmp460:                               # EH_LABEL
	move	$a0, $s0
	pcaddu18i	$ra, %call36(_Znwm)
	jirl	$ra, $ra, 0
.Ltmp461:                               # EH_LABEL
# %bb.307:                              # %.noexc436
	move	$s1, $a0
	ori	$a0, $zero, 1
	st.w	$zero, $s1, 0
	beq	$fp, $a0, .LBB5_309
# %bb.308:                              # %.lr.ph.i.preheader.i.i.i.i.i432
	addi.d	$a0, $s1, 4
	addi.d	$a2, $s0, -4
	move	$a1, $zero
	pcaddu18i	$ra, %call36(memset)
	jirl	$ra, $ra, 0
.LBB5_309:
.Ltmp462:                               # EH_LABEL
	move	$s8, $s1
	alsl.d	$a0, $fp, $s1, 2
	st.d	$a0, $sp, 24                    # 8-byte Folded Spill
	move	$a0, $s0
	pcaddu18i	$ra, %call36(_Znwm)
	jirl	$ra, $ra, 0
.Ltmp463:                               # EH_LABEL
# %bb.310:                              # %.noexc444
	alsl.d	$a1, $fp, $a0, 2
	st.d	$a1, $sp, 16                    # 8-byte Folded Spill
	ori	$a1, $zero, 1
	st.w	$zero, $a0, 0
	st.d	$a0, $sp, 216                   # 8-byte Folded Spill
	beq	$fp, $a1, .LBB5_312
# %bb.311:                              # %.lr.ph.i.preheader.i.i.i.i.i440
	addi.d	$a0, $a0, 4
	addi.d	$a2, $s0, -4
	move	$a1, $zero
	pcaddu18i	$ra, %call36(memset)
	jirl	$ra, $ra, 0
.LBB5_312:                              # %_ZNSt6vectorIiSaIiEEC2EmRKS0_.exit445
	move	$a2, $s8
	b	.LBB5_314
.LBB5_313:
	st.d	$zero, $sp, 24                  # 8-byte Folded Spill
	move	$a2, $zero
	st.d	$zero, $sp, 216                 # 8-byte Folded Spill
	st.d	$zero, $sp, 16                  # 8-byte Folded Spill
.LBB5_314:                              # %_ZNSt6vectorIiSaIiEEC2EmRKS0_.exit445
	ld.d	$a0, $s5, 56
	ld.d	$a3, $s5, 152
.Ltmp465:                               # EH_LABEL
	move	$s0, $zero
	st.d	$zero, $sp, 304                 # 8-byte Folded Spill
	ld.d	$fp, $sp, 168                   # 8-byte Folded Reload
	move	$a1, $fp
	st.d	$a2, $sp, 152                   # 8-byte Folded Spill
	pcaddu18i	$ra, %call36(_ZN8Parallel7gathervIiEEvPKT_iPS1_PKi)
	jirl	$ra, $ra, 0
.Ltmp466:                               # EH_LABEL
# %bb.315:                              # %.preheader1063
	ori	$s5, $zero, 1
	st.d	$s3, $sp, 144                   # 8-byte Folded Spill
	blt	$fp, $s5, .LBB5_331
# %bb.316:                              # %.lr.ph1169
	move	$a2, $zero
	st.d	$zero, $sp, 304                 # 8-byte Folded Spill
	move	$s2, $zero
	move	$s0, $zero
	ld.d	$a0, $sp, 240                   # 8-byte Folded Reload
	bstrpick.d	$a0, $a0, 30, 0
	st.d	$a0, $sp, 240                   # 8-byte Folded Spill
	addi.w	$a0, $zero, -4
	lu52i.d	$a0, $a0, 2047
	st.d	$a0, $sp, 280                   # 8-byte Folded Spill
	ld.d	$a0, $sp, 224                   # 8-byte Folded Reload
	lu52i.d	$s1, $a0, 511
	b	.LBB5_318
	.p2align	4, , 16
.LBB5_317:                              # %._crit_edge1162
                                        #   in Loop: Header=BB5_318 Depth=1
	ld.d	$a2, $sp, 264                   # 8-byte Folded Reload
	addi.d	$a2, $a2, 1
	ld.d	$a0, $sp, 240                   # 8-byte Folded Reload
	beq	$a2, $a0, .LBB5_330
.LBB5_318:                              # =>This Loop Header: Depth=1
                                        #     Child Loop BB5_322 Depth 2
	ld.d	$a1, $sp, 272                   # 8-byte Folded Reload
	ld.d	$a0, $a1, 56
	st.d	$a2, $sp, 264                   # 8-byte Folded Spill
	slli.d	$a2, $a2, 2
	ldx.w	$a0, $a0, $a2
	ld.d	$a1, $a1, 80
	slli.d	$a3, $a0, 2
	ld.d	$a5, $sp, 248                   # 8-byte Folded Reload
	ldx.w	$a4, $a5, $a3
	ldx.w	$a1, $a1, $a3
	ld.d	$a3, $sp, 256                   # 8-byte Folded Reload
	stx.w	$a4, $a3, $a2
	blt	$a4, $s5, .LBB5_317
# %bb.319:                              # %.lr.ph1161.preheader
                                        #   in Loop: Header=BB5_318 Depth=1
	move	$s3, $zero
	alsl.d	$s7, $a0, $a5, 2
	ld.d	$a0, $sp, 232                   # 8-byte Folded Reload
	alsl.d	$fp, $a1, $a0, 2
	move	$s8, $s0
	b	.LBB5_322
	.p2align	4, , 16
.LBB5_320:                              #   in Loop: Header=BB5_322 Depth=2
	st.w	$s4, $s2, 0
	move	$s0, $s8
	ld.d	$s4, $sp, 296                   # 8-byte Folded Reload
.LBB5_321:                              # %_ZNSt6vectorIiSaIiEE9push_backEOi.exit
                                        #   in Loop: Header=BB5_322 Depth=2
	ld.w	$a0, $s7, 0
	addi.d	$s2, $s2, 4
	addi.d	$s3, $s3, 1
	addi.d	$fp, $fp, 4
	bge	$s3, $a0, .LBB5_317
.LBB5_322:                              # %.lr.ph1161
                                        #   Parent Loop BB5_318 Depth=1
                                        # =>  This Inner Loop Header: Depth=2
	ld.w	$a0, $fp, 0
	ld.w	$a1, $sp, 316
	add.d	$s4, $a1, $a0
	ld.d	$a0, $sp, 304                   # 8-byte Folded Reload
	bne	$s2, $a0, .LBB5_320
# %bb.323:                              #   in Loop: Header=BB5_322 Depth=2
	sub.d	$s2, $a0, $s8
	ld.d	$a0, $sp, 280                   # 8-byte Folded Reload
	beq	$s2, $a0, .LBB5_453
# %bb.324:                              # %_ZNKSt6vectorIiSaIiEE12_M_check_lenEmPKc.exit.i.i.i
                                        #   in Loop: Header=BB5_322 Depth=2
	srai.d	$a0, $s2, 2
	sltu	$a1, $s5, $a0
	masknez	$a2, $s5, $a1
	maskeqz	$a1, $a0, $a1
	or	$a1, $a1, $a2
	add.d	$a0, $a1, $a0
	sltu	$a1, $a0, $s1
	maskeqz	$a0, $a0, $a1
	masknez	$a1, $s1, $a1
	or	$s6, $a0, $a1
	slli.d	$a0, $s6, 2
.Ltmp467:                               # EH_LABEL
	pcaddu18i	$ra, %call36(_Znwm)
	jirl	$ra, $ra, 0
.Ltmp468:                               # EH_LABEL
# %bb.325:                              # %.noexc449
                                        #   in Loop: Header=BB5_322 Depth=2
	move	$s0, $a0
	stx.w	$s4, $a0, $s2
	blt	$s2, $s5, .LBB5_327
# %bb.326:                              #   in Loop: Header=BB5_322 Depth=2
	move	$a0, $s0
	move	$a1, $s8
	move	$a2, $s2
	pcaddu18i	$ra, %call36(memcpy)
	jirl	$ra, $ra, 0
.LBB5_327:                              # %_ZNSt6vectorIiSaIiEE11_S_relocateEPiS2_S2_RS0_.exit.i.i.i
                                        #   in Loop: Header=BB5_322 Depth=2
	ld.d	$s4, $sp, 296                   # 8-byte Folded Reload
	beqz	$s8, .LBB5_329
# %bb.328:                              # %_ZNSt12_Vector_baseIiSaIiEE13_M_deallocateEPim.exit.i.i.i.i
                                        #   in Loop: Header=BB5_322 Depth=2
	move	$a0, $s8
	move	$a1, $s2
	pcaddu18i	$ra, %call36(_ZdlPvm)
	jirl	$ra, $ra, 0
.LBB5_329:                              # %_ZNSt6vectorIiSaIiEE17_M_realloc_appendIJiEEEvDpOT_.exit.i.i
                                        #   in Loop: Header=BB5_322 Depth=2
	add.d	$s2, $s0, $s2
	alsl.d	$a0, $s6, $s0, 2
	st.d	$a0, $sp, 304                   # 8-byte Folded Spill
	move	$s8, $s0
	ld.d	$s6, $sp, 288                   # 8-byte Folded Reload
	b	.LBB5_321
.LBB5_330:                              # %._crit_edge1170.loopexit
	ld.d	$s7, $sp, 200                   # 8-byte Folded Reload
	ld.d	$s3, $sp, 144                   # 8-byte Folded Reload
	ld.d	$fp, $sp, 168                   # 8-byte Folded Reload
	b	.LBB5_332
.LBB5_331:
	move	$s0, $zero
	move	$s2, $zero
	st.d	$zero, $sp, 304                 # 8-byte Folded Spill
.LBB5_332:                              # %._crit_edge1170
	ld.d	$a0, $sp, 272                   # 8-byte Folded Reload
	ld.d	$a3, $a0, 152
.Ltmp470:                               # EH_LABEL
	ld.d	$a0, $sp, 256                   # 8-byte Folded Reload
	move	$a1, $fp
	ld.d	$a2, $sp, 216                   # 8-byte Folded Reload
	pcaddu18i	$ra, %call36(_ZN8Parallel7gathervIiEEvPKT_iPS1_PKi)
	jirl	$ra, $ra, 0
.Ltmp471:                               # EH_LABEL
# %bb.333:
	sub.d	$a0, $s2, $s0
	srai.d	$a0, $a0, 2
	addi.w	$s8, $a0, 0
.Ltmp473:                               # EH_LABEL
	move	$a0, $s8
	ld.d	$s2, $sp, 208                   # 8-byte Folded Reload
	move	$a1, $s2
	pcaddu18i	$ra, %call36(_ZN8Parallel6gatherEiPi)
	jirl	$ra, $ra, 0
.Ltmp474:                               # EH_LABEL
# %bb.334:
	ld.d	$a5, $sp, 40                    # 8-byte Folded Reload
	beq	$s2, $a5, .LBB5_346
# %bb.335:                              # %.lr.ph.i452.preheader
	sub.d	$a0, $a5, $s2
	addi.d	$a0, $a0, -4
	ori	$a1, $zero, 28
	bgeu	$a0, $a1, .LBB5_337
# %bb.336:
	move	$a3, $zero
	move	$a0, $s2
	b	.LBB5_340
.LBB5_337:                              # %vector.ph1459
	srli.d	$a0, $a0, 2
	addi.d	$a1, $a0, 1
	bstrpick.d	$a0, $a1, 62, 3
	slli.d	$a2, $a0, 3
	slli.d	$a0, $a0, 5
	add.d	$a0, $s2, $a0
	vrepli.b	$vr0, 0
	addi.d	$a3, $s2, 16
	move	$a4, $a2
	vori.b	$vr1, $vr0, 0
	.p2align	4, , 16
.LBB5_338:                              # %vector.body1462
                                        # =>This Inner Loop Header: Depth=1
	vld	$vr2, $a3, -16
	vld	$vr3, $a3, 0
	vadd.w	$vr0, $vr2, $vr0
	vadd.w	$vr1, $vr3, $vr1
	addi.d	$a4, $a4, -8
	addi.d	$a3, $a3, 32
	bnez	$a4, .LBB5_338
# %bb.339:                              # %middle.block1471
	vadd.w	$vr0, $vr1, $vr0
	vhaddw.d.w	$vr0, $vr0, $vr0
	vhaddw.q.d	$vr0, $vr0, $vr0
	vpickve2gr.d	$a3, $vr0, 0
	beq	$a1, $a2, .LBB5_341
	.p2align	4, , 16
.LBB5_340:                              # %.lr.ph.i452
                                        # =>This Inner Loop Header: Depth=1
	ld.w	$a1, $a0, 0
	addi.d	$a0, $a0, 4
	add.d	$a3, $a1, $a3
	bne	$a0, $a5, .LBB5_340
.LBB5_341:                              # %_ZSt10accumulateIN9__gnu_cxx17__normal_iteratorIPiSt6vectorIiSaIiEEEEiET0_T_S8_S7_.exit458
	addi.w	$fp, $a3, 0
	ld.d	$a0, $sp, 224                   # 8-byte Folded Reload
	bge	$a0, $fp, .LBB5_501
# %bb.342:                              # %_ZNSt6vectorIiSaIiEE17_S_check_init_lenEmRKS0_.exit.i459
	beqz	$fp, .LBB5_346
# %bb.343:
	slli.d	$s2, $fp, 2
.Ltmp476:                               # EH_LABEL
	move	$a0, $s2
	pcaddu18i	$ra, %call36(_Znwm)
	jirl	$ra, $ra, 0
.Ltmp477:                               # EH_LABEL
# %bb.344:                              # %.noexc465
	move	$s5, $a0
	alsl.d	$a0, $fp, $a0, 2
	st.d	$a0, $sp, 280                   # 8-byte Folded Spill
	ori	$a0, $zero, 1
	st.w	$zero, $s5, 0
	beq	$fp, $a0, .LBB5_347
# %bb.345:                              # %.lr.ph.i.preheader.i.i.i.i.i461
	addi.d	$a0, $s5, 4
	addi.d	$a2, $s2, -4
	move	$a1, $zero
	pcaddu18i	$ra, %call36(memset)
	jirl	$ra, $ra, 0
	b	.LBB5_347
.LBB5_346:
	move	$s5, $zero
	st.d	$zero, $sp, 280                 # 8-byte Folded Spill
.LBB5_347:                              # %_ZNSt6vectorIiSaIiEEC2EmRKS0_.exit466
.Ltmp481:                               # EH_LABEL
	move	$a0, $s0
	move	$a1, $s8
	move	$a2, $s5
	ld.d	$a3, $sp, 208                   # 8-byte Folded Reload
	pcaddu18i	$ra, %call36(_ZN8Parallel7gathervIiEEvPKT_iPS1_PKi)
	jirl	$ra, $ra, 0
.Ltmp482:                               # EH_LABEL
# %bb.348:
	ld.w	$a0, $s7, 0
	bnez	$a0, .LBB5_403
# %bb.349:
	ld.d	$a1, $sp, 272                   # 8-byte Folded Reload
	ld.w	$a1, $a1, 184
	ori	$a2, $zero, 1
	blt	$a1, $a2, .LBB5_403
# %bb.350:
.Ltmp483:                               # EH_LABEL
	pcalau12i	$a0, %pc_hi20(.L.str.29)
	addi.d	$a1, $a0, %pc_lo12(.L.str.29)
	addi.d	$a0, $sp, 352
	ori	$a2, $zero, 6
	addi.d	$fp, $sp, 352
	pcaddu18i	$ra, %call36(_ZSt16__ostream_insertIcSt11char_traitsIcEERSt13basic_ostreamIT_T0_ES6_PKS3_l)
	jirl	$ra, $ra, 0
.Ltmp484:                               # EH_LABEL
# %bb.351:                              # %_ZStlsISt11char_traitsIcEERSt13basic_ostreamIcT_ES5_PKc.exit468
	ld.d	$a0, $sp, 352
	ld.d	$a0, $a0, -24
	add.d	$a0, $fp, $a0
	ld.d	$s2, $a0, 240
	beqz	$s2, .LBB5_493
# %bb.352:                              # %_ZSt13__check_facetISt5ctypeIcEERKT_PS3_.exit.i.i759
	ld.bu	$a0, $s2, 56
	beqz	$a0, .LBB5_354
# %bb.353:
	ld.bu	$a0, $s2, 67
	b	.LBB5_356
.LBB5_354:
.Ltmp485:                               # EH_LABEL
	move	$a0, $s2
	pcaddu18i	$ra, %call36(_ZNKSt5ctypeIcE13_M_widen_initEv)
	jirl	$ra, $ra, 0
.Ltmp486:                               # EH_LABEL
# %bb.355:                              # %.noexc764
	ld.d	$a0, $s2, 0
	ld.d	$a2, $a0, 48
.Ltmp487:                               # EH_LABEL
	ori	$a1, $zero, 10
	move	$a0, $s2
	jirl	$ra, $a2, 0
.Ltmp488:                               # EH_LABEL
.LBB5_356:                              # %_ZNKSt9basic_iosIcSt11char_traitsIcEE5widenEc.exit.i761
.Ltmp489:                               # EH_LABEL
	ext.w.b	$a1, $a0
	addi.d	$a0, $sp, 352
	pcaddu18i	$ra, %call36(_ZNSo3putEc)
	jirl	$ra, $ra, 0
.Ltmp490:                               # EH_LABEL
# %bb.357:                              # %.noexc766
.Ltmp491:                               # EH_LABEL
	pcaddu18i	$ra, %call36(_ZNSo5flushEv)
	jirl	$ra, $ra, 0
.Ltmp492:                               # EH_LABEL
# %bb.358:
	ld.d	$a0, $sp, 352
	ld.d	$a0, $a0, -24
	addi.d	$a2, $sp, 352
	ld.d	$a1, $sp, 272                   # 8-byte Folded Reload
	ld.w	$a1, $a1, 184
	add.d	$a0, $a2, $a0
	ori	$a2, $zero, 10
	st.d	$a2, $a0, 16
.Ltmp493:                               # EH_LABEL
	addi.d	$a0, $sp, 352
	pcaddu18i	$ra, %call36(_ZNSolsEi)
	jirl	$ra, $ra, 0
.Ltmp494:                               # EH_LABEL
# %bb.359:
	move	$s8, $a0
	ld.d	$a0, $a0, 0
	ld.d	$a0, $a0, -24
	add.d	$a0, $s8, $a0
	ld.d	$s2, $a0, 240
	beqz	$s2, .LBB5_493
# %bb.360:                              # %_ZSt13__check_facetISt5ctypeIcEERKT_PS3_.exit.i.i770
	ld.bu	$a0, $s2, 56
	beqz	$a0, .LBB5_362
# %bb.361:
	ld.bu	$a0, $s2, 67
	b	.LBB5_364
.LBB5_362:
.Ltmp495:                               # EH_LABEL
	move	$a0, $s2
	pcaddu18i	$ra, %call36(_ZNKSt5ctypeIcE13_M_widen_initEv)
	jirl	$ra, $ra, 0
.Ltmp496:                               # EH_LABEL
# %bb.363:                              # %.noexc775
	ld.d	$a0, $s2, 0
	ld.d	$a2, $a0, 48
.Ltmp497:                               # EH_LABEL
	ori	$a1, $zero, 10
	move	$a0, $s2
	jirl	$ra, $a2, 0
.Ltmp498:                               # EH_LABEL
.LBB5_364:                              # %_ZNKSt9basic_iosIcSt11char_traitsIcEE5widenEc.exit.i772
.Ltmp499:                               # EH_LABEL
	ext.w.b	$a1, $a0
	move	$a0, $s8
	pcaddu18i	$ra, %call36(_ZNSo3putEc)
	jirl	$ra, $ra, 0
.Ltmp500:                               # EH_LABEL
# %bb.365:                              # %.noexc777
.Ltmp501:                               # EH_LABEL
	pcaddu18i	$ra, %call36(_ZNSo5flushEv)
	jirl	$ra, $ra, 0
.Ltmp502:                               # EH_LABEL
# %bb.366:                              # %_ZNSolsEPFRSoS_E.exit473.preheader
	ld.d	$a0, $sp, 272                   # 8-byte Folded Reload
	ld.w	$a0, $a0, 184
	ori	$a1, $zero, 1
	blt	$a0, $a1, .LBB5_402
# %bb.367:                              # %.lr.ph1175.preheader
	move	$fp, $zero
	addi.d	$s1, $sp, 352
	ori	$s3, $zero, 10
	ld.d	$s4, $sp, 152                   # 8-byte Folded Reload
	.p2align	4, , 16
.LBB5_368:                              # %.lr.ph1175
                                        # =>This Inner Loop Header: Depth=1
	ld.d	$a0, $sp, 352
	ld.d	$a0, $a0, -24
	ld.w	$a1, $s4, 0
	add.d	$a0, $s1, $a0
	st.d	$s3, $a0, 16
	addi.w	$a1, $a1, 1
.Ltmp503:                               # EH_LABEL
	addi.d	$a0, $sp, 352
	pcaddu18i	$ra, %call36(_ZNSolsEi)
	jirl	$ra, $ra, 0
.Ltmp504:                               # EH_LABEL
# %bb.369:                              #   in Loop: Header=BB5_368 Depth=1
	move	$s8, $a0
	ld.d	$a0, $a0, 0
	ld.d	$a0, $a0, -24
	add.d	$a0, $s8, $a0
	ld.d	$s2, $a0, 240
	beqz	$s2, .LBB5_459
# %bb.370:                              # %_ZSt13__check_facetISt5ctypeIcEERKT_PS3_.exit.i.i781
                                        #   in Loop: Header=BB5_368 Depth=1
	ld.bu	$a0, $s2, 56
	beqz	$a0, .LBB5_372
# %bb.371:                              #   in Loop: Header=BB5_368 Depth=1
	ld.bu	$a0, $s2, 67
	b	.LBB5_374
	.p2align	4, , 16
.LBB5_372:                              #   in Loop: Header=BB5_368 Depth=1
.Ltmp505:                               # EH_LABEL
	move	$a0, $s2
	pcaddu18i	$ra, %call36(_ZNKSt5ctypeIcE13_M_widen_initEv)
	jirl	$ra, $ra, 0
.Ltmp506:                               # EH_LABEL
# %bb.373:                              # %.noexc786
                                        #   in Loop: Header=BB5_368 Depth=1
	ld.d	$a0, $s2, 0
	ld.d	$a2, $a0, 48
.Ltmp507:                               # EH_LABEL
	ori	$a1, $zero, 10
	move	$a0, $s2
	jirl	$ra, $a2, 0
.Ltmp508:                               # EH_LABEL
.LBB5_374:                              # %_ZNKSt9basic_iosIcSt11char_traitsIcEE5widenEc.exit.i783
                                        #   in Loop: Header=BB5_368 Depth=1
.Ltmp509:                               # EH_LABEL
	ext.w.b	$a1, $a0
	move	$a0, $s8
	pcaddu18i	$ra, %call36(_ZNSo3putEc)
	jirl	$ra, $ra, 0
.Ltmp510:                               # EH_LABEL
# %bb.375:                              # %.noexc788
                                        #   in Loop: Header=BB5_368 Depth=1
.Ltmp511:                               # EH_LABEL
	pcaddu18i	$ra, %call36(_ZNSo5flushEv)
	jirl	$ra, $ra, 0
.Ltmp512:                               # EH_LABEL
# %bb.376:                              # %_ZNSolsEPFRSoS_E.exit476
                                        #   in Loop: Header=BB5_368 Depth=1
	ld.d	$a0, $sp, 272                   # 8-byte Folded Reload
	ld.w	$a0, $a0, 184
	addi.d	$fp, $fp, 1
	addi.d	$s4, $s4, 4
	blt	$fp, $a0, .LBB5_368
# %bb.377:                              # %.preheader1047
	ori	$a1, $zero, 1
	blt	$a0, $a1, .LBB5_402
# %bb.378:                              # %.lr.ph1177.preheader
	move	$fp, $zero
	addi.d	$s1, $sp, 352
	ori	$s3, $zero, 10
	ld.d	$s4, $sp, 216                   # 8-byte Folded Reload
	.p2align	4, , 16
.LBB5_379:                              # %.lr.ph1177
                                        # =>This Inner Loop Header: Depth=1
	ld.d	$a0, $sp, 352
	ld.d	$a0, $a0, -24
	ld.w	$a1, $s4, 0
	add.d	$a0, $s1, $a0
	st.d	$s3, $a0, 16
.Ltmp514:                               # EH_LABEL
	addi.d	$a0, $sp, 352
	pcaddu18i	$ra, %call36(_ZNSolsEi)
	jirl	$ra, $ra, 0
.Ltmp515:                               # EH_LABEL
# %bb.380:                              #   in Loop: Header=BB5_379 Depth=1
	move	$s8, $a0
	ld.d	$a0, $a0, 0
	ld.d	$a0, $a0, -24
	add.d	$a0, $s8, $a0
	ld.d	$s2, $a0, 240
	beqz	$s2, .LBB5_467
# %bb.381:                              # %_ZSt13__check_facetISt5ctypeIcEERKT_PS3_.exit.i.i792
                                        #   in Loop: Header=BB5_379 Depth=1
	ld.bu	$a0, $s2, 56
	beqz	$a0, .LBB5_383
# %bb.382:                              #   in Loop: Header=BB5_379 Depth=1
	ld.bu	$a0, $s2, 67
	b	.LBB5_385
	.p2align	4, , 16
.LBB5_383:                              #   in Loop: Header=BB5_379 Depth=1
.Ltmp516:                               # EH_LABEL
	move	$a0, $s2
	pcaddu18i	$ra, %call36(_ZNKSt5ctypeIcE13_M_widen_initEv)
	jirl	$ra, $ra, 0
.Ltmp517:                               # EH_LABEL
# %bb.384:                              # %.noexc797
                                        #   in Loop: Header=BB5_379 Depth=1
	ld.d	$a0, $s2, 0
	ld.d	$a2, $a0, 48
.Ltmp518:                               # EH_LABEL
	ori	$a1, $zero, 10
	move	$a0, $s2
	jirl	$ra, $a2, 0
.Ltmp519:                               # EH_LABEL
.LBB5_385:                              # %_ZNKSt9basic_iosIcSt11char_traitsIcEE5widenEc.exit.i794
                                        #   in Loop: Header=BB5_379 Depth=1
.Ltmp520:                               # EH_LABEL
	ext.w.b	$a1, $a0
	move	$a0, $s8
	pcaddu18i	$ra, %call36(_ZNSo3putEc)
	jirl	$ra, $ra, 0
.Ltmp521:                               # EH_LABEL
# %bb.386:                              # %.noexc799
                                        #   in Loop: Header=BB5_379 Depth=1
.Ltmp522:                               # EH_LABEL
	pcaddu18i	$ra, %call36(_ZNSo5flushEv)
	jirl	$ra, $ra, 0
.Ltmp523:                               # EH_LABEL
# %bb.387:                              # %_ZNSolsEPFRSoS_E.exit479
                                        #   in Loop: Header=BB5_379 Depth=1
	ld.d	$a0, $sp, 272                   # 8-byte Folded Reload
	ld.w	$a0, $a0, 184
	addi.d	$fp, $fp, 1
	addi.d	$s4, $s4, 4
	blt	$fp, $a0, .LBB5_379
# %bb.388:                              # %.preheader1046
	ori	$s1, $zero, 1
	blt	$a0, $s1, .LBB5_402
# %bb.389:                              # %.preheader.preheader
	move	$s4, $zero
	move	$s6, $zero
	addi.d	$s7, $sp, 352
	ori	$s8, $zero, 10
	.p2align	4, , 16
.LBB5_390:                              # %.preheader
                                        # =>This Loop Header: Depth=1
                                        #     Child Loop BB5_392 Depth 2
	slli.d	$a0, $s4, 2
	ld.d	$a1, $sp, 216                   # 8-byte Folded Reload
	ldx.w	$a0, $a1, $a0
	alsl.d	$s3, $s4, $a1, 2
	blt	$a0, $s1, .LBB5_394
# %bb.391:                              # %.lr.ph1179.preheader
                                        #   in Loop: Header=BB5_390 Depth=1
	move	$fp, $zero
	alsl.d	$s2, $s6, $s5, 2
	.p2align	4, , 16
.LBB5_392:                              # %.lr.ph1179
                                        #   Parent Loop BB5_390 Depth=1
                                        # =>  This Inner Loop Header: Depth=2
	ld.d	$a0, $sp, 352
	ld.d	$a0, $a0, -24
	ld.w	$a1, $s2, 0
	add.d	$a0, $s7, $a0
	st.d	$s8, $a0, 16
	addi.w	$a1, $a1, 1
.Ltmp525:                               # EH_LABEL
	addi.d	$a0, $sp, 352
	pcaddu18i	$ra, %call36(_ZNSolsEi)
	jirl	$ra, $ra, 0
.Ltmp526:                               # EH_LABEL
# %bb.393:                              #   in Loop: Header=BB5_392 Depth=2
	ld.w	$a0, $s3, 0
	addi.d	$fp, $fp, 1
	addi.d	$s2, $s2, 4
	blt	$fp, $a0, .LBB5_392
.LBB5_394:                              # %._crit_edge1180
                                        #   in Loop: Header=BB5_390 Depth=1
	ld.d	$a0, $sp, 352
	ld.d	$a0, $a0, -24
	add.d	$a0, $s7, $a0
	ld.d	$s2, $a0, 240
	beqz	$s2, .LBB5_471
# %bb.395:                              # %_ZSt13__check_facetISt5ctypeIcEERKT_PS3_.exit.i.i803
                                        #   in Loop: Header=BB5_390 Depth=1
	ld.bu	$a0, $s2, 56
	beqz	$a0, .LBB5_397
# %bb.396:                              #   in Loop: Header=BB5_390 Depth=1
	ld.bu	$a0, $s2, 67
	b	.LBB5_399
	.p2align	4, , 16
.LBB5_397:                              #   in Loop: Header=BB5_390 Depth=1
.Ltmp528:                               # EH_LABEL
	move	$a0, $s2
	pcaddu18i	$ra, %call36(_ZNKSt5ctypeIcE13_M_widen_initEv)
	jirl	$ra, $ra, 0
.Ltmp529:                               # EH_LABEL
# %bb.398:                              # %.noexc808
                                        #   in Loop: Header=BB5_390 Depth=1
	ld.d	$a0, $s2, 0
	ld.d	$a2, $a0, 48
.Ltmp530:                               # EH_LABEL
	ori	$a1, $zero, 10
	move	$a0, $s2
	jirl	$ra, $a2, 0
.Ltmp531:                               # EH_LABEL
.LBB5_399:                              # %_ZNKSt9basic_iosIcSt11char_traitsIcEE5widenEc.exit.i805
                                        #   in Loop: Header=BB5_390 Depth=1
.Ltmp532:                               # EH_LABEL
	ext.w.b	$a1, $a0
	addi.d	$a0, $sp, 352
	pcaddu18i	$ra, %call36(_ZNSo3putEc)
	jirl	$ra, $ra, 0
.Ltmp533:                               # EH_LABEL
# %bb.400:                              # %.noexc810
                                        #   in Loop: Header=BB5_390 Depth=1
.Ltmp534:                               # EH_LABEL
	pcaddu18i	$ra, %call36(_ZNSo5flushEv)
	jirl	$ra, $ra, 0
.Ltmp535:                               # EH_LABEL
# %bb.401:                              # %_ZNSolsEPFRSoS_E.exit481
                                        #   in Loop: Header=BB5_390 Depth=1
	ld.w	$a0, $s3, 0
	ld.d	$a1, $sp, 272                   # 8-byte Folded Reload
	ld.w	$a1, $a1, 184
	addi.d	$s4, $s4, 1
	add.w	$s6, $a0, $s6
	blt	$s4, $a1, .LBB5_390
.LBB5_402:                              # %thread-pre-split
	ld.d	$a0, $sp, 200                   # 8-byte Folded Reload
	ld.w	$a0, $a0, 0
	ld.d	$s6, $sp, 288                   # 8-byte Folded Reload
	ld.d	$s4, $sp, 296                   # 8-byte Folded Reload
	ld.d	$s3, $sp, 144                   # 8-byte Folded Reload
.LBB5_403:
	bnez	$a0, .LBB5_407
# %bb.404:
	addi.d	$a0, $sp, 360
.Ltmp537:                               # EH_LABEL
	pcaddu18i	$ra, %call36(_ZNSt13basic_filebufIcSt11char_traitsIcEE5closeEv)
	jirl	$ra, $ra, 0
.Ltmp538:                               # EH_LABEL
# %bb.405:                              # %.noexc484
	bnez	$a0, .LBB5_407
# %bb.406:
	ld.d	$a0, $sp, 352
	ld.d	$a0, $a0, -24
	addi.d	$a1, $sp, 352
	add.d	$a0, $a1, $a0
	ld.w	$a1, $a0, 32
	ori	$a1, $a1, 4
.Ltmp539:                               # EH_LABEL
	pcaddu18i	$ra, %call36(_ZNSt9basic_iosIcSt11char_traitsIcEE5clearESt12_Ios_Iostate)
	jirl	$ra, $ra, 0
.Ltmp540:                               # EH_LABEL
.LBB5_407:                              # %_ZNSt6vectorIiSaIiEED2Ev.exit512
	ld.d	$a0, $sp, 280                   # 8-byte Folded Reload
	sub.d	$a1, $a0, $s5
	move	$a0, $s5
	pcaddu18i	$ra, %call36(_ZdlPvm)
	jirl	$ra, $ra, 0
	ld.d	$a0, $sp, 216                   # 8-byte Folded Reload
	ld.d	$a1, $sp, 16                    # 8-byte Folded Reload
	sub.d	$a1, $a1, $a0
	pcaddu18i	$ra, %call36(_ZdlPvm)
	jirl	$ra, $ra, 0
	ld.d	$a0, $sp, 152                   # 8-byte Folded Reload
	ld.d	$a1, $sp, 24                    # 8-byte Folded Reload
	sub.d	$a1, $a1, $a0
	pcaddu18i	$ra, %call36(_ZdlPvm)
	jirl	$ra, $ra, 0
	ld.d	$a0, $sp, 304                   # 8-byte Folded Reload
	sub.d	$a1, $a0, $s0
	move	$a0, $s0
	pcaddu18i	$ra, %call36(_ZdlPvm)
	jirl	$ra, $ra, 0
	ld.d	$a0, $sp, 256                   # 8-byte Folded Reload
	ld.d	$a1, $sp, 32                    # 8-byte Folded Reload
	sub.d	$a1, $a1, $a0
	pcaddu18i	$ra, %call36(_ZdlPvm)
	jirl	$ra, $ra, 0
	ld.d	$a0, $sp, 184                   # 8-byte Folded Reload
	ld.d	$a1, $sp, 64                    # 8-byte Folded Reload
	sub.d	$a1, $a1, $a0
	pcaddu18i	$ra, %call36(_ZdlPvm)
	jirl	$ra, $ra, 0
	ld.d	$a0, $sp, 160                   # 8-byte Folded Reload
	ld.d	$a1, $sp, 48                    # 8-byte Folded Reload
	sub.d	$a1, $a1, $a0
	pcaddu18i	$ra, %call36(_ZdlPvm)
	jirl	$ra, $ra, 0
	ld.d	$a0, $sp, 56                    # 8-byte Folded Reload
	sub.d	$a1, $a0, $s3
	move	$a0, $s3
	pcaddu18i	$ra, %call36(_ZdlPvm)
	jirl	$ra, $ra, 0
	ld.d	$a0, $sp, 192                   # 8-byte Folded Reload
	ld.d	$a1, $sp, 96                    # 8-byte Folded Reload
	sub.d	$a1, $a1, $a0
	pcaddu18i	$ra, %call36(_ZdlPvm)
	jirl	$ra, $ra, 0
	ld.d	$a0, $sp, 72                    # 8-byte Folded Reload
	sub.d	$a1, $a0, $s4
	move	$a0, $s4
	pcaddu18i	$ra, %call36(_ZdlPvm)
	jirl	$ra, $ra, 0
	ld.d	$a0, $sp, 176                   # 8-byte Folded Reload
	ld.d	$a1, $sp, 80                    # 8-byte Folded Reload
	sub.d	$a1, $a1, $a0
	pcaddu18i	$ra, %call36(_ZdlPvm)
	jirl	$ra, $ra, 0
	ld.d	$a0, $sp, 208                   # 8-byte Folded Reload
	ld.d	$a1, $sp, 88                    # 8-byte Folded Reload
	sub.d	$a1, $a1, $a0
	pcaddu18i	$ra, %call36(_ZdlPvm)
	jirl	$ra, $ra, 0
	ld.d	$a0, $sp, 112                   # 8-byte Folded Reload
	sub.d	$a1, $a0, $s6
	move	$a0, $s6
	pcaddu18i	$ra, %call36(_ZdlPvm)
	jirl	$ra, $ra, 0
	ld.d	$a0, $sp, 120                   # 8-byte Folded Reload
	ld.d	$a2, $sp, 128                   # 8-byte Folded Reload
	sub.d	$a1, $a0, $a2
	move	$a0, $a2
	pcaddu18i	$ra, %call36(_ZdlPvm)
	jirl	$ra, $ra, 0
	ld.d	$a0, $sp, 104                   # 8-byte Folded Reload
	ld.d	$a1, $sp, 136                   # 8-byte Folded Reload
	sub.d	$a1, $a1, $a0
	pcaddu18i	$ra, %call36(_ZdlPvm)
	jirl	$ra, $ra, 0
	addi.d	$a0, $sp, 352
	pcaddu18i	$ra, %call36(_ZNSt14basic_ofstreamIcSt11char_traitsIcEED1Ev)
	jirl	$ra, $ra, 0
	fld.d	$fs0, $sp, 864                  # 8-byte Folded Reload
	ld.d	$s8, $sp, 872                   # 8-byte Folded Reload
	ld.d	$s7, $sp, 880                   # 8-byte Folded Reload
	ld.d	$s6, $sp, 888                   # 8-byte Folded Reload
	ld.d	$s5, $sp, 896                   # 8-byte Folded Reload
	ld.d	$s4, $sp, 904                   # 8-byte Folded Reload
	ld.d	$s3, $sp, 912                   # 8-byte Folded Reload
	ld.d	$s2, $sp, 920                   # 8-byte Folded Reload
	ld.d	$s1, $sp, 928                   # 8-byte Folded Reload
	ld.d	$s0, $sp, 936                   # 8-byte Folded Reload
	ld.d	$fp, $sp, 944                   # 8-byte Folded Reload
	ld.d	$ra, $sp, 952                   # 8-byte Folded Reload
	addi.d	$sp, $sp, 960
	ret
.LBB5_408:
.Ltmp274:                               # EH_LABEL
	move	$a0, $fp
	pcaddu18i	$ra, %call36(_ZNKSt5ctypeIcE13_M_widen_initEv)
	jirl	$ra, $ra, 0
.Ltmp275:                               # EH_LABEL
# %bb.409:                              # %.noexc621
	ld.d	$a0, $fp, 0
	ld.d	$a2, $a0, 48
.Ltmp276:                               # EH_LABEL
	ori	$a1, $zero, 10
	move	$a0, $fp
	jirl	$ra, $a2, 0
.Ltmp277:                               # EH_LABEL
.LBB5_410:                              # %_ZNKSt9basic_iosIcSt11char_traitsIcEE5widenEc.exit.i618
.Ltmp278:                               # EH_LABEL
	ext.w.b	$a1, $a0
	addi.d	$a0, $sp, 352
	pcaddu18i	$ra, %call36(_ZNSo3putEc)
	jirl	$ra, $ra, 0
.Ltmp279:                               # EH_LABEL
# %bb.411:                              # %.noexc623
.Ltmp280:                               # EH_LABEL
	pcaddu18i	$ra, %call36(_ZNSo5flushEv)
	jirl	$ra, $ra, 0
.Ltmp281:                               # EH_LABEL
# %bb.412:
	ld.d	$a0, $sp, 352
	ld.d	$a0, $a0, -24
	addi.d	$a2, $sp, 352
	ld.w	$a1, $sp, 320
	add.d	$a0, $a2, $a0
	ori	$a2, $zero, 10
	st.d	$a2, $a0, 16
.Ltmp282:                               # EH_LABEL
	addi.d	$a0, $sp, 352
	pcaddu18i	$ra, %call36(_ZNSolsEi)
	jirl	$ra, $ra, 0
.Ltmp283:                               # EH_LABEL
# %bb.413:
	move	$fp, $a0
	ld.d	$a0, $a0, 0
	ld.d	$a0, $a0, -24
	add.d	$a0, $fp, $a0
	ld.d	$s0, $a0, 240
	beqz	$s0, .LBB5_499
# %bb.414:                              # %_ZSt13__check_facetISt5ctypeIcEERKT_PS3_.exit.i.i627
	ld.bu	$a0, $s0, 56
	beqz	$a0, .LBB5_416
# %bb.415:
	ld.bu	$a0, $s0, 67
	b	.LBB5_418
.LBB5_416:
.Ltmp284:                               # EH_LABEL
	move	$a0, $s0
	pcaddu18i	$ra, %call36(_ZNKSt5ctypeIcE13_M_widen_initEv)
	jirl	$ra, $ra, 0
.Ltmp285:                               # EH_LABEL
# %bb.417:                              # %.noexc632
	ld.d	$a0, $s0, 0
	ld.d	$a2, $a0, 48
.Ltmp286:                               # EH_LABEL
	ori	$a1, $zero, 10
	move	$a0, $s0
	jirl	$ra, $a2, 0
.Ltmp287:                               # EH_LABEL
.LBB5_418:                              # %_ZNKSt9basic_iosIcSt11char_traitsIcEE5widenEc.exit.i629
.Ltmp288:                               # EH_LABEL
	ext.w.b	$a1, $a0
	move	$a0, $fp
	pcaddu18i	$ra, %call36(_ZNSo3putEc)
	jirl	$ra, $ra, 0
.Ltmp289:                               # EH_LABEL
# %bb.419:                              # %.noexc634
.Ltmp290:                               # EH_LABEL
	pcaddu18i	$ra, %call36(_ZNSo5flushEv)
	jirl	$ra, $ra, 0
.Ltmp291:                               # EH_LABEL
# %bb.420:                              # %_ZNSolsEPFRSoS_E.exit295
	ld.d	$a0, $sp, 352
	ld.d	$a0, $a0, -24
	addi.d	$s1, $sp, 352
	ld.w	$a1, $sp, 320
	add.d	$a0, $s1, $a0
	ori	$a2, $zero, 5
	ori	$a3, $zero, 1
	st.d	$a2, $a0, 8
	blt	$a1, $a3, .LBB5_100
# %bb.421:                              # %.lr.ph.preheader
	move	$s2, $zero
	ori	$s3, $zero, 12
	move	$s4, $s6
	.p2align	4, , 16
.LBB5_422:                              # %.lr.ph
                                        # =>This Inner Loop Header: Depth=1
	ld.d	$a0, $sp, 352
	ld.d	$a0, $a0, -24
	fld.d	$fa0, $s4, 0
	add.d	$a0, $s1, $a0
	st.d	$s3, $a0, 16
.Ltmp292:                               # EH_LABEL
	addi.d	$a0, $sp, 352
	pcaddu18i	$ra, %call36(_ZNSo9_M_insertIdEERSoT_)
	jirl	$ra, $ra, 0
.Ltmp293:                               # EH_LABEL
# %bb.423:                              # %_ZNSolsEd.exit299
                                        #   in Loop: Header=BB5_422 Depth=1
	move	$fp, $a0
	ld.d	$a0, $a0, 0
	ld.d	$a0, $a0, -24
	add.d	$a0, $fp, $a0
	ld.d	$s0, $a0, 240
	beqz	$s0, .LBB5_461
# %bb.424:                              # %_ZSt13__check_facetISt5ctypeIcEERKT_PS3_.exit.i.i638
                                        #   in Loop: Header=BB5_422 Depth=1
	ld.bu	$a0, $s0, 56
	beqz	$a0, .LBB5_426
# %bb.425:                              #   in Loop: Header=BB5_422 Depth=1
	ld.bu	$a0, $s0, 67
	b	.LBB5_428
	.p2align	4, , 16
.LBB5_426:                              #   in Loop: Header=BB5_422 Depth=1
.Ltmp294:                               # EH_LABEL
	move	$a0, $s0
	pcaddu18i	$ra, %call36(_ZNKSt5ctypeIcE13_M_widen_initEv)
	jirl	$ra, $ra, 0
.Ltmp295:                               # EH_LABEL
# %bb.427:                              # %.noexc643
                                        #   in Loop: Header=BB5_422 Depth=1
	ld.d	$a0, $s0, 0
	ld.d	$a2, $a0, 48
.Ltmp296:                               # EH_LABEL
	ori	$a1, $zero, 10
	move	$a0, $s0
	jirl	$ra, $a2, 0
.Ltmp297:                               # EH_LABEL
.LBB5_428:                              # %_ZNKSt9basic_iosIcSt11char_traitsIcEE5widenEc.exit.i640
                                        #   in Loop: Header=BB5_422 Depth=1
.Ltmp298:                               # EH_LABEL
	ext.w.b	$a1, $a0
	move	$a0, $fp
	pcaddu18i	$ra, %call36(_ZNSo3putEc)
	jirl	$ra, $ra, 0
.Ltmp299:                               # EH_LABEL
# %bb.429:                              # %.noexc645
                                        #   in Loop: Header=BB5_422 Depth=1
.Ltmp300:                               # EH_LABEL
	pcaddu18i	$ra, %call36(_ZNSo5flushEv)
	jirl	$ra, $ra, 0
.Ltmp301:                               # EH_LABEL
# %bb.430:                              # %_ZNSolsEPFRSoS_E.exit301
                                        #   in Loop: Header=BB5_422 Depth=1
	ld.w	$a0, $sp, 320
	addi.d	$s2, $s2, 1
	addi.d	$s4, $s4, 16
	blt	$s2, $a0, .LBB5_422
# %bb.431:                              # %.preheader1101
	ori	$a1, $zero, 1
	blt	$a0, $a1, .LBB5_100
# %bb.432:                              # %.lr.ph1133.preheader
	move	$s1, $zero
	addi.d	$s2, $s6, 8
	addi.d	$s3, $sp, 352
	ori	$s4, $zero, 12
	.p2align	4, , 16
.LBB5_433:                              # %.lr.ph1133
                                        # =>This Inner Loop Header: Depth=1
	ld.d	$a0, $sp, 352
	ld.d	$a0, $a0, -24
	fld.d	$fa0, $s2, 0
	add.d	$a0, $s3, $a0
	st.d	$s4, $a0, 16
.Ltmp303:                               # EH_LABEL
	addi.d	$a0, $sp, 352
	pcaddu18i	$ra, %call36(_ZNSo9_M_insertIdEERSoT_)
	jirl	$ra, $ra, 0
.Ltmp304:                               # EH_LABEL
# %bb.434:                              # %_ZNSolsEd.exit304
                                        #   in Loop: Header=BB5_433 Depth=1
	move	$fp, $a0
	ld.d	$a0, $a0, 0
	ld.d	$a0, $a0, -24
	add.d	$a0, $fp, $a0
	ld.d	$s0, $a0, 240
	beqz	$s0, .LBB5_469
# %bb.435:                              # %_ZSt13__check_facetISt5ctypeIcEERKT_PS3_.exit.i.i649
                                        #   in Loop: Header=BB5_433 Depth=1
	ld.bu	$a0, $s0, 56
	beqz	$a0, .LBB5_437
# %bb.436:                              #   in Loop: Header=BB5_433 Depth=1
	ld.bu	$a0, $s0, 67
	b	.LBB5_439
	.p2align	4, , 16
.LBB5_437:                              #   in Loop: Header=BB5_433 Depth=1
.Ltmp305:                               # EH_LABEL
	move	$a0, $s0
	pcaddu18i	$ra, %call36(_ZNKSt5ctypeIcE13_M_widen_initEv)
	jirl	$ra, $ra, 0
.Ltmp306:                               # EH_LABEL
# %bb.438:                              # %.noexc654
                                        #   in Loop: Header=BB5_433 Depth=1
	ld.d	$a0, $s0, 0
	ld.d	$a2, $a0, 48
.Ltmp307:                               # EH_LABEL
	ori	$a1, $zero, 10
	move	$a0, $s0
	jirl	$ra, $a2, 0
.Ltmp308:                               # EH_LABEL
.LBB5_439:                              # %_ZNKSt9basic_iosIcSt11char_traitsIcEE5widenEc.exit.i651
                                        #   in Loop: Header=BB5_433 Depth=1
.Ltmp309:                               # EH_LABEL
	ext.w.b	$a1, $a0
	move	$a0, $fp
	pcaddu18i	$ra, %call36(_ZNSo3putEc)
	jirl	$ra, $ra, 0
.Ltmp310:                               # EH_LABEL
# %bb.440:                              # %.noexc656
                                        #   in Loop: Header=BB5_433 Depth=1
.Ltmp311:                               # EH_LABEL
	pcaddu18i	$ra, %call36(_ZNSo5flushEv)
	jirl	$ra, $ra, 0
.Ltmp312:                               # EH_LABEL
# %bb.441:                              # %_ZNSolsEPFRSoS_E.exit306
                                        #   in Loop: Header=BB5_433 Depth=1
	ld.w	$a0, $sp, 320
	addi.d	$s1, $s1, 1
	addi.d	$s2, $s2, 16
	blt	$s1, $a0, .LBB5_433
# %bb.442:                              # %.preheader1094
	ori	$a1, $zero, 1
	blt	$a0, $a1, .LBB5_100
# %bb.443:                              # %.lr.ph1135.preheader
	move	$s1, $zero
	addi.d	$s2, $sp, 352
	ori	$s3, $zero, 12
	movgr2fr.d	$fs0, $zero
	.p2align	4, , 16
.LBB5_444:                              # %.lr.ph1135
                                        # =>This Inner Loop Header: Depth=1
	ld.d	$a0, $sp, 352
	ld.d	$a0, $a0, -24
	add.d	$a0, $s2, $a0
	st.d	$s3, $a0, 16
.Ltmp314:                               # EH_LABEL
	addi.d	$a0, $sp, 352
	fmov.d	$fa0, $fs0
	pcaddu18i	$ra, %call36(_ZNSo9_M_insertIdEERSoT_)
	jirl	$ra, $ra, 0
.Ltmp315:                               # EH_LABEL
# %bb.445:                              # %_ZNSolsEd.exit309
                                        #   in Loop: Header=BB5_444 Depth=1
	move	$fp, $a0
	ld.d	$a0, $a0, 0
	ld.d	$a0, $a0, -24
	add.d	$a0, $fp, $a0
	ld.d	$s0, $a0, 240
	beqz	$s0, .LBB5_473
# %bb.446:                              # %_ZSt13__check_facetISt5ctypeIcEERKT_PS3_.exit.i.i660
                                        #   in Loop: Header=BB5_444 Depth=1
	ld.bu	$a0, $s0, 56
	beqz	$a0, .LBB5_448
# %bb.447:                              #   in Loop: Header=BB5_444 Depth=1
	ld.bu	$a0, $s0, 67
	b	.LBB5_450
	.p2align	4, , 16
.LBB5_448:                              #   in Loop: Header=BB5_444 Depth=1
.Ltmp316:                               # EH_LABEL
	move	$a0, $s0
	pcaddu18i	$ra, %call36(_ZNKSt5ctypeIcE13_M_widen_initEv)
	jirl	$ra, $ra, 0
.Ltmp317:                               # EH_LABEL
# %bb.449:                              # %.noexc665
                                        #   in Loop: Header=BB5_444 Depth=1
	ld.d	$a0, $s0, 0
	ld.d	$a2, $a0, 48
.Ltmp318:                               # EH_LABEL
	ori	$a1, $zero, 10
	move	$a0, $s0
	jirl	$ra, $a2, 0
.Ltmp319:                               # EH_LABEL
.LBB5_450:                              # %_ZNKSt9basic_iosIcSt11char_traitsIcEE5widenEc.exit.i662
                                        #   in Loop: Header=BB5_444 Depth=1
.Ltmp320:                               # EH_LABEL
	ext.w.b	$a1, $a0
	move	$a0, $fp
	pcaddu18i	$ra, %call36(_ZNSo3putEc)
	jirl	$ra, $ra, 0
.Ltmp321:                               # EH_LABEL
# %bb.451:                              # %.noexc667
                                        #   in Loop: Header=BB5_444 Depth=1
.Ltmp322:                               # EH_LABEL
	pcaddu18i	$ra, %call36(_ZNSo5flushEv)
	jirl	$ra, $ra, 0
.Ltmp323:                               # EH_LABEL
# %bb.452:                              # %_ZNSolsEPFRSoS_E.exit311
                                        #   in Loop: Header=BB5_444 Depth=1
	ld.w	$a0, $sp, 320
	addi.w	$s1, $s1, 1
	blt	$s1, $a0, .LBB5_444
	b	.LBB5_100
.LBB5_453:
.Ltmp553:                               # EH_LABEL
	pcalau12i	$a0, %pc_hi20(.L.str.35)
	addi.d	$a0, $a0, %pc_lo12(.L.str.35)
	ld.d	$s5, $sp, 104                   # 8-byte Folded Reload
	ld.d	$s2, $sp, 208                   # 8-byte Folded Reload
	ld.d	$s3, $sp, 144                   # 8-byte Folded Reload
	pcaddu18i	$ra, %call36(_ZSt20__throw_length_errorPKc)
	jirl	$ra, $ra, 0
.Ltmp554:                               # EH_LABEL
# %bb.454:                              # %.noexc448
.LBB5_455:
.Ltmp580:                               # EH_LABEL
	pcaddu18i	$ra, %call36(_ZSt16__throw_bad_castv)
	jirl	$ra, $ra, 0
.Ltmp581:                               # EH_LABEL
# %bb.456:                              # %.noexc697
.LBB5_457:
.Ltmp565:                               # EH_LABEL
	pcaddu18i	$ra, %call36(_ZSt16__throw_bad_castv)
	jirl	$ra, $ra, 0
.Ltmp566:                               # EH_LABEL
# %bb.458:                              # %.noexc741
.LBB5_459:
.Ltmp547:                               # EH_LABEL
	pcaddu18i	$ra, %call36(_ZSt16__throw_bad_castv)
	jirl	$ra, $ra, 0
.Ltmp548:                               # EH_LABEL
# %bb.460:                              # %.noexc785
.LBB5_461:
.Ltmp601:                               # EH_LABEL
	pcaddu18i	$ra, %call36(_ZSt16__throw_bad_castv)
	jirl	$ra, $ra, 0
.Ltmp602:                               # EH_LABEL
# %bb.462:                              # %.noexc642
.LBB5_463:
.Ltmp577:                               # EH_LABEL
	pcaddu18i	$ra, %call36(_ZSt16__throw_bad_castv)
	jirl	$ra, $ra, 0
.Ltmp578:                               # EH_LABEL
# %bb.464:                              # %.noexc708
.LBB5_465:
.Ltmp562:                               # EH_LABEL
	pcaddu18i	$ra, %call36(_ZSt16__throw_bad_castv)
	jirl	$ra, $ra, 0
.Ltmp563:                               # EH_LABEL
# %bb.466:                              # %.noexc752
.LBB5_467:
.Ltmp544:                               # EH_LABEL
	pcaddu18i	$ra, %call36(_ZSt16__throw_bad_castv)
	jirl	$ra, $ra, 0
.Ltmp545:                               # EH_LABEL
# %bb.468:                              # %.noexc796
.LBB5_469:
.Ltmp598:                               # EH_LABEL
	pcaddu18i	$ra, %call36(_ZSt16__throw_bad_castv)
	jirl	$ra, $ra, 0
.Ltmp599:                               # EH_LABEL
# %bb.470:                              # %.noexc653
.LBB5_471:
.Ltmp541:                               # EH_LABEL
	pcaddu18i	$ra, %call36(_ZSt16__throw_bad_castv)
	jirl	$ra, $ra, 0
.Ltmp542:                               # EH_LABEL
# %bb.472:                              # %.noexc807
.LBB5_473:
.Ltmp595:                               # EH_LABEL
	pcaddu18i	$ra, %call36(_ZSt16__throw_bad_castv)
	jirl	$ra, $ra, 0
.Ltmp596:                               # EH_LABEL
# %bb.474:                              # %.noexc664
.LBB5_475:
.Ltmp613:                               # EH_LABEL
	pcalau12i	$a0, %pc_hi20(.L.str.33)
	addi.d	$a0, $a0, %pc_lo12(.L.str.33)
	pcaddu18i	$ra, %call36(_ZSt20__throw_length_errorPKc)
	jirl	$ra, $ra, 0
.Ltmp614:                               # EH_LABEL
# %bb.476:                              # %.noexc274
.LBB5_477:
.Ltmp610:                               # EH_LABEL
	pcalau12i	$a0, %pc_hi20(.L.str.33)
	addi.d	$a0, $a0, %pc_lo12(.L.str.33)
	pcaddu18i	$ra, %call36(_ZSt20__throw_length_errorPKc)
	jirl	$ra, $ra, 0
.Ltmp611:                               # EH_LABEL
# %bb.478:                              # %.noexc281
.LBB5_479:
.Ltmp607:                               # EH_LABEL
	pcalau12i	$a0, %pc_hi20(.L.str.33)
	addi.d	$a0, $a0, %pc_lo12(.L.str.33)
	pcaddu18i	$ra, %call36(_ZSt20__throw_length_errorPKc)
	jirl	$ra, $ra, 0
.Ltmp608:                               # EH_LABEL
# %bb.480:                              # %.noexc287
.LBB5_481:
.Ltmp592:                               # EH_LABEL
	pcalau12i	$a0, %pc_hi20(.L.str.33)
	addi.d	$a0, $a0, %pc_lo12(.L.str.33)
	pcaddu18i	$ra, %call36(_ZSt20__throw_length_errorPKc)
	jirl	$ra, $ra, 0
.Ltmp593:                               # EH_LABEL
# %bb.482:                              # %.noexc345
.LBB5_483:                              # %.invoke1368
.Ltmp583:                               # EH_LABEL
	pcaddu18i	$ra, %call36(_ZSt16__throw_bad_castv)
	jirl	$ra, $ra, 0
.Ltmp584:                               # EH_LABEL
# %bb.484:                              # %.cont1369
.LBB5_485:
.Ltmp574:                               # EH_LABEL
	pcalau12i	$a0, %pc_hi20(.L.str.33)
	addi.d	$a0, $a0, %pc_lo12(.L.str.33)
	pcaddu18i	$ra, %call36(_ZSt20__throw_length_errorPKc)
	jirl	$ra, $ra, 0
.Ltmp575:                               # EH_LABEL
# %bb.486:                              # %.noexc390
.LBB5_487:                              # %.invoke1370
.Ltmp568:                               # EH_LABEL
	pcaddu18i	$ra, %call36(_ZSt16__throw_bad_castv)
	jirl	$ra, $ra, 0
.Ltmp569:                               # EH_LABEL
# %bb.488:                              # %.cont1371
.LBB5_489:
.Ltmp559:                               # EH_LABEL
	pcalau12i	$a0, %pc_hi20(.L.str.33)
	addi.d	$a0, $a0, %pc_lo12(.L.str.33)
	ld.d	$s4, $sp, 296                   # 8-byte Folded Reload
	pcaddu18i	$ra, %call36(_ZSt20__throw_length_errorPKc)
	jirl	$ra, $ra, 0
.Ltmp560:                               # EH_LABEL
# %bb.490:                              # %.noexc427
.LBB5_491:
.Ltmp556:                               # EH_LABEL
	pcalau12i	$a0, %pc_hi20(.L.str.33)
	addi.d	$a0, $a0, %pc_lo12(.L.str.33)
	pcaddu18i	$ra, %call36(_ZSt20__throw_length_errorPKc)
	jirl	$ra, $ra, 0
.Ltmp557:                               # EH_LABEL
# %bb.492:                              # %.noexc435
.LBB5_493:                              # %.invoke1372
.Ltmp550:                               # EH_LABEL
	pcaddu18i	$ra, %call36(_ZSt16__throw_bad_castv)
	jirl	$ra, $ra, 0
.Ltmp551:                               # EH_LABEL
# %bb.494:                              # %.cont1373
.LBB5_495:                              # %.invoke
.Ltmp616:                               # EH_LABEL
	pcaddu18i	$ra, %call36(_ZSt16__throw_bad_castv)
	jirl	$ra, $ra, 0
.Ltmp617:                               # EH_LABEL
# %bb.496:                              # %.cont
.LBB5_497:                              # %.invoke.i.i
.Ltmp619:                               # EH_LABEL
	pcalau12i	$a0, %pc_hi20(.L.str.32)
	addi.d	$a0, $a0, %pc_lo12(.L.str.32)
	pcaddu18i	$ra, %call36(_ZSt20__throw_length_errorPKc)
	jirl	$ra, $ra, 0
.Ltmp620:                               # EH_LABEL
# %bb.498:                              # %.cont.i.i
.LBB5_499:                              # %.invoke1366
.Ltmp604:                               # EH_LABEL
	pcaddu18i	$ra, %call36(_ZSt16__throw_bad_castv)
	jirl	$ra, $ra, 0
.Ltmp605:                               # EH_LABEL
# %bb.500:                              # %.cont1367
.LBB5_501:
.Ltmp478:                               # EH_LABEL
	pcalau12i	$a0, %pc_hi20(.L.str.33)
	addi.d	$a0, $a0, %pc_lo12(.L.str.33)
	pcaddu18i	$ra, %call36(_ZSt20__throw_length_errorPKc)
	jirl	$ra, $ra, 0
.Ltmp479:                               # EH_LABEL
# %bb.502:                              # %.noexc464
.LBB5_503:
.Ltmp172:                               # EH_LABEL
	pcalau12i	$a0, %got_pc_hi20(_ZSt4cerr)
	ld.d	$a0, $a0, %got_pc_lo12(_ZSt4cerr)
	pcalau12i	$a1, %pc_hi20(.L.str.4)
	addi.d	$a1, $a1, %pc_lo12(.L.str.4)
	ori	$a2, $zero, 17
	pcaddu18i	$ra, %call36(_ZSt16__ostream_insertIcSt11char_traitsIcEERSt13basic_ostreamIT_T0_ES6_PKS3_l)
	jirl	$ra, $ra, 0
.Ltmp173:                               # EH_LABEL
# %bb.504:                              # %_ZStlsISt11char_traitsIcEERSt13basic_ostreamIcT_ES5_PKc.exit
	ld.d	$a1, $sp, 320
	ld.d	$a2, $sp, 328
.Ltmp174:                               # EH_LABEL
	pcalau12i	$a0, %got_pc_hi20(_ZSt4cerr)
	ld.d	$a0, $a0, %got_pc_lo12(_ZSt4cerr)
	pcaddu18i	$ra, %call36(_ZSt16__ostream_insertIcSt11char_traitsIcEERSt13basic_ostreamIT_T0_ES6_PKS3_l)
	jirl	$ra, $ra, 0
.Ltmp175:                               # EH_LABEL
# %bb.505:                              # %_ZStlsIcSt11char_traitsIcESaIcEERSt13basic_ostreamIT_T0_ES7_RKNSt7__cxx1112basic_stringIS4_S5_T1_EE.exit
.Ltmp176:                               # EH_LABEL
	move	$fp, $a0
	pcalau12i	$a0, %pc_hi20(.L.str.5)
	addi.d	$a1, $a0, %pc_lo12(.L.str.5)
	ori	$a2, $zero, 12
	move	$a0, $fp
	pcaddu18i	$ra, %call36(_ZSt16__ostream_insertIcSt11char_traitsIcEERSt13basic_ostreamIT_T0_ES6_PKS3_l)
	jirl	$ra, $ra, 0
.Ltmp177:                               # EH_LABEL
# %bb.506:                              # %_ZStlsISt11char_traitsIcEERSt13basic_ostreamIcT_ES5_PKc.exit238
.Ltmp178:                               # EH_LABEL
	move	$a0, $fp
	pcaddu18i	$ra, %call36(_ZSt4endlIcSt11char_traitsIcEERSt13basic_ostreamIT_T0_ES6_)
	jirl	$ra, $ra, 0
.Ltmp179:                               # EH_LABEL
# %bb.507:                              # %_ZNSolsEPFRSoS_E.exit
	ori	$a0, $zero, 1
	pcaddu18i	$ra, %call36(exit)
	jirl	$ra, $ra, 0
.LBB5_508:                              # %_ZNSt6vectorIiSaIiEED2Ev.exit516.thread
.Ltmp464:                               # EH_LABEL
	move	$s1, $a0
	st.d	$zero, $sp, 304                 # 8-byte Folded Spill
	move	$s0, $zero
	ld.d	$s5, $sp, 104                   # 8-byte Folded Reload
	ld.d	$s2, $sp, 208                   # 8-byte Folded Reload
	move	$a0, $s8
	b	.LBB5_608
.LBB5_509:                              # %_ZNSt6vectorIiSaIiEED2Ev.exit524.thread
.Ltmp404:                               # EH_LABEL
	move	$s1, $a0
	ld.d	$s5, $sp, 104                   # 8-byte Folded Reload
	ld.d	$fp, $sp, 136                   # 8-byte Folded Reload
	ld.d	$s0, $sp, 120                   # 8-byte Folded Reload
	ld.d	$s2, $sp, 208                   # 8-byte Folded Reload
	ld.d	$s4, $sp, 296                   # 8-byte Folded Reload
	move	$a0, $s8
	b	.LBB5_606
.LBB5_510:                              # %_ZNSt6vectorIiSaIiEED2Ev.exit530.thread
.Ltmp346:                               # EH_LABEL
	move	$s1, $a0
	ld.d	$s5, $sp, 104                   # 8-byte Folded Reload
	ld.d	$fp, $sp, 136                   # 8-byte Folded Reload
	ld.d	$s0, $sp, 120                   # 8-byte Folded Reload
	ld.d	$s6, $sp, 288                   # 8-byte Folded Reload
	ld.d	$s2, $sp, 208                   # 8-byte Folded Reload
	move	$s4, $s3
	b	.LBB5_601
.LBB5_511:
.Ltmp475:                               # EH_LABEL
	move	$s1, $a0
	ld.d	$s5, $sp, 104                   # 8-byte Folded Reload
	b	.LBB5_516
.LBB5_512:
.Ltmp267:                               # EH_LABEL
	b	.LBB5_526
.LBB5_513:
.Ltmp262:                               # EH_LABEL
	b	.LBB5_528
.LBB5_514:
.Ltmp257:                               # EH_LABEL
	b	.LBB5_540
.LBB5_515:
.Ltmp480:                               # EH_LABEL
	move	$s1, $a0
	ld.d	$s5, $sp, 104                   # 8-byte Folded Reload
	ld.d	$s2, $sp, 208                   # 8-byte Folded Reload
.LBB5_516:                              # %_ZNSt6vectorIiSaIiEED2Ev.exit514.thread
	ld.d	$a0, $sp, 216                   # 8-byte Folded Reload
	b	.LBB5_607
.LBB5_517:
.Ltmp180:                               # EH_LABEL
	b	.LBB5_531
.LBB5_518:                              # %_ZNSt6vectorIiSaIiEED2Ev.exit518.thread
.Ltmp558:                               # EH_LABEL
	move	$s1, $a0
	ld.d	$s5, $sp, 104                   # 8-byte Folded Reload
	ld.d	$fp, $sp, 136                   # 8-byte Folded Reload
	ld.d	$s0, $sp, 120                   # 8-byte Folded Reload
	ld.d	$s2, $sp, 208                   # 8-byte Folded Reload
	b	.LBB5_584
.LBB5_519:
.Ltmp561:                               # EH_LABEL
	move	$s1, $a0
	ld.d	$s5, $sp, 104                   # 8-byte Folded Reload
	ld.d	$fp, $sp, 136                   # 8-byte Folded Reload
	ld.d	$s0, $sp, 120                   # 8-byte Folded Reload
	ld.d	$s2, $sp, 208                   # 8-byte Folded Reload
	ld.d	$a0, $sp, 184                   # 8-byte Folded Reload
	beqz	$a0, .LBB5_586
	b	.LBB5_605
.LBB5_520:
.Ltmp573:                               # EH_LABEL
	move	$s1, $a0
	ld.d	$s5, $sp, 104                   # 8-byte Folded Reload
	ld.d	$fp, $sp, 136                   # 8-byte Folded Reload
	ld.d	$s0, $sp, 120                   # 8-byte Folded Reload
	ld.d	$s2, $sp, 208                   # 8-byte Folded Reload
	ld.d	$s4, $sp, 296                   # 8-byte Folded Reload
	bnez	$s3, .LBB5_588
	b	.LBB5_589
.LBB5_521:
.Ltmp576:                               # EH_LABEL
	b	.LBB5_572
.LBB5_522:
.Ltmp588:                               # EH_LABEL
	move	$s1, $a0
	ld.d	$s5, $sp, 104                   # 8-byte Folded Reload
	ld.d	$fp, $sp, 136                   # 8-byte Folded Reload
	ld.d	$s0, $sp, 120                   # 8-byte Folded Reload
	ld.d	$s6, $sp, 288                   # 8-byte Folded Reload
	ld.d	$s2, $sp, 208                   # 8-byte Folded Reload
	b	.LBB5_602
.LBB5_523:
.Ltmp591:                               # EH_LABEL
	move	$s1, $a0
	ld.d	$s5, $sp, 104                   # 8-byte Folded Reload
	ld.d	$fp, $sp, 136                   # 8-byte Folded Reload
	ld.d	$s0, $sp, 120                   # 8-byte Folded Reload
	ld.d	$s6, $sp, 288                   # 8-byte Folded Reload
	ld.d	$s2, $sp, 208                   # 8-byte Folded Reload
	bnez	$s2, .LBB5_594
	b	.LBB5_595
.LBB5_524:
.Ltmp594:                               # EH_LABEL
	move	$s1, $a0
	ld.d	$s5, $sp, 104                   # 8-byte Folded Reload
	b	.LBB5_549
.LBB5_525:
.Ltmp609:                               # EH_LABEL
.LBB5_526:                              # %_ZNSt6vectorIiSaIiEED2Ev.exit540
	move	$s1, $a0
	ld.d	$fp, $sp, 136                   # 8-byte Folded Reload
	ld.d	$s0, $sp, 120                   # 8-byte Folded Reload
	b	.LBB5_596
.LBB5_527:
.Ltmp612:                               # EH_LABEL
.LBB5_528:                              # %_ZNSt6vectorIiSaIiEED2Ev.exit540.thread
	move	$s1, $a0
	ld.d	$fp, $sp, 136                   # 8-byte Folded Reload
	b	.LBB5_597
.LBB5_529:
.Ltmp615:                               # EH_LABEL
	b	.LBB5_540
.LBB5_530:
.Ltmp621:                               # EH_LABEL
.LBB5_531:
	ld.d	$a2, $sp, 320
	move	$s1, $a0
	beq	$a2, $s3, .LBB5_599
# %bb.532:                              # %_ZNKSt7__cxx1112basic_stringIcSt11char_traitsIcESaIcEE11_M_is_localEv.exit.i.i.i.i
	ld.d	$a0, $sp, 336
	addi.d	$a1, $a0, 1
	move	$a0, $a2
	b	.LBB5_598
.LBB5_533:
.Ltmp472:                               # EH_LABEL
	move	$s1, $a0
	ld.d	$s5, $sp, 104                   # 8-byte Folded Reload
	ld.d	$s2, $sp, 208                   # 8-byte Folded Reload
	b	.LBB5_579
.LBB5_534:                              # %.loopexit.split-lp1097
.Ltmp597:                               # EH_LABEL
	b	.LBB5_548
.LBB5_535:
.Ltmp337:                               # EH_LABEL
	move	$s1, $a0
	ld.d	$s5, $sp, 104                   # 8-byte Folded Reload
	b	.LBB5_566
.LBB5_536:                              # %.loopexit.split-lp
.Ltmp543:                               # EH_LABEL
	b	.LBB5_568
.LBB5_537:
.Ltmp606:                               # EH_LABEL
	b	.LBB5_565
.LBB5_538:                              # %.loopexit.split-lp1103
.Ltmp600:                               # EH_LABEL
	b	.LBB5_548
.LBB5_539:
.Ltmp618:                               # EH_LABEL
.LBB5_540:
	move	$s1, $a0
	addi.d	$a0, $sp, 352
	pcaddu18i	$ra, %call36(_ZNSt14basic_ofstreamIcSt11char_traitsIcEED1Ev)
	jirl	$ra, $ra, 0
	move	$a0, $s1
	pcaddu18i	$ra, %call36(_Unwind_Resume)
	jirl	$ra, $ra, 0
.LBB5_541:                              # %.loopexit.split-lp1049
.Ltmp546:                               # EH_LABEL
	b	.LBB5_568
.LBB5_542:                              # %.loopexit.split-lp1068
.Ltmp564:                               # EH_LABEL
	move	$s1, $a0
	ld.d	$s5, $sp, 104                   # 8-byte Folded Reload
	ld.d	$fp, $sp, 136                   # 8-byte Folded Reload
	ld.d	$s0, $sp, 120                   # 8-byte Folded Reload
	ld.d	$s6, $sp, 288                   # 8-byte Folded Reload
	ld.d	$s2, $sp, 208                   # 8-byte Folded Reload
	ld.d	$s4, $sp, 296                   # 8-byte Folded Reload
	move	$s3, $s8
	ld.d	$a0, $sp, 184                   # 8-byte Folded Reload
	b	.LBB5_605
.LBB5_543:                              # %.loopexit.split-lp1083
.Ltmp579:                               # EH_LABEL
	move	$s1, $a0
	ld.d	$s5, $sp, 104                   # 8-byte Folded Reload
	ld.d	$fp, $sp, 136                   # 8-byte Folded Reload
	ld.d	$s0, $sp, 120                   # 8-byte Folded Reload
	ld.d	$s6, $sp, 288                   # 8-byte Folded Reload
	b	.LBB5_560
.LBB5_544:
.Ltmp552:                               # EH_LABEL
	b	.LBB5_568
.LBB5_545:
.Ltmp570:                               # EH_LABEL
	move	$s1, $a0
	ld.d	$s5, $sp, 104                   # 8-byte Folded Reload
	ld.d	$fp, $sp, 136                   # 8-byte Folded Reload
	ld.d	$s0, $sp, 120                   # 8-byte Folded Reload
	ld.d	$s2, $sp, 208                   # 8-byte Folded Reload
	ld.d	$s4, $sp, 296                   # 8-byte Folded Reload
	ld.d	$a0, $sp, 184                   # 8-byte Folded Reload
	beqz	$a0, .LBB5_586
	b	.LBB5_605
.LBB5_546:
.Ltmp585:                               # EH_LABEL
	move	$s1, $a0
	ld.d	$s5, $sp, 104                   # 8-byte Folded Reload
	ld.d	$fp, $sp, 136                   # 8-byte Folded Reload
	ld.d	$s0, $sp, 120                   # 8-byte Folded Reload
	ld.d	$s2, $sp, 208                   # 8-byte Folded Reload
	b	.LBB5_589
.LBB5_547:                              # %.loopexit.split-lp1108
.Ltmp603:                               # EH_LABEL
.LBB5_548:                              # %_ZNSt6vectorIiSaIiEED2Ev.exit536.thread
	move	$s1, $a0
.LBB5_549:                              # %_ZNSt6vectorIiSaIiEED2Ev.exit536.thread
	ld.d	$fp, $sp, 136                   # 8-byte Folded Reload
	ld.d	$s0, $sp, 120                   # 8-byte Folded Reload
	ld.d	$s6, $sp, 288                   # 8-byte Folded Reload
	b	.LBB5_595
.LBB5_550:                              # %.loopexit.split-lp1054
.Ltmp549:                               # EH_LABEL
	b	.LBB5_568
.LBB5_551:                              # %.loopexit.split-lp1073
.Ltmp567:                               # EH_LABEL
	move	$s1, $a0
	ld.d	$s5, $sp, 104                   # 8-byte Folded Reload
	ld.d	$fp, $sp, 136                   # 8-byte Folded Reload
	ld.d	$s0, $sp, 120                   # 8-byte Folded Reload
	ld.d	$s6, $sp, 288                   # 8-byte Folded Reload
	b	.LBB5_570
.LBB5_552:                              # %.loopexit.split-lp1088
.Ltmp582:                               # EH_LABEL
	move	$s1, $a0
	ld.d	$s5, $sp, 104                   # 8-byte Folded Reload
	ld.d	$fp, $sp, 136                   # 8-byte Folded Reload
	ld.d	$s0, $sp, 120                   # 8-byte Folded Reload
	ld.d	$s6, $sp, 288                   # 8-byte Folded Reload
	b	.LBB5_573
.LBB5_553:                              # %.loopexit
.Ltmp536:                               # EH_LABEL
	b	.LBB5_568
.LBB5_554:                              # %.loopexit1096
.Ltmp324:                               # EH_LABEL
	b	.LBB5_565
.LBB5_555:                              # %.loopexit1067
.Ltmp457:                               # EH_LABEL
	b	.LBB5_563
.LBB5_556:                              # %.loopexit1082
.Ltmp397:                               # EH_LABEL
	b	.LBB5_559
.LBB5_557:                              # %.loopexit1102
.Ltmp313:                               # EH_LABEL
	b	.LBB5_565
.LBB5_558:                              # %_ZNSt6vectorIiSaIiEED2Ev.exit528.thread
.Ltmp388:                               # EH_LABEL
.LBB5_559:                              # %_ZNSt6vectorIiSaIiEED2Ev.exit528.thread1341
	move	$s1, $a0
	ld.d	$s5, $sp, 104                   # 8-byte Folded Reload
	ld.d	$fp, $sp, 136                   # 8-byte Folded Reload
	ld.d	$s0, $sp, 120                   # 8-byte Folded Reload
.LBB5_560:                              # %_ZNSt6vectorIiSaIiEED2Ev.exit528.thread1341
	ld.d	$s2, $sp, 208                   # 8-byte Folded Reload
	ld.d	$s4, $sp, 296                   # 8-byte Folded Reload
	ld.d	$a2, $sp, 192                   # 8-byte Folded Reload
	b	.LBB5_600
.LBB5_561:                              # %.loopexit1048
.Ltmp524:                               # EH_LABEL
	b	.LBB5_568
.LBB5_562:                              # %_ZNSt6vectorIiSaIiEED2Ev.exit522.thread
.Ltmp448:                               # EH_LABEL
.LBB5_563:                              # %_ZNSt6vectorIiSaIiEED2Ev.exit522.thread1331
	move	$s1, $a0
	ld.d	$s5, $sp, 104                   # 8-byte Folded Reload
	ld.d	$fp, $sp, 136                   # 8-byte Folded Reload
	ld.d	$s0, $sp, 120                   # 8-byte Folded Reload
	ld.d	$s2, $sp, 208                   # 8-byte Folded Reload
	ld.d	$s4, $sp, 296                   # 8-byte Folded Reload
	ld.d	$a0, $sp, 184                   # 8-byte Folded Reload
	b	.LBB5_605
.LBB5_564:                              # %.loopexit1107
.Ltmp302:                               # EH_LABEL
.LBB5_565:                              # %_ZNSt6vectorIiSaIiEED2Ev.exit536.thread
	move	$s1, $a0
.LBB5_566:                              # %_ZNSt6vectorIiSaIiEED2Ev.exit536.thread
	ld.d	$fp, $sp, 136                   # 8-byte Folded Reload
	ld.d	$s0, $sp, 120                   # 8-byte Folded Reload
	b	.LBB5_595
.LBB5_567:                              # %.loopexit1053
.Ltmp513:                               # EH_LABEL
.LBB5_568:
	move	$s1, $a0
	ld.d	$s6, $sp, 288                   # 8-byte Folded Reload
	ld.d	$s2, $sp, 208                   # 8-byte Folded Reload
	ld.d	$s4, $sp, 296                   # 8-byte Folded Reload
	ld.d	$s3, $sp, 144                   # 8-byte Folded Reload
	bnez	$s5, .LBB5_575
	b	.LBB5_576
.LBB5_569:                              # %.loopexit1072
.Ltmp439:                               # EH_LABEL
	move	$s1, $a0
	ld.d	$s5, $sp, 104                   # 8-byte Folded Reload
	ld.d	$fp, $sp, 136                   # 8-byte Folded Reload
	ld.d	$s0, $sp, 120                   # 8-byte Folded Reload
.LBB5_570:                              # %_ZNSt6vectorIiSaIiEED2Ev.exit522
	ld.d	$s2, $sp, 208                   # 8-byte Folded Reload
	ld.d	$s4, $sp, 296                   # 8-byte Folded Reload
	move	$s3, $s8
	ld.d	$a0, $sp, 184                   # 8-byte Folded Reload
	beqz	$a0, .LBB5_586
	b	.LBB5_605
.LBB5_571:                              # %.loopexit1087
.Ltmp381:                               # EH_LABEL
.LBB5_572:                              # %_ZNSt6vectorIiSaIiEED2Ev.exit528
	move	$s1, $a0
	ld.d	$s5, $sp, 104                   # 8-byte Folded Reload
	ld.d	$fp, $sp, 136                   # 8-byte Folded Reload
	ld.d	$s0, $sp, 120                   # 8-byte Folded Reload
.LBB5_573:                              # %_ZNSt6vectorIiSaIiEED2Ev.exit528
	ld.d	$s2, $sp, 208                   # 8-byte Folded Reload
	ld.d	$a0, $sp, 176                   # 8-byte Folded Reload
	ld.d	$s4, $sp, 296                   # 8-byte Folded Reload
	b	.LBB5_590
.LBB5_574:                              # %.thread991
.Ltmp527:                               # EH_LABEL
	move	$s1, $a0
	ld.d	$s6, $sp, 288                   # 8-byte Folded Reload
	ld.d	$s2, $sp, 208                   # 8-byte Folded Reload
	ld.d	$s4, $sp, 296                   # 8-byte Folded Reload
	ld.d	$s3, $sp, 144                   # 8-byte Folded Reload
.LBB5_575:
	ld.d	$a0, $sp, 280                   # 8-byte Folded Reload
	sub.d	$a1, $a0, $s5
	move	$a0, $s5
	pcaddu18i	$ra, %call36(_ZdlPvm)
	jirl	$ra, $ra, 0
.LBB5_576:                              # %_ZNSt6vectorIiSaIiEED2Ev.exit514
	ld.d	$s5, $sp, 104                   # 8-byte Folded Reload
	b	.LBB5_579
.LBB5_577:                              # %.loopexit1058
.Ltmp469:                               # EH_LABEL
	move	$s1, $a0
	move	$s0, $s8
	ld.d	$s5, $sp, 104                   # 8-byte Folded Reload
	ld.d	$s6, $sp, 288                   # 8-byte Folded Reload
	ld.d	$s2, $sp, 208                   # 8-byte Folded Reload
	ld.d	$s4, $sp, 296                   # 8-byte Folded Reload
	ld.d	$s3, $sp, 144                   # 8-byte Folded Reload
	b	.LBB5_579
.LBB5_578:                              # %.loopexit.split-lp1059
.Ltmp555:                               # EH_LABEL
	move	$s1, $a0
	move	$s0, $s8
	ld.d	$s4, $sp, 296                   # 8-byte Folded Reload
.LBB5_579:                              # %_ZNSt6vectorIiSaIiEED2Ev.exit514
	ld.d	$a0, $sp, 216                   # 8-byte Folded Reload
	bnez	$a0, .LBB5_607
# %bb.580:                              # %_ZNSt6vectorIiSaIiEED2Ev.exit516
	ld.d	$a0, $sp, 152                   # 8-byte Folded Reload
	bnez	$a0, .LBB5_608
.LBB5_581:                              # %_ZNSt6vectorIiSaIiEED2Ev.exit518
	beqz	$s0, .LBB5_583
.LBB5_582:
	ld.d	$a0, $sp, 304                   # 8-byte Folded Reload
	sub.d	$a1, $a0, $s0
	move	$a0, $s0
	pcaddu18i	$ra, %call36(_ZdlPvm)
	jirl	$ra, $ra, 0
.LBB5_583:                              # %_ZNSt6vectorIiSaIiEED2Ev.exit520
	ld.d	$fp, $sp, 136                   # 8-byte Folded Reload
	ld.d	$s0, $sp, 120                   # 8-byte Folded Reload
.LBB5_584:                              # %_ZNSt6vectorIiSaIiEED2Ev.exit520
	ld.d	$a0, $sp, 256                   # 8-byte Folded Reload
	bnez	$a0, .LBB5_604
# %bb.585:                              # %_ZNSt6vectorIiSaIiEED2Ev.exit522
	ld.d	$a0, $sp, 184                   # 8-byte Folded Reload
	bnez	$a0, .LBB5_605
.LBB5_586:                              # %_ZNSt6vectorIiSaIiEED2Ev.exit524
	ld.d	$a0, $sp, 160                   # 8-byte Folded Reload
	bnez	$a0, .LBB5_606
.LBB5_587:                              # %_ZNSt6vectorIiSaIiEED2Ev.exit526
	beqz	$s3, .LBB5_589
.LBB5_588:
	ld.d	$a0, $sp, 56                    # 8-byte Folded Reload
	sub.d	$a1, $a0, $s3
	move	$a0, $s3
	pcaddu18i	$ra, %call36(_ZdlPvm)
	jirl	$ra, $ra, 0
.LBB5_589:                              # %_ZNSt6vectorIiSaIiEED2Ev.exit528
	ld.d	$a0, $sp, 176                   # 8-byte Folded Reload
.LBB5_590:                              # %_ZNSt6vectorIiSaIiEED2Ev.exit528
	ld.d	$a2, $sp, 192                   # 8-byte Folded Reload
	bnez	$a2, .LBB5_600
# %bb.591:                              # %_ZNSt6vectorIiSaIiEED2Ev.exit530
	bnez	$s4, .LBB5_601
.LBB5_592:                              # %_ZNSt6vectorIiSaIiEED2Ev.exit532
	bnez	$a0, .LBB5_603
.LBB5_593:                              # %_ZNSt6vectorIiSaIiEED2Ev.exit534
	beqz	$s2, .LBB5_595
.LBB5_594:
	ld.d	$a0, $sp, 88                    # 8-byte Folded Reload
	sub.d	$a1, $a0, $s2
	move	$a0, $s2
	pcaddu18i	$ra, %call36(_ZdlPvm)
	jirl	$ra, $ra, 0
.LBB5_595:                              # %_ZNSt6vectorIiSaIiEED2Ev.exit536.thread
	ld.d	$a0, $sp, 112                   # 8-byte Folded Reload
	sub.d	$a1, $a0, $s6
	move	$a0, $s6
	pcaddu18i	$ra, %call36(_ZdlPvm)
	jirl	$ra, $ra, 0
.LBB5_596:                              # %_ZNSt6vectorIiSaIiEED2Ev.exit540
	ld.d	$a0, $sp, 128                   # 8-byte Folded Reload
	sub.d	$a1, $s0, $a0
	pcaddu18i	$ra, %call36(_ZdlPvm)
	jirl	$ra, $ra, 0
.LBB5_597:                              # %_ZNSt6vectorIiSaIiEED2Ev.exit540.thread
	sub.d	$a1, $fp, $s5
	move	$a0, $s5
.LBB5_598:
	pcaddu18i	$ra, %call36(_ZdlPvm)
	jirl	$ra, $ra, 0
.LBB5_599:
	addi.d	$a0, $sp, 352
	pcaddu18i	$ra, %call36(_ZNSt14basic_ofstreamIcSt11char_traitsIcEED1Ev)
	jirl	$ra, $ra, 0
	move	$a0, $s1
	pcaddu18i	$ra, %call36(_Unwind_Resume)
	jirl	$ra, $ra, 0
.LBB5_600:                              # %_ZNSt6vectorIiSaIiEED2Ev.exit528.thread1341
	ld.d	$a0, $sp, 96                    # 8-byte Folded Reload
	sub.d	$a1, $a0, $a2
	move	$a0, $a2
	pcaddu18i	$ra, %call36(_ZdlPvm)
	jirl	$ra, $ra, 0
	ld.d	$a0, $sp, 176                   # 8-byte Folded Reload
	beqz	$s4, .LBB5_592
.LBB5_601:
	ld.d	$a0, $sp, 72                    # 8-byte Folded Reload
	sub.d	$a1, $a0, $s4
	move	$a0, $s4
	pcaddu18i	$ra, %call36(_ZdlPvm)
	jirl	$ra, $ra, 0
.LBB5_602:                              # %_ZNSt6vectorIiSaIiEED2Ev.exit532
	ld.d	$a0, $sp, 176                   # 8-byte Folded Reload
	beqz	$a0, .LBB5_593
.LBB5_603:
	ld.d	$a1, $sp, 80                    # 8-byte Folded Reload
	sub.d	$a1, $a1, $a0
	pcaddu18i	$ra, %call36(_ZdlPvm)
	jirl	$ra, $ra, 0
	bnez	$s2, .LBB5_594
	b	.LBB5_595
.LBB5_604:
	ld.d	$a1, $sp, 32                    # 8-byte Folded Reload
	sub.d	$a1, $a1, $a0
	pcaddu18i	$ra, %call36(_ZdlPvm)
	jirl	$ra, $ra, 0
	ld.d	$a0, $sp, 184                   # 8-byte Folded Reload
	beqz	$a0, .LBB5_586
.LBB5_605:                              # %_ZNSt6vectorIiSaIiEED2Ev.exit522.thread1331
	ld.d	$a1, $sp, 64                    # 8-byte Folded Reload
	sub.d	$a1, $a1, $a0
	pcaddu18i	$ra, %call36(_ZdlPvm)
	jirl	$ra, $ra, 0
	ld.d	$a0, $sp, 160                   # 8-byte Folded Reload
	beqz	$a0, .LBB5_587
.LBB5_606:
	ld.d	$a1, $sp, 48                    # 8-byte Folded Reload
	sub.d	$a1, $a1, $a0
	pcaddu18i	$ra, %call36(_ZdlPvm)
	jirl	$ra, $ra, 0
	bnez	$s3, .LBB5_588
	b	.LBB5_589
.LBB5_607:                              # %_ZNSt6vectorIiSaIiEED2Ev.exit514.thread
	ld.d	$a1, $sp, 16                    # 8-byte Folded Reload
	sub.d	$a1, $a1, $a0
	pcaddu18i	$ra, %call36(_ZdlPvm)
	jirl	$ra, $ra, 0
	ld.d	$a0, $sp, 152                   # 8-byte Folded Reload
	beqz	$a0, .LBB5_581
.LBB5_608:
	ld.d	$a1, $sp, 24                    # 8-byte Folded Reload
	sub.d	$a1, $a1, $a0
	pcaddu18i	$ra, %call36(_ZdlPvm)
	jirl	$ra, $ra, 0
	bnez	$s0, .LBB5_582
	b	.LBB5_583
.Lfunc_end5:
	.size	_ZN10ExportGold12writeGeoFileERKNSt7__cxx1112basic_stringIcSt11char_traitsIcESaIcEEEid, .Lfunc_end5-_ZN10ExportGold12writeGeoFileERKNSt7__cxx1112basic_stringIcSt11char_traitsIcESaIcEEEid
	.cfi_endproc
	.section	.gcc_except_table,"a",@progbits
	.p2align	2, 0x0
GCC_except_table5:
.Lexception2:
	.byte	255                             # @LPStart Encoding = omit
	.byte	255                             # @TType Encoding = omit
	.byte	1                               # Call site Encoding = uleb128
	.uleb128 .Lcst_end2-.Lcst_begin2
.Lcst_begin2:
	.uleb128 .Lfunc_begin2-.Lfunc_begin2    # >> Call Site 1 <<
	.uleb128 .Ltmp162-.Lfunc_begin2         #   Call between .Lfunc_begin2 and .Ltmp162
	.byte	0                               #     has no landing pad
	.byte	0                               #   On action: cleanup
	.uleb128 .Ltmp162-.Lfunc_begin2         # >> Call Site 2 <<
	.uleb128 .Ltmp167-.Ltmp162              #   Call between .Ltmp162 and .Ltmp167
	.uleb128 .Ltmp621-.Lfunc_begin2         #     jumps to .Ltmp621
	.byte	0                               #   On action: cleanup
	.uleb128 .Ltmp168-.Lfunc_begin2         # >> Call Site 3 <<
	.uleb128 .Ltmp171-.Ltmp168              #   Call between .Ltmp168 and .Ltmp171
	.uleb128 .Ltmp180-.Lfunc_begin2         #     jumps to .Ltmp180
	.byte	0                               #   On action: cleanup
	.uleb128 .Ltmp171-.Lfunc_begin2         # >> Call Site 4 <<
	.uleb128 .Ltmp181-.Ltmp171              #   Call between .Ltmp171 and .Ltmp181
	.byte	0                               #     has no landing pad
	.byte	0                               #   On action: cleanup
	.uleb128 .Ltmp181-.Lfunc_begin2         # >> Call Site 5 <<
	.uleb128 .Ltmp254-.Ltmp181              #   Call between .Ltmp181 and .Ltmp254
	.uleb128 .Ltmp618-.Lfunc_begin2         #     jumps to .Ltmp618
	.byte	0                               #   On action: cleanup
	.uleb128 .Ltmp255-.Lfunc_begin2         # >> Call Site 6 <<
	.uleb128 .Ltmp256-.Ltmp255              #   Call between .Ltmp255 and .Ltmp256
	.uleb128 .Ltmp257-.Lfunc_begin2         #     jumps to .Ltmp257
	.byte	0                               #   On action: cleanup
	.uleb128 .Ltmp258-.Lfunc_begin2         # >> Call Site 7 <<
	.uleb128 .Ltmp259-.Ltmp258              #   Call between .Ltmp258 and .Ltmp259
	.uleb128 .Ltmp615-.Lfunc_begin2         #     jumps to .Ltmp615
	.byte	0                               #   On action: cleanup
	.uleb128 .Ltmp259-.Lfunc_begin2         # >> Call Site 8 <<
	.uleb128 .Ltmp260-.Ltmp259              #   Call between .Ltmp259 and .Ltmp260
	.byte	0                               #     has no landing pad
	.byte	0                               #   On action: cleanup
	.uleb128 .Ltmp260-.Lfunc_begin2         # >> Call Site 9 <<
	.uleb128 .Ltmp261-.Ltmp260              #   Call between .Ltmp260 and .Ltmp261
	.uleb128 .Ltmp262-.Lfunc_begin2         #     jumps to .Ltmp262
	.byte	0                               #   On action: cleanup
	.uleb128 .Ltmp263-.Lfunc_begin2         # >> Call Site 10 <<
	.uleb128 .Ltmp264-.Ltmp263              #   Call between .Ltmp263 and .Ltmp264
	.uleb128 .Ltmp612-.Lfunc_begin2         #     jumps to .Ltmp612
	.byte	0                               #   On action: cleanup
	.uleb128 .Ltmp264-.Lfunc_begin2         # >> Call Site 11 <<
	.uleb128 .Ltmp265-.Ltmp264              #   Call between .Ltmp264 and .Ltmp265
	.byte	0                               #     has no landing pad
	.byte	0                               #   On action: cleanup
	.uleb128 .Ltmp265-.Lfunc_begin2         # >> Call Site 12 <<
	.uleb128 .Ltmp266-.Ltmp265              #   Call between .Ltmp265 and .Ltmp266
	.uleb128 .Ltmp267-.Lfunc_begin2         #     jumps to .Ltmp267
	.byte	0                               #   On action: cleanup
	.uleb128 .Ltmp268-.Lfunc_begin2         # >> Call Site 13 <<
	.uleb128 .Ltmp269-.Ltmp268              #   Call between .Ltmp268 and .Ltmp269
	.uleb128 .Ltmp609-.Lfunc_begin2         #     jumps to .Ltmp609
	.byte	0                               #   On action: cleanup
	.uleb128 .Ltmp269-.Lfunc_begin2         # >> Call Site 14 <<
	.uleb128 .Ltmp270-.Ltmp269              #   Call between .Ltmp269 and .Ltmp270
	.byte	0                               #     has no landing pad
	.byte	0                               #   On action: cleanup
	.uleb128 .Ltmp270-.Lfunc_begin2         # >> Call Site 15 <<
	.uleb128 .Ltmp271-.Ltmp270              #   Call between .Ltmp270 and .Ltmp271
	.uleb128 .Ltmp606-.Lfunc_begin2         #     jumps to .Ltmp606
	.byte	0                               #   On action: cleanup
	.uleb128 .Ltmp325-.Lfunc_begin2         # >> Call Site 16 <<
	.uleb128 .Ltmp326-.Ltmp325              #   Call between .Ltmp325 and .Ltmp326
	.uleb128 .Ltmp337-.Lfunc_begin2         #     jumps to .Ltmp337
	.byte	0                               #   On action: cleanup
	.uleb128 .Ltmp272-.Lfunc_begin2         # >> Call Site 17 <<
	.uleb128 .Ltmp273-.Ltmp272              #   Call between .Ltmp272 and .Ltmp273
	.uleb128 .Ltmp606-.Lfunc_begin2         #     jumps to .Ltmp606
	.byte	0                               #   On action: cleanup
	.uleb128 .Ltmp327-.Lfunc_begin2         # >> Call Site 18 <<
	.uleb128 .Ltmp336-.Ltmp327              #   Call between .Ltmp327 and .Ltmp336
	.uleb128 .Ltmp337-.Lfunc_begin2         #     jumps to .Ltmp337
	.byte	0                               #   On action: cleanup
	.uleb128 .Ltmp338-.Lfunc_begin2         # >> Call Site 19 <<
	.uleb128 .Ltmp339-.Ltmp338              #   Call between .Ltmp338 and .Ltmp339
	.uleb128 .Ltmp594-.Lfunc_begin2         #     jumps to .Ltmp594
	.byte	0                               #   On action: cleanup
	.uleb128 .Ltmp340-.Lfunc_begin2         # >> Call Site 20 <<
	.uleb128 .Ltmp341-.Ltmp340              #   Call between .Ltmp340 and .Ltmp341
	.uleb128 .Ltmp591-.Lfunc_begin2         #     jumps to .Ltmp591
	.byte	0                               #   On action: cleanup
	.uleb128 .Ltmp341-.Lfunc_begin2         # >> Call Site 21 <<
	.uleb128 .Ltmp342-.Ltmp341              #   Call between .Ltmp341 and .Ltmp342
	.byte	0                               #     has no landing pad
	.byte	0                               #   On action: cleanup
	.uleb128 .Ltmp342-.Lfunc_begin2         # >> Call Site 22 <<
	.uleb128 .Ltmp343-.Ltmp342              #   Call between .Ltmp342 and .Ltmp343
	.uleb128 .Ltmp588-.Lfunc_begin2         #     jumps to .Ltmp588
	.byte	0                               #   On action: cleanup
	.uleb128 .Ltmp343-.Lfunc_begin2         # >> Call Site 23 <<
	.uleb128 .Ltmp344-.Ltmp343              #   Call between .Ltmp343 and .Ltmp344
	.byte	0                               #     has no landing pad
	.byte	0                               #   On action: cleanup
	.uleb128 .Ltmp344-.Lfunc_begin2         # >> Call Site 24 <<
	.uleb128 .Ltmp345-.Ltmp344              #   Call between .Ltmp344 and .Ltmp345
	.uleb128 .Ltmp346-.Lfunc_begin2         #     jumps to .Ltmp346
	.byte	0                               #   On action: cleanup
	.uleb128 .Ltmp345-.Lfunc_begin2         # >> Call Site 25 <<
	.uleb128 .Ltmp586-.Ltmp345              #   Call between .Ltmp345 and .Ltmp586
	.byte	0                               #     has no landing pad
	.byte	0                               #   On action: cleanup
	.uleb128 .Ltmp586-.Lfunc_begin2         # >> Call Site 26 <<
	.uleb128 .Ltmp587-.Ltmp586              #   Call between .Ltmp586 and .Ltmp587
	.uleb128 .Ltmp588-.Lfunc_begin2         #     jumps to .Ltmp588
	.byte	0                               #   On action: cleanup
	.uleb128 .Ltmp347-.Lfunc_begin2         # >> Call Site 27 <<
	.uleb128 .Ltmp352-.Ltmp347              #   Call between .Ltmp347 and .Ltmp352
	.uleb128 .Ltmp585-.Lfunc_begin2         #     jumps to .Ltmp585
	.byte	0                               #   On action: cleanup
	.uleb128 .Ltmp352-.Lfunc_begin2         # >> Call Site 28 <<
	.uleb128 .Ltmp589-.Ltmp352              #   Call between .Ltmp352 and .Ltmp589
	.byte	0                               #     has no landing pad
	.byte	0                               #   On action: cleanup
	.uleb128 .Ltmp589-.Lfunc_begin2         # >> Call Site 29 <<
	.uleb128 .Ltmp590-.Ltmp589              #   Call between .Ltmp589 and .Ltmp590
	.uleb128 .Ltmp591-.Lfunc_begin2         #     jumps to .Ltmp591
	.byte	0                               #   On action: cleanup
	.uleb128 .Ltmp353-.Lfunc_begin2         # >> Call Site 30 <<
	.uleb128 .Ltmp370-.Ltmp353              #   Call between .Ltmp353 and .Ltmp370
	.uleb128 .Ltmp585-.Lfunc_begin2         #     jumps to .Ltmp585
	.byte	0                               #   On action: cleanup
	.uleb128 .Ltmp371-.Lfunc_begin2         # >> Call Site 31 <<
	.uleb128 .Ltmp380-.Ltmp371              #   Call between .Ltmp371 and .Ltmp380
	.uleb128 .Ltmp381-.Lfunc_begin2         #     jumps to .Ltmp381
	.byte	0                               #   On action: cleanup
	.uleb128 .Ltmp382-.Lfunc_begin2         # >> Call Site 32 <<
	.uleb128 .Ltmp387-.Ltmp382              #   Call between .Ltmp382 and .Ltmp387
	.uleb128 .Ltmp388-.Lfunc_begin2         #     jumps to .Ltmp388
	.byte	0                               #   On action: cleanup
	.uleb128 .Ltmp389-.Lfunc_begin2         # >> Call Site 33 <<
	.uleb128 .Ltmp396-.Ltmp389              #   Call between .Ltmp389 and .Ltmp396
	.uleb128 .Ltmp397-.Lfunc_begin2         #     jumps to .Ltmp397
	.byte	0                               #   On action: cleanup
	.uleb128 .Ltmp398-.Lfunc_begin2         # >> Call Site 34 <<
	.uleb128 .Ltmp399-.Ltmp398              #   Call between .Ltmp398 and .Ltmp399
	.uleb128 .Ltmp576-.Lfunc_begin2         #     jumps to .Ltmp576
	.byte	0                               #   On action: cleanup
	.uleb128 .Ltmp399-.Lfunc_begin2         # >> Call Site 35 <<
	.uleb128 .Ltmp400-.Ltmp399              #   Call between .Ltmp399 and .Ltmp400
	.byte	0                               #     has no landing pad
	.byte	0                               #   On action: cleanup
	.uleb128 .Ltmp400-.Lfunc_begin2         # >> Call Site 36 <<
	.uleb128 .Ltmp401-.Ltmp400              #   Call between .Ltmp400 and .Ltmp401
	.uleb128 .Ltmp573-.Lfunc_begin2         #     jumps to .Ltmp573
	.byte	0                               #   On action: cleanup
	.uleb128 .Ltmp401-.Lfunc_begin2         # >> Call Site 37 <<
	.uleb128 .Ltmp402-.Ltmp401              #   Call between .Ltmp401 and .Ltmp402
	.byte	0                               #     has no landing pad
	.byte	0                               #   On action: cleanup
	.uleb128 .Ltmp402-.Lfunc_begin2         # >> Call Site 38 <<
	.uleb128 .Ltmp403-.Ltmp402              #   Call between .Ltmp402 and .Ltmp403
	.uleb128 .Ltmp404-.Lfunc_begin2         #     jumps to .Ltmp404
	.byte	0                               #   On action: cleanup
	.uleb128 .Ltmp403-.Lfunc_begin2         # >> Call Site 39 <<
	.uleb128 .Ltmp571-.Ltmp403              #   Call between .Ltmp403 and .Ltmp571
	.byte	0                               #     has no landing pad
	.byte	0                               #   On action: cleanup
	.uleb128 .Ltmp571-.Lfunc_begin2         # >> Call Site 40 <<
	.uleb128 .Ltmp572-.Ltmp571              #   Call between .Ltmp571 and .Ltmp572
	.uleb128 .Ltmp573-.Lfunc_begin2         #     jumps to .Ltmp573
	.byte	0                               #   On action: cleanup
	.uleb128 .Ltmp405-.Lfunc_begin2         # >> Call Site 41 <<
	.uleb128 .Ltmp428-.Ltmp405              #   Call between .Ltmp405 and .Ltmp428
	.uleb128 .Ltmp570-.Lfunc_begin2         #     jumps to .Ltmp570
	.byte	0                               #   On action: cleanup
	.uleb128 .Ltmp429-.Lfunc_begin2         # >> Call Site 42 <<
	.uleb128 .Ltmp438-.Ltmp429              #   Call between .Ltmp429 and .Ltmp438
	.uleb128 .Ltmp439-.Lfunc_begin2         #     jumps to .Ltmp439
	.byte	0                               #   On action: cleanup
	.uleb128 .Ltmp440-.Lfunc_begin2         # >> Call Site 43 <<
	.uleb128 .Ltmp447-.Ltmp440              #   Call between .Ltmp440 and .Ltmp447
	.uleb128 .Ltmp448-.Lfunc_begin2         #     jumps to .Ltmp448
	.byte	0                               #   On action: cleanup
	.uleb128 .Ltmp449-.Lfunc_begin2         # >> Call Site 44 <<
	.uleb128 .Ltmp456-.Ltmp449              #   Call between .Ltmp449 and .Ltmp456
	.uleb128 .Ltmp457-.Lfunc_begin2         #     jumps to .Ltmp457
	.byte	0                               #   On action: cleanup
	.uleb128 .Ltmp458-.Lfunc_begin2         # >> Call Site 45 <<
	.uleb128 .Ltmp459-.Ltmp458              #   Call between .Ltmp458 and .Ltmp459
	.uleb128 .Ltmp561-.Lfunc_begin2         #     jumps to .Ltmp561
	.byte	0                               #   On action: cleanup
	.uleb128 .Ltmp459-.Lfunc_begin2         # >> Call Site 46 <<
	.uleb128 .Ltmp460-.Ltmp459              #   Call between .Ltmp459 and .Ltmp460
	.byte	0                               #     has no landing pad
	.byte	0                               #   On action: cleanup
	.uleb128 .Ltmp460-.Lfunc_begin2         # >> Call Site 47 <<
	.uleb128 .Ltmp461-.Ltmp460              #   Call between .Ltmp460 and .Ltmp461
	.uleb128 .Ltmp558-.Lfunc_begin2         #     jumps to .Ltmp558
	.byte	0                               #   On action: cleanup
	.uleb128 .Ltmp461-.Lfunc_begin2         # >> Call Site 48 <<
	.uleb128 .Ltmp462-.Ltmp461              #   Call between .Ltmp461 and .Ltmp462
	.byte	0                               #     has no landing pad
	.byte	0                               #   On action: cleanup
	.uleb128 .Ltmp462-.Lfunc_begin2         # >> Call Site 49 <<
	.uleb128 .Ltmp463-.Ltmp462              #   Call between .Ltmp462 and .Ltmp463
	.uleb128 .Ltmp464-.Lfunc_begin2         #     jumps to .Ltmp464
	.byte	0                               #   On action: cleanup
	.uleb128 .Ltmp463-.Lfunc_begin2         # >> Call Site 50 <<
	.uleb128 .Ltmp465-.Ltmp463              #   Call between .Ltmp463 and .Ltmp465
	.byte	0                               #     has no landing pad
	.byte	0                               #   On action: cleanup
	.uleb128 .Ltmp465-.Lfunc_begin2         # >> Call Site 51 <<
	.uleb128 .Ltmp466-.Ltmp465              #   Call between .Ltmp465 and .Ltmp466
	.uleb128 .Ltmp472-.Lfunc_begin2         #     jumps to .Ltmp472
	.byte	0                               #   On action: cleanup
	.uleb128 .Ltmp467-.Lfunc_begin2         # >> Call Site 52 <<
	.uleb128 .Ltmp468-.Ltmp467              #   Call between .Ltmp467 and .Ltmp468
	.uleb128 .Ltmp469-.Lfunc_begin2         #     jumps to .Ltmp469
	.byte	0                               #   On action: cleanup
	.uleb128 .Ltmp468-.Lfunc_begin2         # >> Call Site 53 <<
	.uleb128 .Ltmp470-.Ltmp468              #   Call between .Ltmp468 and .Ltmp470
	.byte	0                               #     has no landing pad
	.byte	0                               #   On action: cleanup
	.uleb128 .Ltmp470-.Lfunc_begin2         # >> Call Site 54 <<
	.uleb128 .Ltmp471-.Ltmp470              #   Call between .Ltmp470 and .Ltmp471
	.uleb128 .Ltmp472-.Lfunc_begin2         #     jumps to .Ltmp472
	.byte	0                               #   On action: cleanup
	.uleb128 .Ltmp473-.Lfunc_begin2         # >> Call Site 55 <<
	.uleb128 .Ltmp474-.Ltmp473              #   Call between .Ltmp473 and .Ltmp474
	.uleb128 .Ltmp475-.Lfunc_begin2         #     jumps to .Ltmp475
	.byte	0                               #   On action: cleanup
	.uleb128 .Ltmp476-.Lfunc_begin2         # >> Call Site 56 <<
	.uleb128 .Ltmp477-.Ltmp476              #   Call between .Ltmp476 and .Ltmp477
	.uleb128 .Ltmp480-.Lfunc_begin2         #     jumps to .Ltmp480
	.byte	0                               #   On action: cleanup
	.uleb128 .Ltmp477-.Lfunc_begin2         # >> Call Site 57 <<
	.uleb128 .Ltmp481-.Ltmp477              #   Call between .Ltmp477 and .Ltmp481
	.byte	0                               #     has no landing pad
	.byte	0                               #   On action: cleanup
	.uleb128 .Ltmp481-.Lfunc_begin2         # >> Call Site 58 <<
	.uleb128 .Ltmp502-.Ltmp481              #   Call between .Ltmp481 and .Ltmp502
	.uleb128 .Ltmp552-.Lfunc_begin2         #     jumps to .Ltmp552
	.byte	0                               #   On action: cleanup
	.uleb128 .Ltmp503-.Lfunc_begin2         # >> Call Site 59 <<
	.uleb128 .Ltmp512-.Ltmp503              #   Call between .Ltmp503 and .Ltmp512
	.uleb128 .Ltmp513-.Lfunc_begin2         #     jumps to .Ltmp513
	.byte	0                               #   On action: cleanup
	.uleb128 .Ltmp514-.Lfunc_begin2         # >> Call Site 60 <<
	.uleb128 .Ltmp523-.Ltmp514              #   Call between .Ltmp514 and .Ltmp523
	.uleb128 .Ltmp524-.Lfunc_begin2         #     jumps to .Ltmp524
	.byte	0                               #   On action: cleanup
	.uleb128 .Ltmp525-.Lfunc_begin2         # >> Call Site 61 <<
	.uleb128 .Ltmp526-.Ltmp525              #   Call between .Ltmp525 and .Ltmp526
	.uleb128 .Ltmp527-.Lfunc_begin2         #     jumps to .Ltmp527
	.byte	0                               #   On action: cleanup
	.uleb128 .Ltmp528-.Lfunc_begin2         # >> Call Site 62 <<
	.uleb128 .Ltmp535-.Ltmp528              #   Call between .Ltmp528 and .Ltmp535
	.uleb128 .Ltmp536-.Lfunc_begin2         #     jumps to .Ltmp536
	.byte	0                               #   On action: cleanup
	.uleb128 .Ltmp537-.Lfunc_begin2         # >> Call Site 63 <<
	.uleb128 .Ltmp540-.Ltmp537              #   Call between .Ltmp537 and .Ltmp540
	.uleb128 .Ltmp552-.Lfunc_begin2         #     jumps to .Ltmp552
	.byte	0                               #   On action: cleanup
	.uleb128 .Ltmp540-.Lfunc_begin2         # >> Call Site 64 <<
	.uleb128 .Ltmp274-.Ltmp540              #   Call between .Ltmp540 and .Ltmp274
	.byte	0                               #     has no landing pad
	.byte	0                               #   On action: cleanup
	.uleb128 .Ltmp274-.Lfunc_begin2         # >> Call Site 65 <<
	.uleb128 .Ltmp291-.Ltmp274              #   Call between .Ltmp274 and .Ltmp291
	.uleb128 .Ltmp606-.Lfunc_begin2         #     jumps to .Ltmp606
	.byte	0                               #   On action: cleanup
	.uleb128 .Ltmp292-.Lfunc_begin2         # >> Call Site 66 <<
	.uleb128 .Ltmp301-.Ltmp292              #   Call between .Ltmp292 and .Ltmp301
	.uleb128 .Ltmp302-.Lfunc_begin2         #     jumps to .Ltmp302
	.byte	0                               #   On action: cleanup
	.uleb128 .Ltmp303-.Lfunc_begin2         # >> Call Site 67 <<
	.uleb128 .Ltmp312-.Ltmp303              #   Call between .Ltmp303 and .Ltmp312
	.uleb128 .Ltmp313-.Lfunc_begin2         #     jumps to .Ltmp313
	.byte	0                               #   On action: cleanup
	.uleb128 .Ltmp314-.Lfunc_begin2         # >> Call Site 68 <<
	.uleb128 .Ltmp323-.Ltmp314              #   Call between .Ltmp314 and .Ltmp323
	.uleb128 .Ltmp324-.Lfunc_begin2         #     jumps to .Ltmp324
	.byte	0                               #   On action: cleanup
	.uleb128 .Ltmp553-.Lfunc_begin2         # >> Call Site 69 <<
	.uleb128 .Ltmp554-.Ltmp553              #   Call between .Ltmp553 and .Ltmp554
	.uleb128 .Ltmp555-.Lfunc_begin2         #     jumps to .Ltmp555
	.byte	0                               #   On action: cleanup
	.uleb128 .Ltmp580-.Lfunc_begin2         # >> Call Site 70 <<
	.uleb128 .Ltmp581-.Ltmp580              #   Call between .Ltmp580 and .Ltmp581
	.uleb128 .Ltmp582-.Lfunc_begin2         #     jumps to .Ltmp582
	.byte	0                               #   On action: cleanup
	.uleb128 .Ltmp565-.Lfunc_begin2         # >> Call Site 71 <<
	.uleb128 .Ltmp566-.Ltmp565              #   Call between .Ltmp565 and .Ltmp566
	.uleb128 .Ltmp567-.Lfunc_begin2         #     jumps to .Ltmp567
	.byte	0                               #   On action: cleanup
	.uleb128 .Ltmp547-.Lfunc_begin2         # >> Call Site 72 <<
	.uleb128 .Ltmp548-.Ltmp547              #   Call between .Ltmp547 and .Ltmp548
	.uleb128 .Ltmp549-.Lfunc_begin2         #     jumps to .Ltmp549
	.byte	0                               #   On action: cleanup
	.uleb128 .Ltmp601-.Lfunc_begin2         # >> Call Site 73 <<
	.uleb128 .Ltmp602-.Ltmp601              #   Call between .Ltmp601 and .Ltmp602
	.uleb128 .Ltmp603-.Lfunc_begin2         #     jumps to .Ltmp603
	.byte	0                               #   On action: cleanup
	.uleb128 .Ltmp577-.Lfunc_begin2         # >> Call Site 74 <<
	.uleb128 .Ltmp578-.Ltmp577              #   Call between .Ltmp577 and .Ltmp578
	.uleb128 .Ltmp579-.Lfunc_begin2         #     jumps to .Ltmp579
	.byte	0                               #   On action: cleanup
	.uleb128 .Ltmp562-.Lfunc_begin2         # >> Call Site 75 <<
	.uleb128 .Ltmp563-.Ltmp562              #   Call between .Ltmp562 and .Ltmp563
	.uleb128 .Ltmp564-.Lfunc_begin2         #     jumps to .Ltmp564
	.byte	0                               #   On action: cleanup
	.uleb128 .Ltmp544-.Lfunc_begin2         # >> Call Site 76 <<
	.uleb128 .Ltmp545-.Ltmp544              #   Call between .Ltmp544 and .Ltmp545
	.uleb128 .Ltmp546-.Lfunc_begin2         #     jumps to .Ltmp546
	.byte	0                               #   On action: cleanup
	.uleb128 .Ltmp598-.Lfunc_begin2         # >> Call Site 77 <<
	.uleb128 .Ltmp599-.Ltmp598              #   Call between .Ltmp598 and .Ltmp599
	.uleb128 .Ltmp600-.Lfunc_begin2         #     jumps to .Ltmp600
	.byte	0                               #   On action: cleanup
	.uleb128 .Ltmp541-.Lfunc_begin2         # >> Call Site 78 <<
	.uleb128 .Ltmp542-.Ltmp541              #   Call between .Ltmp541 and .Ltmp542
	.uleb128 .Ltmp543-.Lfunc_begin2         #     jumps to .Ltmp543
	.byte	0                               #   On action: cleanup
	.uleb128 .Ltmp595-.Lfunc_begin2         # >> Call Site 79 <<
	.uleb128 .Ltmp596-.Ltmp595              #   Call between .Ltmp595 and .Ltmp596
	.uleb128 .Ltmp597-.Lfunc_begin2         #     jumps to .Ltmp597
	.byte	0                               #   On action: cleanup
	.uleb128 .Ltmp613-.Lfunc_begin2         # >> Call Site 80 <<
	.uleb128 .Ltmp614-.Ltmp613              #   Call between .Ltmp613 and .Ltmp614
	.uleb128 .Ltmp615-.Lfunc_begin2         #     jumps to .Ltmp615
	.byte	0                               #   On action: cleanup
	.uleb128 .Ltmp610-.Lfunc_begin2         # >> Call Site 81 <<
	.uleb128 .Ltmp611-.Ltmp610              #   Call between .Ltmp610 and .Ltmp611
	.uleb128 .Ltmp612-.Lfunc_begin2         #     jumps to .Ltmp612
	.byte	0                               #   On action: cleanup
	.uleb128 .Ltmp607-.Lfunc_begin2         # >> Call Site 82 <<
	.uleb128 .Ltmp608-.Ltmp607              #   Call between .Ltmp607 and .Ltmp608
	.uleb128 .Ltmp609-.Lfunc_begin2         #     jumps to .Ltmp609
	.byte	0                               #   On action: cleanup
	.uleb128 .Ltmp592-.Lfunc_begin2         # >> Call Site 83 <<
	.uleb128 .Ltmp593-.Ltmp592              #   Call between .Ltmp592 and .Ltmp593
	.uleb128 .Ltmp594-.Lfunc_begin2         #     jumps to .Ltmp594
	.byte	0                               #   On action: cleanup
	.uleb128 .Ltmp583-.Lfunc_begin2         # >> Call Site 84 <<
	.uleb128 .Ltmp584-.Ltmp583              #   Call between .Ltmp583 and .Ltmp584
	.uleb128 .Ltmp585-.Lfunc_begin2         #     jumps to .Ltmp585
	.byte	0                               #   On action: cleanup
	.uleb128 .Ltmp574-.Lfunc_begin2         # >> Call Site 85 <<
	.uleb128 .Ltmp575-.Ltmp574              #   Call between .Ltmp574 and .Ltmp575
	.uleb128 .Ltmp576-.Lfunc_begin2         #     jumps to .Ltmp576
	.byte	0                               #   On action: cleanup
	.uleb128 .Ltmp568-.Lfunc_begin2         # >> Call Site 86 <<
	.uleb128 .Ltmp569-.Ltmp568              #   Call between .Ltmp568 and .Ltmp569
	.uleb128 .Ltmp570-.Lfunc_begin2         #     jumps to .Ltmp570
	.byte	0                               #   On action: cleanup
	.uleb128 .Ltmp559-.Lfunc_begin2         # >> Call Site 87 <<
	.uleb128 .Ltmp560-.Ltmp559              #   Call between .Ltmp559 and .Ltmp560
	.uleb128 .Ltmp561-.Lfunc_begin2         #     jumps to .Ltmp561
	.byte	0                               #   On action: cleanup
	.uleb128 .Ltmp556-.Lfunc_begin2         # >> Call Site 88 <<
	.uleb128 .Ltmp557-.Ltmp556              #   Call between .Ltmp556 and .Ltmp557
	.uleb128 .Ltmp558-.Lfunc_begin2         #     jumps to .Ltmp558
	.byte	0                               #   On action: cleanup
	.uleb128 .Ltmp550-.Lfunc_begin2         # >> Call Site 89 <<
	.uleb128 .Ltmp551-.Ltmp550              #   Call between .Ltmp550 and .Ltmp551
	.uleb128 .Ltmp552-.Lfunc_begin2         #     jumps to .Ltmp552
	.byte	0                               #   On action: cleanup
	.uleb128 .Ltmp616-.Lfunc_begin2         # >> Call Site 90 <<
	.uleb128 .Ltmp617-.Ltmp616              #   Call between .Ltmp616 and .Ltmp617
	.uleb128 .Ltmp618-.Lfunc_begin2         #     jumps to .Ltmp618
	.byte	0                               #   On action: cleanup
	.uleb128 .Ltmp619-.Lfunc_begin2         # >> Call Site 91 <<
	.uleb128 .Ltmp620-.Ltmp619              #   Call between .Ltmp619 and .Ltmp620
	.uleb128 .Ltmp621-.Lfunc_begin2         #     jumps to .Ltmp621
	.byte	0                               #   On action: cleanup
	.uleb128 .Ltmp604-.Lfunc_begin2         # >> Call Site 92 <<
	.uleb128 .Ltmp605-.Ltmp604              #   Call between .Ltmp604 and .Ltmp605
	.uleb128 .Ltmp606-.Lfunc_begin2         #     jumps to .Ltmp606
	.byte	0                               #   On action: cleanup
	.uleb128 .Ltmp478-.Lfunc_begin2         # >> Call Site 93 <<
	.uleb128 .Ltmp479-.Ltmp478              #   Call between .Ltmp478 and .Ltmp479
	.uleb128 .Ltmp480-.Lfunc_begin2         #     jumps to .Ltmp480
	.byte	0                               #   On action: cleanup
	.uleb128 .Ltmp172-.Lfunc_begin2         # >> Call Site 94 <<
	.uleb128 .Ltmp179-.Ltmp172              #   Call between .Ltmp172 and .Ltmp179
	.uleb128 .Ltmp180-.Lfunc_begin2         #     jumps to .Ltmp180
	.byte	0                               #   On action: cleanup
	.uleb128 .Ltmp179-.Lfunc_begin2         # >> Call Site 95 <<
	.uleb128 .Lfunc_end5-.Ltmp179           #   Call between .Ltmp179 and .Lfunc_end5
	.byte	0                               #     has no landing pad
	.byte	0                               #   On action: cleanup
.Lcst_end2:
	.p2align	2, 0x0
                                        # -- End function
	.text
	.globl	_ZN10ExportGold12writeVarFileERKNSt7__cxx1112basic_stringIcSt11char_traitsIcESaIcEEES7_PKd # -- Begin function _ZN10ExportGold12writeVarFileERKNSt7__cxx1112basic_stringIcSt11char_traitsIcESaIcEEES7_PKd
	.p2align	2
	.type	_ZN10ExportGold12writeVarFileERKNSt7__cxx1112basic_stringIcSt11char_traitsIcESaIcEEES7_PKd,@function
_ZN10ExportGold12writeVarFileERKNSt7__cxx1112basic_stringIcSt11char_traitsIcESaIcEEES7_PKd: # @_ZN10ExportGold12writeVarFileERKNSt7__cxx1112basic_stringIcSt11char_traitsIcESaIcEEES7_PKd
.Lfunc_begin3:
	.cfi_startproc
	.cfi_personality 155, DW.ref.__gxx_personality_v0
	.cfi_lsda 27, .Lexception3
# %bb.0:
	addi.d	$sp, $sp, -752
	.cfi_def_cfa_offset 752
	st.d	$ra, $sp, 744                   # 8-byte Folded Spill
	st.d	$fp, $sp, 736                   # 8-byte Folded Spill
	st.d	$s0, $sp, 728                   # 8-byte Folded Spill
	st.d	$s1, $sp, 720                   # 8-byte Folded Spill
	st.d	$s2, $sp, 712                   # 8-byte Folded Spill
	st.d	$s3, $sp, 704                   # 8-byte Folded Spill
	st.d	$s4, $sp, 696                   # 8-byte Folded Spill
	st.d	$s5, $sp, 688                   # 8-byte Folded Spill
	st.d	$s6, $sp, 680                   # 8-byte Folded Spill
	st.d	$s7, $sp, 672                   # 8-byte Folded Spill
	st.d	$s8, $sp, 664                   # 8-byte Folded Spill
	.cfi_offset 1, -8
	.cfi_offset 22, -16
	.cfi_offset 23, -24
	.cfi_offset 24, -32
	.cfi_offset 25, -40
	.cfi_offset 26, -48
	.cfi_offset 27, -56
	.cfi_offset 28, -64
	.cfi_offset 29, -72
	.cfi_offset 30, -80
	.cfi_offset 31, -88
	move	$s1, $a3
	move	$s0, $a2
	move	$s3, $a1
	move	$fp, $a0
	addi.d	$a0, $sp, 152
	pcaddu18i	$ra, %call36(_ZNSt14basic_ofstreamIcSt11char_traitsIcEEC1Ev)
	jirl	$ra, $ra, 0
	pcalau12i	$a0, %got_pc_hi20(_ZN8Parallel4mypeE)
	ld.d	$a0, $a0, %got_pc_lo12(_ZN8Parallel4mypeE)
	st.d	$a0, $sp, 80                    # 8-byte Folded Spill
	ld.w	$a0, $a0, 0
	bnez	$a0, .LBB6_46
# %bb.1:
	ld.d	$s2, $s3, 0
	ld.d	$s3, $s3, 8
	addi.d	$s4, $sp, 104
	st.d	$s4, $sp, 88
	st.d	$zero, $sp, 96
	st.b	$zero, $sp, 104
	addi.d	$a1, $s3, 1
.Ltmp622:                               # EH_LABEL
	addi.d	$a0, $sp, 88
	pcaddu18i	$ra, %call36(_ZNSt7__cxx1112basic_stringIcSt11char_traitsIcESaIcEE7reserveEm)
	jirl	$ra, $ra, 0
.Ltmp623:                               # EH_LABEL
# %bb.2:
	ld.d	$a0, $sp, 96
	addi.w	$a1, $zero, -2
	lu52i.d	$s5, $a1, 2047
	sub.d	$a0, $s5, $a0
	bltu	$a0, $s3, .LBB6_196
# %bb.3:                                # %_ZNKSt7__cxx1112basic_stringIcSt11char_traitsIcESaIcEE15_M_check_lengthEmmPKc.exit.i.i.i
.Ltmp624:                               # EH_LABEL
	addi.d	$a0, $sp, 88
	move	$a1, $s2
	move	$a2, $s3
	pcaddu18i	$ra, %call36(_ZNSt7__cxx1112basic_stringIcSt11char_traitsIcESaIcEE9_M_appendEPKcm)
	jirl	$ra, $ra, 0
.Ltmp625:                               # EH_LABEL
# %bb.4:                                # %_ZNSt7__cxx1112basic_stringIcSt11char_traitsIcESaIcEE6appendEPKcm.exit.i.i
	ld.d	$a0, $sp, 96
	beq	$a0, $s5, .LBB6_196
# %bb.5:                                # %_ZNKSt7__cxx1112basic_stringIcSt11char_traitsIcESaIcEE15_M_check_lengthEmmPKc.exit.i10.i.i
.Ltmp626:                               # EH_LABEL
	pcalau12i	$a0, %pc_hi20(.L.str.30)
	addi.d	$a1, $a0, %pc_lo12(.L.str.30)
	addi.d	$a0, $sp, 88
	ori	$a2, $zero, 1
	pcaddu18i	$ra, %call36(_ZNSt7__cxx1112basic_stringIcSt11char_traitsIcESaIcEE9_M_appendEPKcm)
	jirl	$ra, $ra, 0
.Ltmp627:                               # EH_LABEL
# %bb.6:                                # %_ZStplIcSt11char_traitsIcESaIcEENSt7__cxx1112basic_stringIT_T0_T1_EERKS8_PKS5_.exit
	ld.d	$a0, $sp, 96
	ld.d	$a2, $s0, 8
	sub.d	$a0, $s5, $a0
	bltu	$a0, $a2, .LBB6_206
# %bb.7:                                # %_ZNSt7__cxx1112basic_stringIcSt11char_traitsIcESaIcEE6appendERKS4_.exit.i
.Ltmp628:                               # EH_LABEL
	ld.d	$a1, $s0, 0
	addi.d	$a0, $sp, 88
	pcaddu18i	$ra, %call36(_ZNSt7__cxx1112basic_stringIcSt11char_traitsIcESaIcEE9_M_appendEPKcm)
	jirl	$ra, $ra, 0
.Ltmp629:                               # EH_LABEL
# %bb.8:                                # %.noexc86
	addi.d	$s2, $sp, 136
	st.d	$s2, $sp, 120
	ld.d	$a1, $a0, 0
	addi.d	$s3, $a0, 16
	beq	$a1, $s3, .LBB6_10
# %bb.9:                                # %_ZNKSt7__cxx1112basic_stringIcSt11char_traitsIcESaIcEE11_M_is_localEv.exit.i.i
	ld.d	$a2, $a0, 16
	st.d	$a2, $sp, 136
	ld.d	$s5, $a0, 8
	st.d	$a1, $sp, 120
	b	.LBB6_11
.LBB6_10:                               # %_ZNSt11char_traitsIcE4copyEPcPKcm.exit.i.i
	ld.d	$s5, $a0, 8
	addi.d	$a2, $s5, 1
	move	$s6, $a0
	move	$a0, $s2
	move	$a1, $s3
	pcaddu18i	$ra, %call36(memcpy)
	jirl	$ra, $ra, 0
	move	$a0, $s6
.LBB6_11:
	st.d	$s3, $a0, 0
	ld.d	$a2, $sp, 88
	st.d	$s5, $sp, 128
	st.d	$zero, $a0, 8
	st.b	$zero, $a0, 16
	beq	$a2, $s4, .LBB6_13
# %bb.12:                               # %_ZNKSt7__cxx1112basic_stringIcSt11char_traitsIcESaIcEE11_M_is_localEv.exit.i.i87
	ld.d	$a0, $sp, 104
	addi.d	$a1, $a0, 1
	move	$a0, $a2
	pcaddu18i	$ra, %call36(_ZdlPvm)
	jirl	$ra, $ra, 0
.LBB6_13:                               # %_ZNSt7__cxx1112basic_stringIcSt11char_traitsIcESaIcEED2Ev.exit
	ld.d	$a1, $sp, 120
	addi.d	$a0, $sp, 160
.Ltmp630:                               # EH_LABEL
	ori	$a2, $zero, 16
	pcaddu18i	$ra, %call36(_ZNSt13basic_filebufIcSt11char_traitsIcEE4openEPKcSt13_Ios_Openmode)
	jirl	$ra, $ra, 0
	move	$a1, $a0
.Ltmp631:                               # EH_LABEL
# %bb.14:                               # %.noexc88
	ld.d	$a0, $sp, 152
	ld.d	$a0, $a0, -24
	addi.d	$a2, $sp, 152
	add.d	$a0, $a2, $a0
	beqz	$a1, .LBB6_16
# %bb.15:
	move	$a1, $zero
	b	.LBB6_17
.LBB6_16:
	ld.w	$a1, $a0, 32
	ori	$a1, $a1, 4
.LBB6_17:
.Ltmp632:                               # EH_LABEL
	pcaddu18i	$ra, %call36(_ZNSt9basic_iosIcSt11char_traitsIcEE5clearESt12_Ios_Iostate)
	jirl	$ra, $ra, 0
.Ltmp633:                               # EH_LABEL
# %bb.18:                               # %_ZNSt14basic_ofstreamIcSt11char_traitsIcEE4openEPKcSt13_Ios_Openmode.exit
	ld.d	$a0, $sp, 152
	ld.d	$a0, $a0, -24
	addi.d	$a1, $sp, 152
	add.d	$a0, $a1, $a0
	ld.w	$a0, $a0, 32
	bnez	$a0, .LBB6_208
# %bb.19:
	ld.d	$a0, $sp, 120
	beq	$a0, $s2, .LBB6_21
# %bb.20:                               # %_ZNKSt7__cxx1112basic_stringIcSt11char_traitsIcESaIcEE11_M_is_localEv.exit.i.i101
	ld.d	$a1, $sp, 136
	addi.d	$a1, $a1, 1
	pcaddu18i	$ra, %call36(_ZdlPvm)
	jirl	$ra, $ra, 0
.LBB6_21:
	ld.d	$a0, $sp, 80                    # 8-byte Folded Reload
	ld.w	$a0, $a0, 0
	bnez	$a0, .LBB6_46
# %bb.22:
	ld.d	$a0, $sp, 152
	ld.d	$a1, $a0, -24
	addi.d	$a3, $sp, 152
	add.d	$a1, $a3, $a1
	ld.wu	$a2, $a1, 24
	addi.w	$a4, $zero, -261
	lu32i.d	$a4, 0
	and	$a2, $a2, $a4
	addi.d	$a2, $a2, 256
	st.w	$a2, $a1, 24
	ld.d	$a0, $a0, -24
	ld.d	$a1, $s0, 0
	ld.d	$a2, $s0, 8
	add.d	$a0, $a3, $a0
	ori	$a3, $zero, 5
	st.d	$a3, $a0, 8
.Ltmp643:                               # EH_LABEL
	addi.d	$a0, $sp, 152
	pcaddu18i	$ra, %call36(_ZSt16__ostream_insertIcSt11char_traitsIcEERSt13basic_ostreamIT_T0_ES6_PKS3_l)
	jirl	$ra, $ra, 0
.Ltmp644:                               # EH_LABEL
# %bb.23:                               # %_ZStlsIcSt11char_traitsIcESaIcEERSt13basic_ostreamIT_T0_ES7_RKNSt7__cxx1112basic_stringIS4_S5_T1_EE.exit106
	move	$s0, $a0
	ld.d	$a0, $a0, 0
	ld.d	$a0, $a0, -24
	add.d	$a0, $s0, $a0
	ld.d	$s2, $a0, 240
	beqz	$s2, .LBB6_204
# %bb.24:                               # %_ZSt13__check_facetISt5ctypeIcEERKT_PS3_.exit.i.i
	ld.bu	$a0, $s2, 56
	beqz	$a0, .LBB6_26
# %bb.25:
	ld.bu	$a0, $s2, 67
	b	.LBB6_28
.LBB6_26:
.Ltmp645:                               # EH_LABEL
	move	$a0, $s2
	pcaddu18i	$ra, %call36(_ZNKSt5ctypeIcE13_M_widen_initEv)
	jirl	$ra, $ra, 0
.Ltmp646:                               # EH_LABEL
# %bb.27:                               # %.noexc211
	ld.d	$a0, $s2, 0
	ld.d	$a2, $a0, 48
.Ltmp647:                               # EH_LABEL
	ori	$a1, $zero, 10
	move	$a0, $s2
	jirl	$ra, $a2, 0
.Ltmp648:                               # EH_LABEL
.LBB6_28:                               # %_ZNKSt9basic_iosIcSt11char_traitsIcEE5widenEc.exit.i
.Ltmp649:                               # EH_LABEL
	ext.w.b	$a1, $a0
	move	$a0, $s0
	pcaddu18i	$ra, %call36(_ZNSo3putEc)
	jirl	$ra, $ra, 0
.Ltmp650:                               # EH_LABEL
# %bb.29:                               # %.noexc213
.Ltmp651:                               # EH_LABEL
	pcaddu18i	$ra, %call36(_ZNSo5flushEv)
	jirl	$ra, $ra, 0
.Ltmp652:                               # EH_LABEL
# %bb.30:                               # %_ZNSolsEPFRSoS_E.exit108
.Ltmp653:                               # EH_LABEL
	pcalau12i	$a0, %pc_hi20(.L.str.24)
	addi.d	$a1, $a0, %pc_lo12(.L.str.24)
	addi.d	$a0, $sp, 152
	ori	$a2, $zero, 4
	addi.d	$s0, $sp, 152
	pcaddu18i	$ra, %call36(_ZSt16__ostream_insertIcSt11char_traitsIcEERSt13basic_ostreamIT_T0_ES6_PKS3_l)
	jirl	$ra, $ra, 0
.Ltmp654:                               # EH_LABEL
# %bb.31:                               # %_ZStlsISt11char_traitsIcEERSt13basic_ostreamIcT_ES5_PKc.exit110
	ld.d	$a0, $sp, 152
	ld.d	$a0, $a0, -24
	add.d	$a0, $s0, $a0
	ld.d	$s0, $a0, 240
	beqz	$s0, .LBB6_204
# %bb.32:                               # %_ZSt13__check_facetISt5ctypeIcEERKT_PS3_.exit.i.i216
	ld.bu	$a0, $s0, 56
	beqz	$a0, .LBB6_34
# %bb.33:
	ld.bu	$a0, $s0, 67
	b	.LBB6_36
.LBB6_34:
.Ltmp655:                               # EH_LABEL
	move	$a0, $s0
	pcaddu18i	$ra, %call36(_ZNKSt5ctypeIcE13_M_widen_initEv)
	jirl	$ra, $ra, 0
.Ltmp656:                               # EH_LABEL
# %bb.35:                               # %.noexc221
	ld.d	$a0, $s0, 0
	ld.d	$a2, $a0, 48
.Ltmp657:                               # EH_LABEL
	ori	$a1, $zero, 10
	move	$a0, $s0
	jirl	$ra, $a2, 0
.Ltmp658:                               # EH_LABEL
.LBB6_36:                               # %_ZNKSt9basic_iosIcSt11char_traitsIcEE5widenEc.exit.i218
.Ltmp659:                               # EH_LABEL
	ext.w.b	$a1, $a0
	addi.d	$a0, $sp, 152
	pcaddu18i	$ra, %call36(_ZNSo3putEc)
	jirl	$ra, $ra, 0
.Ltmp660:                               # EH_LABEL
# %bb.37:                               # %.noexc223
.Ltmp661:                               # EH_LABEL
	pcaddu18i	$ra, %call36(_ZNSo5flushEv)
	jirl	$ra, $ra, 0
.Ltmp662:                               # EH_LABEL
# %bb.38:
	ld.d	$a0, $sp, 152
	ld.d	$a0, $a0, -24
	addi.d	$a1, $sp, 152
	add.d	$a0, $a1, $a0
	ori	$a1, $zero, 10
	st.d	$a1, $a0, 16
.Ltmp663:                               # EH_LABEL
	addi.d	$a0, $sp, 152
	ori	$a1, $zero, 1
	pcaddu18i	$ra, %call36(_ZNSolsEi)
	jirl	$ra, $ra, 0
.Ltmp664:                               # EH_LABEL
# %bb.39:
	move	$s0, $a0
	ld.d	$a0, $a0, 0
	ld.d	$a0, $a0, -24
	add.d	$a0, $s0, $a0
	ld.d	$s2, $a0, 240
	beqz	$s2, .LBB6_204
# %bb.40:                               # %_ZSt13__check_facetISt5ctypeIcEERKT_PS3_.exit.i.i227
	ld.bu	$a0, $s2, 56
	beqz	$a0, .LBB6_42
# %bb.41:
	ld.bu	$a0, $s2, 67
	b	.LBB6_44
.LBB6_42:
.Ltmp665:                               # EH_LABEL
	move	$a0, $s2
	pcaddu18i	$ra, %call36(_ZNKSt5ctypeIcE13_M_widen_initEv)
	jirl	$ra, $ra, 0
.Ltmp666:                               # EH_LABEL
# %bb.43:                               # %.noexc232
	ld.d	$a0, $s2, 0
	ld.d	$a2, $a0, 48
.Ltmp667:                               # EH_LABEL
	ori	$a1, $zero, 10
	move	$a0, $s2
	jirl	$ra, $a2, 0
.Ltmp668:                               # EH_LABEL
.LBB6_44:                               # %_ZNKSt9basic_iosIcSt11char_traitsIcEE5widenEc.exit.i229
.Ltmp669:                               # EH_LABEL
	ext.w.b	$a1, $a0
	move	$a0, $s0
	pcaddu18i	$ra, %call36(_ZNSo3putEc)
	jirl	$ra, $ra, 0
.Ltmp670:                               # EH_LABEL
# %bb.45:                               # %.noexc234
.Ltmp671:                               # EH_LABEL
	pcaddu18i	$ra, %call36(_ZNSo5flushEv)
	jirl	$ra, $ra, 0
.Ltmp672:                               # EH_LABEL
.LBB6_46:                               # %_ZNSolsEPFRSoS_E.exit115
	ld.d	$a0, $fp, 16
	ld.d	$s4, $fp, 8
	sub.d	$s8, $a0, $s4
	slli.d	$s0, $s8, 30
	srai.d	$s3, $s0, 32
	srli.d	$a0, $s3, 60
	bnez	$a0, .LBB6_184
# %bb.47:                               # %_ZNSt6vectorIdSaIdEE17_S_check_init_lenEmRKS0_.exit.i
	ld.d	$a0, $fp, 40
	st.d	$a0, $sp, 56                    # 8-byte Folded Spill
	ld.d	$s6, $fp, 32
	ld.d	$s7, $fp, 64
	ld.d	$a0, $fp, 56
	st.d	$a0, $sp, 24                    # 8-byte Folded Spill
	st.d	$s7, $sp, 32                    # 8-byte Folded Spill
	beqz	$s0, .LBB6_51
# %bb.48:
	srai.d	$s2, $s0, 29
.Ltmp673:                               # EH_LABEL
	move	$a0, $s2
	pcaddu18i	$ra, %call36(_Znwm)
	jirl	$ra, $ra, 0
.Ltmp674:                               # EH_LABEL
# %bb.49:                               # %.noexc117
	move	$s5, $a0
	alsl.d	$a0, $s3, $a0, 3
	st.d	$a0, $sp, 40                    # 8-byte Folded Spill
	ori	$a0, $zero, 0
	lu32i.d	$a0, 1
	st.d	$zero, $s5, 0
	beq	$s0, $a0, .LBB6_52
# %bb.50:                               # %.lr.ph.i.preheader.i.i.i.i.i
	addi.d	$a0, $s5, 8
	addi.d	$a2, $s2, -8
	move	$a1, $zero
	pcaddu18i	$ra, %call36(memset)
	jirl	$ra, $ra, 0
	b	.LBB6_52
.LBB6_51:
	st.d	$zero, $sp, 40                  # 8-byte Folded Spill
	move	$s5, $zero
.LBB6_52:                               # %_ZNSt6vectorIdSaIdEEC2EmRKS0_.exit
	ld.w	$s0, $fp, 176
	addi.w	$s7, $zero, -1
	bge	$s7, $s0, .LBB6_186
# %bb.53:                               # %_ZNSt6vectorIdSaIdEE17_S_check_init_lenEmRKS0_.exit.i118
	beqz	$s0, .LBB6_58
# %bb.54:
	slli.d	$s3, $s0, 3
.Ltmp675:                               # EH_LABEL
	move	$a0, $s3
	pcaddu18i	$ra, %call36(_Znwm)
	jirl	$ra, $ra, 0
.Ltmp676:                               # EH_LABEL
# %bb.55:                               # %.noexc124
	move	$s2, $a0
	alsl.d	$a0, $s0, $a0, 3
	st.d	$a0, $sp, 48                    # 8-byte Folded Spill
	ori	$a0, $zero, 1
	st.d	$zero, $s2, 0
	beq	$s0, $a0, .LBB6_57
# %bb.56:                               # %.lr.ph.i.preheader.i.i.i.i.i120
	addi.d	$a0, $s2, 8
	addi.d	$a2, $s3, -8
	move	$a1, $zero
	pcaddu18i	$ra, %call36(memset)
	jirl	$ra, $ra, 0
.LBB6_57:                               # %_ZNSt6vectorIdSaIdEEC2EmRKS0_.exit125
	srai.d	$a2, $s8, 2
	addi.w	$a1, $a2, 0
	ori	$a0, $zero, 1
	bge	$a1, $a0, .LBB6_59
	b	.LBB6_66
.LBB6_58:
	st.d	$zero, $sp, 48                  # 8-byte Folded Spill
	move	$s2, $zero
	srai.d	$a2, $s8, 2
	addi.w	$a1, $a2, 0
	ori	$a0, $zero, 1
	blt	$a1, $a0, .LBB6_66
.LBB6_59:                               # %.lr.ph.preheader
	bstrpick.d	$a0, $a2, 30, 0
	ori	$a3, $zero, 2
	bgeu	$a0, $a3, .LBB6_61
# %bb.60:
	move	$a2, $zero
	b	.LBB6_64
.LBB6_61:                               # %vector.ph
	bstrpick.d	$a2, $a2, 30, 1
	slli.d	$a2, $a2, 1
	addi.d	$a3, $s4, 4
	addi.d	$a4, $s5, 8
	move	$a5, $a2
	.p2align	4, , 16
.LBB6_62:                               # %vector.body
                                        # =>This Inner Loop Header: Depth=1
	ld.w	$a6, $a3, -4
	ld.w	$a7, $a3, 0
	slli.d	$a6, $a6, 3
	slli.d	$a7, $a7, 3
	fldx.d	$fa0, $s1, $a6
	fldx.d	$fa1, $s1, $a7
	fst.d	$fa0, $a4, -8
	fst.d	$fa1, $a4, 0
	addi.d	$a3, $a3, 8
	addi.d	$a5, $a5, -2
	addi.d	$a4, $a4, 16
	bnez	$a5, .LBB6_62
# %bb.63:                               # %middle.block
	beq	$a0, $a2, .LBB6_66
.LBB6_64:                               # %.lr.ph.preheader472
	alsl.d	$a3, $a2, $s4, 2
	alsl.d	$a4, $a2, $s5, 3
	sub.d	$a0, $a0, $a2
	.p2align	4, , 16
.LBB6_65:                               # %.lr.ph
                                        # =>This Inner Loop Header: Depth=1
	ld.w	$a2, $a3, 0
	slli.d	$a2, $a2, 3
	fldx.d	$fa0, $s1, $a2
	fst.d	$fa0, $a4, 0
	addi.d	$a3, $a3, 4
	addi.d	$a0, $a0, -1
	addi.d	$a4, $a4, 8
	bnez	$a0, .LBB6_65
.LBB6_66:                               # %._crit_edge
	ld.d	$a3, $fp, 104
.Ltmp677:                               # EH_LABEL
	move	$a0, $s5
	move	$a2, $s2
	pcaddu18i	$ra, %call36(_ZN8Parallel7gathervIdEEvPKT_iPS1_PKi)
	jirl	$ra, $ra, 0
.Ltmp678:                               # EH_LABEL
# %bb.67:
	st.d	$s2, $sp, 72                    # 8-byte Folded Spill
	st.d	$s5, $sp, 64                    # 8-byte Folded Spill
	ld.d	$a0, $sp, 80                    # 8-byte Folded Reload
	ld.w	$a0, $a0, 0
	bnez	$a0, .LBB6_88
# %bb.68:
	ld.w	$a0, $fp, 176
	ori	$a1, $zero, 1
	blt	$a0, $a1, .LBB6_88
# %bb.69:
.Ltmp679:                               # EH_LABEL
	pcalau12i	$a0, %pc_hi20(.L.str.27)
	addi.d	$a1, $a0, %pc_lo12(.L.str.27)
	addi.d	$a0, $sp, 152
	ori	$a2, $zero, 5
	addi.d	$s0, $sp, 152
	ld.d	$s5, $sp, 64                    # 8-byte Folded Reload
	ld.d	$s2, $sp, 72                    # 8-byte Folded Reload
	pcaddu18i	$ra, %call36(_ZSt16__ostream_insertIcSt11char_traitsIcEERSt13basic_ostreamIT_T0_ES6_PKS3_l)
	jirl	$ra, $ra, 0
.Ltmp680:                               # EH_LABEL
# %bb.70:                               # %_ZStlsISt11char_traitsIcEERSt13basic_ostreamIcT_ES5_PKc.exit127
	ld.d	$a0, $sp, 152
	ld.d	$a0, $a0, -24
	add.d	$a0, $s0, $a0
	ld.d	$s3, $a0, 240
	beqz	$s3, .LBB6_198
# %bb.71:                               # %_ZSt13__check_facetISt5ctypeIcEERKT_PS3_.exit.i.i238
	ld.bu	$a0, $s3, 56
	beqz	$a0, .LBB6_73
# %bb.72:
	ld.bu	$a0, $s3, 67
	b	.LBB6_75
.LBB6_73:
.Ltmp681:                               # EH_LABEL
	move	$a0, $s3
	pcaddu18i	$ra, %call36(_ZNKSt5ctypeIcE13_M_widen_initEv)
	jirl	$ra, $ra, 0
.Ltmp682:                               # EH_LABEL
# %bb.74:                               # %.noexc243
	ld.d	$a0, $s3, 0
	ld.d	$a2, $a0, 48
.Ltmp683:                               # EH_LABEL
	ori	$a1, $zero, 10
	move	$a0, $s3
	jirl	$ra, $a2, 0
.Ltmp684:                               # EH_LABEL
.LBB6_75:                               # %_ZNKSt9basic_iosIcSt11char_traitsIcEE5widenEc.exit.i240
.Ltmp685:                               # EH_LABEL
	ext.w.b	$a1, $a0
	addi.d	$a0, $sp, 152
	pcaddu18i	$ra, %call36(_ZNSo3putEc)
	jirl	$ra, $ra, 0
.Ltmp686:                               # EH_LABEL
# %bb.76:                               # %.noexc245
.Ltmp687:                               # EH_LABEL
	pcaddu18i	$ra, %call36(_ZNSo5flushEv)
	jirl	$ra, $ra, 0
.Ltmp688:                               # EH_LABEL
# %bb.77:                               # %_ZNSolsEPFRSoS_E.exit129.preheader
	ld.w	$a0, $fp, 176
	ori	$a1, $zero, 1
	blt	$a0, $a1, .LBB6_88
# %bb.78:                               # %.lr.ph395.preheader
	move	$s2, $zero
	addi.d	$s8, $sp, 152
	ori	$s0, $zero, 12
	ld.d	$s5, $sp, 72                    # 8-byte Folded Reload
	.p2align	4, , 16
.LBB6_79:                               # %.lr.ph395
                                        # =>This Inner Loop Header: Depth=1
	ld.d	$a0, $sp, 152
	ld.d	$a0, $a0, -24
	fld.d	$fa0, $s5, 0
	add.d	$a0, $s8, $a0
	st.d	$s0, $a0, 16
.Ltmp689:                               # EH_LABEL
	addi.d	$a0, $sp, 152
	pcaddu18i	$ra, %call36(_ZNSo9_M_insertIdEERSoT_)
	jirl	$ra, $ra, 0
.Ltmp690:                               # EH_LABEL
# %bb.80:                               # %_ZNSolsEd.exit
                                        #   in Loop: Header=BB6_79 Depth=1
	move	$s3, $a0
	ld.d	$a0, $a0, 0
	ld.d	$a0, $a0, -24
	add.d	$a0, $s3, $a0
	ld.d	$s4, $a0, 240
	beqz	$s4, .LBB6_178
# %bb.81:                               # %_ZSt13__check_facetISt5ctypeIcEERKT_PS3_.exit.i.i249
                                        #   in Loop: Header=BB6_79 Depth=1
	ld.bu	$a0, $s4, 56
	beqz	$a0, .LBB6_83
# %bb.82:                               #   in Loop: Header=BB6_79 Depth=1
	ld.bu	$a0, $s4, 67
	b	.LBB6_85
	.p2align	4, , 16
.LBB6_83:                               #   in Loop: Header=BB6_79 Depth=1
.Ltmp691:                               # EH_LABEL
	move	$a0, $s4
	pcaddu18i	$ra, %call36(_ZNKSt5ctypeIcE13_M_widen_initEv)
	jirl	$ra, $ra, 0
.Ltmp692:                               # EH_LABEL
# %bb.84:                               # %.noexc254
                                        #   in Loop: Header=BB6_79 Depth=1
	ld.d	$a0, $s4, 0
	ld.d	$a2, $a0, 48
.Ltmp693:                               # EH_LABEL
	ori	$a1, $zero, 10
	move	$a0, $s4
	jirl	$ra, $a2, 0
.Ltmp694:                               # EH_LABEL
.LBB6_85:                               # %_ZNKSt9basic_iosIcSt11char_traitsIcEE5widenEc.exit.i251
                                        #   in Loop: Header=BB6_79 Depth=1
.Ltmp695:                               # EH_LABEL
	ext.w.b	$a1, $a0
	move	$a0, $s3
	pcaddu18i	$ra, %call36(_ZNSo3putEc)
	jirl	$ra, $ra, 0
.Ltmp696:                               # EH_LABEL
# %bb.86:                               # %.noexc256
                                        #   in Loop: Header=BB6_79 Depth=1
.Ltmp697:                               # EH_LABEL
	pcaddu18i	$ra, %call36(_ZNSo5flushEv)
	jirl	$ra, $ra, 0
.Ltmp698:                               # EH_LABEL
# %bb.87:                               # %_ZNSolsEPFRSoS_E.exit133
                                        #   in Loop: Header=BB6_79 Depth=1
	ld.w	$a0, $fp, 176
	addi.d	$s2, $s2, 1
	addi.d	$s5, $s5, 8
	blt	$s2, $a0, .LBB6_79
.LBB6_88:                               # %.loopexit387
	ld.d	$a0, $sp, 56                    # 8-byte Folded Reload
	sub.d	$s6, $a0, $s6
	slli.d	$s0, $s6, 30
	srai.d	$s2, $s0, 32
	srli.d	$a0, $s2, 60
	bnez	$a0, .LBB6_188
# %bb.89:                               # %_ZNSt6vectorIdSaIdEE17_S_check_init_lenEmRKS0_.exit.i134
	beqz	$s0, .LBB6_93
# %bb.90:
	srai.d	$s4, $s0, 29
.Ltmp700:                               # EH_LABEL
	move	$a0, $s4
	pcaddu18i	$ra, %call36(_Znwm)
	jirl	$ra, $ra, 0
.Ltmp701:                               # EH_LABEL
# %bb.91:                               # %.noexc140
	move	$s8, $a0
	alsl.d	$a0, $s2, $a0, 3
	st.d	$a0, $sp, 8                     # 8-byte Folded Spill
	ori	$a0, $zero, 0
	lu32i.d	$a0, 1
	st.d	$zero, $s8, 0
	beq	$s0, $a0, .LBB6_94
# %bb.92:                               # %.lr.ph.i.preheader.i.i.i.i.i136
	addi.d	$a0, $s8, 8
	addi.d	$a2, $s4, -8
	move	$a1, $zero
	pcaddu18i	$ra, %call36(memset)
	jirl	$ra, $ra, 0
	b	.LBB6_94
.LBB6_93:
	move	$s8, $zero
	st.d	$zero, $sp, 8                   # 8-byte Folded Spill
.LBB6_94:                               # %_ZNSt6vectorIdSaIdEEC2EmRKS0_.exit141
	ld.w	$s0, $fp, 180
	st.d	$s8, $sp, 56                    # 8-byte Folded Spill
	bge	$s7, $s0, .LBB6_190
# %bb.95:                               # %_ZNSt6vectorIdSaIdEE17_S_check_init_lenEmRKS0_.exit.i142
	beqz	$s0, .LBB6_100
# %bb.96:
	slli.d	$s5, $s0, 3
.Ltmp702:                               # EH_LABEL
	move	$a0, $s5
	pcaddu18i	$ra, %call36(_Znwm)
	jirl	$ra, $ra, 0
.Ltmp703:                               # EH_LABEL
# %bb.97:                               # %.noexc148
	move	$s3, $a0
	alsl.d	$a0, $s0, $a0, 3
	st.d	$a0, $sp, 16                    # 8-byte Folded Spill
	ori	$a0, $zero, 1
	st.d	$zero, $s3, 0
	beq	$s0, $a0, .LBB6_99
# %bb.98:                               # %.lr.ph.i.preheader.i.i.i.i.i144
	addi.d	$a0, $s3, 8
	addi.d	$a2, $s5, -8
	move	$a1, $zero
	pcaddu18i	$ra, %call36(memset)
	jirl	$ra, $ra, 0
.LBB6_99:                               # %_ZNSt6vectorIdSaIdEEC2EmRKS0_.exit149
	srai.d	$a3, $s6, 2
	addi.w	$a1, $a3, 0
	ori	$a0, $zero, 1
	bge	$a1, $a0, .LBB6_101
	b	.LBB6_108
.LBB6_100:
	move	$s3, $zero
	st.d	$zero, $sp, 16                  # 8-byte Folded Spill
	srai.d	$a3, $s6, 2
	addi.w	$a1, $a3, 0
	ori	$a0, $zero, 1
	blt	$a1, $a0, .LBB6_108
.LBB6_101:                              # %.lr.ph397
	ld.d	$a2, $fp, 32
	bstrpick.d	$a0, $a3, 30, 0
	ori	$a4, $zero, 2
	bgeu	$a0, $a4, .LBB6_103
# %bb.102:
	move	$a3, $zero
	b	.LBB6_106
.LBB6_103:                              # %vector.ph452
	bstrpick.d	$a3, $a3, 30, 1
	slli.d	$a3, $a3, 1
	addi.d	$a4, $a2, 4
	addi.d	$a5, $s8, 8
	move	$a6, $a3
	.p2align	4, , 16
.LBB6_104:                              # %vector.body455
                                        # =>This Inner Loop Header: Depth=1
	ld.w	$a7, $a4, -4
	ld.w	$t0, $a4, 0
	slli.d	$a7, $a7, 3
	slli.d	$t0, $t0, 3
	fldx.d	$fa0, $s1, $a7
	fldx.d	$fa1, $s1, $t0
	fst.d	$fa0, $a5, -8
	fst.d	$fa1, $a5, 0
	addi.d	$a4, $a4, 8
	addi.d	$a6, $a6, -2
	addi.d	$a5, $a5, 16
	bnez	$a6, .LBB6_104
# %bb.105:                              # %middle.block458
	beq	$a0, $a3, .LBB6_108
.LBB6_106:                              # %scalar.ph450.preheader
	alsl.d	$a2, $a3, $a2, 2
	alsl.d	$a4, $a3, $s8, 3
	sub.d	$a0, $a0, $a3
	.p2align	4, , 16
.LBB6_107:                              # %scalar.ph450
                                        # =>This Inner Loop Header: Depth=1
	ld.w	$a3, $a2, 0
	slli.d	$a3, $a3, 3
	fldx.d	$fa0, $s1, $a3
	fst.d	$fa0, $a4, 0
	addi.d	$a2, $a2, 4
	addi.d	$a0, $a0, -1
	addi.d	$a4, $a4, 8
	bnez	$a0, .LBB6_107
.LBB6_108:                              # %._crit_edge398
	ld.d	$a3, $fp, 128
.Ltmp704:                               # EH_LABEL
	move	$a0, $s8
	move	$a2, $s3
	pcaddu18i	$ra, %call36(_ZN8Parallel7gathervIdEEvPKT_iPS1_PKi)
	jirl	$ra, $ra, 0
.Ltmp705:                               # EH_LABEL
# %bb.109:
	ld.d	$a0, $sp, 80                    # 8-byte Folded Reload
	ld.w	$a0, $a0, 0
	bnez	$a0, .LBB6_130
# %bb.110:
	ld.w	$a0, $fp, 180
	ori	$a1, $zero, 1
	blt	$a0, $a1, .LBB6_130
# %bb.111:
.Ltmp706:                               # EH_LABEL
	pcalau12i	$a0, %pc_hi20(.L.str.28)
	addi.d	$a1, $a0, %pc_lo12(.L.str.28)
	addi.d	$a0, $sp, 152
	ori	$a2, $zero, 5
	addi.d	$s0, $sp, 152
	pcaddu18i	$ra, %call36(_ZSt16__ostream_insertIcSt11char_traitsIcEERSt13basic_ostreamIT_T0_ES6_PKS3_l)
	jirl	$ra, $ra, 0
.Ltmp707:                               # EH_LABEL
# %bb.112:                              # %_ZStlsISt11char_traitsIcEERSt13basic_ostreamIcT_ES5_PKc.exit151
	ld.d	$a0, $sp, 152
	ld.d	$a0, $a0, -24
	add.d	$a0, $s0, $a0
	ld.d	$s5, $a0, 240
	beqz	$s5, .LBB6_200
# %bb.113:                              # %_ZSt13__check_facetISt5ctypeIcEERKT_PS3_.exit.i.i260
	ld.bu	$a0, $s5, 56
	beqz	$a0, .LBB6_115
# %bb.114:
	ld.bu	$a0, $s5, 67
	b	.LBB6_117
.LBB6_115:
.Ltmp708:                               # EH_LABEL
	move	$a0, $s5
	pcaddu18i	$ra, %call36(_ZNKSt5ctypeIcE13_M_widen_initEv)
	jirl	$ra, $ra, 0
.Ltmp709:                               # EH_LABEL
# %bb.116:                              # %.noexc265
	ld.d	$a0, $s5, 0
	ld.d	$a2, $a0, 48
.Ltmp710:                               # EH_LABEL
	ori	$a1, $zero, 10
	move	$a0, $s5
	jirl	$ra, $a2, 0
.Ltmp711:                               # EH_LABEL
.LBB6_117:                              # %_ZNKSt9basic_iosIcSt11char_traitsIcEE5widenEc.exit.i262
.Ltmp712:                               # EH_LABEL
	ext.w.b	$a1, $a0
	addi.d	$a0, $sp, 152
	pcaddu18i	$ra, %call36(_ZNSo3putEc)
	jirl	$ra, $ra, 0
.Ltmp713:                               # EH_LABEL
# %bb.118:                              # %.noexc267
.Ltmp714:                               # EH_LABEL
	pcaddu18i	$ra, %call36(_ZNSo5flushEv)
	jirl	$ra, $ra, 0
.Ltmp715:                               # EH_LABEL
# %bb.119:                              # %_ZNSolsEPFRSoS_E.exit153.preheader
	ld.w	$a0, $fp, 180
	ori	$a1, $zero, 1
	blt	$a0, $a1, .LBB6_130
# %bb.120:                              # %.lr.ph400.preheader
	move	$s2, $zero
	addi.d	$s8, $sp, 152
	ori	$s0, $zero, 12
	move	$s4, $s3
	.p2align	4, , 16
.LBB6_121:                              # %.lr.ph400
                                        # =>This Inner Loop Header: Depth=1
	ld.d	$a0, $sp, 152
	ld.d	$a0, $a0, -24
	fld.d	$fa0, $s4, 0
	add.d	$a0, $s8, $a0
	st.d	$s0, $a0, 16
.Ltmp716:                               # EH_LABEL
	addi.d	$a0, $sp, 152
	pcaddu18i	$ra, %call36(_ZNSo9_M_insertIdEERSoT_)
	jirl	$ra, $ra, 0
.Ltmp717:                               # EH_LABEL
# %bb.122:                              # %_ZNSolsEd.exit156
                                        #   in Loop: Header=BB6_121 Depth=1
	move	$s5, $a0
	ld.d	$a0, $a0, 0
	ld.d	$a0, $a0, -24
	add.d	$a0, $s5, $a0
	ld.d	$s6, $a0, 240
	beqz	$s6, .LBB6_180
# %bb.123:                              # %_ZSt13__check_facetISt5ctypeIcEERKT_PS3_.exit.i.i271
                                        #   in Loop: Header=BB6_121 Depth=1
	ld.bu	$a0, $s6, 56
	beqz	$a0, .LBB6_125
# %bb.124:                              #   in Loop: Header=BB6_121 Depth=1
	ld.bu	$a0, $s6, 67
	b	.LBB6_127
	.p2align	4, , 16
.LBB6_125:                              #   in Loop: Header=BB6_121 Depth=1
.Ltmp718:                               # EH_LABEL
	move	$a0, $s6
	pcaddu18i	$ra, %call36(_ZNKSt5ctypeIcE13_M_widen_initEv)
	jirl	$ra, $ra, 0
.Ltmp719:                               # EH_LABEL
# %bb.126:                              # %.noexc276
                                        #   in Loop: Header=BB6_121 Depth=1
	ld.d	$a0, $s6, 0
	ld.d	$a2, $a0, 48
.Ltmp720:                               # EH_LABEL
	ori	$a1, $zero, 10
	move	$a0, $s6
	jirl	$ra, $a2, 0
.Ltmp721:                               # EH_LABEL
.LBB6_127:                              # %_ZNKSt9basic_iosIcSt11char_traitsIcEE5widenEc.exit.i273
                                        #   in Loop: Header=BB6_121 Depth=1
.Ltmp722:                               # EH_LABEL
	ext.w.b	$a1, $a0
	move	$a0, $s5
	pcaddu18i	$ra, %call36(_ZNSo3putEc)
	jirl	$ra, $ra, 0
.Ltmp723:                               # EH_LABEL
# %bb.128:                              # %.noexc278
                                        #   in Loop: Header=BB6_121 Depth=1
.Ltmp724:                               # EH_LABEL
	pcaddu18i	$ra, %call36(_ZNSo5flushEv)
	jirl	$ra, $ra, 0
.Ltmp725:                               # EH_LABEL
# %bb.129:                              # %_ZNSolsEPFRSoS_E.exit158
                                        #   in Loop: Header=BB6_121 Depth=1
	ld.w	$a0, $fp, 180
	addi.d	$s2, $s2, 1
	addi.d	$s4, $s4, 8
	blt	$s2, $a0, .LBB6_121
.LBB6_130:                              # %.loopexit
	ld.d	$a0, $sp, 32                    # 8-byte Folded Reload
	ld.d	$a1, $sp, 24                    # 8-byte Folded Reload
	sub.d	$s2, $a0, $a1
	slli.d	$s0, $s2, 30
	srai.d	$s4, $s0, 32
	srli.d	$a0, $s4, 60
	bnez	$a0, .LBB6_192
# %bb.131:                              # %_ZNSt6vectorIdSaIdEE17_S_check_init_lenEmRKS0_.exit.i159
	beqz	$s0, .LBB6_135
# %bb.132:
	srai.d	$s6, $s0, 29
.Ltmp727:                               # EH_LABEL
	move	$a0, $s6
	pcaddu18i	$ra, %call36(_Znwm)
	jirl	$ra, $ra, 0
.Ltmp728:                               # EH_LABEL
# %bb.133:                              # %.noexc165
	move	$s5, $a0
	alsl.d	$s8, $s4, $a0, 3
	ori	$a0, $zero, 0
	lu32i.d	$a0, 1
	st.d	$zero, $s5, 0
	ld.d	$s4, $sp, 56                    # 8-byte Folded Reload
	beq	$s0, $a0, .LBB6_136
# %bb.134:                              # %.lr.ph.i.preheader.i.i.i.i.i161
	addi.d	$a0, $s5, 8
	addi.d	$a2, $s6, -8
	move	$a1, $zero
	pcaddu18i	$ra, %call36(memset)
	jirl	$ra, $ra, 0
	b	.LBB6_136
.LBB6_135:
	move	$s5, $zero
	move	$s8, $zero
	ld.d	$s4, $sp, 56                    # 8-byte Folded Reload
.LBB6_136:                              # %_ZNSt6vectorIdSaIdEEC2EmRKS0_.exit166
	ld.w	$s0, $fp, 184
	bge	$s7, $s0, .LBB6_194
# %bb.137:                              # %_ZNSt6vectorIdSaIdEE17_S_check_init_lenEmRKS0_.exit.i167
	beqz	$s0, .LBB6_141
# %bb.138:
	slli.d	$s7, $s0, 3
.Ltmp729:                               # EH_LABEL
	move	$a0, $s7
	pcaddu18i	$ra, %call36(_Znwm)
	jirl	$ra, $ra, 0
.Ltmp730:                               # EH_LABEL
# %bb.139:                              # %.noexc173
	move	$s6, $a0
	alsl.d	$a0, $s0, $a0, 3
	st.d	$a0, $sp, 32                    # 8-byte Folded Spill
	ori	$a0, $zero, 1
	st.d	$zero, $s6, 0
	beq	$s0, $a0, .LBB6_142
# %bb.140:                              # %.lr.ph.i.preheader.i.i.i.i.i169
	addi.d	$a0, $s6, 8
	addi.d	$a2, $s7, -8
	move	$a1, $zero
	pcaddu18i	$ra, %call36(memset)
	jirl	$ra, $ra, 0
	b	.LBB6_142
.LBB6_141:
	move	$s6, $zero
	st.d	$zero, $sp, 32                  # 8-byte Folded Spill
