	.file	"TarIn.cpp"
	.section	.rodata.cst16,"aM",@progbits,16
	.p2align	4, 0x0                          # -- Begin function _ZN8NArchive4NTar8ReadItemEP19ISequentialInStreamRbRNS0_7CItemExER11CStringBaseIcE
.LCPI0_0:
	.byte	84                              # 0x54
	.byte	104                             # 0x68
	.byte	101                             # 0x65
	.byte	114                             # 0x72
	.byte	101                             # 0x65
	.byte	32                              # 0x20
	.byte	97                              # 0x61
	.byte	114                             # 0x72
	.byte	101                             # 0x65
	.byte	32                              # 0x20
	.byte	100                             # 0x64
	.byte	97                              # 0x61
	.byte	116                             # 0x74
	.byte	97                              # 0x61
	.byte	32                              # 0x20
	.byte	97                              # 0x61
.LCPI0_1:
	.byte	102                             # 0x66
	.byte	116                             # 0x74
	.byte	101                             # 0x65
	.byte	114                             # 0x72
	.byte	32                              # 0x20
	.byte	101                             # 0x65
	.byte	110                             # 0x6e
	.byte	100                             # 0x64
	.byte	32                              # 0x20
	.byte	111                             # 0x6f
	.byte	102                             # 0x66
	.byte	32                              # 0x20
	.byte	97                              # 0x61
	.byte	114                             # 0x72
	.byte	99                              # 0x63
	.byte	104                             # 0x68
.LCPI0_2:
	.byte	84                              # 0x54
	.byte	104                             # 0x68
	.byte	101                             # 0x65
	.byte	114                             # 0x72
	.byte	101                             # 0x65
	.byte	32                              # 0x20
	.byte	97                              # 0x61
	.byte	114                             # 0x72
	.byte	101                             # 0x65
	.byte	32                              # 0x20
	.byte	110                             # 0x6e
	.byte	111                             # 0x6f
	.byte	32                              # 0x20
	.byte	116                             # 0x74
	.byte	114                             # 0x72
	.byte	97                              # 0x61
.LCPI0_3:
	.byte	105                             # 0x69
	.byte	108                             # 0x6c
	.byte	105                             # 0x69
	.byte	110                             # 0x6e
	.byte	103                             # 0x67
	.byte	32                              # 0x20
	.byte	122                             # 0x7a
	.byte	101                             # 0x65
	.byte	114                             # 0x72
	.byte	111                             # 0x6f
	.byte	45                              # 0x2d
	.byte	102                             # 0x66
	.byte	105                             # 0x69
	.byte	108                             # 0x6c
	.byte	108                             # 0x6c
	.byte	101                             # 0x65
.LCPI0_4:
	.byte	84                              # 0x54
	.byte	104                             # 0x68
	.byte	101                             # 0x65
	.byte	114                             # 0x72
	.byte	101                             # 0x65
	.byte	32                              # 0x20
	.byte	105                             # 0x69
	.byte	115                             # 0x73
	.byte	32                              # 0x20
	.byte	110                             # 0x6e
	.byte	111                             # 0x6f
	.byte	32                              # 0x20
	.byte	99                              # 0x63
	.byte	111                             # 0x6f
	.byte	114                             # 0x72
	.byte	114                             # 0x72
.LCPI0_5:
	.byte	101                             # 0x65
	.byte	99                              # 0x63
	.byte	116                             # 0x74
	.byte	32                              # 0x20
	.byte	114                             # 0x72
	.byte	101                             # 0x65
	.byte	99                              # 0x63
	.byte	111                             # 0x6f
	.byte	114                             # 0x72
	.byte	100                             # 0x64
	.byte	32                              # 0x20
	.byte	97                              # 0x61
	.byte	116                             # 0x74
	.byte	32                              # 0x20
	.byte	116                             # 0x74
	.byte	104                             # 0x68
.LCPI0_6:
	.byte	101                             # 0x65
	.byte	32                              # 0x20
	.byte	101                             # 0x65
	.byte	110                             # 0x6e
	.byte	100                             # 0x64
	.byte	32                              # 0x20
	.byte	111                             # 0x6f
	.byte	102                             # 0x66
	.byte	32                              # 0x20
	.byte	97                              # 0x61
	.byte	114                             # 0x72
	.byte	99                              # 0x63
	.byte	104                             # 0x68
	.byte	105                             # 0x69
	.byte	118                             # 0x76
	.byte	101                             # 0x65
	.text
	.globl	_ZN8NArchive4NTar8ReadItemEP19ISequentialInStreamRbRNS0_7CItemExER11CStringBaseIcE
	.p2align	5
	.type	_ZN8NArchive4NTar8ReadItemEP19ISequentialInStreamRbRNS0_7CItemExER11CStringBaseIcE,@function
_ZN8NArchive4NTar8ReadItemEP19ISequentialInStreamRbRNS0_7CItemExER11CStringBaseIcE: # @_ZN8NArchive4NTar8ReadItemEP19ISequentialInStreamRbRNS0_7CItemExER11CStringBaseIcE
.Lfunc_begin0:
	.cfi_startproc
	.cfi_personality 155, DW.ref.__gxx_personality_v0
	.cfi_lsda 27, .Lexception0
# %bb.0:
	addi.d	$sp, $sp, -832
	.cfi_def_cfa_offset 832
	st.d	$ra, $sp, 824                   # 8-byte Folded Spill
	st.d	$fp, $sp, 816                   # 8-byte Folded Spill
	st.d	$s0, $sp, 808                   # 8-byte Folded Spill
	st.d	$s1, $sp, 800                   # 8-byte Folded Spill
	st.d	$s2, $sp, 792                   # 8-byte Folded Spill
	st.d	$s3, $sp, 784                   # 8-byte Folded Spill
	st.d	$s4, $sp, 776                   # 8-byte Folded Spill
	st.d	$s5, $sp, 768                   # 8-byte Folded Spill
	st.d	$s6, $sp, 760                   # 8-byte Folded Spill
	st.d	$s7, $sp, 752                   # 8-byte Folded Spill
	st.d	$s8, $sp, 744                   # 8-byte Folded Spill
	.cfi_offset 1, -8
	.cfi_offset 22, -16
	.cfi_offset 23, -24
	.cfi_offset 24, -32
	.cfi_offset 25, -40
	.cfi_offset 26, -48
	.cfi_offset 27, -56
	.cfi_offset 28, -64
	.cfi_offset 29, -72
	.cfi_offset 30, -80
	.cfi_offset 31, -88
	move	$s1, $a3
	move	$s3, $a2
	move	$s5, $a1
	move	$fp, $a0
	st.w	$zero, $a2, 120
	st.w	$zero, $sp, 136
	ori	$a0, $zero, 4
	ori	$s0, $zero, 4
	pcaddu18i	$ra, %call36(_Znam)
	jirl	$ra, $ra, 0
	st.d	$a0, $sp, 144
	st.b	$zero, $a0, 0
	st.w	$s0, $sp, 132
	st.w	$zero, $sp, 112
.Ltmp0:
	ori	$a0, $zero, 4
	pcaddu18i	$ra, %call36(_Znam)
	jirl	$ra, $ra, 0
.Ltmp1:
# %bb.1:                                # %_ZN11CStringBaseIcEC2Ev.exit
	st.d	$zero, $sp, 80                  # 8-byte Folded Spill
	st.d	$zero, $sp, 72                  # 8-byte Folded Spill
	st.d	$a0, $sp, 120
	st.b	$zero, $a0, 0
	st.w	$s0, $sp, 108
	addi.d	$a0, $s3, 48
	st.d	$a0, $sp, 56                    # 8-byte Folded Spill
	addi.d	$a0, $s3, 64
	st.d	$a0, $sp, 32                    # 8-byte Folded Spill
	addi.d	$a0, $s3, 80
	st.d	$a0, $sp, 24                    # 8-byte Folded Spill
	addi.d	$a0, $s3, 44
	st.d	$a0, $sp, 16                    # 8-byte Folded Spill
	ori	$s0, $zero, 512
	addi.d	$s4, $sp, 200
	addi.d	$s6, $sp, 712
	ori	$s2, $zero, 511
	lu12i.w	$a0, 1623
	ori	$a0, $a0, 1641
	st.d	$a0, $sp, 40                    # 8-byte Folded Spill
	vrepli.b	$vr0, 0
	vst	$vr0, $sp, 0                    # 16-byte Folded Spill
	lu12i.w	$a0, 415522
	ori	$a0, $a0, 100
	lu32i.d	$a0, 159587
	lu52i.d	$a0, $a0, 1607
	st.d	$a0, $sp, 48                    # 8-byte Folded Spill
	ori	$s8, $zero, 32
	ori	$s7, $zero, 7
	st.d	$s1, $sp, 88                    # 8-byte Folded Spill
.LBB0_2:                                # =>This Loop Header: Depth=1
                                        #     Child Loop BB0_31 Depth 2
                                        #       Child Loop BB0_33 Depth 3
                                        #     Child Loop BB0_178 Depth 2
                                        #     Child Loop BB0_57 Depth 2
                                        #     Child Loop BB0_182 Depth 2
                                        #     Child Loop BB0_187 Depth 2
                                        #     Child Loop BB0_91 Depth 2
                                        #     Child Loop BB0_191 Depth 2
                                        #     Child Loop BB0_61 Depth 2
                                        #     Child Loop BB0_64 Depth 2
                                        #     Child Loop BB0_69 Depth 2
                                        #     Child Loop BB0_72 Depth 2
                                        #     Child Loop BB0_75 Depth 2
                                        #     Child Loop BB0_78 Depth 2
                                        #     Child Loop BB0_104 Depth 2
                                        #     Child Loop BB0_107 Depth 2
                                        #     Child Loop BB0_111 Depth 2
                                        #     Child Loop BB0_114 Depth 2
                                        #     Child Loop BB0_119 Depth 2
                                        #     Child Loop BB0_122 Depth 2
                                        #     Child Loop BB0_130 Depth 2
                                        #     Child Loop BB0_133 Depth 2
                                        #     Child Loop BB0_158 Depth 2
                                        #     Child Loop BB0_197 Depth 2
                                        #     Child Loop BB0_101 Depth 2
                                        #     Child Loop BB0_201 Depth 2
                                        #     Child Loop BB0_164 Depth 2
                                        #     Child Loop BB0_28 Depth 2
                                        #     Child Loop BB0_168 Depth 2
	ld.d	$a0, $s1, 0
	st.w	$zero, $s1, 8
	st.b	$zero, $a0, 0
	move	$s1, $s5
	st.b	$zero, $s5, 0
	st.d	$s0, $sp, 712
.Ltmp3:
	addi.d	$a1, $sp, 200
	addi.d	$a2, $sp, 712
	move	$a0, $fp
	pcaddu18i	$ra, %call36(_Z10ReadStreamP19ISequentialInStreamPvPm)
	jirl	$ra, $ra, 0
.Ltmp4:
# %bb.3:                                # %.noexc
                                        #   in Loop: Header=BB0_2 Depth=1
	beqz	$a0, .LBB0_30
.LBB0_4:                                # %.thread.i
                                        #   in Loop: Header=BB0_2 Depth=1
	bnez	$a0, .LBB0_240
.LBB0_5:                                #   in Loop: Header=BB0_2 Depth=1
	ld.bu	$a0, $s1, 0
	beqz	$a0, .LBB0_205
.LBB0_6:                                #   in Loop: Header=BB0_2 Depth=1
	ori	$a2, $zero, 7
	move	$s8, $s1
	ld.d	$s1, $sp, 88                    # 8-byte Folded Reload
	move	$s6, $s3
	ld.bu	$a1, $s3, 104
	addi.d	$a0, $a1, -68
	ori	$a3, $zero, 52
	bltu	$a3, $a0, .LBB0_221
# %bb.7:                                #   in Loop: Header=BB0_2 Depth=1
	beq	$a0, $a2, .LBB0_11
# %bb.8:                                #   in Loop: Header=BB0_2 Depth=1
	ori	$a2, $zero, 8
	bne	$a0, $a2, .LBB0_206
# %bb.9:                                #   in Loop: Header=BB0_2 Depth=1
	ld.d	$a0, $sp, 72                    # 8-byte Folded Reload
	andi	$a1, $a0, 1
	ori	$a0, $zero, 1
	bnez	$a1, .LBB0_240
# %bb.10:                               #   in Loop: Header=BB0_2 Depth=1
	addi.d	$s0, $sp, 144
	addi.d	$a0, $sp, 136
	st.d	$a0, $sp, 96                    # 8-byte Folded Spill
	addi.d	$s3, $sp, 132
	ori	$a0, $zero, 1
	st.d	$a0, $sp, 72                    # 8-byte Folded Spill
	b	.LBB0_13
	.p2align	4, , 16
.LBB0_11:                               #   in Loop: Header=BB0_2 Depth=1
	ld.d	$a0, $sp, 80                    # 8-byte Folded Reload
	andi	$a1, $a0, 1
	ori	$a0, $zero, 1
	bnez	$a1, .LBB0_240
# %bb.12:                               #   in Loop: Header=BB0_2 Depth=1
	addi.d	$s0, $sp, 120
	addi.d	$a0, $sp, 112
	st.d	$a0, $sp, 96                    # 8-byte Folded Spill
	addi.d	$s3, $sp, 108
	ori	$a0, $zero, 1
	st.d	$a0, $sp, 80                    # 8-byte Folded Spill
.LBB0_13:                               #   in Loop: Header=BB0_2 Depth=1
	pcalau12i	$a0, %got_pc_hi20(_ZN8NArchive4NTar11NFileHeader9kLongLinkE)
	ld.d	$a0, $a0, %got_pc_lo12(_ZN8NArchive4NTar11NFileHeader9kLongLinkE)
	ld.d	$a1, $a0, 0
	ld.d	$a0, $s6, 0
.Ltmp56:
	pcaddu18i	$ra, %call36(_Z15MyStringComparePKcS0_)
	jirl	$ra, $ra, 0
.Ltmp57:
# %bb.14:                               # %_ZNK11CStringBaseIcE7CompareEPKc.exit
                                        #   in Loop: Header=BB0_2 Depth=1
	beqz	$a0, .LBB0_17
# %bb.15:                               #   in Loop: Header=BB0_2 Depth=1
	pcalau12i	$a0, %got_pc_hi20(_ZN8NArchive4NTar11NFileHeader10kLongLink2E)
	ld.d	$a0, $a0, %got_pc_lo12(_ZN8NArchive4NTar11NFileHeader10kLongLink2E)
	ld.d	$a1, $a0, 0
	ld.d	$a0, $s6, 0
.Ltmp58:
	pcaddu18i	$ra, %call36(_Z15MyStringComparePKcS0_)
	jirl	$ra, $ra, 0
.Ltmp59:
# %bb.16:                               # %_ZNK11CStringBaseIcE7CompareEPKc.exit108
                                        #   in Loop: Header=BB0_2 Depth=1
	bnez	$a0, .LBB0_210
.LBB0_17:                               #   in Loop: Header=BB0_2 Depth=1
	ld.d	$a0, $s6, 16
	lu12i.w	$a1, 4
	bltu	$a1, $a0, .LBB0_210
# %bb.18:                               #   in Loop: Header=BB0_2 Depth=1
	move	$s7, $s3
	ld.w	$s3, $s3, 0
	addi.d	$a0, $a0, 511
	bstrpick.d	$a0, $a0, 15, 9
	slli.d	$s5, $a0, 9
	blt	$s5, $s3, .LBB0_171
# %bb.19:                               #   in Loop: Header=BB0_2 Depth=1
	ori	$a0, $s5, 1
	st.d	$a0, $sp, 64                    # 8-byte Folded Spill
	addi.w	$a0, $a0, 0
	beq	$a0, $s3, .LBB0_171
# %bb.20:                               #   in Loop: Header=BB0_2 Depth=1
.Ltmp61:
	pcaddu18i	$ra, %call36(_Znam)
	jirl	$ra, $ra, 0
.Ltmp62:
# %bb.21:                               # %.noexc113
                                        #   in Loop: Header=BB0_2 Depth=1
	move	$a6, $a0
	ld.d	$a0, $sp, 96                    # 8-byte Folded Reload
	ld.w	$a1, $a0, 0
	blez	$s3, .LBB0_46
# %bb.22:                               # %.preheader.i.i
                                        #   in Loop: Header=BB0_2 Depth=1
	ld.d	$a0, $s0, 0
	blez	$a1, .LBB0_82
# %bb.23:                               # %iter.check
                                        #   in Loop: Header=BB0_2 Depth=1
	move	$a2, $zero
	ori	$a3, $zero, 16
	move	$s3, $s7
	bltu	$a1, $a3, .LBB0_167
# %bb.24:                               # %iter.check
                                        #   in Loop: Header=BB0_2 Depth=1
	sub.d	$a3, $a6, $a0
	ori	$a4, $zero, 31
	bgeu	$a4, $a3, .LBB0_167
# %bb.25:                               # %vector.main.loop.iter.check
                                        #   in Loop: Header=BB0_2 Depth=1
	ori	$a2, $zero, 32
	bgeu	$a1, $a2, .LBB0_163
# %bb.26:                               #   in Loop: Header=BB0_2 Depth=1
	move	$a2, $zero
.LBB0_27:                               # %vec.epilog.ph
                                        #   in Loop: Header=BB0_2 Depth=1
	move	$a5, $a2
	bstrpick.d	$a2, $a1, 30, 4
	slli.d	$a2, $a2, 4
	sub.d	$a3, $a5, $a2
	add.d	$a4, $a6, $a5
	add.d	$a5, $a0, $a5
	.p2align	4, , 16
.LBB0_28:                               # %vec.epilog.vector.body
                                        #   Parent Loop BB0_2 Depth=1
                                        # =>  This Inner Loop Header: Depth=2
	vld	$vr0, $a5, 0
	vst	$vr0, $a4, 0
	addi.d	$a3, $a3, 16
	addi.d	$a4, $a4, 16
	addi.d	$a5, $a5, 16
	bnez	$a3, .LBB0_28
# %bb.29:                               # %vec.epilog.middle.block
                                        #   in Loop: Header=BB0_2 Depth=1
	bne	$a2, $a1, .LBB0_167
	b	.LBB0_169
	.p2align	4, , 16
.LBB0_30:                               # %.lr.ph.i.preheader
                                        #   in Loop: Header=BB0_2 Depth=1
	move	$a1, $zero
	.p2align	4, , 16
.LBB0_31:                               # %.lr.ph.i
                                        #   Parent Loop BB0_2 Depth=1
                                        # =>  This Loop Header: Depth=2
                                        #       Child Loop BB0_33 Depth 3
	ld.d	$a0, $sp, 712
	bne	$a0, $s0, .LBB0_38
# %bb.32:                               #   in Loop: Header=BB0_31 Depth=2
	ld.w	$a0, $s3, 120
	move	$a2, $zero
	addi.d	$a0, $a0, 512
	st.w	$a0, $s3, 120
	.p2align	4, , 16
.LBB0_33:                               #   Parent Loop BB0_2 Depth=1
                                        #     Parent Loop BB0_31 Depth=2
                                        # =>    This Inner Loop Header: Depth=3
	ldx.bu	$a0, $a2, $s4
	bnez	$a0, .LBB0_35
# %bb.34:                               #   in Loop: Header=BB0_33 Depth=3
	move	$a3, $a2
	addi.d	$a2, $a2, 1
	bne	$a3, $s2, .LBB0_33
.LBB0_35:                               # %_ZN8NArchive4NTarL12IsRecordLastEPKc.exit.i
                                        #   in Loop: Header=BB0_31 Depth=2
	bnez	$a0, .LBB0_43
# %bb.36:                               #   in Loop: Header=BB0_31 Depth=2
	st.d	$s0, $sp, 712
.Ltmp48:
	addi.d	$a1, $sp, 200
	addi.d	$a2, $sp, 712
	move	$a0, $fp
	pcaddu18i	$ra, %call36(_Z10ReadStreamP19ISequentialInStreamPvPm)
	jirl	$ra, $ra, 0
.Ltmp49:
# %bb.37:                               # %.noexc91
                                        #   in Loop: Header=BB0_31 Depth=2
	ori	$a1, $zero, 1
	beqz	$a0, .LBB0_31
	b	.LBB0_4
.LBB0_38:                               # %.lr.ph.i
                                        #   in Loop: Header=BB0_2 Depth=1
	bnez	$a0, .LBB0_41
# %bb.39:                               #   in Loop: Header=BB0_2 Depth=1
	andi	$a0, $a1, 1
	beqz	$a0, .LBB0_47
# %bb.40:                               #   in Loop: Header=BB0_2 Depth=1
	move	$a0, $zero
	beqz	$zero, .LBB0_5
	b	.LBB0_240
.LBB0_41:                               #   in Loop: Header=BB0_2 Depth=1
	ld.d	$a1, $sp, 88                    # 8-byte Folded Reload
	ld.d	$a0, $a1, 0
	st.w	$zero, $a1, 8
	st.b	$zero, $a0, 0
	ld.w	$s0, $a1, 12
	ori	$a0, $zero, 49
	bne	$s0, $a0, .LBB0_49
# %bb.42:                               # %._ZN11CStringBaseIcE11SetCapacityEi.exit_crit_edge.i133.i
                                        #   in Loop: Header=BB0_2 Depth=1
	ld.d	$s5, $a1, 0
	b	.LBB0_185
.LBB0_43:                               #   in Loop: Header=BB0_2 Depth=1
	andi	$a0, $a1, 1
	beqz	$a0, .LBB0_59
# %bb.44:                               #   in Loop: Header=BB0_2 Depth=1
	ld.d	$a2, $sp, 88                    # 8-byte Folded Reload
	ld.d	$a0, $a2, 0
	st.w	$zero, $a2, 8
	st.b	$zero, $a0, 0
	ld.w	$s0, $a2, 12
	ori	$a0, $zero, 36
	bne	$s0, $a0, .LBB0_93
# %bb.45:                               # %._ZN11CStringBaseIcE11SetCapacityEi.exit_crit_edge.i152.i
                                        #   in Loop: Header=BB0_2 Depth=1
	ld.d	$s5, $a2, 0
	b	.LBB0_204
.LBB0_46:                               #   in Loop: Header=BB0_2 Depth=1
	move	$s3, $s7
	b	.LBB0_170
.LBB0_47:                               #   in Loop: Header=BB0_2 Depth=1
	ld.d	$a1, $sp, 88                    # 8-byte Folded Reload
	ld.d	$a0, $a1, 0
	st.w	$zero, $a1, 8
	st.b	$zero, $a0, 0
	ld.w	$s0, $a1, 12
	ori	$a0, $zero, 42
	bne	$s0, $a0, .LBB0_83
# %bb.48:                               # %._ZN11CStringBaseIcE11SetCapacityEi.exit_crit_edge.i.i
                                        #   in Loop: Header=BB0_2 Depth=1
	ld.d	$s5, $a1, 0
	b	.LBB0_194
.LBB0_49:                               #   in Loop: Header=BB0_2 Depth=1
.Ltmp53:
	ori	$a0, $zero, 49
	pcaddu18i	$ra, %call36(_Znam)
	jirl	$ra, $ra, 0
.Ltmp54:
# %bb.50:                               # %.noexc90
                                        #   in Loop: Header=BB0_2 Depth=1
	move	$s5, $a0
	ld.d	$a0, $sp, 88                    # 8-byte Folded Reload
	ld.w	$a1, $a0, 8
	blez	$s0, .LBB0_184
# %bb.51:                               # %.preheader.i.i123.i
                                        #   in Loop: Header=BB0_2 Depth=1
	ld.d	$a0, $a0, 0
	blez	$a1, .LBB0_174
# %bb.52:                               # %iter.check362
                                        #   in Loop: Header=BB0_2 Depth=1
	move	$a2, $zero
	ori	$a3, $zero, 16
	bltu	$a1, $a3, .LBB0_181
# %bb.53:                               # %iter.check362
                                        #   in Loop: Header=BB0_2 Depth=1
	sub.d	$a3, $s5, $a0
	ori	$a4, $zero, 31
	bgeu	$a4, $a3, .LBB0_181
# %bb.54:                               # %vector.main.loop.iter.check364
                                        #   in Loop: Header=BB0_2 Depth=1
	bgeu	$a1, $s8, .LBB0_177
# %bb.55:                               #   in Loop: Header=BB0_2 Depth=1
	move	$a2, $zero
.LBB0_56:                               # %vec.epilog.ph377
                                        #   in Loop: Header=BB0_2 Depth=1
	move	$a5, $a2
	bstrpick.d	$a2, $a1, 30, 4
	slli.d	$a2, $a2, 4
	sub.d	$a3, $a5, $a2
	add.d	$a4, $s5, $a5
	add.d	$a5, $a0, $a5
	.p2align	4, , 16
.LBB0_57:                               # %vec.epilog.vector.body383
                                        #   Parent Loop BB0_2 Depth=1
                                        # =>  This Inner Loop Header: Depth=2
	vld	$vr0, $a5, 0
	vst	$vr0, $a4, 0
	addi.d	$a3, $a3, 16
	addi.d	$a4, $a4, 16
	addi.d	$a5, $a5, 16
	bnez	$a3, .LBB0_57
# %bb.58:                               # %vec.epilog.middle.block387
                                        #   in Loop: Header=BB0_2 Depth=1
	bne	$a2, $a1, .LBB0_181
	b	.LBB0_183
.LBB0_59:                               #   in Loop: Header=BB0_2 Depth=1
.Ltmp5:
	addi.d	$a0, $sp, 200
	ori	$a1, $zero, 100
	move	$a2, $s3
	pcaddu18i	$ra, %call36(_ZN8NArchive4NTarL10ReadStringEPKciR11CStringBaseIcE)
	jirl	$ra, $ra, 0
.Ltmp6:
# %bb.60:                               # %.noexc93
                                        #   in Loop: Header=BB0_2 Depth=1
	move	$a1, $zero
	.p2align	4, , 16
.LBB0_61:                               #   Parent Loop BB0_2 Depth=1
                                        # =>  This Inner Loop Header: Depth=2
	move	$a0, $a1
	add.d	$a1, $s4, $a1
	ld.bu	$a1, $a1, 100
	stx.b	$a1, $a0, $s6
	beqz	$a1, .LBB0_63
# %bb.62:                               #   in Loop: Header=BB0_61 Depth=2
	addi.d	$a1, $a0, 1
	bne	$a0, $s7, .LBB0_61
.LBB0_63:                               # %_ZN8NArchive4NTarL9MyStrNCpyEPcPKci.exit.i.i.i
                                        #   in Loop: Header=BB0_2 Depth=1
	st.b	$zero, $sp, 720
	addi.d	$a0, $sp, 711
	.p2align	4, , 16
.LBB0_64:                               #   Parent Loop BB0_2 Depth=1
                                        # =>  This Inner Loop Header: Depth=2
	ld.bu	$a1, $a0, 1
	addi.d	$a0, $a0, 1
	beq	$a1, $s8, .LBB0_64
# %bb.65:                               # %_ZN8NArchive4NTarL13OctalToNumberEPKciRy.exit.i.i
                                        #   in Loop: Header=BB0_2 Depth=1
.Ltmp7:
	addi.d	$a1, $sp, 184
	pcaddu18i	$ra, %call36(_Z24ConvertOctStringToUInt64PKcPS0_)
	jirl	$ra, $ra, 0
.Ltmp8:
# %bb.66:                               # %.noexc94
                                        #   in Loop: Header=BB0_2 Depth=1
	ld.d	$a1, $sp, 184
	ld.bu	$a1, $a1, 0
	andi	$a1, $a1, 223
	bnez	$a1, .LBB0_210
# %bb.67:                               # %_ZN8NArchive4NTarL15OctalToNumber32EPKciRj.exit.i
                                        #   in Loop: Header=BB0_2 Depth=1
	srli.d	$a1, $a0, 32
	st.w	$a0, $s3, 24
	bnez	$a1, .LBB0_210
# %bb.68:                               #   in Loop: Header=BB0_2 Depth=1
	move	$a1, $zero
	.p2align	4, , 16
.LBB0_69:                               #   Parent Loop BB0_2 Depth=1
                                        # =>  This Inner Loop Header: Depth=2
	move	$a0, $a1
	add.d	$a1, $s4, $a1
	ld.bu	$a1, $a1, 108
	stx.b	$a1, $a0, $s6
	beqz	$a1, .LBB0_71
# %bb.70:                               #   in Loop: Header=BB0_69 Depth=2
	addi.d	$a1, $a0, 1
	bne	$a0, $s7, .LBB0_69
.LBB0_71:                               # %_ZN8NArchive4NTarL9MyStrNCpyEPcPKci.exit.i.i162.i
                                        #   in Loop: Header=BB0_2 Depth=1
	st.b	$zero, $sp, 720
	addi.d	$a0, $sp, 711
	.p2align	4, , 16
.LBB0_72:                               #   Parent Loop BB0_2 Depth=1
                                        # =>  This Inner Loop Header: Depth=2
	ld.bu	$a1, $a0, 1
	addi.d	$a0, $a0, 1
	beq	$a1, $s8, .LBB0_72
# %bb.73:                               # %_ZN8NArchive4NTarL13OctalToNumberEPKciRy.exit.i165.i
                                        #   in Loop: Header=BB0_2 Depth=1
.Ltmp9:
	addi.d	$a1, $sp, 184
	pcaddu18i	$ra, %call36(_Z24ConvertOctStringToUInt64PKcPS0_)
	jirl	$ra, $ra, 0
.Ltmp10:
# %bb.74:                               # %.noexc95
                                        #   in Loop: Header=BB0_2 Depth=1
	ld.d	$a1, $sp, 184
	ld.bu	$a2, $a1, 0
	move	$a1, $zero
	andi	$a2, $a2, 223
	srli.d	$a3, $a0, 32
	or	$a2, $a3, $a2
	sltui	$a2, $a2, 1
	maskeqz	$a0, $a0, $a2
	st.w	$a0, $s3, 28
	.p2align	4, , 16
.LBB0_75:                               #   Parent Loop BB0_2 Depth=1
                                        # =>  This Inner Loop Header: Depth=2
	move	$a0, $a1
	add.d	$a1, $s4, $a1
	ld.bu	$a1, $a1, 116
	stx.b	$a1, $a0, $s6
	beqz	$a1, .LBB0_77
# %bb.76:                               #   in Loop: Header=BB0_75 Depth=2
	addi.d	$a1, $a0, 1
	bne	$a0, $s7, .LBB0_75
.LBB0_77:                               # %_ZN8NArchive4NTarL9MyStrNCpyEPcPKci.exit.i.i174.i
                                        #   in Loop: Header=BB0_2 Depth=1
	st.b	$zero, $sp, 720
	addi.d	$a0, $sp, 711
	.p2align	4, , 16
.LBB0_78:                               #   Parent Loop BB0_2 Depth=1
                                        # =>  This Inner Loop Header: Depth=2
	ld.bu	$a1, $a0, 1
	addi.d	$a0, $a0, 1
	beq	$a1, $s8, .LBB0_78
# %bb.79:                               # %_ZN8NArchive4NTarL13OctalToNumberEPKciRy.exit.i177.i
                                        #   in Loop: Header=BB0_2 Depth=1
.Ltmp11:
	addi.d	$a1, $sp, 184
	pcaddu18i	$ra, %call36(_Z24ConvertOctStringToUInt64PKcPS0_)
	jirl	$ra, $ra, 0
.Ltmp12:
# %bb.80:                               # %.noexc96
                                        #   in Loop: Header=BB0_2 Depth=1
	ld.d	$a1, $sp, 184
	ld.bu	$a1, $a1, 0
	andi	$a1, $a1, 223
	sltui	$a1, $a1, 1
	srli.d	$a2, $a0, 32
	ld.w	$a3, $sp, 324
	sltui	$a2, $a2, 1
	maskeqz	$a0, $a0, $a2
	maskeqz	$a0, $a0, $a1
	revb.2w	$a1, $a3
	addi.w	$a1, $a1, 0
	st.w	$a0, $s3, 32
	lu12i.w	$a0, -524288
	bne	$a1, $a0, .LBB0_103
# %bb.81:                               #   in Loop: Header=BB0_2 Depth=1
	ld.d	$a0, $sp, 328
	revb.d	$a0, $a0
	st.d	$a0, $s3, 16
	b	.LBB0_110
.LBB0_82:                               # %._crit_edge.i.i
                                        #   in Loop: Header=BB0_2 Depth=1
	move	$s3, $s7
	bnez	$a0, .LBB0_169
	b	.LBB0_170
.LBB0_83:                               #   in Loop: Header=BB0_2 Depth=1
.Ltmp51:
	ori	$a0, $zero, 42
	pcaddu18i	$ra, %call36(_Znam)
	jirl	$ra, $ra, 0
.Ltmp52:
# %bb.84:                               # %.noexc89
                                        #   in Loop: Header=BB0_2 Depth=1
	move	$s5, $a0
	ld.d	$a0, $sp, 88                    # 8-byte Folded Reload
	ld.w	$a1, $a0, 8
	blez	$s0, .LBB0_193
# %bb.85:                               # %.preheader.i.i.i
                                        #   in Loop: Header=BB0_2 Depth=1
	ld.d	$a0, $a0, 0
	blez	$a1, .LBB0_175
# %bb.86:                               # %iter.check395
                                        #   in Loop: Header=BB0_2 Depth=1
	move	$a2, $zero
	ori	$a3, $zero, 16
	bltu	$a1, $a3, .LBB0_190
# %bb.87:                               # %iter.check395
                                        #   in Loop: Header=BB0_2 Depth=1
	sub.d	$a3, $s5, $a0
	ori	$a4, $zero, 31
	bgeu	$a4, $a3, .LBB0_190
# %bb.88:                               # %vector.main.loop.iter.check397
                                        #   in Loop: Header=BB0_2 Depth=1
	bgeu	$a1, $s8, .LBB0_186
# %bb.89:                               #   in Loop: Header=BB0_2 Depth=1
	move	$a2, $zero
.LBB0_90:                               # %vec.epilog.ph410
                                        #   in Loop: Header=BB0_2 Depth=1
	move	$a5, $a2
	bstrpick.d	$a2, $a1, 30, 4
	slli.d	$a2, $a2, 4
	sub.d	$a3, $a5, $a2
	add.d	$a4, $s5, $a5
	add.d	$a5, $a0, $a5
	.p2align	4, , 16
.LBB0_91:                               # %vec.epilog.vector.body416
                                        #   Parent Loop BB0_2 Depth=1
                                        # =>  This Inner Loop Header: Depth=2
	vld	$vr0, $a5, 0
	vst	$vr0, $a4, 0
	addi.d	$a3, $a3, 16
	addi.d	$a4, $a4, 16
	addi.d	$a5, $a5, 16
	bnez	$a3, .LBB0_91
# %bb.92:                               # %vec.epilog.middle.block420
                                        #   in Loop: Header=BB0_2 Depth=1
	bne	$a2, $a1, .LBB0_190
	b	.LBB0_192
.LBB0_93:                               #   in Loop: Header=BB0_2 Depth=1
.Ltmp46:
	ori	$a0, $zero, 36
	pcaddu18i	$ra, %call36(_Znam)
	jirl	$ra, $ra, 0
.Ltmp47:
# %bb.94:                               # %.noexc92
                                        #   in Loop: Header=BB0_2 Depth=1
	move	$s5, $a0
	ld.d	$a0, $sp, 88                    # 8-byte Folded Reload
	ld.w	$a1, $a0, 8
	blez	$s0, .LBB0_203
# %bb.95:                               # %.preheader.i.i142.i
                                        #   in Loop: Header=BB0_2 Depth=1
	ld.d	$a0, $a0, 0
	blez	$a1, .LBB0_176
# %bb.96:                               # %iter.check428
                                        #   in Loop: Header=BB0_2 Depth=1
	move	$a2, $zero
	ori	$a3, $zero, 16
	bltu	$a1, $a3, .LBB0_200
# %bb.97:                               # %iter.check428
                                        #   in Loop: Header=BB0_2 Depth=1
	sub.d	$a3, $s5, $a0
	ori	$a4, $zero, 31
	bgeu	$a4, $a3, .LBB0_200
# %bb.98:                               # %vector.main.loop.iter.check430
                                        #   in Loop: Header=BB0_2 Depth=1
	bgeu	$a1, $s8, .LBB0_196
# %bb.99:                               #   in Loop: Header=BB0_2 Depth=1
	move	$a2, $zero
.LBB0_100:                              # %vec.epilog.ph443
                                        #   in Loop: Header=BB0_2 Depth=1
	move	$a5, $a2
	bstrpick.d	$a2, $a1, 30, 4
	slli.d	$a2, $a2, 4
	sub.d	$a3, $a5, $a2
	add.d	$a4, $s5, $a5
	add.d	$a5, $a0, $a5
	.p2align	4, , 16
.LBB0_101:                              # %vec.epilog.vector.body449
                                        #   Parent Loop BB0_2 Depth=1
                                        # =>  This Inner Loop Header: Depth=2
	vld	$vr0, $a5, 0
	vst	$vr0, $a4, 0
	addi.d	$a3, $a3, 16
	addi.d	$a4, $a4, 16
	addi.d	$a5, $a5, 16
	bnez	$a3, .LBB0_101
# %bb.102:                              # %vec.epilog.middle.block453
                                        #   in Loop: Header=BB0_2 Depth=1
	bne	$a2, $a1, .LBB0_200
	b	.LBB0_202
.LBB0_103:                              #   in Loop: Header=BB0_2 Depth=1
	move	$a1, $zero
	.p2align	4, , 16
.LBB0_104:                              #   Parent Loop BB0_2 Depth=1
                                        # =>  This Inner Loop Header: Depth=2
	move	$a0, $a1
	addi.d	$a1, $sp, 324
	ldx.bu	$a1, $a1, $a0
	stx.b	$a1, $a0, $s6
	beqz	$a1, .LBB0_106
# %bb.105:                              #   in Loop: Header=BB0_104 Depth=2
	addi.d	$a1, $a0, 1
	ori	$a2, $zero, 11
	bne	$a0, $a2, .LBB0_104
.LBB0_106:                              # %_ZN8NArchive4NTarL9MyStrNCpyEPcPKci.exit.i.i
                                        #   in Loop: Header=BB0_2 Depth=1
	st.b	$zero, $sp, 724
	addi.d	$a0, $sp, 711
	.p2align	4, , 16
.LBB0_107:                              #   Parent Loop BB0_2 Depth=1
                                        # =>  This Inner Loop Header: Depth=2
	ld.bu	$a1, $a0, 1
	addi.d	$a0, $a0, 1
	beq	$a1, $s8, .LBB0_107
# %bb.108:                              # %_ZN8NArchive4NTarL13OctalToNumberEPKciRy.exit.i
                                        #   in Loop: Header=BB0_2 Depth=1
.Ltmp13:
	addi.d	$a1, $sp, 184
	pcaddu18i	$ra, %call36(_Z24ConvertOctStringToUInt64PKcPS0_)
	jirl	$ra, $ra, 0
.Ltmp14:
# %bb.109:                              # %.noexc97
                                        #   in Loop: Header=BB0_2 Depth=1
	ld.d	$a1, $sp, 184
	st.d	$a0, $s3, 16
	ld.bu	$a0, $a1, 0
	andi	$a0, $a0, 223
	bnez	$a0, .LBB0_210
.LBB0_110:                              #   in Loop: Header=BB0_2 Depth=1
	move	$a1, $zero
	.p2align	4, , 16
.LBB0_111:                              #   Parent Loop BB0_2 Depth=1
                                        # =>  This Inner Loop Header: Depth=2
	move	$a0, $a1
	add.d	$a1, $s4, $a1
	ld.bu	$a1, $a1, 136
	stx.b	$a1, $a0, $s6
	beqz	$a1, .LBB0_113
# %bb.112:                              #   in Loop: Header=BB0_111 Depth=2
	addi.d	$a1, $a0, 1
	ori	$a2, $zero, 11
	bne	$a0, $a2, .LBB0_111
.LBB0_113:                              # %_ZN8NArchive4NTarL9MyStrNCpyEPcPKci.exit.i.i192.i
                                        #   in Loop: Header=BB0_2 Depth=1
	st.b	$zero, $sp, 724
	addi.d	$a0, $sp, 711
	.p2align	4, , 16
.LBB0_114:                              #   Parent Loop BB0_2 Depth=1
                                        # =>  This Inner Loop Header: Depth=2
	ld.bu	$a1, $a0, 1
	addi.d	$a0, $a0, 1
	beq	$a1, $s8, .LBB0_114
# %bb.115:                              # %_ZN8NArchive4NTarL13OctalToNumberEPKciRy.exit.i195.i
                                        #   in Loop: Header=BB0_2 Depth=1
.Ltmp15:
	addi.d	$a1, $sp, 184
	pcaddu18i	$ra, %call36(_Z24ConvertOctStringToUInt64PKcPS0_)
	jirl	$ra, $ra, 0
.Ltmp16:
# %bb.116:                              # %.noexc98
                                        #   in Loop: Header=BB0_2 Depth=1
	ld.d	$a1, $sp, 184
	ld.bu	$a1, $a1, 0
	andi	$a1, $a1, 223
	bnez	$a1, .LBB0_210
# %bb.117:                              # %_ZN8NArchive4NTarL15OctalToNumber32EPKciRj.exit198.i
                                        #   in Loop: Header=BB0_2 Depth=1
	srli.d	$a1, $a0, 32
	st.w	$a0, $s3, 36
	bnez	$a1, .LBB0_210
# %bb.118:                              #   in Loop: Header=BB0_2 Depth=1
	move	$a1, $zero
	.p2align	4, , 16
.LBB0_119:                              #   Parent Loop BB0_2 Depth=1
                                        # =>  This Inner Loop Header: Depth=2
	move	$a0, $a1
	add.d	$a1, $s4, $a1
	ld.bu	$a1, $a1, 148
	stx.b	$a1, $a0, $s6
	beqz	$a1, .LBB0_121
# %bb.120:                              #   in Loop: Header=BB0_119 Depth=2
	addi.d	$a1, $a0, 1
	bne	$a0, $s7, .LBB0_119
.LBB0_121:                              # %_ZN8NArchive4NTarL9MyStrNCpyEPcPKci.exit.i.i204.i
                                        #   in Loop: Header=BB0_2 Depth=1
	st.b	$zero, $sp, 720
	addi.d	$a0, $sp, 711
	.p2align	4, , 16
.LBB0_122:                              #   Parent Loop BB0_2 Depth=1
                                        # =>  This Inner Loop Header: Depth=2
	ld.bu	$a1, $a0, 1
	addi.d	$a0, $a0, 1
	beq	$a1, $s8, .LBB0_122
# %bb.123:                              # %_ZN8NArchive4NTarL13OctalToNumberEPKciRy.exit.i207.i
                                        #   in Loop: Header=BB0_2 Depth=1
.Ltmp17:
	addi.d	$a1, $sp, 184
	pcaddu18i	$ra, %call36(_Z24ConvertOctStringToUInt64PKcPS0_)
	jirl	$ra, $ra, 0
.Ltmp18:
# %bb.124:                              # %.noexc99
                                        #   in Loop: Header=BB0_2 Depth=1
	move	$s5, $a0
	ld.d	$a0, $sp, 184
	ld.bu	$a0, $a0, 0
	andi	$a0, $a0, 223
	bnez	$a0, .LBB0_210
# %bb.125:                              # %_ZN8NArchive4NTarL15OctalToNumber32EPKciRj.exit210.i
                                        #   in Loop: Header=BB0_2 Depth=1
	srli.d	$a0, $s5, 32
	bnez	$a0, .LBB0_210
# %bb.126:                              #   in Loop: Header=BB0_2 Depth=1
	pcalau12i	$a0, %got_pc_hi20(_ZN8NArchive4NTar11NFileHeader15kCheckSumBlanksE)
	ld.d	$a0, $a0, %got_pc_lo12(_ZN8NArchive4NTar11NFileHeader15kCheckSumBlanksE)
	ld.d	$a0, $a0, 0
	ld.d	$a0, $a0, 0
	ld.b	$a1, $sp, 356
	st.d	$a0, $sp, 348
	st.b	$a1, $s3, 104
.Ltmp19:
	ori	$a1, $zero, 100
	addi.d	$a0, $sp, 357
	ld.d	$a2, $sp, 56                    # 8-byte Folded Reload
	pcaddu18i	$ra, %call36(_ZN8NArchive4NTarL10ReadStringEPKciR11CStringBaseIcE)
	jirl	$ra, $ra, 0
.Ltmp20:
# %bb.127:                              # %.noexc100
                                        #   in Loop: Header=BB0_2 Depth=1
	ld.d	$a0, $sp, 457
	st.d	$a0, $s3, 96
.Ltmp21:
	ori	$a1, $zero, 32
	addi.d	$a0, $sp, 465
	ld.d	$a2, $sp, 32                    # 8-byte Folded Reload
	pcaddu18i	$ra, %call36(_ZN8NArchive4NTarL10ReadStringEPKciR11CStringBaseIcE)
	jirl	$ra, $ra, 0
.Ltmp22:
# %bb.128:                              # %.noexc101
                                        #   in Loop: Header=BB0_2 Depth=1
.Ltmp23:
	ori	$a1, $zero, 32
	addi.d	$a0, $sp, 497
	ld.d	$a2, $sp, 24                    # 8-byte Folded Reload
	pcaddu18i	$ra, %call36(_ZN8NArchive4NTarL10ReadStringEPKciR11CStringBaseIcE)
	jirl	$ra, $ra, 0
.Ltmp24:
# %bb.129:                              # %.noexc102
                                        #   in Loop: Header=BB0_2 Depth=1
	ld.bu	$a0, $sp, 529
	move	$a1, $zero
	sltu	$a0, $zero, $a0
	st.b	$a0, $s3, 105
	.p2align	4, , 16
.LBB0_130:                              #   Parent Loop BB0_2 Depth=1
                                        # =>  This Inner Loop Header: Depth=2
	move	$a0, $a1
	add.d	$a1, $s4, $a1
	ld.bu	$a1, $a1, 329
	stx.b	$a1, $a0, $s6
	beqz	$a1, .LBB0_132
# %bb.131:                              #   in Loop: Header=BB0_130 Depth=2
	addi.d	$a1, $a0, 1
	bne	$a0, $s7, .LBB0_130
.LBB0_132:                              # %_ZN8NArchive4NTarL9MyStrNCpyEPcPKci.exit.i.i216.i
                                        #   in Loop: Header=BB0_2 Depth=1
	st.b	$zero, $sp, 720
	addi.d	$a0, $sp, 711
	.p2align	4, , 16
.LBB0_133:                              #   Parent Loop BB0_2 Depth=1
                                        # =>  This Inner Loop Header: Depth=2
	ld.bu	$a1, $a0, 1
	addi.d	$a0, $a0, 1
	beq	$a1, $s8, .LBB0_133
# %bb.134:                              # %_ZN8NArchive4NTarL13OctalToNumberEPKciRy.exit.i219.i
                                        #   in Loop: Header=BB0_2 Depth=1
.Ltmp25:
	addi.d	$a1, $sp, 184
	pcaddu18i	$ra, %call36(_Z24ConvertOctStringToUInt64PKcPS0_)
	jirl	$ra, $ra, 0
.Ltmp26:
# %bb.135:                              # %.noexc103
                                        #   in Loop: Header=BB0_2 Depth=1
	ld.d	$a1, $sp, 184
	ld.bu	$a1, $a1, 0
	andi	$a1, $a1, 223
	bnez	$a1, .LBB0_210
# %bb.136:                              # %_ZN8NArchive4NTarL15OctalToNumber32EPKciRj.exit222.i
                                        #   in Loop: Header=BB0_2 Depth=1
	srli.d	$a1, $a0, 32
	st.w	$a0, $s3, 40
	bnez	$a1, .LBB0_210
# %bb.137:                              #   in Loop: Header=BB0_2 Depth=1
	ld.bu	$a0, $sp, 537
	sltu	$a0, $zero, $a0
	st.b	$a0, $s3, 106
.Ltmp27:
	ori	$a1, $zero, 8
	addi.d	$a0, $sp, 537
	ld.d	$a2, $sp, 16                    # 8-byte Folded Reload
	pcaddu18i	$ra, %call36(_ZN8NArchive4NTarL15OctalToNumber32EPKciRj)
	jirl	$ra, $ra, 0
.Ltmp28:
# %bb.138:                              # %.noexc104
                                        #   in Loop: Header=BB0_2 Depth=1
	beqz	$a0, .LBB0_210
# %bb.139:                              #   in Loop: Header=BB0_2 Depth=1
	st.d	$zero, $sp, 720
.Ltmp29:
	ori	$a0, $zero, 4
	pcaddu18i	$ra, %call36(_Znam)
	jirl	$ra, $ra, 0
.Ltmp30:
# %bb.140:                              # %.noexc105
                                        #   in Loop: Header=BB0_2 Depth=1
	st.d	$a0, $sp, 712
	st.b	$zero, $a0, 0
	ori	$a0, $zero, 4
	st.w	$a0, $sp, 724
.Ltmp31:
	ori	$a1, $zero, 155
	addi.d	$a2, $sp, 712
	addi.d	$a0, $sp, 545
	pcaddu18i	$ra, %call36(_ZN8NArchive4NTarL10ReadStringEPKciR11CStringBaseIcE)
	jirl	$ra, $ra, 0
.Ltmp32:
# %bb.141:                              #   in Loop: Header=BB0_2 Depth=1
	ld.w	$a0, $sp, 720
	beqz	$a0, .LBB0_154
# %bb.142:                              #   in Loop: Header=BB0_2 Depth=1
	move	$a0, $s3
	pcaddu18i	$ra, %call36(_ZNK8NArchive4NTar5CItem7IsMagicEv)
	jirl	$ra, $ra, 0
	ld.bu	$a1, $s3, 104
	beqz	$a0, .LBB0_155
# %bb.143:                              #   in Loop: Header=BB0_2 Depth=1
	ori	$a0, $zero, 76
	beq	$a1, $a0, .LBB0_155
# %bb.144:                              #   in Loop: Header=BB0_2 Depth=1
.Ltmp34:
	ori	$a0, $zero, 2
	pcaddu18i	$ra, %call36(_Znam)
	jirl	$ra, $ra, 0
.Ltmp35:
# %bb.145:                              #   in Loop: Header=BB0_2 Depth=1
	st.d	$a0, $sp, 152
	ori	$a1, $zero, 47
	st.h	$a1, $a0, 0
	ori	$a0, $zero, 1
	lu32i.d	$a0, 2
	st.d	$a0, $sp, 160
.Ltmp37:
	addi.d	$a0, $sp, 168
	addi.d	$a1, $sp, 712
	addi.d	$a2, $sp, 152
	pcaddu18i	$ra, %call36(_ZplIcE11CStringBaseIT_ERKS2_S4_)
	jirl	$ra, $ra, 0
.Ltmp38:
# %bb.146:                              #   in Loop: Header=BB0_2 Depth=1
.Ltmp40:
	addi.d	$a0, $sp, 184
	addi.d	$a1, $sp, 168
	move	$a2, $s3
	pcaddu18i	$ra, %call36(_ZplIcE11CStringBaseIT_ERKS2_S4_)
	jirl	$ra, $ra, 0
.Ltmp41:
# %bb.147:                              #   in Loop: Header=BB0_2 Depth=1
.Ltmp43:
	addi.d	$a1, $sp, 184
	move	$a0, $s3
	pcaddu18i	$ra, %call36(_ZN11CStringBaseIcEaSERKS0_)
	jirl	$ra, $ra, 0
.Ltmp44:
# %bb.148:                              #   in Loop: Header=BB0_2 Depth=1
	ld.d	$a0, $sp, 184
	beqz	$a0, .LBB0_150
# %bb.149:                              #   in Loop: Header=BB0_2 Depth=1
	pcaddu18i	$ra, %call36(_ZdaPv)
	jirl	$ra, $ra, 0
.LBB0_150:                              # %_ZN11CStringBaseIcED2Ev.exit.i
                                        #   in Loop: Header=BB0_2 Depth=1
	ld.d	$a0, $sp, 168
	beqz	$a0, .LBB0_152
# %bb.151:                              #   in Loop: Header=BB0_2 Depth=1
	pcaddu18i	$ra, %call36(_ZdaPv)
	jirl	$ra, $ra, 0
.LBB0_152:                              # %_ZN11CStringBaseIcED2Ev.exit225.i
                                        #   in Loop: Header=BB0_2 Depth=1
	ld.d	$a0, $sp, 152
	beqz	$a0, .LBB0_154
# %bb.153:                              #   in Loop: Header=BB0_2 Depth=1
	pcaddu18i	$ra, %call36(_ZdaPv)
	jirl	$ra, $ra, 0
.LBB0_154:                              # %thread-pre-split.i
                                        #   in Loop: Header=BB0_2 Depth=1
	ld.bu	$a1, $s3, 104
.LBB0_155:                              #   in Loop: Header=BB0_2 Depth=1
	ori	$a0, $zero, 49
	bne	$a1, $a0, .LBB0_157
# %bb.156:                              #   in Loop: Header=BB0_2 Depth=1
	st.d	$zero, $s3, 16
.LBB0_157:                              # %vector.body457.preheader
                                        #   in Loop: Header=BB0_2 Depth=1
	move	$a0, $zero
	vld	$vr4, $sp, 0                    # 16-byte Folded Reload
	vori.b	$vr0, $vr4, 0
	vori.b	$vr1, $vr4, 0
	.p2align	4, , 16
.LBB0_158:                              # %vector.body457
                                        #   Parent Loop BB0_2 Depth=1
                                        # =>  This Inner Loop Header: Depth=2
	add.d	$a1, $s4, $a0
	ldx.w	$a2, $a0, $s4
	ld.w	$a1, $a1, 4
	vinsgr2vr.w	$vr2, $a2, 0
	vinsgr2vr.w	$vr3, $a1, 0
	vilvl.b	$vr2, $vr4, $vr2
	vilvl.h	$vr2, $vr4, $vr2
	vilvl.b	$vr3, $vr4, $vr3
	vilvl.h	$vr3, $vr4, $vr3
	vadd.w	$vr0, $vr0, $vr2
	addi.d	$a0, $a0, 8
	vadd.w	$vr1, $vr1, $vr3
	bne	$a0, $s0, .LBB0_158
# %bb.159:                              # %middle.block463
                                        #   in Loop: Header=BB0_2 Depth=1
	addi.w	$a1, $s5, 0
	vadd.w	$vr0, $vr1, $vr0
	vshuf4i.w	$vr1, $vr0, 14
	vadd.w	$vr0, $vr0, $vr1
	vreplvei.w	$vr1, $vr0, 1
	vadd.w	$vr0, $vr0, $vr1
	vpickve2gr.w	$a2, $vr0, 0
	ori	$a0, $zero, 1
	bne	$a2, $a1, .LBB0_161
# %bb.160:                              #   in Loop: Header=BB0_2 Depth=1
	move	$a0, $zero
	ori	$a1, $zero, 1
	st.b	$a1, $s1, 0
.LBB0_161:                              #   in Loop: Header=BB0_2 Depth=1
	ld.d	$a1, $sp, 712
	beqz	$a1, .LBB0_4
# %bb.162:                              #   in Loop: Header=BB0_2 Depth=1
	move	$s0, $a0
	move	$a0, $a1
	pcaddu18i	$ra, %call36(_ZdaPv)
	jirl	$ra, $ra, 0
	move	$a0, $s0
	b	.LBB0_4
.LBB0_163:                              # %vector.ph
                                        #   in Loop: Header=BB0_2 Depth=1
	bstrpick.d	$a2, $a1, 30, 5
	slli.d	$a2, $a2, 5
	addi.d	$a3, $a6, 16
	addi.d	$a4, $a0, 16
	move	$a5, $a2
	.p2align	4, , 16
.LBB0_164:                              # %vector.body
                                        #   Parent Loop BB0_2 Depth=1
                                        # =>  This Inner Loop Header: Depth=2
	vld	$vr0, $a4, -16
	vld	$vr1, $a4, 0
	vst	$vr0, $a3, -16
	vst	$vr1, $a3, 0
	addi.d	$a5, $a5, -32
	addi.d	$a3, $a3, 32
	addi.d	$a4, $a4, 32
	bnez	$a5, .LBB0_164
# %bb.165:                              # %middle.block
                                        #   in Loop: Header=BB0_2 Depth=1
	beq	$a2, $a1, .LBB0_169
# %bb.166:                              # %vec.epilog.iter.check
                                        #   in Loop: Header=BB0_2 Depth=1
	andi	$a3, $a1, 16
	bnez	$a3, .LBB0_27
.LBB0_167:                              # %vec.epilog.scalar.ph.preheader
                                        #   in Loop: Header=BB0_2 Depth=1
	sub.d	$a1, $a1, $a2
	add.d	$a3, $a6, $a2
	add.d	$a2, $a0, $a2
	.p2align	4, , 16
.LBB0_168:                              # %vec.epilog.scalar.ph
                                        #   Parent Loop BB0_2 Depth=1
                                        # =>  This Inner Loop Header: Depth=2
	ld.b	$a4, $a2, 0
	st.b	$a4, $a3, 0
	addi.d	$a1, $a1, -1
	addi.d	$a3, $a3, 1
	addi.d	$a2, $a2, 1
	bnez	$a1, .LBB0_168
.LBB0_169:                              # %._crit_edge.thread.i.i
                                        #   in Loop: Header=BB0_2 Depth=1
	move	$s7, $a6
	pcaddu18i	$ra, %call36(_ZdaPv)
	jirl	$ra, $ra, 0
	move	$a6, $s7
	ld.d	$a0, $sp, 96                    # 8-byte Folded Reload
	ld.w	$a1, $a0, 0
.LBB0_170:                              #   in Loop: Header=BB0_2 Depth=1
	st.d	$a6, $s0, 0
	stx.b	$zero, $a6, $a1
	ld.d	$a0, $sp, 64                    # 8-byte Folded Reload
	st.w	$a0, $s3, 0
.LBB0_171:                              #   in Loop: Header=BB0_2 Depth=1
	ld.d	$s7, $s0, 0
.Ltmp64:
	move	$a0, $fp
	move	$a1, $s7
	move	$a2, $s5
	pcaddu18i	$ra, %call36(_Z16ReadStream_FALSEP19ISequentialInStreamPvm)
	jirl	$ra, $ra, 0
.Ltmp65:
# %bb.172:                              #   in Loop: Header=BB0_2 Depth=1
	bnez	$a0, .LBB0_240
# %bb.173:                              #   in Loop: Header=BB0_2 Depth=1
	ld.w	$a0, $s6, 120
	ld.d	$a1, $s6, 16
	ld.d	$s0, $s0, 0
	add.d	$a0, $a0, $s5
	st.w	$a0, $s6, 120
	stx.b	$zero, $s7, $a1
	move	$a0, $s0
	pcaddu18i	$ra, %call36(strlen)
	jirl	$ra, $ra, 0
	addi.w	$a1, $a0, 0
	stx.b	$zero, $s0, $a1
	ld.d	$a1, $sp, 96                    # 8-byte Folded Reload
	st.w	$a0, $a1, 0
	move	$s3, $s6
	move	$s5, $s8
	ori	$s0, $zero, 512
	addi.d	$s6, $sp, 712
	ori	$s8, $zero, 32
	ori	$s7, $zero, 7
	b	.LBB0_2
.LBB0_174:                              # %._crit_edge.i.i125.i
                                        #   in Loop: Header=BB0_2 Depth=1
	bnez	$a0, .LBB0_183
	b	.LBB0_184
.LBB0_175:                              # %._crit_edge.i.i.i
                                        #   in Loop: Header=BB0_2 Depth=1
	bnez	$a0, .LBB0_192
	b	.LBB0_193
.LBB0_176:                              # %._crit_edge.i.i144.i
                                        #   in Loop: Header=BB0_2 Depth=1
	bnez	$a0, .LBB0_202
	b	.LBB0_203
.LBB0_177:                              # %vector.ph365
                                        #   in Loop: Header=BB0_2 Depth=1
	bstrpick.d	$a2, $a1, 30, 5
	slli.d	$a2, $a2, 5
	addi.d	$a3, $s5, 16
	addi.d	$a4, $a0, 16
	move	$a5, $a2
	.p2align	4, , 16
.LBB0_178:                              # %vector.body368
                                        #   Parent Loop BB0_2 Depth=1
                                        # =>  This Inner Loop Header: Depth=2
	vld	$vr0, $a4, -16
	vld	$vr1, $a4, 0
	vst	$vr0, $a3, -16
	vst	$vr1, $a3, 0
	addi.d	$a5, $a5, -32
	addi.d	$a3, $a3, 32
	addi.d	$a4, $a4, 32
	bnez	$a5, .LBB0_178
# %bb.179:                              # %middle.block373
                                        #   in Loop: Header=BB0_2 Depth=1
	beq	$a2, $a1, .LBB0_183
# %bb.180:                              # %vec.epilog.iter.check378
                                        #   in Loop: Header=BB0_2 Depth=1
	andi	$a3, $a1, 16
	bnez	$a3, .LBB0_56
.LBB0_181:                              # %vec.epilog.scalar.ph376.preheader
                                        #   in Loop: Header=BB0_2 Depth=1
	sub.d	$a1, $a1, $a2
	add.d	$a3, $s5, $a2
	add.d	$a2, $a0, $a2
	.p2align	4, , 16
.LBB0_182:                              # %vec.epilog.scalar.ph376
                                        #   Parent Loop BB0_2 Depth=1
                                        # =>  This Inner Loop Header: Depth=2
	ld.b	$a4, $a2, 0
	st.b	$a4, $a3, 0
	addi.d	$a1, $a1, -1
	addi.d	$a3, $a3, 1
	addi.d	$a2, $a2, 1
	bnez	$a1, .LBB0_182
.LBB0_183:                              # %._crit_edge.thread.i.i126.i
                                        #   in Loop: Header=BB0_2 Depth=1
	pcaddu18i	$ra, %call36(_ZdaPv)
	jirl	$ra, $ra, 0
	ld.d	$a0, $sp, 88                    # 8-byte Folded Reload
	ld.w	$a1, $a0, 8
.LBB0_184:                              #   in Loop: Header=BB0_2 Depth=1
	ld.d	$a2, $sp, 88                    # 8-byte Folded Reload
	st.d	$s5, $a2, 0
	stx.b	$zero, $s5, $a1
	ori	$a0, $zero, 49
	st.w	$a0, $a2, 12
.LBB0_185:                              # %_ZN11CStringBaseIcE11SetCapacityEi.exit.i119.i
                                        #   in Loop: Header=BB0_2 Depth=1
	pcalau12i	$a0, %pc_hi20(.LCPI0_4)
	vld	$vr0, $a0, %pc_lo12(.LCPI0_4)
	pcalau12i	$a0, %pc_hi20(.LCPI0_5)
	vld	$vr1, $a0, %pc_lo12(.LCPI0_5)
	pcalau12i	$a0, %pc_hi20(.LCPI0_6)
	vld	$vr2, $a0, %pc_lo12(.LCPI0_6)
	vst	$vr0, $s5, 0
	vst	$vr1, $s5, 16
	vst	$vr2, $s5, 32
	st.b	$zero, $s5, 48
	ori	$a1, $zero, 48
	b	.LBB0_195
.LBB0_186:                              # %vector.ph398
                                        #   in Loop: Header=BB0_2 Depth=1
	bstrpick.d	$a2, $a1, 30, 5
	slli.d	$a2, $a2, 5
	addi.d	$a3, $s5, 16
	addi.d	$a4, $a0, 16
	move	$a5, $a2
	.p2align	4, , 16
.LBB0_187:                              # %vector.body401
                                        #   Parent Loop BB0_2 Depth=1
                                        # =>  This Inner Loop Header: Depth=2
	vld	$vr0, $a4, -16
	vld	$vr1, $a4, 0
	vst	$vr0, $a3, -16
	vst	$vr1, $a3, 0
	addi.d	$a5, $a5, -32
	addi.d	$a3, $a3, 32
	addi.d	$a4, $a4, 32
	bnez	$a5, .LBB0_187
# %bb.188:                              # %middle.block406
                                        #   in Loop: Header=BB0_2 Depth=1
	beq	$a2, $a1, .LBB0_192
# %bb.189:                              # %vec.epilog.iter.check411
                                        #   in Loop: Header=BB0_2 Depth=1
	andi	$a3, $a1, 16
	bnez	$a3, .LBB0_90
.LBB0_190:                              # %vec.epilog.scalar.ph409.preheader
                                        #   in Loop: Header=BB0_2 Depth=1
	sub.d	$a1, $a1, $a2
	add.d	$a3, $s5, $a2
	add.d	$a2, $a0, $a2
	.p2align	4, , 16
.LBB0_191:                              # %vec.epilog.scalar.ph409
                                        #   Parent Loop BB0_2 Depth=1
                                        # =>  This Inner Loop Header: Depth=2
	ld.b	$a4, $a2, 0
	st.b	$a4, $a3, 0
	addi.d	$a1, $a1, -1
	addi.d	$a3, $a3, 1
	addi.d	$a2, $a2, 1
	bnez	$a1, .LBB0_191
.LBB0_192:                              # %._crit_edge.thread.i.i.i
                                        #   in Loop: Header=BB0_2 Depth=1
	pcaddu18i	$ra, %call36(_ZdaPv)
	jirl	$ra, $ra, 0
	ld.d	$a0, $sp, 88                    # 8-byte Folded Reload
	ld.w	$a1, $a0, 8
.LBB0_193:                              #   in Loop: Header=BB0_2 Depth=1
	ld.d	$a2, $sp, 88                    # 8-byte Folded Reload
	st.d	$s5, $a2, 0
	stx.b	$zero, $s5, $a1
	ori	$a0, $zero, 42
	st.w	$a0, $a2, 12
.LBB0_194:                              # %_ZN11CStringBaseIcE11SetCapacityEi.exit.i.i
                                        #   in Loop: Header=BB0_2 Depth=1
	pcalau12i	$a0, %pc_hi20(.LCPI0_2)
	vld	$vr0, $a0, %pc_lo12(.LCPI0_2)
	pcalau12i	$a0, %pc_hi20(.LCPI0_3)
	vld	$vr1, $a0, %pc_lo12(.LCPI0_3)
	vst	$vr0, $s5, 0
	vst	$vr1, $s5, 16
	ld.d	$a0, $sp, 48                    # 8-byte Folded Reload
	st.d	$a0, $s5, 32
	ori	$a0, $zero, 115
	st.h	$a0, $s5, 40
	ori	$a1, $zero, 41
.LBB0_195:                              # %.thread.sink.split.i
                                        #   in Loop: Header=BB0_2 Depth=1
	move	$a0, $zero
	ld.d	$a2, $sp, 88                    # 8-byte Folded Reload
	st.w	$a1, $a2, 8
	b	.LBB0_4
.LBB0_196:                              # %vector.ph431
                                        #   in Loop: Header=BB0_2 Depth=1
	bstrpick.d	$a2, $a1, 30, 5
	slli.d	$a2, $a2, 5
	addi.d	$a3, $s5, 16
	addi.d	$a4, $a0, 16
	move	$a5, $a2
	.p2align	4, , 16
.LBB0_197:                              # %vector.body434
                                        #   Parent Loop BB0_2 Depth=1
                                        # =>  This Inner Loop Header: Depth=2
	vld	$vr0, $a4, -16
	vld	$vr1, $a4, 0
	vst	$vr0, $a3, -16
	vst	$vr1, $a3, 0
	addi.d	$a5, $a5, -32
	addi.d	$a3, $a3, 32
	addi.d	$a4, $a4, 32
	bnez	$a5, .LBB0_197
# %bb.198:                              # %middle.block439
                                        #   in Loop: Header=BB0_2 Depth=1
	beq	$a2, $a1, .LBB0_202
# %bb.199:                              # %vec.epilog.iter.check444
                                        #   in Loop: Header=BB0_2 Depth=1
	andi	$a3, $a1, 16
	bnez	$a3, .LBB0_100
.LBB0_200:                              # %vec.epilog.scalar.ph442.preheader
                                        #   in Loop: Header=BB0_2 Depth=1
	sub.d	$a1, $a1, $a2
	add.d	$a3, $s5, $a2
	add.d	$a2, $a0, $a2
	.p2align	4, , 16
.LBB0_201:                              # %vec.epilog.scalar.ph442
                                        #   Parent Loop BB0_2 Depth=1
                                        # =>  This Inner Loop Header: Depth=2
	ld.b	$a4, $a2, 0
	st.b	$a4, $a3, 0
	addi.d	$a1, $a1, -1
	addi.d	$a3, $a3, 1
	addi.d	$a2, $a2, 1
	bnez	$a1, .LBB0_201
.LBB0_202:                              # %._crit_edge.thread.i.i145.i
                                        #   in Loop: Header=BB0_2 Depth=1
	pcaddu18i	$ra, %call36(_ZdaPv)
	jirl	$ra, $ra, 0
	ld.d	$a0, $sp, 88                    # 8-byte Folded Reload
	ld.w	$a1, $a0, 8
.LBB0_203:                              #   in Loop: Header=BB0_2 Depth=1
	ld.d	$a2, $sp, 88                    # 8-byte Folded Reload
	st.d	$s5, $a2, 0
	stx.b	$zero, $s5, $a1
	ori	$a0, $zero, 36
	st.w	$a0, $a2, 12
.LBB0_204:                              # %.thread161
                                        #   in Loop: Header=BB0_2 Depth=1
	pcalau12i	$a0, %pc_hi20(.LCPI0_0)
	vld	$vr0, $a0, %pc_lo12(.LCPI0_0)
	pcalau12i	$a0, %pc_hi20(.LCPI0_1)
	vld	$vr1, $a0, %pc_lo12(.LCPI0_1)
	vst	$vr0, $s5, 0
	vst	$vr1, $s5, 16
	ld.d	$a0, $sp, 40                    # 8-byte Folded Reload
	st.w	$a0, $s5, 32
	ori	$a0, $zero, 35
	st.w	$a0, $a2, 8
	ld.bu	$a0, $s1, 0
	bnez	$a0, .LBB0_6
.LBB0_205:
	move	$a0, $zero
	ld.d	$a1, $sp, 120
	bnez	$a1, .LBB0_241
	b	.LBB0_242
.LBB0_206:
	ori	$a2, $zero, 1
	sll.d	$a0, $a2, $a0
	lu12i.w	$a2, 256
	ori	$a2, $a2, 1
	lu32i.d	$a2, 8
	lu52i.d	$a2, $a2, 1
	and	$a0, $a0, $a2
	beqz	$a0, .LBB0_221
.LBB0_207:                              # %.loopexit173
	ld.d	$a0, $sp, 72                    # 8-byte Folded Reload
	andi	$a0, $a0, 1
	beqz	$a0, .LBB0_236
# %bb.208:
	ld.d	$a0, $s6, 0
	st.w	$zero, $s6, 8
	st.b	$zero, $a0, 0
	ld.w	$s0, $sp, 136
	ld.w	$s3, $s6, 12
	addi.w	$s2, $s0, 1
	bne	$s2, $s3, .LBB0_211
# %bb.209:                              # %._ZN11CStringBaseIcE11SetCapacityEi.exit_crit_edge.i
	ld.d	$s1, $s6, 0
	b	.LBB0_233
.LBB0_210:                              # %.thread
	ori	$a0, $zero, 1
	ld.d	$a1, $sp, 120
	bnez	$a1, .LBB0_241
	b	.LBB0_242
.LBB0_211:
.Ltmp67:
	move	$a0, $s2
	pcaddu18i	$ra, %call36(_Znam)
	jirl	$ra, $ra, 0
.Ltmp68:
# %bb.212:                              # %.noexc124
	move	$s1, $a0
	ld.w	$a1, $s6, 8
	blez	$s3, .LBB0_232
# %bb.213:                              # %.preheader.i.i115
	ld.d	$a0, $s6, 0
	blez	$a1, .LBB0_224
# %bb.214:                              # %iter.check471
	ori	$a3, $zero, 16
	move	$a2, $zero
	bltu	$a1, $a3, .LBB0_229
# %bb.215:                              # %iter.check471
	sub.d	$a3, $s1, $a0
	ori	$a4, $zero, 31
	bgeu	$a4, $a3, .LBB0_229
# %bb.216:                              # %vector.main.loop.iter.check473
	ori	$a2, $zero, 32
	bgeu	$a1, $a2, .LBB0_225
# %bb.217:
	move	$a2, $zero
.LBB0_218:                              # %vec.epilog.ph486
	move	$a5, $a2
	bstrpick.d	$a2, $a1, 30, 4
	slli.d	$a2, $a2, 4
	sub.d	$a3, $a5, $a2
	add.d	$a4, $s1, $a5
	add.d	$a5, $a0, $a5
	.p2align	4, , 16
.LBB0_219:                              # %vec.epilog.vector.body492
                                        # =>This Inner Loop Header: Depth=1
	vld	$vr0, $a5, 0
	vst	$vr0, $a4, 0
	addi.d	$a3, $a3, 16
	addi.d	$a4, $a4, 16
	addi.d	$a5, $a5, 16
	bnez	$a3, .LBB0_219
# %bb.220:                              # %vec.epilog.middle.block496
	bne	$a2, $a1, .LBB0_229
	b	.LBB0_231
.LBB0_221:
	ext.w.b	$a2, $a1
	ori	$a3, $zero, 55
	ori	$a0, $zero, 1
	blt	$a3, $a2, .LBB0_240
# %bb.222:
	ori	$a3, $zero, 47
	blt	$a3, $a2, .LBB0_207
# %bb.223:
	bnez	$a1, .LBB0_240
	b	.LBB0_207
.LBB0_224:                              # %._crit_edge.i.i117
	bnez	$a0, .LBB0_231
	b	.LBB0_232
.LBB0_225:                              # %vector.ph474
	bstrpick.d	$a2, $a1, 30, 5
	slli.d	$a2, $a2, 5
	addi.d	$a3, $s1, 16
	addi.d	$a4, $a0, 16
	move	$a5, $a2
.LBB0_226:                              # %vector.body477
                                        # =>This Inner Loop Header: Depth=1
	vld	$vr0, $a4, -16
	vld	$vr1, $a4, 0
	vst	$vr0, $a3, -16
	vst	$vr1, $a3, 0
	addi.d	$a5, $a5, -32
	addi.d	$a3, $a3, 32
	addi.d	$a4, $a4, 32
	bnez	$a5, .LBB0_226
# %bb.227:                              # %middle.block482
	beq	$a2, $a1, .LBB0_231
# %bb.228:                              # %vec.epilog.iter.check487
	andi	$a3, $a1, 16
	bnez	$a3, .LBB0_218
.LBB0_229:                              # %vec.epilog.scalar.ph485.preheader
	sub.d	$a1, $a1, $a2
	add.d	$a3, $s1, $a2
	add.d	$a2, $a0, $a2
	.p2align	4, , 16
.LBB0_230:                              # %vec.epilog.scalar.ph485
                                        # =>This Inner Loop Header: Depth=1
	ld.b	$a4, $a2, 0
	st.b	$a4, $a3, 0
	addi.d	$a1, $a1, -1
	addi.d	$a3, $a3, 1
	addi.d	$a2, $a2, 1
	bnez	$a1, .LBB0_230
.LBB0_231:                              # %._crit_edge.thread.i.i118
	pcaddu18i	$ra, %call36(_ZdaPv)
	jirl	$ra, $ra, 0
	ld.w	$a1, $s6, 8
.LBB0_232:
	st.d	$s1, $s6, 0
	stx.b	$zero, $s1, $a1
	st.w	$s2, $s6, 12
.LBB0_233:                              # %_ZN11CStringBaseIcE11SetCapacityEi.exit.i
	ld.d	$a0, $sp, 144
	.p2align	4, , 16
.LBB0_234:                              # =>This Inner Loop Header: Depth=1
	ld.bu	$a1, $a0, 0
	addi.d	$a0, $a0, 1
	addi.d	$a2, $s1, 1
	st.b	$a1, $s1, 0
	move	$s1, $a2
	bnez	$a1, .LBB0_234
# %bb.235:                              # %_Z12MyStringCopyIcEPT_S1_PKS0_.exit.i
	st.w	$s0, $s6, 8
.LBB0_236:                              # %_ZN11CStringBaseIcEaSERKS0_.exit
	ld.d	$a0, $sp, 80                    # 8-byte Folded Reload
	andi	$a0, $a0, 1
	beqz	$a0, .LBB0_239
# %bb.237:
	ld.d	$a0, $s6, 48
	st.w	$zero, $s6, 56
	st.b	$zero, $a0, 0
	ld.w	$s0, $sp, 112
	ld.w	$s3, $s6, 60
	addi.w	$s2, $s0, 1
	bne	$s2, $s3, .LBB0_245
# %bb.238:                              # %._ZN11CStringBaseIcE11SetCapacityEi.exit_crit_edge.i141
	ld.d	$a0, $sp, 56                    # 8-byte Folded Reload
	ld.d	$s1, $a0, 0
	b	.LBB0_264
.LBB0_239:
	move	$a0, $zero
.LBB0_240:                              # %_ZN11CStringBaseIcEaSERKS0_.exit144
	ld.d	$a1, $sp, 120
	beqz	$a1, .LBB0_242
.LBB0_241:
	move	$fp, $a0
	move	$a0, $a1
	pcaddu18i	$ra, %call36(_ZdaPv)
	jirl	$ra, $ra, 0
	move	$a0, $fp
.LBB0_242:                              # %_ZN11CStringBaseIcED2Ev.exit
	ld.d	$a1, $sp, 144
	beqz	$a1, .LBB0_244
# %bb.243:
	move	$fp, $a0
	move	$a0, $a1
	pcaddu18i	$ra, %call36(_ZdaPv)
	jirl	$ra, $ra, 0
	move	$a0, $fp
.LBB0_244:                              # %_ZN11CStringBaseIcED2Ev.exit145
	ld.d	$s8, $sp, 744                   # 8-byte Folded Reload
	ld.d	$s7, $sp, 752                   # 8-byte Folded Reload
	ld.d	$s6, $sp, 760                   # 8-byte Folded Reload
	ld.d	$s5, $sp, 768                   # 8-byte Folded Reload
	ld.d	$s4, $sp, 776                   # 8-byte Folded Reload
	ld.d	$s3, $sp, 784                   # 8-byte Folded Reload
	ld.d	$s2, $sp, 792                   # 8-byte Folded Reload
	ld.d	$s1, $sp, 800                   # 8-byte Folded Reload
	ld.d	$s0, $sp, 808                   # 8-byte Folded Reload
	ld.d	$fp, $sp, 816                   # 8-byte Folded Reload
	ld.d	$ra, $sp, 824                   # 8-byte Folded Reload
	addi.d	$sp, $sp, 832
	ret
.LBB0_245:
.Ltmp69:
	move	$a0, $s2
	pcaddu18i	$ra, %call36(_Znam)
	jirl	$ra, $ra, 0
.Ltmp70:
# %bb.246:                              # %.noexc143
	move	$s1, $a0
	ld.w	$a1, $s6, 56
	blez	$s3, .LBB0_263
# %bb.247:                              # %.preheader.i.i131
	ld.d	$a0, $sp, 56                    # 8-byte Folded Reload
	ld.d	$a0, $a0, 0
	blez	$a1, .LBB0_255
# %bb.248:                              # %iter.check505
	ori	$a3, $zero, 16
	move	$a2, $zero
	bltu	$a1, $a3, .LBB0_260
# %bb.249:                              # %iter.check505
	sub.d	$a3, $s1, $a0
	ori	$a4, $zero, 31
	bgeu	$a4, $a3, .LBB0_260
# %bb.250:                              # %vector.main.loop.iter.check507
	ori	$a2, $zero, 32
	bgeu	$a1, $a2, .LBB0_256
# %bb.251:
	move	$a2, $zero
.LBB0_252:                              # %vec.epilog.ph520
	move	$a5, $a2
	bstrpick.d	$a2, $a1, 30, 4
	slli.d	$a2, $a2, 4
	sub.d	$a3, $a5, $a2
	add.d	$a4, $s1, $a5
	add.d	$a5, $a0, $a5
	.p2align	4, , 16
.LBB0_253:                              # %vec.epilog.vector.body526
                                        # =>This Inner Loop Header: Depth=1
	vld	$vr0, $a5, 0
	vst	$vr0, $a4, 0
	addi.d	$a3, $a3, 16
	addi.d	$a4, $a4, 16
	addi.d	$a5, $a5, 16
	bnez	$a3, .LBB0_253
# %bb.254:                              # %vec.epilog.middle.block530
	bne	$a2, $a1, .LBB0_260
	b	.LBB0_262
.LBB0_255:                              # %._crit_edge.i.i133
	bnez	$a0, .LBB0_262
	b	.LBB0_263
.LBB0_256:                              # %vector.ph508
	bstrpick.d	$a2, $a1, 30, 5
	slli.d	$a2, $a2, 5
	addi.d	$a3, $s1, 16
	addi.d	$a4, $a0, 16
	move	$a5, $a2
.LBB0_257:                              # %vector.body511
                                        # =>This Inner Loop Header: Depth=1
	vld	$vr0, $a4, -16
	vld	$vr1, $a4, 0
	vst	$vr0, $a3, -16
	vst	$vr1, $a3, 0
	addi.d	$a5, $a5, -32
	addi.d	$a3, $a3, 32
	addi.d	$a4, $a4, 32
	bnez	$a5, .LBB0_257
# %bb.258:                              # %middle.block516
	beq	$a2, $a1, .LBB0_262
# %bb.259:                              # %vec.epilog.iter.check521
	andi	$a3, $a1, 16
	bnez	$a3, .LBB0_252
.LBB0_260:                              # %vec.epilog.scalar.ph519.preheader
	sub.d	$a1, $a1, $a2
	add.d	$a3, $s1, $a2
	add.d	$a2, $a0, $a2
	.p2align	4, , 16
.LBB0_261:                              # %vec.epilog.scalar.ph519
                                        # =>This Inner Loop Header: Depth=1
	ld.b	$a4, $a2, 0
	st.b	$a4, $a3, 0
	addi.d	$a1, $a1, -1
	addi.d	$a3, $a3, 1
	addi.d	$a2, $a2, 1
	bnez	$a1, .LBB0_261
.LBB0_262:                              # %._crit_edge.thread.i.i134
	pcaddu18i	$ra, %call36(_ZdaPv)
	jirl	$ra, $ra, 0
	ld.w	$a1, $s6, 56
.LBB0_263:
	st.d	$s1, $s6, 48
	stx.b	$zero, $s1, $a1
	st.w	$s2, $s6, 60
.LBB0_264:                              # %_ZN11CStringBaseIcE11SetCapacityEi.exit.i126
	ld.d	$a0, $sp, 120
	.p2align	4, , 16
.LBB0_265:                              # =>This Inner Loop Header: Depth=1
	ld.bu	$a1, $a0, 0
	addi.d	$a0, $a0, 1
	addi.d	$a2, $s1, 1
	st.b	$a1, $s1, 0
	move	$s1, $a2
	bnez	$a1, .LBB0_265
# %bb.266:                              # %_Z12MyStringCopyIcEPT_S1_PKS0_.exit.i130
	move	$a0, $zero
	st.w	$s0, $s6, 56
	ld.d	$a1, $sp, 120
	bnez	$a1, .LBB0_241
	b	.LBB0_242
.LBB0_267:
.Ltmp45:
	ld.d	$a1, $sp, 184
	move	$fp, $a0
	bnez	$a1, .LBB0_274
# %bb.268:                              # %_ZN11CStringBaseIcED2Ev.exit227.i
	ld.d	$a0, $sp, 168
	bnez	$a0, .LBB0_276
.LBB0_269:                              # %_ZN11CStringBaseIcED2Ev.exit228.i
	ld.d	$a0, $sp, 152
	bnez	$a0, .LBB0_278
.LBB0_270:
	ld.d	$a0, $sp, 712
	bnez	$a0, .LBB0_283
.LBB0_271:                              # %.body
	ld.d	$a0, $sp, 120
	bnez	$a0, .LBB0_291
.LBB0_272:                              # %_ZN11CStringBaseIcED2Ev.exit146
	ld.d	$a0, $sp, 144
	bnez	$a0, .LBB0_292
.LBB0_273:                              # %_ZN11CStringBaseIcED2Ev.exit147
	move	$a0, $fp
	pcaddu18i	$ra, %call36(_Unwind_Resume)
	jirl	$ra, $ra, 0
.LBB0_274:
	move	$a0, $a1
	pcaddu18i	$ra, %call36(_ZdaPv)
	jirl	$ra, $ra, 0
	ld.d	$a0, $sp, 168
	beqz	$a0, .LBB0_269
	b	.LBB0_276
.LBB0_275:
.Ltmp42:
	move	$fp, $a0
	ld.d	$a0, $sp, 168
	beqz	$a0, .LBB0_269
.LBB0_276:
	pcaddu18i	$ra, %call36(_ZdaPv)
	jirl	$ra, $ra, 0
	ld.d	$a0, $sp, 152
	beqz	$a0, .LBB0_270
	b	.LBB0_278
.LBB0_277:
.Ltmp39:
	move	$fp, $a0
	ld.d	$a0, $sp, 152
	beqz	$a0, .LBB0_270
.LBB0_278:
	pcaddu18i	$ra, %call36(_ZdaPv)
	jirl	$ra, $ra, 0
	ld.d	$a0, $sp, 712
	beqz	$a0, .LBB0_271
	b	.LBB0_283
.LBB0_279:
.Ltmp36:
	b	.LBB0_282
.LBB0_280:
.Ltmp71:
	b	.LBB0_290
.LBB0_281:
.Ltmp33:
.LBB0_282:
	move	$fp, $a0
	ld.d	$a0, $sp, 712
	beqz	$a0, .LBB0_271
.LBB0_283:
	pcaddu18i	$ra, %call36(_ZdaPv)
	jirl	$ra, $ra, 0
	ld.d	$a0, $sp, 120
	beqz	$a0, .LBB0_272
	b	.LBB0_291
.LBB0_284:
.Ltmp63:
	b	.LBB0_290
.LBB0_285:
.Ltmp2:
	move	$fp, $a0
	ld.d	$a0, $sp, 144
	beqz	$a0, .LBB0_273
	b	.LBB0_292
.LBB0_286:
.Ltmp66:
	b	.LBB0_290
.LBB0_287:
.Ltmp60:
	b	.LBB0_290
.LBB0_288:                              # %.loopexit.split-lp
.Ltmp55:
	b	.LBB0_290
.LBB0_289:                              # %.loopexit
.Ltmp50:
.LBB0_290:                              # %.body
	move	$fp, $a0
	ld.d	$a0, $sp, 120
	beqz	$a0, .LBB0_272
.LBB0_291:
	pcaddu18i	$ra, %call36(_ZdaPv)
	jirl	$ra, $ra, 0
	ld.d	$a0, $sp, 144
	beqz	$a0, .LBB0_273
.LBB0_292:
	pcaddu18i	$ra, %call36(_ZdaPv)
	jirl	$ra, $ra, 0
	move	$a0, $fp
	pcaddu18i	$ra, %call36(_Unwind_Resume)
	jirl	$ra, $ra, 0
.Lfunc_end0:
	.size	_ZN8NArchive4NTar8ReadItemEP19ISequentialInStreamRbRNS0_7CItemExER11CStringBaseIcE, .Lfunc_end0-_ZN8NArchive4NTar8ReadItemEP19ISequentialInStreamRbRNS0_7CItemExER11CStringBaseIcE
	.cfi_endproc
	.section	.gcc_except_table,"a",@progbits
	.p2align	2, 0x0
GCC_except_table0:
.Lexception0:
	.byte	255                             # @LPStart Encoding = omit
	.byte	255                             # @TType Encoding = omit
	.byte	1                               # Call site Encoding = uleb128
	.uleb128 .Lcst_end0-.Lcst_begin0
.Lcst_begin0:
	.uleb128 .Lfunc_begin0-.Lfunc_begin0    # >> Call Site 1 <<
	.uleb128 .Ltmp0-.Lfunc_begin0           #   Call between .Lfunc_begin0 and .Ltmp0
	.byte	0                               #     has no landing pad
	.byte	0                               #   On action: cleanup
	.uleb128 .Ltmp0-.Lfunc_begin0           # >> Call Site 2 <<
	.uleb128 .Ltmp1-.Ltmp0                  #   Call between .Ltmp0 and .Ltmp1
	.uleb128 .Ltmp2-.Lfunc_begin0           #     jumps to .Ltmp2
	.byte	0                               #   On action: cleanup
	.uleb128 .Ltmp3-.Lfunc_begin0           # >> Call Site 3 <<
	.uleb128 .Ltmp4-.Ltmp3                  #   Call between .Ltmp3 and .Ltmp4
	.uleb128 .Ltmp55-.Lfunc_begin0          #     jumps to .Ltmp55
	.byte	0                               #   On action: cleanup
	.uleb128 .Ltmp56-.Lfunc_begin0          # >> Call Site 4 <<
	.uleb128 .Ltmp59-.Ltmp56                #   Call between .Ltmp56 and .Ltmp59
	.uleb128 .Ltmp60-.Lfunc_begin0          #     jumps to .Ltmp60
	.byte	0                               #   On action: cleanup
	.uleb128 .Ltmp61-.Lfunc_begin0          # >> Call Site 5 <<
	.uleb128 .Ltmp62-.Ltmp61                #   Call between .Ltmp61 and .Ltmp62
	.uleb128 .Ltmp63-.Lfunc_begin0          #     jumps to .Ltmp63
	.byte	0                               #   On action: cleanup
	.uleb128 .Ltmp48-.Lfunc_begin0          # >> Call Site 6 <<
	.uleb128 .Ltmp49-.Ltmp48                #   Call between .Ltmp48 and .Ltmp49
	.uleb128 .Ltmp50-.Lfunc_begin0          #     jumps to .Ltmp50
	.byte	0                               #   On action: cleanup
	.uleb128 .Ltmp53-.Lfunc_begin0          # >> Call Site 7 <<
	.uleb128 .Ltmp30-.Ltmp53                #   Call between .Ltmp53 and .Ltmp30
	.uleb128 .Ltmp55-.Lfunc_begin0          #     jumps to .Ltmp55
	.byte	0                               #   On action: cleanup
	.uleb128 .Ltmp31-.Lfunc_begin0          # >> Call Site 8 <<
	.uleb128 .Ltmp32-.Ltmp31                #   Call between .Ltmp31 and .Ltmp32
	.uleb128 .Ltmp33-.Lfunc_begin0          #     jumps to .Ltmp33
	.byte	0                               #   On action: cleanup
	.uleb128 .Ltmp32-.Lfunc_begin0          # >> Call Site 9 <<
	.uleb128 .Ltmp34-.Ltmp32                #   Call between .Ltmp32 and .Ltmp34
	.byte	0                               #     has no landing pad
	.byte	0                               #   On action: cleanup
	.uleb128 .Ltmp34-.Lfunc_begin0          # >> Call Site 10 <<
	.uleb128 .Ltmp35-.Ltmp34                #   Call between .Ltmp34 and .Ltmp35
	.uleb128 .Ltmp36-.Lfunc_begin0          #     jumps to .Ltmp36
	.byte	0                               #   On action: cleanup
	.uleb128 .Ltmp37-.Lfunc_begin0          # >> Call Site 11 <<
	.uleb128 .Ltmp38-.Ltmp37                #   Call between .Ltmp37 and .Ltmp38
	.uleb128 .Ltmp39-.Lfunc_begin0          #     jumps to .Ltmp39
	.byte	0                               #   On action: cleanup
	.uleb128 .Ltmp40-.Lfunc_begin0          # >> Call Site 12 <<
	.uleb128 .Ltmp41-.Ltmp40                #   Call between .Ltmp40 and .Ltmp41
	.uleb128 .Ltmp42-.Lfunc_begin0          #     jumps to .Ltmp42
	.byte	0                               #   On action: cleanup
	.uleb128 .Ltmp43-.Lfunc_begin0          # >> Call Site 13 <<
	.uleb128 .Ltmp44-.Ltmp43                #   Call between .Ltmp43 and .Ltmp44
	.uleb128 .Ltmp45-.Lfunc_begin0          #     jumps to .Ltmp45
	.byte	0                               #   On action: cleanup
	.uleb128 .Ltmp44-.Lfunc_begin0          # >> Call Site 14 <<
	.uleb128 .Ltmp64-.Ltmp44                #   Call between .Ltmp44 and .Ltmp64
	.byte	0                               #     has no landing pad
	.byte	0                               #   On action: cleanup
	.uleb128 .Ltmp64-.Lfunc_begin0          # >> Call Site 15 <<
	.uleb128 .Ltmp65-.Ltmp64                #   Call between .Ltmp64 and .Ltmp65
	.uleb128 .Ltmp66-.Lfunc_begin0          #     jumps to .Ltmp66
	.byte	0                               #   On action: cleanup
	.uleb128 .Ltmp65-.Lfunc_begin0          # >> Call Site 16 <<
	.uleb128 .Ltmp67-.Ltmp65                #   Call between .Ltmp65 and .Ltmp67
	.byte	0                               #     has no landing pad
	.byte	0                               #   On action: cleanup
	.uleb128 .Ltmp67-.Lfunc_begin0          # >> Call Site 17 <<
	.uleb128 .Ltmp68-.Ltmp67                #   Call between .Ltmp67 and .Ltmp68
	.uleb128 .Ltmp71-.Lfunc_begin0          #     jumps to .Ltmp71
	.byte	0                               #   On action: cleanup
	.uleb128 .Ltmp68-.Lfunc_begin0          # >> Call Site 18 <<
	.uleb128 .Ltmp69-.Ltmp68                #   Call between .Ltmp68 and .Ltmp69
	.byte	0                               #     has no landing pad
	.byte	0                               #   On action: cleanup
	.uleb128 .Ltmp69-.Lfunc_begin0          # >> Call Site 19 <<
	.uleb128 .Ltmp70-.Ltmp69                #   Call between .Ltmp69 and .Ltmp70
	.uleb128 .Ltmp71-.Lfunc_begin0          #     jumps to .Ltmp71
	.byte	0                               #   On action: cleanup
	.uleb128 .Ltmp70-.Lfunc_begin0          # >> Call Site 20 <<
	.uleb128 .Lfunc_end0-.Ltmp70            #   Call between .Ltmp70 and .Lfunc_end0
	.byte	0                               #     has no landing pad
	.byte	0                               #   On action: cleanup
.Lcst_end0:
	.p2align	2, 0x0
                                        # -- End function
	.section	.text._ZN11CStringBaseIcEaSERKS0_,"axG",@progbits,_ZN11CStringBaseIcEaSERKS0_,comdat
	.weak	_ZN11CStringBaseIcEaSERKS0_     # -- Begin function _ZN11CStringBaseIcEaSERKS0_
	.p2align	5
	.type	_ZN11CStringBaseIcEaSERKS0_,@function
_ZN11CStringBaseIcEaSERKS0_:            # @_ZN11CStringBaseIcEaSERKS0_
	.cfi_startproc
# %bb.0:
	addi.d	$sp, $sp, -48
	.cfi_def_cfa_offset 48
	st.d	$ra, $sp, 40                    # 8-byte Folded Spill
	st.d	$fp, $sp, 32                    # 8-byte Folded Spill
	st.d	$s0, $sp, 24                    # 8-byte Folded Spill
	st.d	$s1, $sp, 16                    # 8-byte Folded Spill
	st.d	$s2, $sp, 8                     # 8-byte Folded Spill
	st.d	$s3, $sp, 0                     # 8-byte Folded Spill
	.cfi_offset 1, -8
	.cfi_offset 22, -16
	.cfi_offset 23, -24
	.cfi_offset 24, -32
	.cfi_offset 25, -40
	.cfi_offset 26, -48
	move	$fp, $a0
	beq	$a1, $a0, .LBB1_24
# %bb.1:
	move	$s0, $a1
	ld.d	$a0, $fp, 0
	st.w	$zero, $fp, 8
	st.b	$zero, $a0, 0
	ld.w	$a0, $a1, 8
	ld.w	$s3, $fp, 12
	addi.w	$s2, $a0, 1
	bne	$s2, $s3, .LBB1_3
# %bb.2:                                # %._ZN11CStringBaseIcE11SetCapacityEi.exit_crit_edge
	ld.d	$s1, $fp, 0
	b	.LBB1_21
.LBB1_3:
	move	$a0, $s2
	pcaddu18i	$ra, %call36(_Znam)
	jirl	$ra, $ra, 0
	ld.w	$a1, $fp, 8
	move	$s1, $a0
	blez	$s3, .LBB1_20
# %bb.4:                                # %.preheader.i
	ld.d	$a0, $fp, 0
	blez	$a1, .LBB1_12
# %bb.5:                                # %iter.check
	ori	$a3, $zero, 16
	move	$a2, $zero
	bltu	$a1, $a3, .LBB1_17
# %bb.6:                                # %iter.check
	sub.d	$a3, $s1, $a0
	ori	$a4, $zero, 31
	bgeu	$a4, $a3, .LBB1_17
# %bb.7:                                # %vector.main.loop.iter.check
	ori	$a2, $zero, 32
	bgeu	$a1, $a2, .LBB1_13
# %bb.8:
	move	$a2, $zero
.LBB1_9:                                # %vec.epilog.ph
	move	$a5, $a2
	bstrpick.d	$a2, $a1, 30, 4
	slli.d	$a2, $a2, 4
	sub.d	$a3, $a5, $a2
	add.d	$a4, $s1, $a5
	add.d	$a5, $a0, $a5
	.p2align	4, , 16
.LBB1_10:                               # %vec.epilog.vector.body
                                        # =>This Inner Loop Header: Depth=1
	vld	$vr0, $a5, 0
	vst	$vr0, $a4, 0
	addi.d	$a3, $a3, 16
	addi.d	$a4, $a4, 16
	addi.d	$a5, $a5, 16
	bnez	$a3, .LBB1_10
# %bb.11:                               # %vec.epilog.middle.block
	bne	$a2, $a1, .LBB1_17
	b	.LBB1_19
.LBB1_12:                               # %._crit_edge.i
	bnez	$a0, .LBB1_19
	b	.LBB1_20
.LBB1_13:                               # %vector.ph
	bstrpick.d	$a2, $a1, 30, 5
	slli.d	$a2, $a2, 5
	addi.d	$a3, $s1, 16
	addi.d	$a4, $a0, 16
	move	$a5, $a2
	.p2align	4, , 16
.LBB1_14:                               # %vector.body
                                        # =>This Inner Loop Header: Depth=1
	vld	$vr0, $a4, -16
	vld	$vr1, $a4, 0
	vst	$vr0, $a3, -16
	vst	$vr1, $a3, 0
	addi.d	$a5, $a5, -32
	addi.d	$a3, $a3, 32
	addi.d	$a4, $a4, 32
	bnez	$a5, .LBB1_14
# %bb.15:                               # %middle.block
	beq	$a2, $a1, .LBB1_19
# %bb.16:                               # %vec.epilog.iter.check
	andi	$a3, $a1, 16
	bnez	$a3, .LBB1_9
.LBB1_17:                               # %vec.epilog.scalar.ph.preheader
	sub.d	$a1, $a1, $a2
	add.d	$a3, $s1, $a2
	add.d	$a2, $a0, $a2
	.p2align	4, , 16
.LBB1_18:                               # %vec.epilog.scalar.ph
                                        # =>This Inner Loop Header: Depth=1
	ld.b	$a4, $a2, 0
	st.b	$a4, $a3, 0
	addi.d	$a1, $a1, -1
	addi.d	$a3, $a3, 1
	addi.d	$a2, $a2, 1
	bnez	$a1, .LBB1_18
.LBB1_19:                               # %._crit_edge.thread.i
	pcaddu18i	$ra, %call36(_ZdaPv)
	jirl	$ra, $ra, 0
	ld.w	$a1, $fp, 8
.LBB1_20:
	st.d	$s1, $fp, 0
	stx.b	$zero, $s1, $a1
	st.w	$s2, $fp, 12
.LBB1_21:                               # %_ZN11CStringBaseIcE11SetCapacityEi.exit
	ld.d	$a0, $s0, 0
	.p2align	4, , 16
.LBB1_22:                               # =>This Inner Loop Header: Depth=1
	ld.bu	$a1, $a0, 0
	addi.d	$a0, $a0, 1
	addi.d	$a2, $s1, 1
	st.b	$a1, $s1, 0
	move	$s1, $a2
	bnez	$a1, .LBB1_22
# %bb.23:                               # %_Z12MyStringCopyIcEPT_S1_PKS0_.exit
	ld.w	$a0, $s0, 8
	st.w	$a0, $fp, 8
.LBB1_24:
	move	$a0, $fp
	ld.d	$s3, $sp, 0                     # 8-byte Folded Reload
	ld.d	$s2, $sp, 8                     # 8-byte Folded Reload
	ld.d	$s1, $sp, 16                    # 8-byte Folded Reload
	ld.d	$s0, $sp, 24                    # 8-byte Folded Reload
	ld.d	$fp, $sp, 32                    # 8-byte Folded Reload
	ld.d	$ra, $sp, 40                    # 8-byte Folded Reload
	addi.d	$sp, $sp, 48
	ret
.Lfunc_end1:
	.size	_ZN11CStringBaseIcEaSERKS0_, .Lfunc_end1-_ZN11CStringBaseIcEaSERKS0_
	.cfi_endproc
                                        # -- End function
	.text
	.p2align	5                               # -- Begin function _ZN8NArchive4NTarL10ReadStringEPKciR11CStringBaseIcE
	.type	_ZN8NArchive4NTarL10ReadStringEPKciR11CStringBaseIcE,@function
_ZN8NArchive4NTarL10ReadStringEPKciR11CStringBaseIcE: # @_ZN8NArchive4NTarL10ReadStringEPKciR11CStringBaseIcE
	.cfi_startproc
# %bb.0:
	addi.d	$sp, $sp, -576
	.cfi_def_cfa_offset 576
	st.d	$ra, $sp, 568                   # 8-byte Folded Spill
	st.d	$fp, $sp, 560                   # 8-byte Folded Spill
	st.d	$s0, $sp, 552                   # 8-byte Folded Spill
	st.d	$s1, $sp, 544                   # 8-byte Folded Spill
	st.d	$s2, $sp, 536                   # 8-byte Folded Spill
	st.d	$s3, $sp, 528                   # 8-byte Folded Spill
	.cfi_offset 1, -8
	.cfi_offset 22, -16
	.cfi_offset 23, -24
	.cfi_offset 24, -32
	.cfi_offset 25, -40
	.cfi_offset 26, -48
	move	$fp, $a2
	move	$a4, $zero
	bstrpick.d	$a1, $a1, 31, 0
	addi.d	$a2, $a1, -1
	addi.d	$a3, $sp, 15
	.p2align	4, , 16
.LBB2_1:                                # =>This Inner Loop Header: Depth=1
	move	$a5, $a4
	ldx.bu	$a4, $a0, $a4
	stx.b	$a4, $a5, $a3
	beqz	$a4, .LBB2_3
# %bb.2:                                #   in Loop: Header=BB2_1 Depth=1
	addi.d	$a4, $a5, 1
	bne	$a2, $a5, .LBB2_1
.LBB2_3:                                # %_ZN8NArchive4NTarL9MyStrNCpyEPcPKci.exit
	ld.d	$a0, $fp, 0
	addi.d	$a2, $sp, 15
	stx.b	$zero, $a1, $a2
	st.w	$zero, $fp, 8
	st.b	$zero, $a0, 0
	addi.d	$a0, $sp, 15
	pcaddu18i	$ra, %call36(strlen)
	jirl	$ra, $ra, 0
	ld.w	$s3, $fp, 12
	move	$s0, $a0
	addi.w	$s2, $a0, 1
	bne	$s2, $s3, .LBB2_5
# %bb.4:                                # %._ZN11CStringBaseIcE11SetCapacityEi.exit_crit_edge.i
	ld.d	$s1, $fp, 0
	b	.LBB2_23
.LBB2_5:
	move	$a0, $s2
	pcaddu18i	$ra, %call36(_Znam)
	jirl	$ra, $ra, 0
	ld.w	$a1, $fp, 8
	move	$s1, $a0
	blez	$s3, .LBB2_22
# %bb.6:                                # %.preheader.i.i
	ld.d	$a0, $fp, 0
	blez	$a1, .LBB2_14
# %bb.7:                                # %iter.check
	ori	$a3, $zero, 16
	move	$a2, $zero
	bltu	$a1, $a3, .LBB2_19
# %bb.8:                                # %iter.check
	sub.d	$a3, $s1, $a0
	ori	$a4, $zero, 31
	bgeu	$a4, $a3, .LBB2_19
# %bb.9:                                # %vector.main.loop.iter.check
	ori	$a2, $zero, 32
	bgeu	$a1, $a2, .LBB2_15
# %bb.10:
	move	$a2, $zero
.LBB2_11:                               # %vec.epilog.ph
	move	$a5, $a2
	bstrpick.d	$a2, $a1, 30, 4
	slli.d	$a2, $a2, 4
	sub.d	$a3, $a5, $a2
	add.d	$a4, $s1, $a5
	add.d	$a5, $a0, $a5
	.p2align	4, , 16
.LBB2_12:                               # %vec.epilog.vector.body
                                        # =>This Inner Loop Header: Depth=1
	vld	$vr0, $a5, 0
	vst	$vr0, $a4, 0
	addi.d	$a3, $a3, 16
	addi.d	$a4, $a4, 16
	addi.d	$a5, $a5, 16
	bnez	$a3, .LBB2_12
# %bb.13:                               # %vec.epilog.middle.block
	bne	$a2, $a1, .LBB2_19
	b	.LBB2_21
.LBB2_14:                               # %._crit_edge.i.i
	bnez	$a0, .LBB2_21
	b	.LBB2_22
.LBB2_15:                               # %vector.ph
	bstrpick.d	$a2, $a1, 30, 5
	slli.d	$a2, $a2, 5
	addi.d	$a3, $s1, 16
	addi.d	$a4, $a0, 16
	move	$a5, $a2
	.p2align	4, , 16
.LBB2_16:                               # %vector.body
                                        # =>This Inner Loop Header: Depth=1
	vld	$vr0, $a4, -16
	vld	$vr1, $a4, 0
	vst	$vr0, $a3, -16
	vst	$vr1, $a3, 0
	addi.d	$a5, $a5, -32
	addi.d	$a3, $a3, 32
	addi.d	$a4, $a4, 32
	bnez	$a5, .LBB2_16
# %bb.17:                               # %middle.block
	beq	$a2, $a1, .LBB2_21
# %bb.18:                               # %vec.epilog.iter.check
	andi	$a3, $a1, 16
	bnez	$a3, .LBB2_11
.LBB2_19:                               # %vec.epilog.scalar.ph.preheader
	sub.d	$a1, $a1, $a2
	add.d	$a3, $s1, $a2
	add.d	$a2, $a0, $a2
	.p2align	4, , 16
.LBB2_20:                               # %vec.epilog.scalar.ph
                                        # =>This Inner Loop Header: Depth=1
	ld.b	$a4, $a2, 0
	st.b	$a4, $a3, 0
	addi.d	$a1, $a1, -1
	addi.d	$a3, $a3, 1
	addi.d	$a2, $a2, 1
	bnez	$a1, .LBB2_20
.LBB2_21:                               # %._crit_edge.thread.i.i
	pcaddu18i	$ra, %call36(_ZdaPv)
	jirl	$ra, $ra, 0
	ld.w	$a1, $fp, 8
.LBB2_22:
	st.d	$s1, $fp, 0
	stx.b	$zero, $s1, $a1
	st.w	$s2, $fp, 12
.LBB2_23:                               # %_ZN11CStringBaseIcE11SetCapacityEi.exit.i.preheader
	move	$a0, $zero
	addi.d	$a1, $sp, 15
	.p2align	4, , 16
.LBB2_24:                               # %_ZN11CStringBaseIcE11SetCapacityEi.exit.i
                                        # =>This Inner Loop Header: Depth=1
	ldx.bu	$a2, $a0, $a1
	stx.b	$a2, $s1, $a0
	addi.d	$a0, $a0, 1
	bnez	$a2, .LBB2_24
# %bb.25:                               # %_ZN11CStringBaseIcEaSEPKc.exit
	st.w	$s0, $fp, 8
	ld.d	$s3, $sp, 528                   # 8-byte Folded Reload
	ld.d	$s2, $sp, 536                   # 8-byte Folded Reload
	ld.d	$s1, $sp, 544                   # 8-byte Folded Reload
	ld.d	$s0, $sp, 552                   # 8-byte Folded Reload
	ld.d	$fp, $sp, 560                   # 8-byte Folded Reload
	ld.d	$ra, $sp, 568                   # 8-byte Folded Reload
	addi.d	$sp, $sp, 576
	ret
.Lfunc_end2:
	.size	_ZN8NArchive4NTarL10ReadStringEPKciR11CStringBaseIcE, .Lfunc_end2-_ZN8NArchive4NTarL10ReadStringEPKciR11CStringBaseIcE
	.cfi_endproc
                                        # -- End function
	.p2align	5                               # -- Begin function _ZN8NArchive4NTarL15OctalToNumber32EPKciRj
	.type	_ZN8NArchive4NTarL15OctalToNumber32EPKciRj,@function
_ZN8NArchive4NTarL15OctalToNumber32EPKciRj: # @_ZN8NArchive4NTarL15OctalToNumber32EPKciRj
	.cfi_startproc
# %bb.0:
	addi.d	$sp, $sp, -64
	.cfi_def_cfa_offset 64
	st.d	$ra, $sp, 56                    # 8-byte Folded Spill
	st.d	$fp, $sp, 48                    # 8-byte Folded Spill
	.cfi_offset 1, -8
	.cfi_offset 22, -16
	move	$fp, $a2
	move	$a4, $zero
	bstrpick.d	$a1, $a1, 31, 0
	addi.d	$a2, $a1, -1
	addi.d	$a3, $sp, 16
	.p2align	4, , 16
.LBB3_1:                                # =>This Inner Loop Header: Depth=1
	move	$a5, $a4
	ldx.bu	$a4, $a0, $a4
	stx.b	$a4, $a5, $a3
	beqz	$a4, .LBB3_3
# %bb.2:                                #   in Loop: Header=BB3_1 Depth=1
	addi.d	$a4, $a5, 1
	bne	$a2, $a5, .LBB3_1
.LBB3_3:                                # %_ZN8NArchive4NTarL9MyStrNCpyEPcPKci.exit.i
	addi.d	$a0, $sp, 16
	stx.b	$zero, $a1, $a0
	addi.d	$a0, $sp, 15
	ori	$a1, $zero, 32
	.p2align	4, , 16
.LBB3_4:                                # =>This Inner Loop Header: Depth=1
	ld.bu	$a2, $a0, 1
	addi.d	$a0, $a0, 1
	beq	$a2, $a1, .LBB3_4
# %bb.5:                                # %_ZN8NArchive4NTarL13OctalToNumberEPKciRy.exit
	addi.d	$a1, $sp, 8
	pcaddu18i	$ra, %call36(_Z24ConvertOctStringToUInt64PKcPS0_)
	jirl	$ra, $ra, 0
	ld.d	$a1, $sp, 8
	ld.bu	$a1, $a1, 0
	andi	$a1, $a1, 223
	beqz	$a1, .LBB3_7
# %bb.6:
	move	$a0, $zero
	ld.d	$fp, $sp, 48                    # 8-byte Folded Reload
	ld.d	$ra, $sp, 56                    # 8-byte Folded Reload
	addi.d	$sp, $sp, 64
	ret
.LBB3_7:
	st.w	$a0, $fp, 0
	srli.d	$a0, $a0, 32
	sltui	$a0, $a0, 1
	ld.d	$fp, $sp, 48                    # 8-byte Folded Reload
	ld.d	$ra, $sp, 56                    # 8-byte Folded Reload
	addi.d	$sp, $sp, 64
	ret
.Lfunc_end3:
	.size	_ZN8NArchive4NTarL15OctalToNumber32EPKciRj, .Lfunc_end3-_ZN8NArchive4NTarL15OctalToNumber32EPKciRj
	.cfi_endproc
                                        # -- End function
	.section	.text._ZNK8NArchive4NTar5CItem7IsMagicEv,"axG",@progbits,_ZNK8NArchive4NTar5CItem7IsMagicEv,comdat
	.weak	_ZNK8NArchive4NTar5CItem7IsMagicEv # -- Begin function _ZNK8NArchive4NTar5CItem7IsMagicEv
	.p2align	5
	.type	_ZNK8NArchive4NTar5CItem7IsMagicEv,@function
_ZNK8NArchive4NTar5CItem7IsMagicEv:     # @_ZNK8NArchive4NTar5CItem7IsMagicEv
# %bb.0:
	pcalau12i	$a1, %got_pc_hi20(_ZN8NArchive4NTar11NFileHeader6NMagic6kUsTarE)
	ld.d	$a1, $a1, %got_pc_lo12(_ZN8NArchive4NTar11NFileHeader6NMagic6kUsTarE)
	ld.d	$a1, $a1, 0
	ld.bu	$a2, $a0, 96
	ld.bu	$a3, $a1, 0
	bne	$a2, $a3, .LBB4_5
# %bb.1:
	ld.bu	$a2, $a0, 97
	ld.bu	$a3, $a1, 1
	bne	$a2, $a3, .LBB4_5
# %bb.2:
	ld.bu	$a2, $a0, 98
	ld.bu	$a3, $a1, 2
	bne	$a2, $a3, .LBB4_5
# %bb.3:
	ld.bu	$a2, $a0, 99
	ld.bu	$a3, $a1, 3
	bne	$a2, $a3, .LBB4_5
# %bb.4:
	ld.bu	$a0, $a0, 100
	ld.bu	$a1, $a1, 4
	xor	$a0, $a0, $a1
	sltui	$a0, $a0, 1
	ret
.LBB4_5:
	move	$a0, $zero
	ret
.Lfunc_end4:
	.size	_ZNK8NArchive4NTar5CItem7IsMagicEv, .Lfunc_end4-_ZNK8NArchive4NTar5CItem7IsMagicEv
                                        # -- End function
	.section	.text._ZplIcE11CStringBaseIT_ERKS2_S4_,"axG",@progbits,_ZplIcE11CStringBaseIT_ERKS2_S4_,comdat
	.weak	_ZplIcE11CStringBaseIT_ERKS2_S4_ # -- Begin function _ZplIcE11CStringBaseIT_ERKS2_S4_
	.p2align	5
	.type	_ZplIcE11CStringBaseIT_ERKS2_S4_,@function
_ZplIcE11CStringBaseIT_ERKS2_S4_:       # @_ZplIcE11CStringBaseIT_ERKS2_S4_
.Lfunc_begin1:
	.cfi_startproc
	.cfi_personality 155, DW.ref.__gxx_personality_v0
	.cfi_lsda 27, .Lexception1
# %bb.0:
	addi.d	$sp, $sp, -48
	.cfi_def_cfa_offset 48
	st.d	$ra, $sp, 40                    # 8-byte Folded Spill
	st.d	$fp, $sp, 32                    # 8-byte Folded Spill
	st.d	$s0, $sp, 24                    # 8-byte Folded Spill
	st.d	$s1, $sp, 16                    # 8-byte Folded Spill
	st.d	$s2, $sp, 8                     # 8-byte Folded Spill
	st.d	$s3, $sp, 0                     # 8-byte Folded Spill
	.cfi_offset 1, -8
	.cfi_offset 22, -16
	.cfi_offset 23, -24
	.cfi_offset 24, -32
	.cfi_offset 25, -40
	.cfi_offset 26, -48
	move	$s1, $a1
	ld.wu	$s2, $a1, 8
	move	$s0, $a2
	move	$fp, $a0
	vrepli.b	$vr0, 0
	addi.d	$s3, $s2, 1
	slli.d	$a0, $s3, 31
	vst	$vr0, $fp, 0
	bgez	$a0, .LBB5_2
# %bb.1:
	move	$a0, $zero
	b	.LBB5_3
.LBB5_2:
	addi.w	$a0, $s3, 0
	pcaddu18i	$ra, %call36(_Znam)
	jirl	$ra, $ra, 0
	st.d	$a0, $fp, 0
	st.b	$zero, $a0, 0
	st.w	$s3, $fp, 12
.LBB5_3:                                # %_ZN11CStringBaseIcE11SetCapacityEi.exit.i
	ld.d	$a1, $s1, 0
	.p2align	4, , 16
.LBB5_4:                                # =>This Inner Loop Header: Depth=1
	ld.bu	$a2, $a1, 0
	addi.d	$a1, $a1, 1
	addi.d	$a3, $a0, 1
	st.b	$a2, $a0, 0
	move	$a0, $a3
	bnez	$a2, .LBB5_4
# %bb.5:                                # %_ZN11CStringBaseIcEC2ERKS0_.exit
	st.w	$s2, $fp, 8
.Ltmp72:
	move	$a0, $fp
	move	$a1, $s0
	pcaddu18i	$ra, %call36(_ZN11CStringBaseIcEpLERKS0_)
	jirl	$ra, $ra, 0
.Ltmp73:
# %bb.6:
	ld.d	$s3, $sp, 0                     # 8-byte Folded Reload
	ld.d	$s2, $sp, 8                     # 8-byte Folded Reload
	ld.d	$s1, $sp, 16                    # 8-byte Folded Reload
	ld.d	$s0, $sp, 24                    # 8-byte Folded Reload
	ld.d	$fp, $sp, 32                    # 8-byte Folded Reload
	ld.d	$ra, $sp, 40                    # 8-byte Folded Reload
	addi.d	$sp, $sp, 48
	ret
.LBB5_7:
.Ltmp74:
	ld.d	$a1, $fp, 0
	move	$fp, $a0
	beqz	$a1, .LBB5_9
# %bb.8:
	move	$a0, $a1
	pcaddu18i	$ra, %call36(_ZdaPv)
	jirl	$ra, $ra, 0
.LBB5_9:                                # %_ZN11CStringBaseIcED2Ev.exit
	move	$a0, $fp
	pcaddu18i	$ra, %call36(_Unwind_Resume)
	jirl	$ra, $ra, 0
.Lfunc_end5:
	.size	_ZplIcE11CStringBaseIT_ERKS2_S4_, .Lfunc_end5-_ZplIcE11CStringBaseIT_ERKS2_S4_
	.cfi_endproc
	.section	.gcc_except_table._ZplIcE11CStringBaseIT_ERKS2_S4_,"aG",@progbits,_ZplIcE11CStringBaseIT_ERKS2_S4_,comdat
	.p2align	2, 0x0
GCC_except_table5:
.Lexception1:
	.byte	255                             # @LPStart Encoding = omit
	.byte	255                             # @TType Encoding = omit
	.byte	1                               # Call site Encoding = uleb128
	.uleb128 .Lcst_end1-.Lcst_begin1
.Lcst_begin1:
	.uleb128 .Lfunc_begin1-.Lfunc_begin1    # >> Call Site 1 <<
	.uleb128 .Ltmp72-.Lfunc_begin1          #   Call between .Lfunc_begin1 and .Ltmp72
	.byte	0                               #     has no landing pad
	.byte	0                               #   On action: cleanup
	.uleb128 .Ltmp72-.Lfunc_begin1          # >> Call Site 2 <<
	.uleb128 .Ltmp73-.Ltmp72                #   Call between .Ltmp72 and .Ltmp73
	.uleb128 .Ltmp74-.Lfunc_begin1          #     jumps to .Ltmp74
	.byte	0                               #   On action: cleanup
	.uleb128 .Ltmp73-.Lfunc_begin1          # >> Call Site 3 <<
	.uleb128 .Lfunc_end5-.Ltmp73            #   Call between .Ltmp73 and .Lfunc_end5
	.byte	0                               #     has no landing pad
	.byte	0                               #   On action: cleanup
.Lcst_end1:
	.p2align	2, 0x0
                                        # -- End function
	.section	.text._ZN11CStringBaseIcEpLERKS0_,"axG",@progbits,_ZN11CStringBaseIcEpLERKS0_,comdat
	.weak	_ZN11CStringBaseIcEpLERKS0_     # -- Begin function _ZN11CStringBaseIcEpLERKS0_
	.p2align	5
	.type	_ZN11CStringBaseIcEpLERKS0_,@function
_ZN11CStringBaseIcEpLERKS0_:            # @_ZN11CStringBaseIcEpLERKS0_
	.cfi_startproc
# %bb.0:
	addi.d	$sp, $sp, -64
	.cfi_def_cfa_offset 64
	st.d	$ra, $sp, 56                    # 8-byte Folded Spill
	st.d	$fp, $sp, 48                    # 8-byte Folded Spill
	st.d	$s0, $sp, 40                    # 8-byte Folded Spill
	st.d	$s1, $sp, 32                    # 8-byte Folded Spill
	st.d	$s2, $sp, 24                    # 8-byte Folded Spill
	st.d	$s3, $sp, 16                    # 8-byte Folded Spill
	st.d	$s4, $sp, 8                     # 8-byte Folded Spill
	.cfi_offset 1, -8
	.cfi_offset 22, -16
	.cfi_offset 23, -24
	.cfi_offset 24, -32
	.cfi_offset 25, -40
	.cfi_offset 26, -48
	.cfi_offset 27, -56
	move	$fp, $a1
	ld.w	$s2, $a0, 8
	ld.w	$s4, $a0, 12
	ld.w	$a1, $a1, 8
	nor	$a2, $s2, $zero
	add.w	$a2, $s4, $a2
	bge	$a2, $a1, .LBB6_21
# %bb.1:
	ori	$a3, $zero, 64
	slt	$a3, $a3, $s4
	bstrpick.d	$a4, $s4, 31, 1
	ori	$a5, $zero, 8
	slt	$a5, $a5, $s4
	ori	$a6, $zero, 4
	masknez	$a6, $a6, $a5
	ori	$a7, $zero, 16
	maskeqz	$a5, $a7, $a5
	or	$a5, $a5, $a6
	masknez	$a5, $a5, $a3
	maskeqz	$a3, $a4, $a3
	or	$a3, $a3, $a5
	add.w	$a4, $a3, $a2
	slt	$a4, $a4, $a1
	sub.d	$a1, $a1, $a2
	masknez	$a2, $a3, $a4
	maskeqz	$a1, $a1, $a4
	or	$a1, $a1, $a2
	add.d	$a1, $s4, $a1
	addi.w	$s0, $a1, 1
	beq	$s0, $s4, .LBB6_21
# %bb.2:
	move	$s3, $a0
	move	$a0, $s0
	pcaddu18i	$ra, %call36(_Znam)
	jirl	$ra, $ra, 0
	move	$s1, $a0
	blez	$s4, .LBB6_11
# %bb.3:                                # %.preheader.i.i
	ld.d	$a0, $s3, 0
	blez	$s2, .LBB6_12
# %bb.4:                                # %iter.check
	ori	$a2, $zero, 16
	move	$a1, $zero
	bltu	$s2, $a2, .LBB6_17
# %bb.5:                                # %iter.check
	sub.d	$a2, $s1, $a0
	ori	$a3, $zero, 31
	bgeu	$a3, $a2, .LBB6_17
# %bb.6:                                # %vector.main.loop.iter.check
	ori	$a1, $zero, 32
	bgeu	$s2, $a1, .LBB6_13
# %bb.7:
	move	$a1, $zero
.LBB6_8:                                # %vec.epilog.ph
	move	$a4, $a1
	bstrpick.d	$a1, $s2, 30, 4
	slli.d	$a1, $a1, 4
	sub.d	$a2, $a4, $a1
	add.d	$a3, $s1, $a4
	add.d	$a4, $a0, $a4
	.p2align	4, , 16
.LBB6_9:                                # %vec.epilog.vector.body
                                        # =>This Inner Loop Header: Depth=1
	vld	$vr0, $a4, 0
	vst	$vr0, $a3, 0
	addi.d	$a2, $a2, 16
	addi.d	$a3, $a3, 16
	addi.d	$a4, $a4, 16
	bnez	$a2, .LBB6_9
# %bb.10:                               # %vec.epilog.middle.block
	bne	$a1, $s2, .LBB6_17
	b	.LBB6_19
.LBB6_11:
	move	$a1, $s3
	b	.LBB6_20
.LBB6_12:                               # %._crit_edge.i.i
	move	$a1, $s3
	bnez	$a0, .LBB6_19
	b	.LBB6_20
.LBB6_13:                               # %vector.ph
	bstrpick.d	$a1, $s2, 30, 5
	slli.d	$a1, $a1, 5
	addi.d	$a2, $s1, 16
	addi.d	$a3, $a0, 16
	move	$a4, $a1
	.p2align	4, , 16
.LBB6_14:                               # %vector.body
                                        # =>This Inner Loop Header: Depth=1
	vld	$vr0, $a3, -16
	vld	$vr1, $a3, 0
	vst	$vr0, $a2, -16
	vst	$vr1, $a2, 0
	addi.d	$a4, $a4, -32
	addi.d	$a2, $a2, 32
	addi.d	$a3, $a3, 32
	bnez	$a4, .LBB6_14
# %bb.15:                               # %middle.block
	beq	$a1, $s2, .LBB6_19
# %bb.16:                               # %vec.epilog.iter.check
	andi	$a2, $s2, 16
	bnez	$a2, .LBB6_8
.LBB6_17:                               # %vec.epilog.scalar.ph.preheader
	sub.d	$a2, $s2, $a1
	add.d	$a3, $s1, $a1
	add.d	$a1, $a0, $a1
	.p2align	4, , 16
.LBB6_18:                               # %vec.epilog.scalar.ph
                                        # =>This Inner Loop Header: Depth=1
	ld.b	$a4, $a1, 0
	st.b	$a4, $a3, 0
	addi.d	$a2, $a2, -1
	addi.d	$a3, $a3, 1
	addi.d	$a1, $a1, 1
	bnez	$a2, .LBB6_18
.LBB6_19:                               # %._crit_edge.thread.i.i
	pcaddu18i	$ra, %call36(_ZdaPv)
	jirl	$ra, $ra, 0
	move	$a1, $s3
	ld.w	$s2, $s3, 8
.LBB6_20:
	move	$a0, $a1
	st.d	$s1, $a1, 0
	stx.b	$zero, $s1, $s2
	st.w	$s0, $a1, 12
.LBB6_21:                               # %_ZN11CStringBaseIcE10GrowLengthEi.exit
	ld.d	$a2, $a0, 0
	ld.d	$a1, $fp, 0
	add.d	$a2, $a2, $s2
	.p2align	4, , 16
.LBB6_22:                               # =>This Inner Loop Header: Depth=1
	ld.bu	$a3, $a1, 0
	addi.d	$a1, $a1, 1
	addi.d	$a4, $a2, 1
	st.b	$a3, $a2, 0
	move	$a2, $a4
	bnez	$a3, .LBB6_22
# %bb.23:                               # %_Z12MyStringCopyIcEPT_S1_PKS0_.exit
	ld.w	$a1, $fp, 8
	ld.w	$a2, $a0, 8
	add.d	$a1, $a2, $a1
	st.w	$a1, $a0, 8
	ld.d	$s4, $sp, 8                     # 8-byte Folded Reload
	ld.d	$s3, $sp, 16                    # 8-byte Folded Reload
	ld.d	$s2, $sp, 24                    # 8-byte Folded Reload
	ld.d	$s1, $sp, 32                    # 8-byte Folded Reload
	ld.d	$s0, $sp, 40                    # 8-byte Folded Reload
	ld.d	$fp, $sp, 48                    # 8-byte Folded Reload
	ld.d	$ra, $sp, 56                    # 8-byte Folded Reload
	addi.d	$sp, $sp, 64
	ret
.Lfunc_end6:
	.size	_ZN11CStringBaseIcEpLERKS0_, .Lfunc_end6-_ZN11CStringBaseIcEpLERKS0_
	.cfi_endproc
                                        # -- End function
	.hidden	DW.ref.__gxx_personality_v0
	.weak	DW.ref.__gxx_personality_v0
	.section	.data.DW.ref.__gxx_personality_v0,"awG",@progbits,DW.ref.__gxx_personality_v0,comdat
	.p2align	3, 0x0
	.type	DW.ref.__gxx_personality_v0,@object
	.size	DW.ref.__gxx_personality_v0, 8
DW.ref.__gxx_personality_v0:
	.dword	__gxx_personality_v0
	.section	".note.GNU-stack","",@progbits
	.addrsig
	.addrsig_sym __gxx_personality_v0
	.addrsig_sym _Unwind_Resume
