	.file	"GenMesh.cc"
                                        # Start of file scope inline assembly
	.globl	_ZSt21ios_base_library_initv

                                        # End of file scope inline assembly
	.section	.rodata.cst16,"aM",@progbits,16
	.p2align	4, 0x0                          # -- Begin function _ZN7GenMeshC2EPK9InputFile
.LCPI0_0:
	.dword	8                               # 0x8
	.dword	7309475736097875309             # 0x657079746873656d
	.section	.rodata.cst8,"aM",@progbits,8
	.p2align	3, 0x0
.LCPI0_1:
	.dword	0x4071abe4b73fefb5              # double 282.74333882308139
.LCPI0_2:
	.dword	0x400921fb54442d18              # double 3.1415926535897931
.LCPI0_3:
	.dword	0x4066800000000000              # double 180
.LCPI0_4:
	.dword	0x401921fb54442d18              # double 6.2831853071795862
	.text
	.globl	_ZN7GenMeshC2EPK9InputFile
	.p2align	5
	.type	_ZN7GenMeshC2EPK9InputFile,@function
_ZN7GenMeshC2EPK9InputFile:             # @_ZN7GenMeshC2EPK9InputFile
.Lfunc_begin0:
	.cfi_startproc
	.cfi_personality 155, DW.ref.__gxx_personality_v0
	.cfi_lsda 27, .Lexception0
# %bb.0:                                # %._crit_edge.i.i
	addi.d	$sp, $sp, -208
	.cfi_def_cfa_offset 208
	st.d	$ra, $sp, 200                   # 8-byte Folded Spill
	st.d	$fp, $sp, 192                   # 8-byte Folded Spill
	st.d	$s0, $sp, 184                   # 8-byte Folded Spill
	st.d	$s1, $sp, 176                   # 8-byte Folded Spill
	st.d	$s2, $sp, 168                   # 8-byte Folded Spill
	st.d	$s3, $sp, 160                   # 8-byte Folded Spill
	st.d	$s4, $sp, 152                   # 8-byte Folded Spill
	st.d	$s5, $sp, 144                   # 8-byte Folded Spill
	st.d	$s6, $sp, 136                   # 8-byte Folded Spill
	st.d	$s7, $sp, 128                   # 8-byte Folded Spill
	st.d	$s8, $sp, 120                   # 8-byte Folded Spill
	.cfi_offset 1, -8
	.cfi_offset 22, -16
	.cfi_offset 23, -24
	.cfi_offset 24, -32
	.cfi_offset 25, -40
	.cfi_offset 26, -48
	.cfi_offset 27, -56
	.cfi_offset 28, -64
	.cfi_offset 29, -72
	.cfi_offset 30, -80
	.cfi_offset 31, -88
	move	$s0, $a1
	move	$fp, $a0
	addi.d	$s3, $a0, 16
	st.d	$s3, $a0, 0
	st.d	$zero, $a0, 8
	pcalau12i	$a0, %pc_hi20(.LCPI0_0)
	vld	$vr0, $a0, %pc_lo12(.LCPI0_0)
	st.b	$zero, $fp, 16
	addi.d	$s1, $sp, 72
	st.d	$s1, $sp, 56
	vst	$vr0, $sp, 64
	st.b	$zero, $sp, 80
	addi.d	$s2, $sp, 40
	st.d	$s2, $sp, 24
	st.d	$zero, $sp, 32
	st.b	$zero, $sp, 40
.Ltmp0:
	addi.d	$a0, $sp, 88
	addi.d	$a2, $sp, 56
	addi.d	$a3, $sp, 24
	pcaddu18i	$ra, %call36(_ZNK9InputFile9getStringERKNSt7__cxx1112basic_stringIcSt11char_traitsIcESaIcEEES7_)
	jirl	$ra, $ra, 0
.Ltmp1:
# %bb.1:
	ld.d	$a0, $fp, 0
	beq	$a0, $s3, .LBB0_5
# %bb.2:                                # %_ZNKSt7__cxx1112basic_stringIcSt11char_traitsIcESaIcEE11_M_is_localEv.exit.thread.i
	ld.d	$a1, $sp, 88
	addi.d	$a2, $sp, 104
	beq	$a1, $a2, .LBB0_8
# %bb.3:                                # %_ZNKSt7__cxx1112basic_stringIcSt11char_traitsIcESaIcEE11_M_is_localEv.exit23.thread25.i
	vld	$vr0, $sp, 96
	ld.d	$a3, $fp, 16
	st.d	$a1, $fp, 0
	vst	$vr0, $fp, 8
	beqz	$a0, .LBB0_7
# %bb.4:
	st.d	$a0, $sp, 88
	st.d	$a3, $sp, 104
	b	.LBB0_14
.LBB0_5:                                # %_ZNKSt7__cxx1112basic_stringIcSt11char_traitsIcESaIcEE11_M_is_localEv.exit.i
	ld.d	$a1, $sp, 88
	addi.d	$a2, $sp, 104
	beq	$a1, $a2, .LBB0_8
# %bb.6:                                # %.thread.i
	vld	$vr0, $sp, 96
	st.d	$a1, $fp, 0
	vst	$vr0, $fp, 8
.LBB0_7:
	st.d	$a2, $sp, 88
	move	$a0, $a2
	b	.LBB0_14
.LBB0_8:
	addi.d	$a2, $sp, 88
	beq	$a2, $fp, .LBB0_54
# %bb.9:
	ld.d	$a2, $sp, 96
	beqz	$a2, .LBB0_13
# %bb.10:
	ori	$a3, $zero, 1
	bne	$a2, $a3, .LBB0_12
# %bb.11:
	ld.b	$a1, $a1, 0
	st.b	$a1, $a0, 0
	b	.LBB0_13
.LBB0_12:
	pcaddu18i	$ra, %call36(memcpy)
	jirl	$ra, $ra, 0
.LBB0_13:                               # %_ZNSt7__cxx1112basic_stringIcSt11char_traitsIcESaIcEE7_S_copyEPcPKcm.exit.i
	ld.d	$a0, $sp, 96
	ld.d	$a1, $fp, 0
	st.d	$a0, $fp, 8
	stx.b	$zero, $a1, $a0
	ld.d	$a0, $sp, 88
.LBB0_14:                               # %_ZNSt7__cxx1112basic_stringIcSt11char_traitsIcESaIcEEaSEOS4_.exit
	st.d	$zero, $sp, 96
	st.b	$zero, $a0, 0
	ld.d	$a0, $sp, 88
	addi.d	$s4, $sp, 104
	beq	$a0, $s4, .LBB0_16
# %bb.15:                               # %_ZNKSt7__cxx1112basic_stringIcSt11char_traitsIcESaIcEE11_M_is_localEv.exit.i.i
	ld.d	$a1, $sp, 104
	addi.d	$a1, $a1, 1
	pcaddu18i	$ra, %call36(_ZdlPvm)
	jirl	$ra, $ra, 0
.LBB0_16:                               # %_ZNSt7__cxx1112basic_stringIcSt11char_traitsIcESaIcEED2Ev.exit
	ld.d	$a0, $sp, 24
	beq	$a0, $s2, .LBB0_18
# %bb.17:                               # %_ZNKSt7__cxx1112basic_stringIcSt11char_traitsIcESaIcEE11_M_is_localEv.exit.i.i25
	ld.d	$a1, $sp, 40
	addi.d	$a1, $a1, 1
	pcaddu18i	$ra, %call36(_ZdlPvm)
	jirl	$ra, $ra, 0
.LBB0_18:                               # %_ZNSt7__cxx1112basic_stringIcSt11char_traitsIcESaIcEED2Ev.exit27
	ld.d	$a0, $sp, 56
	beq	$a0, $s1, .LBB0_20
# %bb.19:                               # %_ZNKSt7__cxx1112basic_stringIcSt11char_traitsIcESaIcEE11_M_is_localEv.exit.i.i28
	ld.d	$a1, $sp, 72
	addi.d	$a1, $a1, 1
	pcaddu18i	$ra, %call36(_ZdlPvm)
	jirl	$ra, $ra, 0
.LBB0_20:                               # %_ZNSt7__cxx1112basic_stringIcSt11char_traitsIcESaIcEED2Ev.exit30
	ld.d	$s1, $fp, 8
	ori	$a0, $zero, 3
	beq	$s1, $a0, .LBB0_23
# %bb.21:                               # %_ZNSt7__cxx1112basic_stringIcSt11char_traitsIcESaIcEED2Ev.exit30
	ori	$a0, $zero, 4
	bne	$s1, $a0, .LBB0_58
# %bb.22:                               # %_ZStneIcSt11char_traitsIcESaIcEEbRKNSt7__cxx1112basic_stringIT_T0_T1_EEPKS5_.exit40
	ld.d	$a0, $fp, 0
	pcalau12i	$a1, %pc_hi20(.L.str.4)
	addi.d	$a1, $a1, %pc_lo12(.L.str.4)
	move	$a2, $s1
	pcaddu18i	$ra, %call36(bcmp)
	jirl	$ra, $ra, 0
	beqz	$a0, .LBB0_25
	b	.LBB0_62
.LBB0_23:                               # %_ZStneIcSt11char_traitsIcESaIcEEbRKNSt7__cxx1112basic_stringIT_T0_T1_EEPKS5_.exit
	ld.d	$s2, $fp, 0
	pcalau12i	$a0, %pc_hi20(.L.str.3)
	addi.d	$a1, $a0, %pc_lo12(.L.str.3)
	ori	$a2, $zero, 3
	move	$a0, $s2
	pcaddu18i	$ra, %call36(bcmp)
	jirl	$ra, $ra, 0
	beqz	$a0, .LBB0_25
# %bb.24:                               # %_ZStneIcSt11char_traitsIcESaIcEEbRKNSt7__cxx1112basic_stringIT_T0_T1_EEPKS5_.exit42
	pcalau12i	$a0, %pc_hi20(.L.str.5)
	addi.d	$a1, $a0, %pc_lo12(.L.str.5)
	move	$a0, $s2
	move	$a2, $s1
	pcaddu18i	$ra, %call36(bcmp)
	jirl	$ra, $ra, 0
	bnez	$a0, .LBB0_62
.LBB0_25:                               # %._crit_edge.i.i48
	pcalau12i	$a0, %pc_hi20(.L.str.7)
	addi.d	$a0, $a0, %pc_lo12(.L.str.7)
	ld.d	$a1, $a0, 0
	ld.h	$a0, $a0, 8
	st.d	$s4, $sp, 88
	st.d	$a1, $sp, 104
	st.h	$a0, $sp, 112
	ori	$a0, $zero, 10
	st.d	$a0, $sp, 96
	st.b	$zero, $sp, 114
	st.d	$zero, $sp, 40
	vrepli.b	$vr0, 0
	vst	$vr0, $sp, 24
.Ltmp3:
	addi.d	$a0, $sp, 56
	addi.d	$a2, $sp, 88
	addi.d	$a3, $sp, 24
	move	$a1, $s0
	pcaddu18i	$ra, %call36(_ZNK9InputFile13getDoubleListERKNSt7__cxx1112basic_stringIcSt11char_traitsIcESaIcEEERKSt6vectorIdSaIdEE)
	jirl	$ra, $ra, 0
.Ltmp4:
# %bb.26:
	ld.d	$a0, $sp, 24
	beqz	$a0, .LBB0_28
# %bb.27:
	ld.d	$a1, $sp, 40
	sub.d	$a1, $a1, $a0
	pcaddu18i	$ra, %call36(_ZdlPvm)
	jirl	$ra, $ra, 0
.LBB0_28:                               # %_ZNSt6vectorIdSaIdEED2Ev.exit
	ld.d	$a0, $sp, 88
	beq	$a0, $s4, .LBB0_30
# %bb.29:                               # %_ZNKSt7__cxx1112basic_stringIcSt11char_traitsIcESaIcEE11_M_is_localEv.exit.i.i52
	ld.d	$a1, $sp, 104
	addi.d	$a1, $a1, 1
	pcaddu18i	$ra, %call36(_ZdlPvm)
	jirl	$ra, $ra, 0
.LBB0_30:                               # %_ZNSt7__cxx1112basic_stringIcSt11char_traitsIcESaIcEED2Ev.exit54
	ld.d	$s0, $sp, 56
	ld.d	$a0, $sp, 64
	beq	$s0, $a0, .LBB0_66
# %bb.31:
	sub.d	$s4, $a0, $s0
	srai.d	$s6, $s4, 3
	ori	$a0, $zero, 5
	bgeu	$s6, $a0, .LBB0_69
# %bb.32:
	fld.d	$fa0, $s0, 0
	ftintrz.w.d	$fa0, $fa0
	movfr2gr.s	$s1, $fa0
	ori	$a0, $zero, 2
	st.w	$s1, $fp, 32
	bltu	$s6, $a0, .LBB0_34
# %bb.33:
	fld.d	$fa0, $s0, 8
	b	.LBB0_35
.LBB0_34:
	movgr2fr.w	$fa0, $s1
	ffint.d.w	$fa0, $fa0
.LBB0_35:
	ld.d	$s2, $fp, 8
	ftintrz.w.d	$fa0, $fa0
	movfr2gr.s	$s5, $fa0
	ori	$s7, $zero, 3
	st.w	$s5, $fp, 36
	bne	$s2, $s7, .LBB0_37
# %bb.36:                               # %_ZStneIcSt11char_traitsIcESaIcEEbRKNSt7__cxx1112basic_stringIT_T0_T1_EEPKS5_.exit71
	ld.d	$a0, $fp, 0
	pcalau12i	$a1, %pc_hi20(.L.str.3)
	addi.d	$a1, $a1, %pc_lo12(.L.str.3)
	ori	$a2, $zero, 3
	ori	$s8, $zero, 3
	pcaddu18i	$ra, %call36(bcmp)
	jirl	$ra, $ra, 0
	beqz	$a0, .LBB0_50
.LBB0_37:                               # %_ZStneIcSt11char_traitsIcESaIcEEbRKNSt7__cxx1112basic_stringIT_T0_T1_EEPKS5_.exit71.thread
	bltu	$s6, $s7, .LBB0_40
# %bb.38:
	fld.d	$fa2, $s0, 16
	ori	$a0, $zero, 32
	fst.d	$fa2, $fp, 40
	bne	$s4, $a0, .LBB0_41
.LBB0_39:
	fld.d	$fa0, $s0, 24
	b	.LBB0_42
.LBB0_40:
	vldi	$vr2, -912
	ori	$a0, $zero, 32
	fst.d	$fa2, $fp, 40
	beq	$s4, $a0, .LBB0_39
.LBB0_41:
	vldi	$vr0, -912
.LBB0_42:
	ori	$a0, $zero, 1
	fst.d	$fa0, $fp, 48
	blt	$s1, $a0, .LBB0_55
# %bb.43:
	blt	$s5, $a0, .LBB0_55
# %bb.44:
	movgr2fr.d	$fa1, $zero
	fcmp.cle.d	$fcc0, $fa2, $fa1
	bcnez	$fcc0, .LBB0_55
# %bb.45:
	fcmp.cult.d	$fcc0, $fa1, $fa0
	bceqz	$fcc0, .LBB0_55
# %bb.46:
	ori	$a0, $zero, 3
	bne	$s2, $a0, .LBB0_49
# %bb.47:                               # %_ZSteqIcSt11char_traitsIcESaIcEEbRKNSt7__cxx1112basic_stringIT_T0_T1_EEPKS5_.exit
	ld.d	$a0, $fp, 0
	pcalau12i	$a1, %pc_hi20(.L.str.3)
	addi.d	$a1, $a1, %pc_lo12(.L.str.3)
	ori	$a2, $zero, 3
	vst	$vr2, $sp, 0                    # 16-byte Folded Spill
	pcaddu18i	$ra, %call36(bcmp)
	jirl	$ra, $ra, 0
	pcalau12i	$a1, %pc_hi20(.LCPI0_4)
	fld.d	$fa0, $a1, %pc_lo12(.LCPI0_4)
	vld	$vr1, $sp, 0                    # 16-byte Folded Reload
	fcmp.cult.d	$fcc0, $fa1, $fa0
	bcnez	$fcc0, .LBB0_49
# %bb.48:                               # %_ZSteqIcSt11char_traitsIcESaIcEEbRKNSt7__cxx1112basic_stringIT_T0_T1_EEPKS5_.exit
	beqz	$a0, .LBB0_72
.LBB0_49:                               # %_ZNSt6vectorIdSaIdEED2Ev.exit81
	ld.d	$a0, $sp, 72
	sub.d	$a1, $a0, $s0
	move	$a0, $s0
	pcaddu18i	$ra, %call36(_ZdlPvm)
	jirl	$ra, $ra, 0
	ld.d	$s8, $sp, 120                   # 8-byte Folded Reload
	ld.d	$s7, $sp, 128                   # 8-byte Folded Reload
	ld.d	$s6, $sp, 136                   # 8-byte Folded Reload
	ld.d	$s5, $sp, 144                   # 8-byte Folded Reload
	ld.d	$s4, $sp, 152                   # 8-byte Folded Reload
	ld.d	$s3, $sp, 160                   # 8-byte Folded Reload
	ld.d	$s2, $sp, 168                   # 8-byte Folded Reload
	ld.d	$s1, $sp, 176                   # 8-byte Folded Reload
	ld.d	$s0, $sp, 184                   # 8-byte Folded Reload
	ld.d	$fp, $sp, 192                   # 8-byte Folded Reload
	ld.d	$ra, $sp, 200                   # 8-byte Folded Reload
	addi.d	$sp, $sp, 208
	ret
.LBB0_50:                               # %_ZStneIcSt11char_traitsIcESaIcEEbRKNSt7__cxx1112basic_stringIT_T0_T1_EEPKS5_.exit71.thread87
	bltu	$s6, $s8, .LBB0_52
# %bb.51:
	fld.d	$fa0, $s0, 16
	pcalau12i	$a0, %pc_hi20(.LCPI0_2)
	fld.d	$fa1, $a0, %pc_lo12(.LCPI0_2)
	fmul.d	$fa0, $fa0, $fa1
	b	.LBB0_53
.LBB0_52:
	pcalau12i	$a0, %pc_hi20(.LCPI0_1)
	fld.d	$fa0, $a0, %pc_lo12(.LCPI0_1)
.LBB0_53:
	pcalau12i	$a0, %pc_hi20(.LCPI0_3)
	fld.d	$fa1, $a0, %pc_lo12(.LCPI0_3)
	fdiv.d	$fa2, $fa0, $fa1
	ori	$a0, $zero, 32
	fst.d	$fa2, $fp, 40
	beq	$s4, $a0, .LBB0_39
	b	.LBB0_41
.LBB0_54:
	move	$a0, $a1
	b	.LBB0_14
.LBB0_55:
	pcalau12i	$a0, %got_pc_hi20(_ZN8Parallel4mypeE)
	ld.d	$a0, $a0, %got_pc_lo12(_ZN8Parallel4mypeE)
	ld.w	$a0, $a0, 0
	bnez	$a0, .LBB0_75
# %bb.56:
.Ltmp10:
	pcalau12i	$a0, %got_pc_hi20(_ZSt4cerr)
	ld.d	$a0, $a0, %got_pc_lo12(_ZSt4cerr)
	pcalau12i	$a1, %pc_hi20(.L.str.10)
	addi.d	$a1, $a1, %pc_lo12(.L.str.10)
	ori	$a2, $zero, 42
	pcaddu18i	$ra, %call36(_ZSt16__ostream_insertIcSt11char_traitsIcEERSt13basic_ostreamIT_T0_ES6_PKS3_l)
	jirl	$ra, $ra, 0
.Ltmp11:
# %bb.57:                               # %_ZStlsISt11char_traitsIcEERSt13basic_ostreamIcT_ES5_PKc.exit73
.Ltmp12:
	pcalau12i	$a0, %got_pc_hi20(_ZSt4cerr)
	ld.d	$a0, $a0, %got_pc_lo12(_ZSt4cerr)
	pcaddu18i	$ra, %call36(_ZSt4endlIcSt11char_traitsIcEERSt13basic_ostreamIT_T0_ES6_)
	jirl	$ra, $ra, 0
.Ltmp13:
	b	.LBB0_75
.LBB0_58:                               # %_ZNSt7__cxx1112basic_stringIcSt11char_traitsIcESaIcEED2Ev.exit30
	bnez	$s1, .LBB0_62
# %bb.59:
	pcalau12i	$a0, %got_pc_hi20(_ZN8Parallel4mypeE)
	ld.d	$a0, $a0, %got_pc_lo12(_ZN8Parallel4mypeE)
	ld.w	$a0, $a0, 0
	bnez	$a0, .LBB0_75
# %bb.60:
.Ltmp23:
	pcalau12i	$a0, %got_pc_hi20(_ZSt4cerr)
	ld.d	$a0, $a0, %got_pc_lo12(_ZSt4cerr)
	pcalau12i	$a1, %pc_hi20(.L.str.2)
	addi.d	$a1, $a1, %pc_lo12(.L.str.2)
	ori	$a2, $zero, 29
	pcaddu18i	$ra, %call36(_ZSt16__ostream_insertIcSt11char_traitsIcEERSt13basic_ostreamIT_T0_ES6_PKS3_l)
	jirl	$ra, $ra, 0
.Ltmp24:
# %bb.61:                               # %_ZStlsISt11char_traitsIcEERSt13basic_ostreamIcT_ES5_PKc.exit
.Ltmp25:
	pcalau12i	$a0, %got_pc_hi20(_ZSt4cerr)
	ld.d	$a0, $a0, %got_pc_lo12(_ZSt4cerr)
	pcaddu18i	$ra, %call36(_ZSt4endlIcSt11char_traitsIcEERSt13basic_ostreamIT_T0_ES6_)
	jirl	$ra, $ra, 0
.Ltmp26:
	b	.LBB0_75
.LBB0_62:                               # %_ZStneIcSt11char_traitsIcESaIcEEbRKNSt7__cxx1112basic_stringIT_T0_T1_EEPKS5_.exit42.thread
	pcalau12i	$a0, %got_pc_hi20(_ZN8Parallel4mypeE)
	ld.d	$a0, $a0, %got_pc_lo12(_ZN8Parallel4mypeE)
	ld.w	$a0, $a0, 0
	bnez	$a0, .LBB0_75
# %bb.63:
.Ltmp27:
	pcalau12i	$a0, %got_pc_hi20(_ZSt4cerr)
	ld.d	$a0, $a0, %got_pc_lo12(_ZSt4cerr)
	pcalau12i	$a1, %pc_hi20(.L.str.6)
	addi.d	$a1, $a1, %pc_lo12(.L.str.6)
	ori	$a2, $zero, 25
	pcaddu18i	$ra, %call36(_ZSt16__ostream_insertIcSt11char_traitsIcEERSt13basic_ostreamIT_T0_ES6_PKS3_l)
	jirl	$ra, $ra, 0
.Ltmp28:
# %bb.64:                               # %_ZStlsISt11char_traitsIcEERSt13basic_ostreamIcT_ES5_PKc.exit44
	ld.d	$a1, $fp, 0
	ld.d	$a2, $fp, 8
.Ltmp29:
	pcalau12i	$a0, %got_pc_hi20(_ZSt4cerr)
	ld.d	$a0, $a0, %got_pc_lo12(_ZSt4cerr)
	pcaddu18i	$ra, %call36(_ZSt16__ostream_insertIcSt11char_traitsIcEERSt13basic_ostreamIT_T0_ES6_PKS3_l)
	jirl	$ra, $ra, 0
.Ltmp30:
# %bb.65:                               # %_ZStlsIcSt11char_traitsIcESaIcEERSt13basic_ostreamIT_T0_ES7_RKNSt7__cxx1112basic_stringIS4_S5_T1_EE.exit
.Ltmp31:
	pcaddu18i	$ra, %call36(_ZSt4endlIcSt11char_traitsIcEERSt13basic_ostreamIT_T0_ES6_)
	jirl	$ra, $ra, 0
.Ltmp32:
	b	.LBB0_75
.LBB0_66:
	pcalau12i	$a0, %got_pc_hi20(_ZN8Parallel4mypeE)
	ld.d	$a0, $a0, %got_pc_lo12(_ZN8Parallel4mypeE)
	ld.w	$a0, $a0, 0
	bnez	$a0, .LBB0_75
# %bb.67:
.Ltmp18:
	pcalau12i	$a0, %got_pc_hi20(_ZSt4cerr)
	ld.d	$a0, $a0, %got_pc_lo12(_ZSt4cerr)
	pcalau12i	$a1, %pc_hi20(.L.str.8)
	addi.d	$a1, $a1, %pc_lo12(.L.str.8)
	ori	$a2, $zero, 31
	pcaddu18i	$ra, %call36(_ZSt16__ostream_insertIcSt11char_traitsIcEERSt13basic_ostreamIT_T0_ES6_PKS3_l)
	jirl	$ra, $ra, 0
.Ltmp19:
# %bb.68:                               # %_ZStlsISt11char_traitsIcEERSt13basic_ostreamIcT_ES5_PKc.exit56
.Ltmp20:
	pcalau12i	$a0, %got_pc_hi20(_ZSt4cerr)
	ld.d	$a0, $a0, %got_pc_lo12(_ZSt4cerr)
	pcaddu18i	$ra, %call36(_ZSt4endlIcSt11char_traitsIcEERSt13basic_ostreamIT_T0_ES6_)
	jirl	$ra, $ra, 0
.Ltmp21:
	b	.LBB0_75
.LBB0_69:
	pcalau12i	$a0, %got_pc_hi20(_ZN8Parallel4mypeE)
	ld.d	$a0, $a0, %got_pc_lo12(_ZN8Parallel4mypeE)
	ld.w	$a0, $a0, 0
	bnez	$a0, .LBB0_75
# %bb.70:
.Ltmp14:
	pcalau12i	$a0, %got_pc_hi20(_ZSt4cerr)
	ld.d	$a0, $a0, %got_pc_lo12(_ZSt4cerr)
	pcalau12i	$a1, %pc_hi20(.L.str.9)
	addi.d	$a1, $a1, %pc_lo12(.L.str.9)
	ori	$a2, $zero, 40
	pcaddu18i	$ra, %call36(_ZSt16__ostream_insertIcSt11char_traitsIcEERSt13basic_ostreamIT_T0_ES6_PKS3_l)
	jirl	$ra, $ra, 0
.Ltmp15:
# %bb.71:                               # %_ZStlsISt11char_traitsIcEERSt13basic_ostreamIcT_ES5_PKc.exit67
.Ltmp16:
	pcalau12i	$a0, %got_pc_hi20(_ZSt4cerr)
	ld.d	$a0, $a0, %got_pc_lo12(_ZSt4cerr)
	pcaddu18i	$ra, %call36(_ZSt4endlIcSt11char_traitsIcEERSt13basic_ostreamIT_T0_ES6_)
	jirl	$ra, $ra, 0
.Ltmp17:
	b	.LBB0_75
.LBB0_72:
	pcalau12i	$a0, %got_pc_hi20(_ZN8Parallel4mypeE)
	ld.d	$a0, $a0, %got_pc_lo12(_ZN8Parallel4mypeE)
	ld.w	$a0, $a0, 0
	bnez	$a0, .LBB0_75
# %bb.73:
.Ltmp6:
	pcalau12i	$a0, %got_pc_hi20(_ZSt4cerr)
	ld.d	$a0, $a0, %got_pc_lo12(_ZSt4cerr)
	pcalau12i	$a1, %pc_hi20(.L.str.11)
	addi.d	$a1, $a1, %pc_lo12(.L.str.11)
	ori	$a2, $zero, 38
	pcaddu18i	$ra, %call36(_ZSt16__ostream_insertIcSt11char_traitsIcEERSt13basic_ostreamIT_T0_ES6_PKS3_l)
	jirl	$ra, $ra, 0
.Ltmp7:
# %bb.74:                               # %_ZStlsISt11char_traitsIcEERSt13basic_ostreamIcT_ES5_PKc.exit77
.Ltmp8:
	pcalau12i	$a0, %got_pc_hi20(_ZSt4cerr)
	ld.d	$a0, $a0, %got_pc_lo12(_ZSt4cerr)
	pcaddu18i	$ra, %call36(_ZSt4endlIcSt11char_traitsIcEERSt13basic_ostreamIT_T0_ES6_)
	jirl	$ra, $ra, 0
.Ltmp9:
.LBB0_75:                               # %_ZNSolsEPFRSoS_E.exit
	ori	$a0, $zero, 1
	pcaddu18i	$ra, %call36(exit)
	jirl	$ra, $ra, 0
.LBB0_76:
.Ltmp33:
	move	$s0, $a0
	b	.LBB0_89
.LBB0_77:
.Ltmp5:
	ld.d	$a2, $sp, 24
	move	$s0, $a0
	beqz	$a2, .LBB0_79
# %bb.78:
	ld.d	$a0, $sp, 40
	sub.d	$a1, $a0, $a2
	move	$a0, $a2
	pcaddu18i	$ra, %call36(_ZdlPvm)
	jirl	$ra, $ra, 0
.LBB0_79:                               # %_ZNSt6vectorIdSaIdEED2Ev.exit60
	ld.d	$a0, $sp, 88
	beq	$a0, $s4, .LBB0_89
# %bb.80:                               # %_ZNKSt7__cxx1112basic_stringIcSt11char_traitsIcESaIcEE11_M_is_localEv.exit.i.i61
	ld.d	$a1, $sp, 104
	b	.LBB0_85
.LBB0_81:
.Ltmp2:
	ld.d	$a2, $sp, 24
	move	$s0, $a0
	beq	$a2, $s2, .LBB0_83
# %bb.82:                               # %_ZNKSt7__cxx1112basic_stringIcSt11char_traitsIcESaIcEE11_M_is_localEv.exit.i.i33
	ld.d	$a0, $sp, 40
	addi.d	$a1, $a0, 1
	move	$a0, $a2
	pcaddu18i	$ra, %call36(_ZdlPvm)
	jirl	$ra, $ra, 0
.LBB0_83:                               # %_ZNSt7__cxx1112basic_stringIcSt11char_traitsIcESaIcEED2Ev.exit35
	ld.d	$a0, $sp, 56
	beq	$a0, $s1, .LBB0_89
# %bb.84:                               # %_ZNKSt7__cxx1112basic_stringIcSt11char_traitsIcESaIcEE11_M_is_localEv.exit.i.i36
	ld.d	$a1, $sp, 72
.LBB0_85:
	addi.d	$a1, $a1, 1
	b	.LBB0_88
.LBB0_86:
.Ltmp22:
	ld.d	$a2, $sp, 56
	move	$s0, $a0
	beqz	$a2, .LBB0_89
# %bb.87:
	ld.d	$a0, $sp, 72
	sub.d	$a1, $a0, $a2
	move	$a0, $a2
.LBB0_88:
	pcaddu18i	$ra, %call36(_ZdlPvm)
	jirl	$ra, $ra, 0
.LBB0_89:
	ld.d	$a0, $fp, 0
	beq	$a0, $s3, .LBB0_91
# %bb.90:                               # %_ZNKSt7__cxx1112basic_stringIcSt11char_traitsIcESaIcEE11_M_is_localEv.exit.i.i82
	ld.d	$a1, $s3, 0
	addi.d	$a1, $a1, 1
	pcaddu18i	$ra, %call36(_ZdlPvm)
	jirl	$ra, $ra, 0
.LBB0_91:                               # %_ZNSt7__cxx1112basic_stringIcSt11char_traitsIcESaIcEED2Ev.exit84
	move	$a0, $s0
	pcaddu18i	$ra, %call36(_Unwind_Resume)
	jirl	$ra, $ra, 0
.Lfunc_end0:
	.size	_ZN7GenMeshC2EPK9InputFile, .Lfunc_end0-_ZN7GenMeshC2EPK9InputFile
	.cfi_endproc
	.section	.gcc_except_table,"a",@progbits
	.p2align	2, 0x0
GCC_except_table0:
.Lexception0:
	.byte	255                             # @LPStart Encoding = omit
	.byte	255                             # @TType Encoding = omit
	.byte	1                               # Call site Encoding = uleb128
	.uleb128 .Lcst_end0-.Lcst_begin0
.Lcst_begin0:
	.uleb128 .Ltmp0-.Lfunc_begin0           # >> Call Site 1 <<
	.uleb128 .Ltmp1-.Ltmp0                  #   Call between .Ltmp0 and .Ltmp1
	.uleb128 .Ltmp2-.Lfunc_begin0           #     jumps to .Ltmp2
	.byte	0                               #   On action: cleanup
	.uleb128 .Ltmp1-.Lfunc_begin0           # >> Call Site 2 <<
	.uleb128 .Ltmp3-.Ltmp1                  #   Call between .Ltmp1 and .Ltmp3
	.byte	0                               #     has no landing pad
	.byte	0                               #   On action: cleanup
	.uleb128 .Ltmp3-.Lfunc_begin0           # >> Call Site 3 <<
	.uleb128 .Ltmp4-.Ltmp3                  #   Call between .Ltmp3 and .Ltmp4
	.uleb128 .Ltmp5-.Lfunc_begin0           #     jumps to .Ltmp5
	.byte	0                               #   On action: cleanup
	.uleb128 .Ltmp4-.Lfunc_begin0           # >> Call Site 4 <<
	.uleb128 .Ltmp10-.Ltmp4                 #   Call between .Ltmp4 and .Ltmp10
	.byte	0                               #     has no landing pad
	.byte	0                               #   On action: cleanup
	.uleb128 .Ltmp10-.Lfunc_begin0          # >> Call Site 5 <<
	.uleb128 .Ltmp13-.Ltmp10                #   Call between .Ltmp10 and .Ltmp13
	.uleb128 .Ltmp22-.Lfunc_begin0          #     jumps to .Ltmp22
	.byte	0                               #   On action: cleanup
	.uleb128 .Ltmp23-.Lfunc_begin0          # >> Call Site 6 <<
	.uleb128 .Ltmp32-.Ltmp23                #   Call between .Ltmp23 and .Ltmp32
	.uleb128 .Ltmp33-.Lfunc_begin0          #     jumps to .Ltmp33
	.byte	0                               #   On action: cleanup
	.uleb128 .Ltmp18-.Lfunc_begin0          # >> Call Site 7 <<
	.uleb128 .Ltmp9-.Ltmp18                 #   Call between .Ltmp18 and .Ltmp9
	.uleb128 .Ltmp22-.Lfunc_begin0          #     jumps to .Ltmp22
	.byte	0                               #   On action: cleanup
	.uleb128 .Ltmp9-.Lfunc_begin0           # >> Call Site 8 <<
	.uleb128 .Lfunc_end0-.Ltmp9             #   Call between .Ltmp9 and .Lfunc_end0
	.byte	0                               #     has no landing pad
	.byte	0                               #   On action: cleanup
.Lcst_end0:
	.p2align	2, 0x0
                                        # -- End function
	.text
	.globl	_ZN7GenMeshD2Ev                 # -- Begin function _ZN7GenMeshD2Ev
	.p2align	5
	.type	_ZN7GenMeshD2Ev,@function
_ZN7GenMeshD2Ev:                        # @_ZN7GenMeshD2Ev
	.cfi_startproc
# %bb.0:
	move	$a1, $a0
	ld.d	$a0, $a0, 0
	addi.d	$a1, $a1, 16
	beq	$a0, $a1, .LBB1_2
# %bb.1:                                # %_ZNKSt7__cxx1112basic_stringIcSt11char_traitsIcESaIcEE11_M_is_localEv.exit.i.i
	ld.d	$a1, $a1, 0
	addi.d	$a1, $a1, 1
	pcaddu18i	$t8, %call36(_ZdlPvm)
	jr	$t8
.LBB1_2:                                # %_ZNSt7__cxx1112basic_stringIcSt11char_traitsIcESaIcEED2Ev.exit
	ret
.Lfunc_end1:
	.size	_ZN7GenMeshD2Ev, .Lfunc_end1-_ZN7GenMeshD2Ev
	.cfi_endproc
                                        # -- End function
	.globl	_ZN7GenMesh8generateERSt6vectorI7double2SaIS1_EERS0_IiSaIiEES7_S7_S7_S7_S7_S7_S7_S7_ # -- Begin function _ZN7GenMesh8generateERSt6vectorI7double2SaIS1_EERS0_IiSaIiEES7_S7_S7_S7_S7_S7_S7_S7_
	.p2align	5
	.type	_ZN7GenMesh8generateERSt6vectorI7double2SaIS1_EERS0_IiSaIiEES7_S7_S7_S7_S7_S7_S7_S7_,@function
_ZN7GenMesh8generateERSt6vectorI7double2SaIS1_EERS0_IiSaIiEES7_S7_S7_S7_S7_S7_S7_S7_: # @_ZN7GenMesh8generateERSt6vectorI7double2SaIS1_EERS0_IiSaIiEES7_S7_S7_S7_S7_S7_S7_S7_
	.cfi_startproc
# %bb.0:
	addi.d	$sp, $sp, -144
	.cfi_def_cfa_offset 144
	st.d	$ra, $sp, 136                   # 8-byte Folded Spill
	st.d	$fp, $sp, 128                   # 8-byte Folded Spill
	st.d	$s0, $sp, 120                   # 8-byte Folded Spill
	st.d	$s1, $sp, 112                   # 8-byte Folded Spill
	st.d	$s2, $sp, 104                   # 8-byte Folded Spill
	st.d	$s3, $sp, 96                    # 8-byte Folded Spill
	st.d	$s4, $sp, 88                    # 8-byte Folded Spill
	st.d	$s5, $sp, 80                    # 8-byte Folded Spill
	st.d	$s6, $sp, 72                    # 8-byte Folded Spill
	st.d	$s7, $sp, 64                    # 8-byte Folded Spill
	st.d	$s8, $sp, 56                    # 8-byte Folded Spill
	.cfi_offset 1, -8
	.cfi_offset 22, -16
	.cfi_offset 23, -24
	.cfi_offset 24, -32
	.cfi_offset 25, -40
	.cfi_offset 26, -48
	.cfi_offset 27, -56
	.cfi_offset 28, -64
	.cfi_offset 29, -72
	.cfi_offset 30, -80
	.cfi_offset 31, -88
	ld.d	$t0, $sp, 160
	st.d	$t0, $sp, 40                    # 8-byte Folded Spill
	ld.d	$t0, $sp, 152
	st.d	$t0, $sp, 48                    # 8-byte Folded Spill
	ld.d	$s5, $sp, 144
	move	$s8, $a7
	move	$s2, $a6
	move	$s3, $a5
	move	$s4, $a4
	move	$fp, $a3
	move	$s0, $a2
	move	$s1, $a1
	move	$s6, $a0
	pcaddu18i	$ra, %call36(_ZN7GenMesh9calcNumPEEv)
	jirl	$ra, $ra, 0
	ld.w	$a0, $s6, 64
	ld.w	$a1, $s6, 32
	ld.w	$a2, $s6, 56
	mul.w	$a3, $a1, $a0
	div.w	$a3, $a3, $a2
	st.w	$a3, $s6, 80
	addi.d	$a0, $a0, 1
	mul.w	$a0, $a0, $a1
	div.w	$a0, $a0, $a2
	ld.w	$a1, $s6, 68
	ld.w	$a2, $s6, 36
	ld.w	$a4, $s6, 60
	sub.d	$a0, $a0, $a3
	st.w	$a0, $s6, 72
	mul.w	$a0, $a2, $a1
	div.w	$a0, $a0, $a4
	st.w	$a0, $s6, 84
	addi.d	$a1, $a1, 1
	mul.w	$a1, $a1, $a2
	ld.d	$s7, $s6, 8
	div.w	$a1, $a1, $a4
	sub.d	$a0, $a1, $a0
	ori	$a1, $zero, 4
	st.w	$a0, $s6, 76
	beq	$s7, $a1, .LBB2_5
# %bb.1:
	ori	$a0, $zero, 3
	bne	$s7, $a0, .LBB2_8
# %bb.2:                                # %_ZSteqIcSt11char_traitsIcESaIcEEbRKNSt7__cxx1112basic_stringIT_T0_T1_EEPKS5_.exit
	st.d	$s8, $sp, 32                    # 8-byte Folded Spill
	ld.d	$s8, $s6, 0
	pcalau12i	$a0, %pc_hi20(.L.str.3)
	addi.d	$a1, $a0, %pc_lo12(.L.str.3)
	ori	$a2, $zero, 3
	move	$a0, $s8
	pcaddu18i	$ra, %call36(bcmp)
	jirl	$ra, $ra, 0
	beqz	$a0, .LBB2_7
# %bb.3:                                # %_ZSteqIcSt11char_traitsIcESaIcEEbRKNSt7__cxx1112basic_stringIT_T0_T1_EEPKS5_.exit35
	pcalau12i	$a0, %pc_hi20(.L.str.5)
	addi.d	$a1, $a0, %pc_lo12(.L.str.5)
	move	$a0, $s8
	move	$a2, $s7
	pcaddu18i	$ra, %call36(bcmp)
	jirl	$ra, $ra, 0
	ld.d	$a7, $sp, 32                    # 8-byte Folded Reload
	bnez	$a0, .LBB2_8
# %bb.4:                                # %_ZSteqIcSt11char_traitsIcESaIcEEbRKNSt7__cxx1112basic_stringIT_T0_T1_EEPKS5_.exit35.thread
	ld.d	$a0, $sp, 40                    # 8-byte Folded Reload
	st.d	$a0, $sp, 16
	ld.d	$a0, $sp, 48                    # 8-byte Folded Reload
	st.d	$a0, $sp, 8
	st.d	$s5, $sp, 0
	move	$a0, $s6
	move	$a1, $s1
	move	$a2, $s0
	move	$a3, $fp
	move	$a4, $s4
	move	$a5, $s3
	move	$a6, $s2
	pcaddu18i	$ra, %call36(_ZN7GenMesh11generateHexERSt6vectorI7double2SaIS1_EERS0_IiSaIiEES7_S7_S7_S7_S7_S7_S7_S7_)
	jirl	$ra, $ra, 0
	b	.LBB2_8
.LBB2_5:                                # %_ZSteqIcSt11char_traitsIcESaIcEEbRKNSt7__cxx1112basic_stringIT_T0_T1_EEPKS5_.exit33
	ld.d	$a0, $s6, 0
	pcalau12i	$a1, %pc_hi20(.L.str.4)
	addi.d	$a1, $a1, %pc_lo12(.L.str.4)
	move	$a2, $s7
	pcaddu18i	$ra, %call36(bcmp)
	jirl	$ra, $ra, 0
	bnez	$a0, .LBB2_8
# %bb.6:                                # %_ZSteqIcSt11char_traitsIcESaIcEEbRKNSt7__cxx1112basic_stringIT_T0_T1_EEPKS5_.exit33.thread
	ld.d	$a0, $sp, 40                    # 8-byte Folded Reload
	st.d	$a0, $sp, 16
	ld.d	$a0, $sp, 48                    # 8-byte Folded Reload
	st.d	$a0, $sp, 8
	st.d	$s5, $sp, 0
	move	$a0, $s6
	move	$a1, $s1
	move	$a2, $s0
	move	$a3, $fp
	move	$a4, $s4
	move	$a5, $s3
	move	$a6, $s2
	move	$a7, $s8
	pcaddu18i	$ra, %call36(_ZN7GenMesh12generateRectERSt6vectorI7double2SaIS1_EERS0_IiSaIiEES7_S7_S7_S7_S7_S7_S7_S7_)
	jirl	$ra, $ra, 0
	b	.LBB2_8
.LBB2_7:                                # %_ZSteqIcSt11char_traitsIcESaIcEEbRKNSt7__cxx1112basic_stringIT_T0_T1_EEPKS5_.exit.thread
	ld.d	$a0, $sp, 40                    # 8-byte Folded Reload
	st.d	$a0, $sp, 16
	ld.d	$a0, $sp, 48                    # 8-byte Folded Reload
	st.d	$a0, $sp, 8
	st.d	$s5, $sp, 0
	move	$a0, $s6
	move	$a1, $s1
	move	$a2, $s0
	move	$a3, $fp
	move	$a4, $s4
	move	$a5, $s3
	move	$a6, $s2
	ld.d	$a7, $sp, 32                    # 8-byte Folded Reload
	pcaddu18i	$ra, %call36(_ZN7GenMesh11generatePieERSt6vectorI7double2SaIS1_EERS0_IiSaIiEES7_S7_S7_S7_S7_S7_S7_S7_)
	jirl	$ra, $ra, 0
.LBB2_8:                                # %_ZSteqIcSt11char_traitsIcESaIcEEbRKNSt7__cxx1112basic_stringIT_T0_T1_EEPKS5_.exit35.thread38
	ld.d	$s8, $sp, 56                    # 8-byte Folded Reload
	ld.d	$s7, $sp, 64                    # 8-byte Folded Reload
	ld.d	$s6, $sp, 72                    # 8-byte Folded Reload
	ld.d	$s5, $sp, 80                    # 8-byte Folded Reload
	ld.d	$s4, $sp, 88                    # 8-byte Folded Reload
	ld.d	$s3, $sp, 96                    # 8-byte Folded Reload
	ld.d	$s2, $sp, 104                   # 8-byte Folded Reload
	ld.d	$s1, $sp, 112                   # 8-byte Folded Reload
	ld.d	$s0, $sp, 120                   # 8-byte Folded Reload
	ld.d	$fp, $sp, 128                   # 8-byte Folded Reload
	ld.d	$ra, $sp, 136                   # 8-byte Folded Reload
	addi.d	$sp, $sp, 144
	ret
.Lfunc_end2:
	.size	_ZN7GenMesh8generateERSt6vectorI7double2SaIS1_EERS0_IiSaIiEES7_S7_S7_S7_S7_S7_S7_S7_, .Lfunc_end2-_ZN7GenMesh8generateERSt6vectorI7double2SaIS1_EERS0_IiSaIiEES7_S7_S7_S7_S7_S7_S7_S7_
	.cfi_endproc
                                        # -- End function
	.section	.rodata.cst8,"aM",@progbits,8
	.p2align	3, 0x0                          # -- Begin function _ZN7GenMesh9calcNumPEEv
.LCPI3_0:
	.dword	0x3d719799812dea11              # double 9.9999999999999998E-13
.LCPI3_1:
	.dword	0xbd719799812dea11              # double -9.9999999999999998E-13
	.text
	.globl	_ZN7GenMesh9calcNumPEEv
	.p2align	5
	.type	_ZN7GenMesh9calcNumPEEv,@function
_ZN7GenMesh9calcNumPEEv:                # @_ZN7GenMesh9calcNumPEEv
# %bb.0:
	addi.d	$sp, $sp, -64
	st.d	$ra, $sp, 56                    # 8-byte Folded Spill
	st.d	$fp, $sp, 48                    # 8-byte Folded Spill
	st.d	$s0, $sp, 40                    # 8-byte Folded Spill
	fst.d	$fs0, $sp, 32                   # 8-byte Folded Spill
	fst.d	$fs1, $sp, 24                   # 8-byte Folded Spill
	fst.d	$fs2, $sp, 16                   # 8-byte Folded Spill
	fst.d	$fs3, $sp, 8                    # 8-byte Folded Spill
	ld.w	$a1, $a0, 32
	movgr2fr.w	$fa0, $a1
	ld.w	$a1, $a0, 36
	pcalau12i	$a2, %got_pc_hi20(_ZN8Parallel5numpeE)
	ld.d	$fp, $a2, %got_pc_lo12(_ZN8Parallel5numpeE)
	ffint.d.w	$fs0, $fa0
	movgr2fr.w	$fa0, $a1
	ffint.d.w	$fs1, $fa0
	ld.w	$a1, $fp, 0
	fcmp.clt.d	$fcc0, $fs1, $fs0
	fsel	$fs2, $fs1, $fs0, $fcc0
	fsel	$fs3, $fs0, $fs1, $fcc0
	movgr2fr.w	$fa0, $a1
	ffint.d.w	$fa0, $fa0
	fmul.d	$fa0, $fs3, $fa0
	fdiv.d	$fa1, $fa0, $fs2
	fsqrt.d	$fa0, $fa1
	fcmp.cor.d	$fcc0, $fa0, $fa0
	bceqz	$fcc0, .LBB3_9
.LBB3_1:                                # %.split
	pcalau12i	$a1, %pc_hi20(.LCPI3_0)
	fld.d	$fa1, $a1, %pc_lo12(.LCPI3_0)
	fadd.d	$fa1, $fa0, $fa1
	vreplvei.d	$vr1, $vr1, 0
	vfrintrm.d	$vr1, $vr1
	ftintrz.w.d	$fa1, $fa1
	movfr2gr.s	$a2, $fa1
	ori	$a3, $zero, 1
	slt	$a4, $a3, $a2
	ld.w	$a1, $fp, 0
	maskeqz	$a2, $a2, $a4
	masknez	$a3, $a3, $a4
	or	$a2, $a2, $a3
	.p2align	4, , 16
.LBB3_2:                                # =>This Inner Loop Header: Depth=1
	div.w	$a3, $a1, $a2
	mul.d	$a4, $a3, $a2
	sub.w	$a4, $a1, $a4
	addi.w	$a2, $a2, -1
	bnez	$a4, .LBB3_2
# %bb.3:
	pcalau12i	$a4, %pc_hi20(.LCPI3_1)
	fld.d	$fa1, $a4, %pc_lo12(.LCPI3_1)
	fadd.d	$fa0, $fa0, $fa1
	vreplvei.d	$vr0, $vr0, 0
	vfrintrp.d	$vr0, $vr0
	ftintrz.w.d	$fa0, $fa0
	movfr2gr.s	$a4, $fa0
	addi.w	$a2, $a2, 1
	.p2align	4, , 16
.LBB3_4:                                # =>This Inner Loop Header: Depth=1
	div.w	$a5, $a1, $a4
	mul.d	$a6, $a5, $a4
	sub.w	$a6, $a1, $a6
	addi.w	$a4, $a4, 1
	bnez	$a6, .LBB3_4
# %bb.5:
	movgr2fr.w	$fa0, $a2
	ffint.d.w	$fa0, $fa0
	fdiv.d	$fa0, $fs3, $fa0
	movgr2fr.w	$fa1, $a3
	ffint.d.w	$fa1, $fa1
	fdiv.d	$fa1, $fs2, $fa1
	fcmp.clt.d	$fcc0, $fa0, $fa1
	fsel	$fa0, $fa0, $fa1, $fcc0
	addi.d	$a3, $a4, -1
	movgr2fr.w	$fa1, $a3
	ffint.d.w	$fa1, $fa1
	fdiv.d	$fa1, $fs3, $fa1
	movgr2fr.w	$fa2, $a5
	ffint.d.w	$fa2, $fa2
	fdiv.d	$fa2, $fs2, $fa2
	fcmp.clt.d	$fcc0, $fa1, $fa2
	fsel	$fa1, $fa1, $fa2, $fcc0
	fcmp.cle.d	$fcc0, $fa0, $fa1
	addi.w	$a3, $a3, 0
	movcf2gr	$a4, $fcc0
	masknez	$a3, $a3, $a4
	maskeqz	$a2, $a2, $a4
	or	$a2, $a2, $a3
	st.w	$a2, $a0, 56
	div.w	$a1, $a1, $a2
	fcmp.cule.d	$fcc0, $fs0, $fs1
	st.w	$a1, $a0, 60
	bcnez	$fcc0, .LBB3_7
# %bb.6:
	st.w	$a1, $a0, 56
	st.w	$a2, $a0, 60
	b	.LBB3_8
.LBB3_7:
	move	$a1, $a2
.LBB3_8:
	pcalau12i	$a2, %got_pc_hi20(_ZN8Parallel4mypeE)
	ld.d	$a2, $a2, %got_pc_lo12(_ZN8Parallel4mypeE)
	ld.w	$a2, $a2, 0
	div.w	$a3, $a2, $a1
	mul.d	$a1, $a3, $a1
	sub.d	$a1, $a2, $a1
	st.w	$a1, $a0, 64
	st.w	$a3, $a0, 68
	fld.d	$fs3, $sp, 8                    # 8-byte Folded Reload
	fld.d	$fs2, $sp, 16                   # 8-byte Folded Reload
	fld.d	$fs1, $sp, 24                   # 8-byte Folded Reload
	fld.d	$fs0, $sp, 32                   # 8-byte Folded Reload
	ld.d	$s0, $sp, 40                    # 8-byte Folded Reload
	ld.d	$fp, $sp, 48                    # 8-byte Folded Reload
	ld.d	$ra, $sp, 56                    # 8-byte Folded Reload
	addi.d	$sp, $sp, 64
	ret
.LBB3_9:                                # %call.sqrt
	fmov.d	$fa0, $fa1
	move	$s0, $a0
	pcaddu18i	$ra, %call36(sqrt)
	jirl	$ra, $ra, 0
	move	$a0, $s0
	b	.LBB3_1
.Lfunc_end3:
	.size	_ZN7GenMesh9calcNumPEEv, .Lfunc_end3-_ZN7GenMesh9calcNumPEEv
                                        # -- End function
	.globl	_ZN7GenMesh11generatePieERSt6vectorI7double2SaIS1_EERS0_IiSaIiEES7_S7_S7_S7_S7_S7_S7_S7_ # -- Begin function _ZN7GenMesh11generatePieERSt6vectorI7double2SaIS1_EERS0_IiSaIiEES7_S7_S7_S7_S7_S7_S7_S7_
	.p2align	5
	.type	_ZN7GenMesh11generatePieERSt6vectorI7double2SaIS1_EERS0_IiSaIiEES7_S7_S7_S7_S7_S7_S7_S7_,@function
_ZN7GenMesh11generatePieERSt6vectorI7double2SaIS1_EERS0_IiSaIiEES7_S7_S7_S7_S7_S7_S7_S7_: # @_ZN7GenMesh11generatePieERSt6vectorI7double2SaIS1_EERS0_IiSaIiEES7_S7_S7_S7_S7_S7_S7_S7_
	.cfi_startproc
# %bb.0:
	addi.d	$sp, $sp, -272
	.cfi_def_cfa_offset 272
	st.d	$ra, $sp, 264                   # 8-byte Folded Spill
	st.d	$fp, $sp, 256                   # 8-byte Folded Spill
	st.d	$s0, $sp, 248                   # 8-byte Folded Spill
	st.d	$s1, $sp, 240                   # 8-byte Folded Spill
	st.d	$s2, $sp, 232                   # 8-byte Folded Spill
	st.d	$s3, $sp, 224                   # 8-byte Folded Spill
	st.d	$s4, $sp, 216                   # 8-byte Folded Spill
	st.d	$s5, $sp, 208                   # 8-byte Folded Spill
	st.d	$s6, $sp, 200                   # 8-byte Folded Spill
	st.d	$s7, $sp, 192                   # 8-byte Folded Spill
	st.d	$s8, $sp, 184                   # 8-byte Folded Spill
	fst.d	$fs0, $sp, 176                  # 8-byte Folded Spill
	fst.d	$fs1, $sp, 168                  # 8-byte Folded Spill
	fst.d	$fs2, $sp, 160                  # 8-byte Folded Spill
	fst.d	$fs3, $sp, 152                  # 8-byte Folded Spill
	fst.d	$fs4, $sp, 144                  # 8-byte Folded Spill
	.cfi_offset 1, -8
	.cfi_offset 22, -16
	.cfi_offset 23, -24
	.cfi_offset 24, -32
	.cfi_offset 25, -40
	.cfi_offset 26, -48
	.cfi_offset 27, -56
	.cfi_offset 28, -64
	.cfi_offset 29, -72
	.cfi_offset 30, -80
	.cfi_offset 31, -88
	.cfi_offset 56, -96
	.cfi_offset 57, -104
	.cfi_offset 58, -112
	.cfi_offset 59, -120
	.cfi_offset 60, -128
	ld.w	$s5, $a0, 72
	ld.w	$t0, $a0, 76
	st.d	$a0, $sp, 136                   # 8-byte Folded Spill
	ld.w	$a0, $a0, 68
	addi.d	$t1, $s5, 1
	addi.d	$t2, $t0, 1
	sltui	$a0, $a0, 1
	st.d	$t0, $sp, 56                    # 8-byte Folded Spill
	mul.d	$t0, $t1, $t0
	st.d	$t0, $sp, 8                     # 8-byte Folded Spill
	addi.d	$t0, $t0, 1
	st.d	$t1, $sp, 88                    # 8-byte Folded Spill
	st.d	$t2, $sp, 16                    # 8-byte Folded Spill
	mulw.d.w	$t1, $t2, $t1
	st.d	$t1, $sp, 0                     # 8-byte Folded Spill
	masknez	$t1, $t1, $a0
	maskeqz	$a0, $t0, $a0
	or	$a0, $a0, $t1
	addi.w	$s1, $a0, 0
	addi.w	$a0, $zero, -1
	st.d	$a7, $sp, 48                    # 8-byte Folded Spill
	st.d	$a6, $sp, 24                    # 8-byte Folded Spill
	st.d	$a5, $sp, 32                    # 8-byte Folded Spill
	st.d	$a3, $sp, 128                   # 8-byte Folded Spill
	st.d	$a2, $sp, 120                   # 8-byte Folded Spill
	st.d	$a0, $sp, 40                    # 8-byte Folded Spill
	bge	$a0, $s1, .LBB4_378
# %bb.1:
	move	$s3, $a4
	move	$s6, $a1
	ld.d	$fp, $a1, 16
	ld.d	$s0, $a1, 0
	sub.d	$s8, $fp, $s0
	srai.d	$a0, $s8, 4
	bgeu	$a0, $s1, .LBB4_8
# %bb.2:                                # %_ZNSt12_Vector_baseI7double2SaIS0_EE11_M_allocateEm.exit.i.i
	ld.d	$fp, $s6, 8
	slli.d	$a0, $s1, 4
	pcaddu18i	$ra, %call36(_Znwm)
	jirl	$ra, $ra, 0
	move	$s7, $a0
	beq	$fp, $s0, .LBB4_5
# %bb.3:                                # %.lr.ph.i.i.i.i.i.i.preheader
	move	$a0, $s7
	move	$a1, $s0
	.p2align	4, , 16
.LBB4_4:                                # %.lr.ph.i.i.i.i.i.i
                                        # =>This Inner Loop Header: Depth=1
	vld	$vr0, $a1, 0
	vst	$vr0, $a0, 0
	addi.d	$a1, $a1, 16
	addi.d	$a0, $a0, 16
	bne	$a1, $fp, .LBB4_4
.LBB4_5:                                # %_ZNSt6vectorI7double2SaIS0_EE20_M_allocate_and_copyIPKS0_EEPS0_mT_S7_.exit.i
	sub.d	$fp, $fp, $s0
	beqz	$s0, .LBB4_7
# %bb.6:
	move	$a0, $s0
	move	$a1, $s8
	pcaddu18i	$ra, %call36(_ZdlPvm)
	jirl	$ra, $ra, 0
.LBB4_7:                                # %_ZNSt12_Vector_baseI7double2SaIS0_EE13_M_deallocateEPS0_m.exit.i
	st.d	$s7, $s6, 0
	add.d	$a0, $s7, $fp
	st.d	$a0, $s6, 8
	alsl.d	$fp, $s1, $s7, 4
	st.d	$fp, $s6, 16
	st.d	$s5, $sp, 104                   # 8-byte Folded Spill
	ld.d	$a0, $sp, 56                    # 8-byte Folded Reload
	bgez	$a0, .LBB4_9
	b	.LBB4_33
.LBB4_8:
	move	$s7, $s0
	st.d	$s5, $sp, 104                   # 8-byte Folded Spill
	ld.d	$a0, $sp, 56                    # 8-byte Folded Reload
	bltz	$a0, .LBB4_33
.LBB4_9:                                # %.lr.ph515
	ld.d	$a2, $sp, 136                   # 8-byte Folded Reload
	ld.w	$a1, $a2, 32
	move	$a0, $zero
	fld.d	$fa0, $a2, 40
	movgr2fr.w	$fa1, $a1
	ld.w	$a1, $a2, 36
	ffint.d.w	$fa1, $fa1
	fld.d	$fa2, $a2, 48
	fdiv.d	$fs1, $fa0, $fa1
	movgr2fr.w	$fa0, $a1
	ffint.d.w	$fa0, $fa0
	fdiv.d	$fs2, $fa2, $fa0
	addi.w	$a1, $zero, -16
	lu52i.d	$a1, $a1, 2047
	st.d	$a1, $sp, 112                   # 8-byte Folded Spill
	ld.d	$a1, $sp, 40                    # 8-byte Folded Reload
	lu52i.d	$s1, $a1, 127
	vrepli.b	$vr0, 0
	vst	$vr0, $sp, 64                   # 16-byte Folded Spill
	b	.LBB4_14
	.p2align	4, , 16
.LBB4_10:                               #   in Loop: Header=BB4_14 Depth=1
	ld.d	$a0, $s6, 8
	beq	$a0, $fp, .LBB4_26
# %bb.11:                               #   in Loop: Header=BB4_14 Depth=1
	addi.d	$a1, $a0, 16
	vld	$vr0, $sp, 64                   # 16-byte Folded Reload
	vst	$vr0, $a0, 0
	st.d	$a1, $s6, 8
.LBB4_12:                               #   in Loop: Header=BB4_14 Depth=1
	move	$s8, $s7
.LBB4_13:                               # %_ZNSt6vectorI7double2SaIS0_EE9push_backEOS0_.exit
                                        #   in Loop: Header=BB4_14 Depth=1
	ld.d	$a2, $sp, 96                    # 8-byte Folded Reload
	addi.w	$a0, $a2, 1
	move	$s7, $s8
	ld.d	$a1, $sp, 56                    # 8-byte Folded Reload
	beq	$a2, $a1, .LBB4_33
.LBB4_14:                               # =>This Loop Header: Depth=1
                                        #     Child Loop BB4_18 Depth 2
                                        #       Child Loop BB4_22 Depth 3
                                        #     Child Loop BB4_29 Depth 2
	ld.d	$a1, $sp, 136                   # 8-byte Folded Reload
	ld.w	$a1, $a1, 84
	add.w	$a1, $a1, $a0
	st.d	$a0, $sp, 96                    # 8-byte Folded Spill
	beqz	$a1, .LBB4_10
# %bb.15:                               #   in Loop: Header=BB4_14 Depth=1
	bltz	$s5, .LBB4_12
# %bb.16:                               # %.lr.ph.preheader
                                        #   in Loop: Header=BB4_14 Depth=1
	move	$a0, $zero
	ld.d	$s0, $s6, 8
	movgr2fr.w	$fa0, $a1
	ffint.d.w	$fa0, $fa0
	fmul.d	$fs3, $fs2, $fa0
	b	.LBB4_18
	.p2align	4, , 16
.LBB4_17:                               #   in Loop: Header=BB4_18 Depth=2
	fst.d	$fs4, $s0, 0
	fst.d	$fs0, $s0, 8
	addi.d	$s0, $s0, 16
	st.d	$s0, $s6, 8
	move	$s8, $s7
	addi.w	$a0, $s2, 1
	beq	$s2, $s5, .LBB4_13
.LBB4_18:                               # %.lr.ph
                                        #   Parent Loop BB4_14 Depth=1
                                        # =>  This Loop Header: Depth=2
                                        #       Child Loop BB4_22 Depth 3
	ld.d	$a2, $sp, 136                   # 8-byte Folded Reload
	ld.w	$a1, $a2, 80
	ld.w	$a2, $a2, 32
	move	$s2, $a0
	add.d	$a0, $a0, $a1
	sub.d	$a0, $a2, $a0
	movgr2fr.w	$fa0, $a0
	ffint.d.w	$fa0, $fa0
	fmul.d	$fs0, $fs1, $fa0
	fmov.d	$fa0, $fs0
	pcaddu18i	$ra, %call36(cos)
	jirl	$ra, $ra, 0
	fmul.d	$fs4, $fs3, $fa0
	fmov.d	$fa0, $fs0
	pcaddu18i	$ra, %call36(sin)
	jirl	$ra, $ra, 0
	fmul.d	$fs0, $fs3, $fa0
	bne	$s0, $fp, .LBB4_17
# %bb.19:                               #   in Loop: Header=BB4_18 Depth=2
	sub.d	$s0, $fp, $s7
	ld.d	$a0, $sp, 112                   # 8-byte Folded Reload
	beq	$s0, $a0, .LBB4_377
# %bb.20:                               # %.noexc414
                                        #   in Loop: Header=BB4_18 Depth=2
	srai.d	$a0, $s0, 4
	ori	$a2, $zero, 1
	sltu	$a1, $a2, $a0
	masknez	$a2, $a2, $a1
	maskeqz	$a1, $a0, $a1
	or	$a1, $a1, $a2
	add.d	$a0, $a1, $a0
	sltu	$a1, $a0, $a1
	sltu	$a2, $a0, $s1
	maskeqz	$a0, $a0, $a2
	masknez	$a2, $s1, $a2
	or	$a0, $a0, $a2
	masknez	$a0, $a0, $a1
	maskeqz	$a1, $s1, $a1
	or	$s4, $a1, $a0
	slli.d	$a0, $s4, 4
	pcaddu18i	$ra, %call36(_Znwm)
	jirl	$ra, $ra, 0
	move	$s8, $a0
	add.d	$a0, $a0, $s0
	fstx.d	$fs4, $s8, $s0
	fst.d	$fs0, $a0, 8
	move	$s5, $s8
	beq	$s7, $fp, .LBB4_23
# %bb.21:                               # %.lr.ph.i.i.i.i.i.i.i405.preheader
                                        #   in Loop: Header=BB4_18 Depth=2
	move	$s5, $s8
	move	$a0, $s7
	.p2align	4, , 16
.LBB4_22:                               # %.lr.ph.i.i.i.i.i.i.i405
                                        #   Parent Loop BB4_14 Depth=1
                                        #     Parent Loop BB4_18 Depth=2
                                        # =>    This Inner Loop Header: Depth=3
	vld	$vr0, $a0, 0
	vst	$vr0, $s5, 0
	addi.d	$a0, $a0, 16
	addi.d	$s5, $s5, 16
	bne	$a0, $fp, .LBB4_22
.LBB4_23:                               # %_ZSt34__uninitialized_move_if_noexcept_aIP7double2S1_SaIS0_EET0_T_S4_S3_RT1_.exit.i.i409
                                        #   in Loop: Header=BB4_18 Depth=2
	beqz	$s7, .LBB4_25
# %bb.24:                               #   in Loop: Header=BB4_18 Depth=2
	move	$a0, $s7
	move	$a1, $s0
	pcaddu18i	$ra, %call36(_ZdlPvm)
	jirl	$ra, $ra, 0
.LBB4_25:                               # %_ZNSt6vectorI7double2SaIS0_EE17_M_realloc_appendIJS0_EEEvDpOT_.exit.i412
                                        #   in Loop: Header=BB4_18 Depth=2
	addi.d	$s0, $s5, 16
	st.d	$s8, $s6, 0
	st.d	$s0, $s6, 8
	alsl.d	$fp, $s4, $s8, 4
	st.d	$fp, $s6, 16
	move	$s7, $s8
	ld.d	$s5, $sp, 104                   # 8-byte Folded Reload
	addi.w	$a0, $s2, 1
	bne	$s2, $s5, .LBB4_18
	b	.LBB4_13
.LBB4_26:                               #   in Loop: Header=BB4_14 Depth=1
	sub.d	$s0, $fp, $s7
	ld.d	$a0, $sp, 112                   # 8-byte Folded Reload
	beq	$s0, $a0, .LBB4_377
# %bb.27:                               # %.noexc401
                                        #   in Loop: Header=BB4_14 Depth=1
	srai.d	$a0, $s0, 4
	ori	$a2, $zero, 1
	sltu	$a1, $a2, $a0
	masknez	$a2, $a2, $a1
	maskeqz	$a1, $a0, $a1
	or	$a1, $a1, $a2
	add.d	$a0, $a1, $a0
	sltu	$a1, $a0, $a1
	sltu	$a2, $a0, $s1
	maskeqz	$a0, $a0, $a2
	masknez	$a2, $s1, $a2
	or	$a0, $a0, $a2
	masknez	$a0, $a0, $a1
	maskeqz	$a1, $s1, $a1
	or	$s2, $a1, $a0
	slli.d	$a0, $s2, 4
	pcaddu18i	$ra, %call36(_Znwm)
	jirl	$ra, $ra, 0
	move	$s8, $a0
	vld	$vr0, $sp, 64                   # 16-byte Folded Reload
	vstx	$vr0, $a0, $s0
	move	$s4, $a0
	beq	$s7, $fp, .LBB4_30
# %bb.28:                               # %.lr.ph.i.i.i.i.i.i.i.preheader
                                        #   in Loop: Header=BB4_14 Depth=1
	move	$s4, $s8
	move	$a0, $s7
	.p2align	4, , 16
.LBB4_29:                               # %.lr.ph.i.i.i.i.i.i.i
                                        #   Parent Loop BB4_14 Depth=1
                                        # =>  This Inner Loop Header: Depth=2
	vld	$vr0, $a0, 0
	vst	$vr0, $s4, 0
	addi.d	$a0, $a0, 16
	addi.d	$s4, $s4, 16
	bne	$a0, $fp, .LBB4_29
.LBB4_30:                               # %_ZSt34__uninitialized_move_if_noexcept_aIP7double2S1_SaIS0_EET0_T_S4_S3_RT1_.exit.i.i
                                        #   in Loop: Header=BB4_14 Depth=1
	beqz	$s7, .LBB4_32
# %bb.31:                               #   in Loop: Header=BB4_14 Depth=1
	move	$a0, $s7
	move	$a1, $s0
	pcaddu18i	$ra, %call36(_ZdlPvm)
	jirl	$ra, $ra, 0
.LBB4_32:                               # %_ZNSt6vectorI7double2SaIS0_EE17_M_realloc_appendIJS0_EEEvDpOT_.exit.i
                                        #   in Loop: Header=BB4_14 Depth=1
	addi.d	$a0, $s4, 16
	st.d	$s8, $s6, 0
	st.d	$a0, $s6, 8
	alsl.d	$fp, $s2, $s8, 4
	st.d	$fp, $s6, 16
	b	.LBB4_13
.LBB4_33:                               # %._crit_edge
	ld.d	$a0, $sp, 56                    # 8-byte Folded Reload
	mul.w	$fp, $a0, $s5
	ld.d	$a0, $sp, 40                    # 8-byte Folded Reload
	bge	$a0, $fp, .LBB4_378
# %bb.34:
	ld.d	$a1, $sp, 120                   # 8-byte Folded Reload
	ld.d	$a0, $a1, 16
	ld.d	$s0, $a1, 0
	sub.d	$s7, $a0, $s0
	srai.d	$a0, $s7, 2
	slli.d	$s6, $fp, 2
	ld.d	$s1, $sp, 136                   # 8-byte Folded Reload
	bgeu	$a0, $fp, .LBB4_40
# %bb.35:                               # %_ZNSt12_Vector_baseIiSaIiEE11_M_allocateEm.exit.i
	ld.d	$a0, $sp, 120                   # 8-byte Folded Reload
	ld.d	$a0, $a0, 8
	sub.d	$s8, $a0, $s0
	move	$a0, $s6
	pcaddu18i	$ra, %call36(_Znwm)
	jirl	$ra, $ra, 0
	ori	$a1, $zero, 1
	move	$s2, $a0
	blt	$s8, $a1, .LBB4_37
# %bb.36:
	move	$a0, $s2
	move	$a1, $s0
	move	$a2, $s8
	pcaddu18i	$ra, %call36(memcpy)
	jirl	$ra, $ra, 0
.LBB4_37:                               # %_ZNSt6vectorIiSaIiEE11_S_relocateEPiS2_S2_RS0_.exit.i
	beqz	$s0, .LBB4_39
# %bb.38:
	move	$a0, $s0
	move	$a1, $s7
	pcaddu18i	$ra, %call36(_ZdlPvm)
	jirl	$ra, $ra, 0
.LBB4_39:                               # %_ZNSt12_Vector_baseIiSaIiEE13_M_deallocateEPim.exit.i
	ld.d	$a1, $sp, 120                   # 8-byte Folded Reload
	st.d	$s2, $a1, 0
	add.d	$a0, $s2, $s8
	st.d	$a0, $a1, 8
	alsl.d	$a0, $fp, $s2, 2
	st.d	$a0, $a1, 16
.LBB4_40:                               # %_ZNSt6vectorIiSaIiEE7reserveEm.exit
	ld.d	$a1, $sp, 128                   # 8-byte Folded Reload
	ld.d	$a0, $a1, 16
	ld.d	$s0, $a1, 0
	sub.d	$s7, $a0, $s0
	srai.d	$a0, $s7, 2
	bgeu	$a0, $fp, .LBB4_46
# %bb.41:                               # %_ZNSt12_Vector_baseIiSaIiEE11_M_allocateEm.exit.i160
	ld.d	$a0, $sp, 128                   # 8-byte Folded Reload
	ld.d	$a0, $a0, 8
	sub.d	$s8, $a0, $s0
	move	$a0, $s6
	pcaddu18i	$ra, %call36(_Znwm)
	jirl	$ra, $ra, 0
	ori	$a1, $zero, 1
	move	$s2, $a0
	blt	$s8, $a1, .LBB4_43
# %bb.42:
	move	$a0, $s2
	move	$a1, $s0
	move	$a2, $s8
	pcaddu18i	$ra, %call36(memcpy)
	jirl	$ra, $ra, 0
.LBB4_43:                               # %_ZNSt6vectorIiSaIiEE11_S_relocateEPiS2_S2_RS0_.exit.i161
	beqz	$s0, .LBB4_45
# %bb.44:
	move	$a0, $s0
	move	$a1, $s7
	pcaddu18i	$ra, %call36(_ZdlPvm)
	jirl	$ra, $ra, 0
.LBB4_45:                               # %_ZNSt12_Vector_baseIiSaIiEE13_M_deallocateEPim.exit.i163
	ld.d	$a1, $sp, 128                   # 8-byte Folded Reload
	st.d	$s2, $a1, 0
	add.d	$a0, $s2, $s8
	st.d	$a0, $a1, 8
	alsl.d	$a0, $fp, $s2, 2
	st.d	$a0, $a1, 16
.LBB4_46:                               # %_ZNSt6vectorIiSaIiEE7reserveEm.exit164
	ld.d	$a0, $s3, 16
	ld.d	$s0, $s3, 0
	addi.w	$fp, $s6, 0
	sub.d	$s6, $a0, $s0
	srai.d	$a0, $s6, 2
	bgeu	$a0, $fp, .LBB4_52
# %bb.47:                               # %_ZNSt12_Vector_baseIiSaIiEE11_M_allocateEm.exit.i165
	ld.d	$a0, $s3, 8
	sub.d	$s7, $a0, $s0
	slli.d	$a0, $fp, 2
	pcaddu18i	$ra, %call36(_Znwm)
	jirl	$ra, $ra, 0
	ori	$a1, $zero, 1
	move	$s2, $a0
	blt	$s7, $a1, .LBB4_49
# %bb.48:
	move	$a0, $s2
	move	$a1, $s0
	move	$a2, $s7
	pcaddu18i	$ra, %call36(memcpy)
	jirl	$ra, $ra, 0
.LBB4_49:                               # %_ZNSt6vectorIiSaIiEE11_S_relocateEPiS2_S2_RS0_.exit.i166
	beqz	$s0, .LBB4_51
# %bb.50:
	move	$a0, $s0
	move	$a1, $s6
	pcaddu18i	$ra, %call36(_ZdlPvm)
	jirl	$ra, $ra, 0
.LBB4_51:                               # %_ZNSt12_Vector_baseIiSaIiEE13_M_deallocateEPim.exit.i168
	st.d	$s2, $s3, 0
	add.d	$a0, $s2, $s7
	st.d	$a0, $s3, 8
	alsl.d	$a0, $fp, $s2, 2
	st.d	$a0, $s3, 16
.LBB4_52:                               # %_ZNSt6vectorIiSaIiEE7reserveEm.exit169
	ld.w	$a1, $s1, 76
	ori	$a0, $zero, 1
	ld.d	$a5, $sp, 120                   # 8-byte Folded Reload
	blt	$a1, $a0, .LBB4_116
# %bb.53:                               # %.preheader509.lr.ph
	ld.w	$a0, $s1, 72
	ori	$a2, $zero, 1
	blt	$a0, $a2, .LBB4_116
# %bb.54:                               # %.preheader509.preheader
	st.d	$zero, $sp, 96                  # 8-byte Folded Spill
	ori	$s2, $zero, 1
	addi.w	$a2, $zero, -4
	lu52i.d	$a2, $a2, 2047
	st.d	$a2, $sp, 112                   # 8-byte Folded Spill
	ld.d	$a2, $sp, 40                    # 8-byte Folded Reload
	lu52i.d	$fp, $a2, 511
	b	.LBB4_57
	.p2align	4, , 16
.LBB4_55:                               # %._crit_edge518.loopexit
                                        #   in Loop: Header=BB4_57 Depth=1
	ld.w	$a1, $s1, 76
.LBB4_56:                               # %._crit_edge518
                                        #   in Loop: Header=BB4_57 Depth=1
	ld.d	$a2, $sp, 96                    # 8-byte Folded Reload
	addi.w	$a2, $a2, 1
	st.d	$a2, $sp, 96                    # 8-byte Folded Spill
	bge	$a2, $a1, .LBB4_116
.LBB4_57:                               # %.preheader509
                                        # =>This Loop Header: Depth=1
                                        #     Child Loop BB4_60 Depth 2
	blt	$a0, $s2, .LBB4_56
# %bb.58:                               # %.lr.ph517
                                        #   in Loop: Header=BB4_57 Depth=1
	ld.d	$a1, $s3, 8
	move	$s8, $zero
	ld.d	$a0, $sp, 88                    # 8-byte Folded Reload
	ld.d	$a2, $sp, 96                    # 8-byte Folded Reload
	mul.d	$a0, $a2, $a0
	st.d	$a0, $sp, 64                    # 8-byte Folded Spill
	b	.LBB4_60
	.p2align	4, , 16
.LBB4_59:                               #   in Loop: Header=BB4_60 Depth=2
	st.w	$s1, $a1, 0
	addi.d	$a1, $a1, 4
	st.d	$a1, $s3, 8
	ld.d	$s1, $sp, 136                   # 8-byte Folded Reload
	ld.w	$a0, $s1, 72
	addi.w	$s8, $s8, 1
	bge	$s8, $a0, .LBB4_55
.LBB4_60:                               #   Parent Loop BB4_57 Depth=1
                                        # =>  This Inner Loop Header: Depth=2
	ld.d	$a2, $s3, 0
	ld.d	$a0, $a5, 8
	ld.d	$a3, $a5, 16
	sub.d	$a1, $a1, $a2
	srli.d	$s4, $a1, 2
	beq	$a0, $a3, .LBB4_62
# %bb.61:                               #   in Loop: Header=BB4_60 Depth=2
	st.w	$s4, $a0, 0
	addi.d	$a0, $a0, 4
	st.d	$a0, $a5, 8
	b	.LBB4_68
	.p2align	4, , 16
.LBB4_62:                               #   in Loop: Header=BB4_60 Depth=2
	ld.d	$s6, $a5, 0
	sub.d	$s0, $a0, $s6
	ld.d	$a0, $sp, 112                   # 8-byte Folded Reload
	beq	$s0, $a0, .LBB4_377
# %bb.63:                               # %_ZNSt12_Vector_baseIiSaIiEE11_M_allocateEm.exit.i.i.i
                                        #   in Loop: Header=BB4_60 Depth=2
	srai.d	$a0, $s0, 2
	sltu	$a1, $s2, $a0
	masknez	$a2, $s2, $a1
	maskeqz	$a1, $a0, $a1
	or	$a1, $a1, $a2
	add.d	$a0, $a1, $a0
	sltu	$a1, $a0, $a1
	sltu	$a2, $a0, $fp
	maskeqz	$a0, $a0, $a2
	masknez	$a2, $fp, $a2
	or	$a0, $a0, $a2
	masknez	$a0, $a0, $a1
	maskeqz	$a1, $fp, $a1
	or	$s1, $a1, $a0
	slli.d	$a0, $s1, 2
	pcaddu18i	$ra, %call36(_Znwm)
	jirl	$ra, $ra, 0
	move	$s7, $a0
	stx.w	$s4, $a0, $s0
	blt	$s0, $s2, .LBB4_65
# %bb.64:                               #   in Loop: Header=BB4_60 Depth=2
	move	$a0, $s7
	move	$a1, $s6
	move	$a2, $s0
	pcaddu18i	$ra, %call36(memcpy)
	jirl	$ra, $ra, 0
.LBB4_65:                               # %_ZNSt6vectorIiSaIiEE11_S_relocateEPiS2_S2_RS0_.exit.i.i.i
                                        #   in Loop: Header=BB4_60 Depth=2
	beqz	$s6, .LBB4_67
# %bb.66:                               #   in Loop: Header=BB4_60 Depth=2
	move	$a0, $s6
	move	$a1, $s0
	pcaddu18i	$ra, %call36(_ZdlPvm)
	jirl	$ra, $ra, 0
.LBB4_67:                               # %_ZNSt6vectorIiSaIiEE17_M_realloc_appendIJiEEEvDpOT_.exit.i.i
                                        #   in Loop: Header=BB4_60 Depth=2
	add.d	$a0, $s7, $s0
	addi.d	$a0, $a0, 4
	ld.d	$a5, $sp, 120                   # 8-byte Folded Reload
	st.d	$s7, $a5, 0
	st.d	$a0, $a5, 8
	alsl.d	$a0, $s1, $s7, 2
	st.d	$a0, $a5, 16
	ld.d	$s1, $sp, 136                   # 8-byte Folded Reload
.LBB4_68:                               # %_ZNSt6vectorIiSaIiEE9push_backEOi.exit
                                        #   in Loop: Header=BB4_60 Depth=2
	ld.w	$a0, $s1, 68
	ld.d	$a1, $sp, 64                    # 8-byte Folded Reload
	add.d	$a2, $s8, $a1
	sltui	$a3, $a0, 1
	ld.w	$a4, $s1, 84
	ld.d	$a1, $sp, 128                   # 8-byte Folded Reload
	ld.d	$a0, $a1, 8
	ld.d	$a1, $a1, 16
	maskeqz	$a3, $s5, $a3
	sub.w	$a4, $zero, $a4
	sub.d	$s1, $a2, $a3
	ld.d	$a2, $sp, 96                    # 8-byte Folded Reload
	bne	$a2, $a4, .LBB4_72
# %bb.69:                               #   in Loop: Header=BB4_60 Depth=2
	beq	$a0, $a1, .LBB4_78
# %bb.70:                               #   in Loop: Header=BB4_60 Depth=2
	ori	$a1, $zero, 3
	st.w	$a1, $a0, 0
	addi.d	$a0, $a0, 4
	ld.d	$a1, $sp, 128                   # 8-byte Folded Reload
	st.d	$a0, $a1, 8
	ld.d	$a1, $s3, 8
	ld.d	$a0, $s3, 16
	beq	$a1, $a0, .LBB4_84
.LBB4_71:                               #   in Loop: Header=BB4_60 Depth=2
	st.w	$zero, $a1, 0
	b	.LBB4_76
	.p2align	4, , 16
.LBB4_72:                               #   in Loop: Header=BB4_60 Depth=2
	beq	$a0, $a1, .LBB4_102
# %bb.73:                               #   in Loop: Header=BB4_60 Depth=2
	ori	$a1, $zero, 4
	st.w	$a1, $a0, 0
	addi.d	$a0, $a0, 4
	ld.d	$a1, $sp, 128                   # 8-byte Folded Reload
	st.d	$a0, $a1, 8
	ld.d	$a1, $s3, 8
	ld.d	$a0, $s3, 16
	beq	$a1, $a0, .LBB4_108
.LBB4_74:                               #   in Loop: Header=BB4_60 Depth=2
	st.w	$s1, $a1, 0
	addi.d	$a1, $a1, 4
	st.d	$a1, $s3, 8
	addi.d	$s5, $s1, 1
	beq	$a1, $a0, .LBB4_114
.LBB4_75:                               #   in Loop: Header=BB4_60 Depth=2
	st.w	$s5, $a1, 0
.LBB4_76:                               # %_ZNSt6vectorIiSaIiEE9push_backEOi.exit185
                                        #   in Loop: Header=BB4_60 Depth=2
	addi.d	$a1, $a1, 4
	st.d	$a1, $s3, 8
	ld.d	$a2, $sp, 88                    # 8-byte Folded Reload
	add.d	$s1, $s1, $a2
	addi.d	$s5, $s1, 1
	beq	$a1, $a0, .LBB4_90
.LBB4_77:                               #   in Loop: Header=BB4_60 Depth=2
	st.w	$s5, $a1, 0
	addi.d	$a1, $a1, 4
	st.d	$a1, $s3, 8
	ld.d	$s5, $sp, 104                   # 8-byte Folded Reload
	bne	$a1, $a0, .LBB4_59
	b	.LBB4_96
.LBB4_78:                               #   in Loop: Header=BB4_60 Depth=2
	ld.d	$a1, $sp, 128                   # 8-byte Folded Reload
	ld.d	$s6, $a1, 0
	sub.d	$s0, $a0, $s6
	ld.d	$a0, $sp, 112                   # 8-byte Folded Reload
	beq	$s0, $a0, .LBB4_377
# %bb.79:                               # %_ZNSt12_Vector_baseIiSaIiEE11_M_allocateEm.exit.i.i.i173
                                        #   in Loop: Header=BB4_60 Depth=2
	srai.d	$a0, $s0, 2
	sltu	$a1, $s2, $a0
	masknez	$a2, $s2, $a1
	maskeqz	$a1, $a0, $a1
	or	$a1, $a1, $a2
	add.d	$a0, $a1, $a0
	sltu	$a1, $a0, $a1
	sltu	$a2, $a0, $fp
	maskeqz	$a0, $a0, $a2
	masknez	$a2, $fp, $a2
	or	$a0, $a0, $a2
	masknez	$a0, $a0, $a1
	maskeqz	$a1, $fp, $a1
	or	$s4, $a1, $a0
	slli.d	$a0, $s4, 2
	pcaddu18i	$ra, %call36(_Znwm)
	jirl	$ra, $ra, 0
	move	$s7, $a0
	ori	$a0, $zero, 3
	stx.w	$a0, $s7, $s0
	blt	$s0, $s2, .LBB4_81
# %bb.80:                               #   in Loop: Header=BB4_60 Depth=2
	move	$a0, $s7
	move	$a1, $s6
	move	$a2, $s0
	pcaddu18i	$ra, %call36(memcpy)
	jirl	$ra, $ra, 0
.LBB4_81:                               # %_ZNSt6vectorIiSaIiEE11_S_relocateEPiS2_S2_RS0_.exit.i.i.i175
                                        #   in Loop: Header=BB4_60 Depth=2
	beqz	$s6, .LBB4_83
# %bb.82:                               #   in Loop: Header=BB4_60 Depth=2
	move	$a0, $s6
	move	$a1, $s0
	pcaddu18i	$ra, %call36(_ZdlPvm)
	jirl	$ra, $ra, 0
.LBB4_83:                               # %_ZNSt6vectorIiSaIiEE17_M_realloc_appendIJiEEEvDpOT_.exit.i.i177
                                        #   in Loop: Header=BB4_60 Depth=2
	add.d	$a0, $s7, $s0
	addi.d	$a0, $a0, 4
	ld.d	$a1, $sp, 128                   # 8-byte Folded Reload
	st.d	$s7, $a1, 0
	st.d	$a0, $a1, 8
	alsl.d	$a0, $s4, $s7, 2
	st.d	$a0, $a1, 16
	ld.d	$a5, $sp, 120                   # 8-byte Folded Reload
	ld.d	$a1, $s3, 8
	ld.d	$a0, $s3, 16
	bne	$a1, $a0, .LBB4_71
.LBB4_84:                               #   in Loop: Header=BB4_60 Depth=2
	ld.d	$s6, $s3, 0
	sub.d	$s0, $a1, $s6
	ld.d	$a0, $sp, 112                   # 8-byte Folded Reload
	beq	$s0, $a0, .LBB4_377
# %bb.85:                               # %_ZNSt12_Vector_baseIiSaIiEE11_M_allocateEm.exit.i.i.i180
                                        #   in Loop: Header=BB4_60 Depth=2
	srai.d	$a0, $s0, 2
	sltu	$a1, $s2, $a0
	masknez	$a2, $s2, $a1
	maskeqz	$a1, $a0, $a1
	or	$a1, $a1, $a2
	add.d	$a0, $a1, $a0
	sltu	$a1, $a0, $a1
	sltu	$a2, $a0, $fp
	maskeqz	$a0, $a0, $a2
	masknez	$a2, $fp, $a2
	or	$a0, $a0, $a2
	masknez	$a0, $a0, $a1
	maskeqz	$a1, $fp, $a1
	or	$s4, $a1, $a0
	slli.d	$a0, $s4, 2
	pcaddu18i	$ra, %call36(_Znwm)
	jirl	$ra, $ra, 0
	move	$s7, $a0
	stx.w	$zero, $a0, $s0
	blt	$s0, $s2, .LBB4_87
.LBB4_86:                               #   in Loop: Header=BB4_60 Depth=2
	move	$a0, $s7
	move	$a1, $s6
	move	$a2, $s0
	pcaddu18i	$ra, %call36(memcpy)
	jirl	$ra, $ra, 0
.LBB4_87:                               # %_ZNSt6vectorIiSaIiEE11_S_relocateEPiS2_S2_RS0_.exit.i.i.i182
                                        #   in Loop: Header=BB4_60 Depth=2
	beqz	$s6, .LBB4_89
# %bb.88:                               #   in Loop: Header=BB4_60 Depth=2
	move	$a0, $s6
	move	$a1, $s0
	pcaddu18i	$ra, %call36(_ZdlPvm)
	jirl	$ra, $ra, 0
.LBB4_89:                               # %_ZNSt6vectorIiSaIiEE17_M_realloc_appendIJiEEEvDpOT_.exit.i.i198
                                        #   in Loop: Header=BB4_60 Depth=2
	add.d	$a0, $s7, $s0
	addi.d	$a1, $a0, 4
	st.d	$s7, $s3, 0
	st.d	$a1, $s3, 8
	alsl.d	$a0, $s4, $s7, 2
	st.d	$a0, $s3, 16
	ld.d	$a5, $sp, 120                   # 8-byte Folded Reload
	ld.d	$a2, $sp, 88                    # 8-byte Folded Reload
	add.d	$s1, $s1, $a2
	addi.d	$s5, $s1, 1
	bne	$a1, $a0, .LBB4_77
.LBB4_90:                               #   in Loop: Header=BB4_60 Depth=2
	ld.d	$s6, $s3, 0
	sub.d	$s0, $a0, $s6
	ld.d	$a0, $sp, 112                   # 8-byte Folded Reload
	beq	$s0, $a0, .LBB4_377
# %bb.91:                               # %_ZNSt12_Vector_baseIiSaIiEE11_M_allocateEm.exit.i.i.i201
                                        #   in Loop: Header=BB4_60 Depth=2
	srai.d	$a0, $s0, 2
	sltu	$a1, $s2, $a0
	masknez	$a2, $s2, $a1
	maskeqz	$a1, $a0, $a1
	or	$a1, $a1, $a2
	add.d	$a0, $a1, $a0
	sltu	$a1, $a0, $a1
	sltu	$a2, $a0, $fp
	maskeqz	$a0, $a0, $a2
	masknez	$a2, $fp, $a2
	or	$a0, $a0, $a2
	masknez	$a0, $a0, $a1
	maskeqz	$a1, $fp, $a1
	or	$s4, $a1, $a0
	slli.d	$a0, $s4, 2
	pcaddu18i	$ra, %call36(_Znwm)
	jirl	$ra, $ra, 0
	move	$s7, $a0
	stx.w	$s5, $a0, $s0
	blt	$s0, $s2, .LBB4_93
# %bb.92:                               #   in Loop: Header=BB4_60 Depth=2
	move	$a0, $s7
	move	$a1, $s6
	move	$a2, $s0
	pcaddu18i	$ra, %call36(memcpy)
	jirl	$ra, $ra, 0
.LBB4_93:                               # %_ZNSt6vectorIiSaIiEE11_S_relocateEPiS2_S2_RS0_.exit.i.i.i203
                                        #   in Loop: Header=BB4_60 Depth=2
	ld.d	$s5, $sp, 104                   # 8-byte Folded Reload
	beqz	$s6, .LBB4_95
# %bb.94:                               #   in Loop: Header=BB4_60 Depth=2
	move	$a0, $s6
	move	$a1, $s0
	pcaddu18i	$ra, %call36(_ZdlPvm)
	jirl	$ra, $ra, 0
.LBB4_95:                               # %_ZNSt6vectorIiSaIiEE17_M_realloc_appendIJiEEEvDpOT_.exit.i.i205
                                        #   in Loop: Header=BB4_60 Depth=2
	add.d	$a0, $s7, $s0
	addi.d	$a1, $a0, 4
	st.d	$s7, $s3, 0
	st.d	$a1, $s3, 8
	alsl.d	$a0, $s4, $s7, 2
	st.d	$a0, $s3, 16
	ld.d	$a5, $sp, 120                   # 8-byte Folded Reload
	bne	$a1, $a0, .LBB4_59
.LBB4_96:                               #   in Loop: Header=BB4_60 Depth=2
	ld.d	$s6, $s3, 0
	sub.d	$s0, $a0, $s6
	ld.d	$a0, $sp, 112                   # 8-byte Folded Reload
	beq	$s0, $a0, .LBB4_377
# %bb.97:                               # %_ZNSt12_Vector_baseIiSaIiEE11_M_allocateEm.exit.i.i.i208
                                        #   in Loop: Header=BB4_60 Depth=2
	srai.d	$a0, $s0, 2
	sltu	$a1, $s2, $a0
	masknez	$a2, $s2, $a1
	maskeqz	$a1, $a0, $a1
	or	$a1, $a1, $a2
	add.d	$a0, $a1, $a0
	sltu	$a1, $a0, $a1
	sltu	$a2, $a0, $fp
	maskeqz	$a0, $a0, $a2
	masknez	$a2, $fp, $a2
	or	$a0, $a0, $a2
	masknez	$a0, $a0, $a1
	maskeqz	$a1, $fp, $a1
	or	$s4, $a1, $a0
	slli.d	$a0, $s4, 2
	pcaddu18i	$ra, %call36(_Znwm)
	jirl	$ra, $ra, 0
	move	$s7, $a0
	stx.w	$s1, $a0, $s0
	blt	$s0, $s2, .LBB4_99
# %bb.98:                               #   in Loop: Header=BB4_60 Depth=2
	move	$a0, $s7
	move	$a1, $s6
	move	$a2, $s0
	pcaddu18i	$ra, %call36(memcpy)
	jirl	$ra, $ra, 0
.LBB4_99:                               # %_ZNSt6vectorIiSaIiEE11_S_relocateEPiS2_S2_RS0_.exit.i.i.i210
                                        #   in Loop: Header=BB4_60 Depth=2
	ld.d	$s1, $sp, 136                   # 8-byte Folded Reload
	beqz	$s6, .LBB4_101
# %bb.100:                              #   in Loop: Header=BB4_60 Depth=2
	move	$a0, $s6
	move	$a1, $s0
	pcaddu18i	$ra, %call36(_ZdlPvm)
	jirl	$ra, $ra, 0
.LBB4_101:                              # %_ZNSt6vectorIiSaIiEE17_M_realloc_appendIJiEEEvDpOT_.exit.i.i212
                                        #   in Loop: Header=BB4_60 Depth=2
	add.d	$a0, $s7, $s0
	addi.d	$a1, $a0, 4
	st.d	$s7, $s3, 0
	st.d	$a1, $s3, 8
	alsl.d	$a0, $s4, $s7, 2
	st.d	$a0, $s3, 16
	ld.d	$a5, $sp, 120                   # 8-byte Folded Reload
	ld.w	$a0, $s1, 72
	addi.w	$s8, $s8, 1
	blt	$s8, $a0, .LBB4_60
	b	.LBB4_55
.LBB4_102:                              #   in Loop: Header=BB4_60 Depth=2
	ld.d	$a1, $sp, 128                   # 8-byte Folded Reload
	ld.d	$s6, $a1, 0
	sub.d	$s0, $a0, $s6
	ld.d	$a0, $sp, 112                   # 8-byte Folded Reload
	beq	$s0, $a0, .LBB4_377
# %bb.103:                              # %_ZNSt12_Vector_baseIiSaIiEE11_M_allocateEm.exit.i.i.i187
                                        #   in Loop: Header=BB4_60 Depth=2
	srai.d	$a0, $s0, 2
	sltu	$a1, $s2, $a0
	masknez	$a2, $s2, $a1
	maskeqz	$a1, $a0, $a1
	or	$a1, $a1, $a2
	add.d	$a0, $a1, $a0
	sltu	$a1, $a0, $a1
	sltu	$a2, $a0, $fp
	maskeqz	$a0, $a0, $a2
	masknez	$a2, $fp, $a2
	or	$a0, $a0, $a2
	masknez	$a0, $a0, $a1
	maskeqz	$a1, $fp, $a1
	or	$s4, $a1, $a0
	slli.d	$a0, $s4, 2
	pcaddu18i	$ra, %call36(_Znwm)
	jirl	$ra, $ra, 0
	move	$s7, $a0
	ori	$a0, $zero, 4
	stx.w	$a0, $s7, $s0
	blt	$s0, $s2, .LBB4_105
# %bb.104:                              #   in Loop: Header=BB4_60 Depth=2
	move	$a0, $s7
	move	$a1, $s6
	move	$a2, $s0
	pcaddu18i	$ra, %call36(memcpy)
	jirl	$ra, $ra, 0
.LBB4_105:                              # %_ZNSt6vectorIiSaIiEE11_S_relocateEPiS2_S2_RS0_.exit.i.i.i189
                                        #   in Loop: Header=BB4_60 Depth=2
	beqz	$s6, .LBB4_107
# %bb.106:                              #   in Loop: Header=BB4_60 Depth=2
	move	$a0, $s6
	move	$a1, $s0
	pcaddu18i	$ra, %call36(_ZdlPvm)
	jirl	$ra, $ra, 0
.LBB4_107:                              # %_ZNSt6vectorIiSaIiEE17_M_realloc_appendIJiEEEvDpOT_.exit.i.i191
                                        #   in Loop: Header=BB4_60 Depth=2
	add.d	$a0, $s7, $s0
	addi.d	$a0, $a0, 4
	ld.d	$a1, $sp, 128                   # 8-byte Folded Reload
	st.d	$s7, $a1, 0
	st.d	$a0, $a1, 8
	alsl.d	$a0, $s4, $s7, 2
	st.d	$a0, $a1, 16
	ld.d	$a5, $sp, 120                   # 8-byte Folded Reload
	ld.d	$a1, $s3, 8
	ld.d	$a0, $s3, 16
	bne	$a1, $a0, .LBB4_74
.LBB4_108:                              #   in Loop: Header=BB4_60 Depth=2
	ld.d	$s6, $s3, 0
	sub.d	$s0, $a1, $s6
	ld.d	$a0, $sp, 112                   # 8-byte Folded Reload
	beq	$s0, $a0, .LBB4_377
# %bb.109:                              # %_ZNSt12_Vector_baseIiSaIiEE11_M_allocateEm.exit.i.i
                                        #   in Loop: Header=BB4_60 Depth=2
	srai.d	$a0, $s0, 2
	sltu	$a1, $s2, $a0
	masknez	$a2, $s2, $a1
	maskeqz	$a1, $a0, $a1
	or	$a1, $a1, $a2
	add.d	$a0, $a1, $a0
	sltu	$a1, $a0, $a1
	sltu	$a2, $a0, $fp
	maskeqz	$a0, $a0, $a2
	masknez	$a2, $fp, $a2
	or	$a0, $a0, $a2
	masknez	$a0, $a0, $a1
	maskeqz	$a1, $fp, $a1
	or	$s4, $a1, $a0
	slli.d	$a0, $s4, 2
	pcaddu18i	$ra, %call36(_Znwm)
	jirl	$ra, $ra, 0
	move	$s7, $a0
	stx.w	$s1, $a0, $s0
	blt	$s0, $s2, .LBB4_111
# %bb.110:                              #   in Loop: Header=BB4_60 Depth=2
	move	$a0, $s7
	move	$a1, $s6
	move	$a2, $s0
	pcaddu18i	$ra, %call36(memcpy)
	jirl	$ra, $ra, 0
.LBB4_111:                              # %_ZNSt6vectorIiSaIiEE11_S_relocateEPiS2_S2_RS0_.exit.i.i
                                        #   in Loop: Header=BB4_60 Depth=2
	beqz	$s6, .LBB4_113
# %bb.112:                              #   in Loop: Header=BB4_60 Depth=2
	move	$a0, $s6
	move	$a1, $s0
	pcaddu18i	$ra, %call36(_ZdlPvm)
	jirl	$ra, $ra, 0
.LBB4_113:                              # %_ZNSt6vectorIiSaIiEE17_M_realloc_appendIJRKiEEEvDpOT_.exit.i
                                        #   in Loop: Header=BB4_60 Depth=2
	add.d	$a0, $s7, $s0
	addi.d	$a1, $a0, 4
	st.d	$s7, $s3, 0
	st.d	$a1, $s3, 8
	alsl.d	$a0, $s4, $s7, 2
	st.d	$a0, $s3, 16
	ld.d	$a5, $sp, 120                   # 8-byte Folded Reload
	addi.d	$s5, $s1, 1
	bne	$a1, $a0, .LBB4_75
.LBB4_114:                              #   in Loop: Header=BB4_60 Depth=2
	ld.d	$s6, $s3, 0
	sub.d	$s0, $a0, $s6
	ld.d	$a0, $sp, 112                   # 8-byte Folded Reload
	beq	$s0, $a0, .LBB4_377
# %bb.115:                              # %_ZNSt12_Vector_baseIiSaIiEE11_M_allocateEm.exit.i.i.i194
                                        #   in Loop: Header=BB4_60 Depth=2
	srai.d	$a0, $s0, 2
	sltu	$a1, $s2, $a0
	masknez	$a2, $s2, $a1
	maskeqz	$a1, $a0, $a1
	or	$a1, $a1, $a2
	add.d	$a0, $a1, $a0
	sltu	$a1, $a0, $a1
	sltu	$a2, $a0, $fp
	maskeqz	$a0, $a0, $a2
	masknez	$a2, $fp, $a2
	or	$a0, $a0, $a2
	masknez	$a0, $a0, $a1
	maskeqz	$a1, $fp, $a1
	or	$s4, $a1, $a0
	slli.d	$a0, $s4, 2
	pcaddu18i	$ra, %call36(_Znwm)
	jirl	$ra, $ra, 0
	move	$s7, $a0
	stx.w	$s5, $a0, $s0
	bge	$s0, $s2, .LBB4_86
	b	.LBB4_87
.LBB4_116:                              # %._crit_edge520
	pcalau12i	$a0, %got_pc_hi20(_ZN8Parallel5numpeE)
	ld.d	$a0, $a0, %got_pc_lo12(_ZN8Parallel5numpeE)
	ld.w	$a0, $a0, 0
	ori	$a1, $zero, 1
	beq	$a0, $a1, .LBB4_370
# %bb.117:
	move	$a0, $s1
	ld.w	$s1, $s1, 68
	ld.w	$fp, $a0, 64
	sltui	$a0, $s1, 1
	ld.d	$a1, $sp, 88                    # 8-byte Folded Reload
	masknez	$a0, $a1, $a0
	sltui	$a1, $fp, 1
	ld.d	$a2, $sp, 16                    # 8-byte Folded Reload
	masknez	$a1, $a2, $a1
	add.w	$s2, $a1, $a0
	ld.d	$a0, $sp, 40                    # 8-byte Folded Reload
	bge	$a0, $s2, .LBB4_378
# %bb.118:
	ld.d	$a1, $sp, 48                    # 8-byte Folded Reload
	ld.d	$a0, $a1, 16
	ld.d	$s3, $a1, 0
	sub.d	$s4, $a0, $s3
	srai.d	$a0, $s4, 2
	bgeu	$a0, $s2, .LBB4_124
# %bb.119:                              # %_ZNSt12_Vector_baseIiSaIiEE11_M_allocateEm.exit.i214
	ld.d	$a0, $a1, 8
	sub.d	$s0, $a0, $s3
	slli.d	$a0, $s2, 2
	pcaddu18i	$ra, %call36(_Znwm)
	jirl	$ra, $ra, 0
	ori	$a1, $zero, 1
	move	$s5, $a0
	blt	$s0, $a1, .LBB4_121
# %bb.120:
	move	$a0, $s5
	move	$a1, $s3
	move	$a2, $s0
	pcaddu18i	$ra, %call36(memcpy)
	jirl	$ra, $ra, 0
.LBB4_121:                              # %_ZNSt6vectorIiSaIiEE11_S_relocateEPiS2_S2_RS0_.exit.i215
	beqz	$s3, .LBB4_123
# %bb.122:
	move	$a0, $s3
	move	$a1, $s4
	pcaddu18i	$ra, %call36(_ZdlPvm)
	jirl	$ra, $ra, 0
	ld.d	$a0, $sp, 136                   # 8-byte Folded Reload
	ld.w	$s1, $a0, 68
	ld.w	$fp, $a0, 64
.LBB4_123:                              # %_ZNSt12_Vector_baseIiSaIiEE13_M_deallocateEPim.exit.i217
	ld.d	$a1, $sp, 48                    # 8-byte Folded Reload
	st.d	$s5, $a1, 0
	add.d	$a0, $s5, $s0
	st.d	$a0, $a1, 8
	alsl.d	$a0, $s2, $s5, 2
	st.d	$a0, $a1, 16
	ld.d	$s5, $sp, 104                   # 8-byte Folded Reload
.LBB4_124:                              # %_ZNSt6vectorIiSaIiEE7reserveEm.exit218
	ld.d	$a1, $sp, 136                   # 8-byte Folded Reload
	ld.w	$a0, $a1, 60
	addi.w	$a0, $a0, -1
	ld.w	$a1, $a1, 56
	xor	$a0, $s1, $a0
	sltui	$a0, $a0, 1
	ld.d	$a2, $sp, 88                    # 8-byte Folded Reload
	masknez	$a0, $a2, $a0
	addi.w	$a1, $a1, -1
	xor	$a1, $fp, $a1
	sltui	$a1, $a1, 1
	ld.d	$a2, $sp, 16                    # 8-byte Folded Reload
	masknez	$a1, $a2, $a1
	add.w	$a0, $a1, $a0
	addi.w	$a1, $zero, -2
	bge	$a1, $a0, .LBB4_378
# %bb.125:
	ld.d	$s6, $sp, 288
	ld.d	$a1, $s6, 16
	ld.d	$s3, $s6, 0
	addi.w	$s2, $a0, 1
	sub.d	$s4, $a1, $s3
	srai.d	$a0, $s4, 2
	bgeu	$a0, $s2, .LBB4_131
# %bb.126:                              # %_ZNSt12_Vector_baseIiSaIiEE11_M_allocateEm.exit.i219
	ld.d	$a0, $s6, 8
	sub.d	$s0, $a0, $s3
	slli.d	$a0, $s2, 2
	pcaddu18i	$ra, %call36(_Znwm)
	jirl	$ra, $ra, 0
	ori	$a1, $zero, 1
	move	$s5, $a0
	blt	$s0, $a1, .LBB4_128
# %bb.127:
	move	$a0, $s5
	move	$a1, $s3
	move	$a2, $s0
	pcaddu18i	$ra, %call36(memcpy)
	jirl	$ra, $ra, 0
.LBB4_128:                              # %_ZNSt6vectorIiSaIiEE11_S_relocateEPiS2_S2_RS0_.exit.i220
	ld.d	$s1, $sp, 136                   # 8-byte Folded Reload
	beqz	$s3, .LBB4_130
# %bb.129:
	move	$a0, $s3
	move	$a1, $s4
	pcaddu18i	$ra, %call36(_ZdlPvm)
	jirl	$ra, $ra, 0
	ld.w	$fp, $s1, 64
.LBB4_130:                              # %_ZNSt12_Vector_baseIiSaIiEE13_M_deallocateEPim.exit.i222
	st.d	$s5, $s6, 0
	add.d	$a0, $s5, $s0
	st.d	$a0, $s6, 8
	alsl.d	$a0, $s2, $s5, 2
	st.d	$a0, $s6, 16
	ld.w	$s1, $s1, 68
	ld.d	$s5, $sp, 104                   # 8-byte Folded Reload
.LBB4_131:                              # %_ZNSt6vectorIiSaIiEE7reserveEm.exit223
	beqz	$fp, .LBB4_158
# %bb.132:                              # %_ZNSt6vectorIiSaIiEE7reserveEm.exit223
	beqz	$s1, .LBB4_158
# %bb.133:
	pcalau12i	$a0, %got_pc_hi20(_ZN8Parallel4mypeE)
	ld.d	$a0, $a0, %got_pc_lo12(_ZN8Parallel4mypeE)
	ld.w	$fp, $a0, 0
	ld.d	$a3, $sp, 48                    # 8-byte Folded Reload
	ld.d	$a0, $a3, 8
	ld.d	$a1, $a3, 16
	ld.d	$a2, $sp, 136                   # 8-byte Folded Reload
	ld.w	$s1, $a2, 56
	beq	$a0, $a1, .LBB4_135
# %bb.134:
	st.w	$zero, $a0, 0
	addi.d	$a0, $a0, 4
	st.d	$a0, $a3, 8
	b	.LBB4_141
.LBB4_135:
	ld.d	$s0, $a3, 0
	sub.d	$s3, $a0, $s0
	addi.w	$a0, $zero, -4
	lu52i.d	$a0, $a0, 2047
	beq	$s3, $a0, .LBB4_377
# %bb.136:                              # %_ZNSt12_Vector_baseIiSaIiEE11_M_allocateEm.exit.i.i.i225
	srai.d	$a0, $s3, 2
	ori	$s5, $zero, 1
	sltu	$a1, $s5, $a0
	masknez	$a2, $s5, $a1
	maskeqz	$a1, $a0, $a1
	or	$a1, $a1, $a2
	add.d	$a0, $a1, $a0
	sltu	$a1, $a0, $a1
	ld.d	$a2, $sp, 40                    # 8-byte Folded Reload
	lu52i.d	$a2, $a2, 511
	sltu	$a3, $a0, $a2
	maskeqz	$a0, $a0, $a3
	masknez	$a3, $a2, $a3
	or	$a0, $a0, $a3
	masknez	$a0, $a0, $a1
	maskeqz	$a1, $a2, $a1
	or	$s2, $a1, $a0
	slli.d	$a0, $s2, 2
	pcaddu18i	$ra, %call36(_Znwm)
	jirl	$ra, $ra, 0
	move	$s4, $a0
	stx.w	$zero, $a0, $s3
	blt	$s3, $s5, .LBB4_138
# %bb.137:
	move	$a0, $s4
	move	$a1, $s0
	move	$a2, $s3
	pcaddu18i	$ra, %call36(memcpy)
	jirl	$ra, $ra, 0
.LBB4_138:                              # %_ZNSt6vectorIiSaIiEE11_S_relocateEPiS2_S2_RS0_.exit.i.i.i227
	add.d	$s5, $s4, $s3
	beqz	$s0, .LBB4_140
# %bb.139:
	move	$a0, $s0
	move	$a1, $s3
	pcaddu18i	$ra, %call36(_ZdlPvm)
	jirl	$ra, $ra, 0
.LBB4_140:                              # %_ZNSt6vectorIiSaIiEE17_M_realloc_appendIJiEEEvDpOT_.exit.i.i229
	addi.d	$a0, $s5, 4
	ld.d	$a1, $sp, 48                    # 8-byte Folded Reload
	st.d	$s4, $a1, 0
	st.d	$a0, $a1, 8
	alsl.d	$a0, $s2, $s4, 2
	st.d	$a0, $a1, 16
	ld.d	$s5, $sp, 104                   # 8-byte Folded Reload
.LBB4_141:                              # %_ZNSt6vectorIiSaIiEE9push_backEOi.exit230
	ld.d	$a3, $sp, 32                    # 8-byte Folded Reload
	ld.d	$a0, $a3, 8
	ld.d	$a1, $a3, 16
	nor	$a2, $s1, $zero
	add.d	$fp, $fp, $a2
	beq	$a0, $a1, .LBB4_143
# %bb.142:
	st.w	$fp, $a0, 0
	addi.d	$a0, $a0, 4
	st.d	$a0, $a3, 8
	b	.LBB4_149
.LBB4_143:
	ld.d	$s0, $a3, 0
	sub.d	$s3, $a0, $s0
	addi.w	$a0, $zero, -4
	lu52i.d	$a0, $a0, 2047
	beq	$s3, $a0, .LBB4_377
# %bb.144:                              # %_ZNSt12_Vector_baseIiSaIiEE11_M_allocateEm.exit.i.i232
	srai.d	$a0, $s3, 2
	ori	$s2, $zero, 1
	sltu	$a1, $s2, $a0
	masknez	$a2, $s2, $a1
	maskeqz	$a1, $a0, $a1
	or	$a1, $a1, $a2
	add.d	$a0, $a1, $a0
	sltu	$a1, $a0, $a1
	ld.d	$a2, $sp, 40                    # 8-byte Folded Reload
	lu52i.d	$a2, $a2, 511
	sltu	$a3, $a0, $a2
	maskeqz	$a0, $a0, $a3
	masknez	$a3, $a2, $a3
	or	$a0, $a0, $a3
	masknez	$a0, $a0, $a1
	maskeqz	$a1, $a2, $a1
	or	$s1, $a1, $a0
	slli.d	$a0, $s1, 2
	pcaddu18i	$ra, %call36(_Znwm)
	jirl	$ra, $ra, 0
	move	$s4, $a0
	stx.w	$fp, $a0, $s3
	blt	$s3, $s2, .LBB4_146
# %bb.145:
	move	$a0, $s4
	move	$a1, $s0
	move	$a2, $s3
	pcaddu18i	$ra, %call36(memcpy)
	jirl	$ra, $ra, 0
.LBB4_146:                              # %_ZNSt6vectorIiSaIiEE11_S_relocateEPiS2_S2_RS0_.exit.i.i234
	add.d	$fp, $s4, $s3
	beqz	$s0, .LBB4_148
# %bb.147:
	move	$a0, $s0
	move	$a1, $s3
	pcaddu18i	$ra, %call36(_ZdlPvm)
	jirl	$ra, $ra, 0
.LBB4_148:                              # %_ZNSt6vectorIiSaIiEE17_M_realloc_appendIJRKiEEEvDpOT_.exit.i236
	addi.d	$a0, $fp, 4
	ld.d	$a1, $sp, 32                    # 8-byte Folded Reload
	st.d	$s4, $a1, 0
	st.d	$a0, $a1, 8
	alsl.d	$a0, $s1, $s4, 2
	st.d	$a0, $a1, 16
.LBB4_149:                              # %_ZNSt6vectorIiSaIiEE9push_backERKi.exit237
	ld.d	$a2, $sp, 136                   # 8-byte Folded Reload
	ld.d	$a3, $sp, 24                    # 8-byte Folded Reload
	ld.d	$a0, $a3, 8
	ld.d	$a1, $a3, 16
	beq	$a0, $a1, .LBB4_151
# %bb.150:
	ori	$a1, $zero, 1
	st.w	$a1, $a0, 0
	addi.d	$a0, $a0, 4
	st.d	$a0, $a3, 8
	b	.LBB4_157
.LBB4_151:
	ld.d	$s0, $a3, 0
	sub.d	$s3, $a0, $s0
	addi.w	$a0, $zero, -4
	lu52i.d	$a0, $a0, 2047
	beq	$s3, $a0, .LBB4_377
# %bb.152:                              # %_ZNSt12_Vector_baseIiSaIiEE11_M_allocateEm.exit.i.i.i239
	srai.d	$a0, $s3, 2
	ori	$s1, $zero, 1
	sltu	$a1, $s1, $a0
	masknez	$a2, $s1, $a1
	maskeqz	$a1, $a0, $a1
	or	$a1, $a1, $a2
	add.d	$a0, $a1, $a0
	sltu	$a1, $a0, $a1
	ld.d	$a2, $sp, 40                    # 8-byte Folded Reload
	lu52i.d	$a2, $a2, 511
	sltu	$a3, $a0, $a2
	maskeqz	$a0, $a0, $a3
	masknez	$a3, $a2, $a3
	or	$a0, $a0, $a3
	masknez	$a0, $a0, $a1
	maskeqz	$a1, $a2, $a1
	or	$fp, $a1, $a0
	slli.d	$a0, $fp, 2
	pcaddu18i	$ra, %call36(_Znwm)
	jirl	$ra, $ra, 0
	move	$s4, $a0
	stx.w	$s1, $a0, $s3
	blt	$s3, $s1, .LBB4_154
# %bb.153:
	move	$a0, $s4
	move	$a1, $s0
	move	$a2, $s3
	pcaddu18i	$ra, %call36(memcpy)
	jirl	$ra, $ra, 0
.LBB4_154:                              # %_ZNSt6vectorIiSaIiEE11_S_relocateEPiS2_S2_RS0_.exit.i.i.i241
	add.d	$s1, $s4, $s3
	beqz	$s0, .LBB4_156
# %bb.155:
	move	$a0, $s0
	move	$a1, $s3
	pcaddu18i	$ra, %call36(_ZdlPvm)
	jirl	$ra, $ra, 0
.LBB4_156:                              # %_ZNSt6vectorIiSaIiEE17_M_realloc_appendIJiEEEvDpOT_.exit.i.i243
	addi.d	$a0, $s1, 4
	ld.d	$a1, $sp, 24                    # 8-byte Folded Reload
	st.d	$s4, $a1, 0
	st.d	$a0, $a1, 8
	alsl.d	$a0, $fp, $s4, 2
	st.d	$a0, $a1, 16
	ld.d	$a2, $sp, 136                   # 8-byte Folded Reload
.LBB4_157:                              # %_ZNSt6vectorIiSaIiEE9push_backEOi.exit244thread-pre-split
	ld.w	$s1, $a2, 68
.LBB4_158:                              # %_ZNSt6vectorIiSaIiEE9push_backEOi.exit244
	beqz	$s1, .LBB4_184
# %bb.159:
	pcalau12i	$a0, %got_pc_hi20(_ZN8Parallel4mypeE)
	ld.d	$a0, $a0, %got_pc_lo12(_ZN8Parallel4mypeE)
	ld.w	$a0, $a0, 0
	st.d	$a0, $sp, 128                   # 8-byte Folded Spill
	ld.d	$a2, $sp, 48                    # 8-byte Folded Reload
	ld.d	$a0, $a2, 8
	ld.d	$s4, $a2, 0
	ld.d	$a1, $sp, 136                   # 8-byte Folded Reload
	ld.w	$s1, $a1, 56
	sub.d	$s2, $a0, $s4
	st.d	$s2, $sp, 120                   # 8-byte Folded Spill
	bltz	$s5, .LBB4_174
# %bb.160:                              # %.lr.ph525.preheader
	ld.w	$a1, $a1, 64
	beqz	$a1, .LBB4_171
# %bb.161:
	move	$s5, $s4
	ld.d	$a1, $sp, 104                   # 8-byte Folded Reload
	beqz	$a1, .LBB4_173
.LBB4_162:                              # %.lr.ph525.peel.next.preheader
	move	$s2, $zero
	addi.w	$a1, $zero, -4
	lu52i.d	$s7, $a1, 2047
	ori	$s8, $zero, 1
	ld.d	$a1, $sp, 40                    # 8-byte Folded Reload
	lu52i.d	$s3, $a1, 511
	b	.LBB4_164
	.p2align	4, , 16
.LBB4_163:                              #   in Loop: Header=BB4_164 Depth=1
	st.w	$s2, $a0, 0
	addi.d	$a0, $a0, 4
	st.d	$a0, $a2, 8
	move	$s4, $s5
	ld.d	$a1, $sp, 104                   # 8-byte Folded Reload
	beq	$a1, $s2, .LBB4_174
.LBB4_164:                              # %.lr.ph525.peel.next
                                        # =>This Inner Loop Header: Depth=1
	ld.d	$a1, $a2, 16
	addi.w	$s2, $s2, 1
	bne	$a0, $a1, .LBB4_163
# %bb.165:                              #   in Loop: Header=BB4_164 Depth=1
	sub.d	$s0, $a0, $s5
	beq	$s0, $s7, .LBB4_377
# %bb.166:                              # %_ZNSt12_Vector_baseIiSaIiEE11_M_allocateEm.exit.i.i260
                                        #   in Loop: Header=BB4_164 Depth=1
	srai.d	$a0, $s0, 2
	sltu	$a1, $s8, $a0
	masknez	$a2, $s8, $a1
	maskeqz	$a1, $a0, $a1
	or	$a1, $a1, $a2
	add.d	$a0, $a1, $a0
	sltu	$a1, $a0, $a1
	sltu	$a2, $a0, $s3
	maskeqz	$a0, $a0, $a2
	masknez	$a2, $s3, $a2
	or	$a0, $a0, $a2
	masknez	$a0, $a0, $a1
	maskeqz	$a1, $s3, $a1
	or	$fp, $a1, $a0
	slli.d	$a0, $fp, 2
	pcaddu18i	$ra, %call36(_Znwm)
	jirl	$ra, $ra, 0
	move	$s4, $a0
	stx.w	$s2, $a0, $s0
	blt	$s0, $s8, .LBB4_168
# %bb.167:                              #   in Loop: Header=BB4_164 Depth=1
	move	$a0, $s4
	move	$a1, $s5
	move	$a2, $s0
	pcaddu18i	$ra, %call36(memcpy)
	jirl	$ra, $ra, 0
.LBB4_168:                              # %_ZNSt6vectorIiSaIiEE11_S_relocateEPiS2_S2_RS0_.exit.i.i262
                                        #   in Loop: Header=BB4_164 Depth=1
	beqz	$s5, .LBB4_170
# %bb.169:                              #   in Loop: Header=BB4_164 Depth=1
	move	$a0, $s5
	move	$a1, $s0
	pcaddu18i	$ra, %call36(_ZdlPvm)
	jirl	$ra, $ra, 0
.LBB4_170:                              # %_ZNSt6vectorIiSaIiEE17_M_realloc_appendIJRKiEEEvDpOT_.exit.i264
                                        #   in Loop: Header=BB4_164 Depth=1
	add.d	$a0, $s4, $s0
	addi.d	$a0, $a0, 4
	ld.d	$a2, $sp, 48                    # 8-byte Folded Reload
	st.d	$s4, $a2, 0
	st.d	$a0, $a2, 8
	alsl.d	$a1, $fp, $s4, 2
	st.d	$a1, $a2, 16
	move	$s5, $s4
	ld.d	$a1, $sp, 104                   # 8-byte Folded Reload
	bne	$a1, $s2, .LBB4_164
	b	.LBB4_174
.LBB4_171:
	ld.d	$a1, $a2, 16
	beq	$a0, $a1, .LBB4_213
# %bb.172:
	st.w	$zero, $a0, 0
	addi.d	$a0, $a0, 4
	st.d	$a0, $a2, 8
	move	$s5, $s4
	ld.d	$a1, $sp, 104                   # 8-byte Folded Reload
	bnez	$a1, .LBB4_162
.LBB4_173:
	move	$s4, $s5
.LBB4_174:                              # %._crit_edge526
	ld.d	$a3, $sp, 32                    # 8-byte Folded Reload
	ld.d	$a0, $a3, 8
	ld.d	$a1, $a3, 16
	ld.d	$a4, $sp, 128                   # 8-byte Folded Reload
	sub.d	$s1, $a4, $s1
	beq	$a0, $a1, .LBB4_176
# %bb.175:
	st.w	$s1, $a0, 0
	addi.d	$a0, $a0, 4
	st.d	$a0, $a3, 8
	b	.LBB4_182
.LBB4_176:
	ld.d	$s0, $a3, 0
	sub.d	$s4, $a0, $s0
	addi.w	$a0, $zero, -4
	lu52i.d	$a0, $a0, 2047
	beq	$s4, $a0, .LBB4_377
# %bb.177:                              # %_ZNSt12_Vector_baseIiSaIiEE11_M_allocateEm.exit.i.i246
	srai.d	$a0, $s4, 2
	ori	$s2, $zero, 1
	sltu	$a1, $s2, $a0
	masknez	$a2, $s2, $a1
	maskeqz	$a1, $a0, $a1
	or	$a1, $a1, $a2
	add.d	$a0, $a1, $a0
	sltu	$a1, $a0, $a1
	ld.d	$a2, $sp, 40                    # 8-byte Folded Reload
	lu52i.d	$a2, $a2, 511
	sltu	$a3, $a0, $a2
	maskeqz	$a0, $a0, $a3
	masknez	$a3, $a2, $a3
	or	$a0, $a0, $a3
	masknez	$a0, $a0, $a1
	maskeqz	$a1, $a2, $a1
	or	$fp, $a1, $a0
	slli.d	$a0, $fp, 2
	pcaddu18i	$ra, %call36(_Znwm)
	jirl	$ra, $ra, 0
	move	$s5, $a0
	stx.w	$s1, $a0, $s4
	blt	$s4, $s2, .LBB4_179
# %bb.178:
	move	$a0, $s5
	move	$a1, $s0
	move	$a2, $s4
	pcaddu18i	$ra, %call36(memcpy)
	jirl	$ra, $ra, 0
.LBB4_179:                              # %_ZNSt6vectorIiSaIiEE11_S_relocateEPiS2_S2_RS0_.exit.i.i248
	add.d	$s1, $s5, $s4
	beqz	$s0, .LBB4_181
# %bb.180:
	move	$a0, $s0
	move	$a1, $s4
	pcaddu18i	$ra, %call36(_ZdlPvm)
	jirl	$ra, $ra, 0
.LBB4_181:                              # %_ZNSt6vectorIiSaIiEE17_M_realloc_appendIJRKiEEEvDpOT_.exit.i250
	addi.d	$a0, $s1, 4
	ld.d	$a1, $sp, 32                    # 8-byte Folded Reload
	st.d	$s5, $a1, 0
	ld.d	$a2, $sp, 48                    # 8-byte Folded Reload
	ld.d	$s4, $a2, 0
	st.d	$a0, $a1, 8
	alsl.d	$a0, $fp, $s5, 2
	st.d	$a0, $a1, 16
.LBB4_182:                              # %_ZNSt6vectorIiSaIiEE9push_backERKi.exit251
	ld.d	$s5, $sp, 104                   # 8-byte Folded Reload
	ld.d	$a3, $sp, 120                   # 8-byte Folded Reload
	ld.d	$a1, $a2, 8
	ld.d	$a4, $sp, 24                    # 8-byte Folded Reload
	ld.d	$a0, $a4, 8
	ld.d	$a2, $a4, 16
	srli.d	$a3, $a3, 2
	sub.d	$a1, $a1, $s4
	srli.d	$a1, $a1, 2
	sub.d	$fp, $a1, $a3
	beq	$a0, $a2, .LBB4_198
# %bb.183:
	st.w	$fp, $a0, 0
	addi.d	$a0, $a0, 4
	st.d	$a0, $a4, 8
.LBB4_184:                              # %_ZNSt6vectorIiSaIiEE9push_backEOi.exit258
	ld.d	$s1, $sp, 136                   # 8-byte Folded Reload
	ld.w	$a0, $s1, 64
	ld.d	$a3, $sp, 48                    # 8-byte Folded Reload
	beqz	$a0, .LBB4_248
.LBB4_185:
	pcalau12i	$a0, %got_pc_hi20(_ZN8Parallel4mypeE)
	ld.d	$a1, $a0, %got_pc_lo12(_ZN8Parallel4mypeE)
	ld.d	$a0, $a3, 8
	ld.d	$s3, $a3, 0
	ld.w	$a2, $s1, 68
	ld.w	$s7, $a1, 0
	sub.d	$s0, $a0, $s3
	srai.d	$s5, $s0, 2
	st.d	$s7, $sp, 128                   # 8-byte Folded Spill
	beqz	$a2, .LBB4_196
.LBB4_186:
	st.d	$s5, $sp, 120                   # 8-byte Folded Spill
	ori	$s2, $zero, 1
	ld.d	$a0, $sp, 56                    # 8-byte Folded Reload
	blt	$a0, $s2, .LBB4_232
.LBB4_187:                              # %.lr.ph531.preheader
	ld.d	$a0, $sp, 136                   # 8-byte Folded Reload
	ld.w	$a0, $a0, 68
	slti	$a0, $a0, 1
	ld.d	$a1, $sp, 88                    # 8-byte Folded Reload
	masknez	$a1, $a1, $a0
	maskeqz	$a0, $s2, $a0
	or	$s5, $a0, $a1
	ld.d	$a0, $a3, 8
	ld.d	$a1, $a3, 16
	addi.w	$a2, $zero, -4
	lu52i.d	$s7, $a2, 2047
	ld.d	$a2, $sp, 40                    # 8-byte Folded Reload
	lu52i.d	$s8, $a2, 511
	ld.d	$s1, $sp, 56                    # 8-byte Folded Reload
	b	.LBB4_189
	.p2align	4, , 16
.LBB4_188:                              #   in Loop: Header=BB4_189 Depth=1
	st.w	$s5, $a0, 0
	addi.d	$a0, $a0, 4
	st.d	$a0, $a3, 8
	addi.w	$s1, $s1, -1
	ld.d	$a2, $sp, 88                    # 8-byte Folded Reload
	add.d	$s5, $s5, $a2
	beqz	$s1, .LBB4_232
.LBB4_189:                              # %.lr.ph531
                                        # =>This Inner Loop Header: Depth=1
	bne	$a0, $a1, .LBB4_188
# %bb.190:                              #   in Loop: Header=BB4_189 Depth=1
	ld.d	$s3, $a3, 0
	sub.d	$s0, $a1, $s3
	beq	$s0, $s7, .LBB4_377
# %bb.191:                              # %_ZNSt12_Vector_baseIiSaIiEE11_M_allocateEm.exit.i.i302
                                        #   in Loop: Header=BB4_189 Depth=1
	srai.d	$a0, $s0, 2
	sltu	$a1, $s2, $a0
	masknez	$a2, $s2, $a1
	maskeqz	$a1, $a0, $a1
	or	$a1, $a1, $a2
	add.d	$a0, $a1, $a0
	sltu	$a1, $a0, $a1
	sltu	$a2, $a0, $s8
	maskeqz	$a0, $a0, $a2
	masknez	$a2, $s8, $a2
	or	$a0, $a0, $a2
	masknez	$a0, $a0, $a1
	maskeqz	$a1, $s8, $a1
	or	$fp, $a1, $a0
	slli.d	$a0, $fp, 2
	pcaddu18i	$ra, %call36(_Znwm)
	jirl	$ra, $ra, 0
	move	$s4, $a0
	stx.w	$s5, $a0, $s0
	blt	$s0, $s2, .LBB4_193
# %bb.192:                              #   in Loop: Header=BB4_189 Depth=1
	move	$a0, $s4
	move	$a1, $s3
	move	$a2, $s0
	pcaddu18i	$ra, %call36(memcpy)
	jirl	$ra, $ra, 0
.LBB4_193:                              # %_ZNSt6vectorIiSaIiEE11_S_relocateEPiS2_S2_RS0_.exit.i.i304
                                        #   in Loop: Header=BB4_189 Depth=1
	beqz	$s3, .LBB4_195
# %bb.194:                              #   in Loop: Header=BB4_189 Depth=1
	move	$a0, $s3
	move	$a1, $s0
	pcaddu18i	$ra, %call36(_ZdlPvm)
	jirl	$ra, $ra, 0
.LBB4_195:                              # %_ZNSt6vectorIiSaIiEE17_M_realloc_appendIJRKiEEEvDpOT_.exit.i306
                                        #   in Loop: Header=BB4_189 Depth=1
	add.d	$a0, $s4, $s0
	addi.d	$a0, $a0, 4
	ld.d	$a3, $sp, 48                    # 8-byte Folded Reload
	st.d	$s4, $a3, 0
	st.d	$a0, $a3, 8
	alsl.d	$a1, $fp, $s4, 2
	st.d	$a1, $a3, 16
	addi.w	$s1, $s1, -1
	ld.d	$a2, $sp, 88                    # 8-byte Folded Reload
	add.d	$s5, $s5, $a2
	bnez	$s1, .LBB4_189
	b	.LBB4_232
.LBB4_196:
	ld.d	$a1, $a3, 16
	beq	$a0, $a1, .LBB4_204
# %bb.197:
	st.w	$zero, $a0, 0
	addi.d	$a0, $a0, 4
	st.d	$a0, $a3, 8
	ld.d	$s2, $sp, 32                    # 8-byte Folded Reload
	ld.w	$a0, $s1, 64
	ori	$a1, $zero, 2
	bge	$a0, $a1, .LBB4_210
	b	.LBB4_186
.LBB4_198:
	ld.d	$s0, $a4, 0
	sub.d	$s3, $a0, $s0
	addi.w	$a0, $zero, -4
	lu52i.d	$a0, $a0, 2047
	beq	$s3, $a0, .LBB4_377
# %bb.199:                              # %_ZNSt12_Vector_baseIiSaIiEE11_M_allocateEm.exit.i.i.i253
	srai.d	$a0, $s3, 2
	ori	$s2, $zero, 1
	sltu	$a1, $s2, $a0
	masknez	$a2, $s2, $a1
	maskeqz	$a1, $a0, $a1
	or	$a1, $a1, $a2
	add.d	$a0, $a1, $a0
	sltu	$a1, $a0, $a1
	ld.d	$a2, $sp, 40                    # 8-byte Folded Reload
	lu52i.d	$a2, $a2, 511
	sltu	$a3, $a0, $a2
	maskeqz	$a0, $a0, $a3
	masknez	$a3, $a2, $a3
	or	$a0, $a0, $a3
	masknez	$a0, $a0, $a1
	maskeqz	$a1, $a2, $a1
	or	$s1, $a1, $a0
	slli.d	$a0, $s1, 2
	pcaddu18i	$ra, %call36(_Znwm)
	jirl	$ra, $ra, 0
	move	$s4, $a0
	stx.w	$fp, $a0, $s3
	blt	$s3, $s2, .LBB4_201
# %bb.200:
	move	$a0, $s4
	move	$a1, $s0
	move	$a2, $s3
	pcaddu18i	$ra, %call36(memcpy)
	jirl	$ra, $ra, 0
.LBB4_201:                              # %_ZNSt6vectorIiSaIiEE11_S_relocateEPiS2_S2_RS0_.exit.i.i.i255
	add.d	$fp, $s4, $s3
	beqz	$s0, .LBB4_203
# %bb.202:
	move	$a0, $s0
	move	$a1, $s3
	pcaddu18i	$ra, %call36(_ZdlPvm)
	jirl	$ra, $ra, 0
.LBB4_203:                              # %_ZNSt6vectorIiSaIiEE17_M_realloc_appendIJiEEEvDpOT_.exit.i.i257
	addi.d	$a0, $fp, 4
	ld.d	$a1, $sp, 24                    # 8-byte Folded Reload
	st.d	$s4, $a1, 0
	st.d	$a0, $a1, 8
	alsl.d	$a0, $s1, $s4, 2
	st.d	$a0, $a1, 16
	ld.d	$s1, $sp, 136                   # 8-byte Folded Reload
	ld.w	$a0, $s1, 64
	ld.d	$a3, $sp, 48                    # 8-byte Folded Reload
	bnez	$a0, .LBB4_185
	b	.LBB4_248
.LBB4_204:
	addi.w	$a0, $zero, -4
	lu52i.d	$a0, $a0, 2047
	ld.d	$s2, $sp, 32                    # 8-byte Folded Reload
	beq	$s0, $a0, .LBB4_377
# %bb.205:                              # %_ZNSt12_Vector_baseIiSaIiEE11_M_allocateEm.exit.i.i.i267
	ori	$fp, $zero, 1
	sltu	$a0, $fp, $s5
	masknez	$a1, $fp, $a0
	maskeqz	$a0, $s5, $a0
	or	$a0, $a0, $a1
	add.d	$a1, $a0, $s5
	sltu	$a0, $a1, $a0
	ld.d	$a2, $sp, 40                    # 8-byte Folded Reload
	lu52i.d	$a2, $a2, 511
	sltu	$a3, $a1, $a2
	maskeqz	$a1, $a1, $a3
	masknez	$a3, $a2, $a3
	or	$a1, $a1, $a3
	masknez	$a1, $a1, $a0
	maskeqz	$a0, $a2, $a0
	or	$s1, $a0, $a1
	slli.d	$a0, $s1, 2
	pcaddu18i	$ra, %call36(_Znwm)
	jirl	$ra, $ra, 0
	move	$s4, $a0
	stx.w	$zero, $a0, $s0
	blt	$s0, $fp, .LBB4_207
# %bb.206:
	move	$a0, $s4
	move	$a1, $s3
	move	$a2, $s0
	pcaddu18i	$ra, %call36(memcpy)
	jirl	$ra, $ra, 0
.LBB4_207:                              # %_ZNSt6vectorIiSaIiEE11_S_relocateEPiS2_S2_RS0_.exit.i.i.i269
	add.d	$fp, $s4, $s0
	beqz	$s3, .LBB4_209
# %bb.208:
	move	$a0, $s3
	move	$a1, $s0
	pcaddu18i	$ra, %call36(_ZdlPvm)
	jirl	$ra, $ra, 0
.LBB4_209:                              # %_ZNSt6vectorIiSaIiEE17_M_realloc_appendIJiEEEvDpOT_.exit.i.i271
	addi.d	$a0, $fp, 4
	ld.d	$a3, $sp, 48                    # 8-byte Folded Reload
	st.d	$s4, $a3, 0
	st.d	$a0, $a3, 8
	alsl.d	$a0, $s1, $s4, 2
	st.d	$a0, $a3, 16
	ld.d	$s1, $sp, 136                   # 8-byte Folded Reload
	ld.w	$a0, $s1, 64
	ori	$a1, $zero, 2
	blt	$a0, $a1, .LBB4_186
.LBB4_210:
	ld.d	$a0, $s2, 8
	ld.d	$a1, $s2, 16
	beq	$a0, $a1, .LBB4_219
# %bb.211:
	st.w	$zero, $a0, 0
	addi.d	$a0, $a0, 4
	st.d	$a0, $s2, 8
	ld.d	$a2, $sp, 24                    # 8-byte Folded Reload
	ld.d	$a0, $a2, 8
	ld.d	$a1, $a2, 16
	beq	$a0, $a1, .LBB4_225
.LBB4_212:
	ori	$a1, $zero, 1
	st.w	$a1, $a0, 0
	addi.d	$a0, $a0, 4
	st.d	$a0, $a2, 8
	b	.LBB4_231
.LBB4_213:
	addi.w	$a0, $zero, -4
	lu52i.d	$a0, $a0, 2047
	beq	$s2, $a0, .LBB4_377
# %bb.214:                              # %_ZNSt12_Vector_baseIiSaIiEE11_M_allocateEm.exit.i.i260.peel
	move	$a1, $s2
	srai.d	$a0, $a1, 2
	ori	$fp, $zero, 1
	sltu	$a1, $fp, $a0
	masknez	$a2, $fp, $a1
	maskeqz	$a1, $a0, $a1
	or	$a1, $a1, $a2
	add.d	$a0, $a1, $a0
	sltu	$a1, $a0, $a1
	ld.d	$a2, $sp, 40                    # 8-byte Folded Reload
	lu52i.d	$a2, $a2, 511
	sltu	$a3, $a0, $a2
	maskeqz	$a0, $a0, $a3
	masknez	$a3, $a2, $a3
	or	$a0, $a0, $a3
	masknez	$a0, $a0, $a1
	maskeqz	$a1, $a2, $a1
	or	$s0, $a1, $a0
	slli.d	$a0, $s0, 2
	pcaddu18i	$ra, %call36(_Znwm)
	jirl	$ra, $ra, 0
	move	$s5, $a0
	stx.w	$zero, $a0, $s2
	blt	$s2, $fp, .LBB4_216
# %bb.215:
	move	$a0, $s5
	move	$a1, $s4
	move	$a2, $s2
	pcaddu18i	$ra, %call36(memcpy)
	jirl	$ra, $ra, 0
.LBB4_216:                              # %_ZNSt6vectorIiSaIiEE11_S_relocateEPiS2_S2_RS0_.exit.i.i262.peel
	add.d	$fp, $s5, $s2
	beqz	$s4, .LBB4_218
# %bb.217:
	move	$a0, $s4
	move	$a1, $s2
	pcaddu18i	$ra, %call36(_ZdlPvm)
	jirl	$ra, $ra, 0
.LBB4_218:                              # %_ZNSt6vectorIiSaIiEE17_M_realloc_appendIJRKiEEEvDpOT_.exit.i264.peel
	addi.d	$a0, $fp, 4
	ld.d	$a2, $sp, 48                    # 8-byte Folded Reload
	st.d	$s5, $a2, 0
	st.d	$a0, $a2, 8
	alsl.d	$a1, $s0, $s5, 2
	st.d	$a1, $a2, 16
	ld.d	$a1, $sp, 104                   # 8-byte Folded Reload
	bnez	$a1, .LBB4_162
	b	.LBB4_173
.LBB4_219:
	ld.d	$s0, $s2, 0
	sub.d	$s3, $a0, $s0
	addi.w	$a0, $zero, -4
	lu52i.d	$a0, $a0, 2047
	beq	$s3, $a0, .LBB4_377
# %bb.220:                              # %_ZNSt12_Vector_baseIiSaIiEE11_M_allocateEm.exit.i.i.i274
	srai.d	$a0, $s3, 2
	ori	$fp, $zero, 1
	sltu	$a1, $fp, $a0
	masknez	$a2, $fp, $a1
	maskeqz	$a1, $a0, $a1
	or	$a1, $a1, $a2
	add.d	$a0, $a1, $a0
	sltu	$a1, $a0, $a1
	ld.d	$a2, $sp, 40                    # 8-byte Folded Reload
	lu52i.d	$a2, $a2, 511
	sltu	$a3, $a0, $a2
	maskeqz	$a0, $a0, $a3
	masknez	$a3, $a2, $a3
	or	$a0, $a0, $a3
	masknez	$a0, $a0, $a1
	maskeqz	$a1, $a2, $a1
	or	$s1, $a1, $a0
	slli.d	$a0, $s1, 2
	pcaddu18i	$ra, %call36(_Znwm)
	jirl	$ra, $ra, 0
	move	$s4, $a0
	stx.w	$zero, $a0, $s3
	blt	$s3, $fp, .LBB4_222
# %bb.221:
	move	$a0, $s4
	move	$a1, $s0
	move	$a2, $s3
	pcaddu18i	$ra, %call36(memcpy)
	jirl	$ra, $ra, 0
.LBB4_222:                              # %_ZNSt6vectorIiSaIiEE11_S_relocateEPiS2_S2_RS0_.exit.i.i.i276
	add.d	$fp, $s4, $s3
	beqz	$s0, .LBB4_224
# %bb.223:
	move	$a0, $s0
	move	$a1, $s3
	pcaddu18i	$ra, %call36(_ZdlPvm)
	jirl	$ra, $ra, 0
.LBB4_224:                              # %_ZNSt6vectorIiSaIiEE17_M_realloc_appendIJiEEEvDpOT_.exit.i.i278
	addi.d	$a0, $fp, 4
	st.d	$s4, $s2, 0
	st.d	$a0, $s2, 8
	alsl.d	$a0, $s1, $s4, 2
	st.d	$a0, $s2, 16
	ld.d	$a2, $sp, 24                    # 8-byte Folded Reload
	ld.d	$a3, $sp, 48                    # 8-byte Folded Reload
	ld.d	$a0, $a2, 8
	ld.d	$a1, $a2, 16
	bne	$a0, $a1, .LBB4_212
.LBB4_225:
	ld.d	$s0, $a2, 0
	sub.d	$s3, $a0, $s0
	addi.w	$a0, $zero, -4
	lu52i.d	$a0, $a0, 2047
	beq	$s3, $a0, .LBB4_377
# %bb.226:                              # %_ZNSt12_Vector_baseIiSaIiEE11_M_allocateEm.exit.i.i.i281
	srai.d	$a0, $s3, 2
	ori	$fp, $zero, 1
	sltu	$a1, $fp, $a0
	masknez	$a2, $fp, $a1
	maskeqz	$a1, $a0, $a1
	or	$a1, $a1, $a2
	add.d	$a0, $a1, $a0
	sltu	$a1, $a0, $a1
	ld.d	$a2, $sp, 40                    # 8-byte Folded Reload
	lu52i.d	$a2, $a2, 511
	sltu	$a3, $a0, $a2
	maskeqz	$a0, $a0, $a3
	masknez	$a3, $a2, $a3
	or	$a0, $a0, $a3
	masknez	$a0, $a0, $a1
	maskeqz	$a1, $a2, $a1
	or	$s1, $a1, $a0
	slli.d	$a0, $s1, 2
	pcaddu18i	$ra, %call36(_Znwm)
	jirl	$ra, $ra, 0
	move	$s4, $a0
	stx.w	$fp, $a0, $s3
	blt	$s3, $fp, .LBB4_228
# %bb.227:
	move	$a0, $s4
	move	$a1, $s0
	move	$a2, $s3
	pcaddu18i	$ra, %call36(memcpy)
	jirl	$ra, $ra, 0
.LBB4_228:                              # %_ZNSt6vectorIiSaIiEE11_S_relocateEPiS2_S2_RS0_.exit.i.i.i283
	add.d	$fp, $s4, $s3
	beqz	$s0, .LBB4_230
# %bb.229:
	move	$a0, $s0
	move	$a1, $s3
	pcaddu18i	$ra, %call36(_ZdlPvm)
	jirl	$ra, $ra, 0
.LBB4_230:                              # %_ZNSt6vectorIiSaIiEE17_M_realloc_appendIJiEEEvDpOT_.exit.i.i285
	addi.d	$a0, $fp, 4
	ld.d	$a1, $sp, 24                    # 8-byte Folded Reload
	st.d	$s4, $a1, 0
	st.d	$a0, $a1, 8
	alsl.d	$a0, $s1, $s4, 2
	st.d	$a0, $a1, 16
	ld.d	$a3, $sp, 48                    # 8-byte Folded Reload
.LBB4_231:                              # %_ZNSt6vectorIiSaIiEE9push_backEOi.exit286
	addi.d	$s5, $s5, 1
	st.d	$s5, $sp, 120                   # 8-byte Folded Spill
	ori	$s2, $zero, 1
	ld.d	$a0, $sp, 56                    # 8-byte Folded Reload
	bge	$a0, $s2, .LBB4_187
.LBB4_232:                              # %._crit_edge532
	ld.d	$a2, $sp, 32                    # 8-byte Folded Reload
	ld.d	$a0, $a2, 8
	ld.d	$a1, $a2, 16
	ld.d	$a4, $sp, 128                   # 8-byte Folded Reload
	addi.d	$s1, $a4, -1
	beq	$a0, $a1, .LBB4_234
# %bb.233:
	st.w	$s1, $a0, 0
	addi.d	$a0, $a0, 4
	st.d	$a0, $a2, 8
	ld.d	$s5, $sp, 104                   # 8-byte Folded Reload
	ld.d	$s1, $sp, 136                   # 8-byte Folded Reload
	b	.LBB4_240
.LBB4_234:
	ld.d	$s0, $a2, 0
	sub.d	$s3, $a0, $s0
	addi.w	$a0, $zero, -4
	lu52i.d	$a0, $a0, 2047
	ld.d	$s5, $sp, 104                   # 8-byte Folded Reload
	beq	$s3, $a0, .LBB4_377
# %bb.235:                              # %_ZNSt12_Vector_baseIiSaIiEE11_M_allocateEm.exit.i.i288
	srai.d	$a0, $s3, 2
	ori	$fp, $zero, 1
	sltu	$a1, $fp, $a0
	masknez	$a2, $fp, $a1
	maskeqz	$a1, $a0, $a1
	or	$a1, $a1, $a2
	add.d	$a0, $a1, $a0
	sltu	$a1, $a0, $a1
	ld.d	$a2, $sp, 40                    # 8-byte Folded Reload
	lu52i.d	$a2, $a2, 511
	sltu	$a3, $a0, $a2
	maskeqz	$a0, $a0, $a3
	masknez	$a3, $a2, $a3
	or	$a0, $a0, $a3
	masknez	$a0, $a0, $a1
	maskeqz	$a1, $a2, $a1
	or	$s2, $a1, $a0
	slli.d	$a0, $s2, 2
	pcaddu18i	$ra, %call36(_Znwm)
	jirl	$ra, $ra, 0
	move	$s4, $a0
	stx.w	$s1, $a0, $s3
	blt	$s3, $fp, .LBB4_237
# %bb.236:
	move	$a0, $s4
	move	$a1, $s0
	move	$a2, $s3
	pcaddu18i	$ra, %call36(memcpy)
	jirl	$ra, $ra, 0
.LBB4_237:                              # %_ZNSt6vectorIiSaIiEE11_S_relocateEPiS2_S2_RS0_.exit.i.i290
	add.d	$fp, $s4, $s3
	ld.d	$s1, $sp, 136                   # 8-byte Folded Reload
	beqz	$s0, .LBB4_239
# %bb.238:
	move	$a0, $s0
	move	$a1, $s3
	pcaddu18i	$ra, %call36(_ZdlPvm)
	jirl	$ra, $ra, 0
.LBB4_239:                              # %_ZNSt6vectorIiSaIiEE17_M_realloc_appendIJRKiEEEvDpOT_.exit.i292
	addi.d	$a0, $fp, 4
	ld.d	$a1, $sp, 32                    # 8-byte Folded Reload
	st.d	$s4, $a1, 0
	st.d	$a0, $a1, 8
	alsl.d	$a0, $s2, $s4, 2
	st.d	$a0, $a1, 16
	ld.d	$a3, $sp, 48                    # 8-byte Folded Reload
.LBB4_240:                              # %_ZNSt6vectorIiSaIiEE9push_backERKi.exit293
	ld.d	$a1, $a3, 8
	ld.d	$a2, $a3, 0
	ld.d	$a4, $sp, 24                    # 8-byte Folded Reload
	ld.d	$a0, $a4, 8
	ld.d	$a3, $a4, 16
	sub.d	$a1, $a1, $a2
	srli.d	$a1, $a1, 2
	ld.d	$a2, $sp, 120                   # 8-byte Folded Reload
	sub.d	$fp, $a1, $a2
	beq	$a0, $a3, .LBB4_242
# %bb.241:
	st.w	$fp, $a0, 0
	addi.d	$a0, $a0, 4
	st.d	$a0, $a4, 8
	b	.LBB4_248
.LBB4_242:
	ld.d	$s0, $a4, 0
	sub.d	$s1, $a0, $s0
	addi.w	$a0, $zero, -4
	lu52i.d	$a0, $a0, 2047
	beq	$s1, $a0, .LBB4_377
# %bb.243:                              # %_ZNSt12_Vector_baseIiSaIiEE11_M_allocateEm.exit.i.i.i295
	srai.d	$a0, $s1, 2
	ori	$s4, $zero, 1
	sltu	$a1, $s4, $a0
	masknez	$a2, $s4, $a1
	maskeqz	$a1, $a0, $a1
	or	$a1, $a1, $a2
	add.d	$a0, $a1, $a0
	sltu	$a1, $a0, $a1
	ld.d	$a2, $sp, 40                    # 8-byte Folded Reload
	lu52i.d	$a2, $a2, 511
	sltu	$a3, $a0, $a2
	maskeqz	$a0, $a0, $a3
	masknez	$a3, $a2, $a3
	or	$a0, $a0, $a3
	masknez	$a0, $a0, $a1
	maskeqz	$a1, $a2, $a1
	or	$s3, $a1, $a0
	slli.d	$a0, $s3, 2
	pcaddu18i	$ra, %call36(_Znwm)
	jirl	$ra, $ra, 0
	move	$s2, $a0
	stx.w	$fp, $a0, $s1
	blt	$s1, $s4, .LBB4_245
# %bb.244:
	move	$a0, $s2
	move	$a1, $s0
	move	$a2, $s1
	pcaddu18i	$ra, %call36(memcpy)
	jirl	$ra, $ra, 0
.LBB4_245:                              # %_ZNSt6vectorIiSaIiEE11_S_relocateEPiS2_S2_RS0_.exit.i.i.i297
	add.d	$fp, $s2, $s1
	beqz	$s0, .LBB4_247
# %bb.246:
	move	$a0, $s0
	move	$a1, $s1
	pcaddu18i	$ra, %call36(_ZdlPvm)
	jirl	$ra, $ra, 0
.LBB4_247:                              # %_ZNSt6vectorIiSaIiEE17_M_realloc_appendIJiEEEvDpOT_.exit.i.i299
	addi.d	$a0, $fp, 4
	ld.d	$a1, $sp, 24                    # 8-byte Folded Reload
	st.d	$s2, $a1, 0
	st.d	$a0, $a1, 8
	alsl.d	$a0, $s3, $s2, 2
	st.d	$a0, $a1, 16
	ld.d	$s1, $sp, 136                   # 8-byte Folded Reload
.LBB4_248:                              # %_ZNSt6vectorIiSaIiEE9push_backEOi.exit300
	ld.d	$a5, $sp, 280
	ld.d	$a6, $sp, 272
	ld.w	$a0, $s1, 56
	ld.w	$a2, $s1, 64
	ld.w	$a1, $s1, 68
	addi.w	$a0, $a0, -1
	st.d	$a5, $sp, 120                   # 8-byte Folded Spill
	st.d	$a6, $sp, 128                   # 8-byte Folded Spill
	beq	$a2, $a0, .LBB4_312
# %bb.249:
	pcalau12i	$a0, %got_pc_hi20(_ZN8Parallel4mypeE)
	ld.d	$a3, $a0, %got_pc_lo12(_ZN8Parallel4mypeE)
	ld.d	$a0, $s6, 8
	ld.d	$s1, $s6, 0
	ld.w	$s4, $a3, 0
	sub.d	$s2, $a0, $s1
	or	$a1, $a2, $a1
	srai.d	$a2, $s2, 2
	st.d	$a2, $sp, 96                    # 8-byte Folded Spill
	st.d	$s4, $sp, 112                   # 8-byte Folded Spill
	bnez	$a1, .LBB4_252
# %bb.250:
	ld.d	$a1, $s6, 16
	beq	$a0, $a1, .LBB4_263
# %bb.251:
	st.w	$zero, $a0, 0
	addi.d	$a0, $a0, 4
	st.d	$a0, $s6, 8
.LBB4_252:
	move	$s0, $s1
	ori	$s7, $zero, 1
	ld.d	$a1, $sp, 136                   # 8-byte Folded Reload
	ld.d	$a2, $sp, 56                    # 8-byte Folded Reload
	blt	$a2, $s7, .LBB4_269
.LBB4_253:                              # %.lr.ph536.preheader
	ld.w	$a1, $a1, 68
	slt	$a1, $zero, $a1
	ld.d	$a3, $sp, 40                    # 8-byte Folded Reload
	ld.d	$a4, $sp, 88                    # 8-byte Folded Reload
	alsl.w	$a2, $a4, $a3, 1
	maskeqz	$a2, $a2, $a1
	masknez	$a1, $a4, $a1
	or	$s8, $a2, $a1
	ld.d	$a1, $s6, 16
	addi.w	$a2, $zero, -4
	lu52i.d	$fp, $a2, 2047
	lu52i.d	$s3, $a3, 511
	b	.LBB4_256
	.p2align	4, , 16
.LBB4_254:                              #   in Loop: Header=BB4_256 Depth=1
	st.w	$s8, $a0, 0
	addi.d	$a0, $a0, 4
	st.d	$a0, $s6, 8
	move	$s1, $s0
.LBB4_255:                              # %_ZNSt6vectorIiSaIiEE9push_backERKi.exit335
                                        #   in Loop: Header=BB4_256 Depth=1
	ld.d	$a2, $sp, 56                    # 8-byte Folded Reload
	addi.w	$a2, $a2, -1
	ld.d	$a3, $sp, 88                    # 8-byte Folded Reload
	add.d	$s8, $s8, $a3
	st.d	$a2, $sp, 56                    # 8-byte Folded Spill
	beqz	$a2, .LBB4_270
.LBB4_256:                              # %.lr.ph536
                                        # =>This Inner Loop Header: Depth=1
	bne	$a0, $a1, .LBB4_254
# %bb.257:                              #   in Loop: Header=BB4_256 Depth=1
	sub.d	$s2, $a1, $s0
	beq	$s2, $fp, .LBB4_377
# %bb.258:                              # %_ZNSt12_Vector_baseIiSaIiEE11_M_allocateEm.exit.i.i330
                                        #   in Loop: Header=BB4_256 Depth=1
	srai.d	$a0, $s2, 2
	sltu	$a1, $s7, $a0
	masknez	$a2, $s7, $a1
	maskeqz	$a1, $a0, $a1
	or	$a1, $a1, $a2
	add.d	$a0, $a1, $a0
	sltu	$a1, $a0, $a1
	sltu	$a2, $a0, $s3
	maskeqz	$a0, $a0, $a2
	masknez	$a2, $s3, $a2
	or	$a0, $a0, $a2
	masknez	$a0, $a0, $a1
	maskeqz	$a1, $s3, $a1
	or	$s4, $a1, $a0
	slli.d	$a0, $s4, 2
	pcaddu18i	$ra, %call36(_Znwm)
	jirl	$ra, $ra, 0
	move	$s1, $a0
	stx.w	$s8, $a0, $s2
	blt	$s2, $s7, .LBB4_260
# %bb.259:                              #   in Loop: Header=BB4_256 Depth=1
	move	$a0, $s1
	move	$a1, $s0
	move	$a2, $s2
	pcaddu18i	$ra, %call36(memcpy)
	jirl	$ra, $ra, 0
.LBB4_260:                              # %_ZNSt6vectorIiSaIiEE11_S_relocateEPiS2_S2_RS0_.exit.i.i332
                                        #   in Loop: Header=BB4_256 Depth=1
	beqz	$s0, .LBB4_262
# %bb.261:                              #   in Loop: Header=BB4_256 Depth=1
	move	$a0, $s0
	move	$a1, $s2
	pcaddu18i	$ra, %call36(_ZdlPvm)
	jirl	$ra, $ra, 0
.LBB4_262:                              # %_ZNSt6vectorIiSaIiEE17_M_realloc_appendIJRKiEEEvDpOT_.exit.i334
                                        #   in Loop: Header=BB4_256 Depth=1
	add.d	$a0, $s1, $s2
	addi.d	$a0, $a0, 4
	st.d	$s1, $s6, 0
	st.d	$a0, $s6, 8
	alsl.d	$a1, $s4, $s1, 2
	st.d	$a1, $s6, 16
	move	$s0, $s1
	b	.LBB4_255
.LBB4_263:
	addi.w	$a0, $zero, -4
	lu52i.d	$a0, $a0, 2047
	beq	$s2, $a0, .LBB4_377
# %bb.264:                              # %_ZNSt12_Vector_baseIiSaIiEE11_M_allocateEm.exit.i.i.i309
	ori	$s3, $zero, 1
	sltu	$a0, $s3, $a2
	masknez	$a1, $s3, $a0
	maskeqz	$a0, $a2, $a0
	or	$a0, $a0, $a1
	add.d	$a1, $a0, $a2
	sltu	$a0, $a1, $a0
	ld.d	$a2, $sp, 40                    # 8-byte Folded Reload
	lu52i.d	$a2, $a2, 511
	sltu	$a3, $a1, $a2
	maskeqz	$a1, $a1, $a3
	masknez	$a3, $a2, $a3
	or	$a1, $a1, $a3
	masknez	$a1, $a1, $a0
	maskeqz	$a0, $a2, $a0
	or	$fp, $a0, $a1
	slli.d	$a0, $fp, 2
	pcaddu18i	$ra, %call36(_Znwm)
	jirl	$ra, $ra, 0
	move	$s0, $a0
	stx.w	$zero, $a0, $s2
	blt	$s2, $s3, .LBB4_266
# %bb.265:
	move	$a0, $s0
	move	$a1, $s1
	move	$a2, $s2
	pcaddu18i	$ra, %call36(memcpy)
	jirl	$ra, $ra, 0
.LBB4_266:                              # %_ZNSt6vectorIiSaIiEE11_S_relocateEPiS2_S2_RS0_.exit.i.i.i311
	add.d	$s3, $s0, $s2
	beqz	$s1, .LBB4_268
# %bb.267:
	move	$a0, $s1
	move	$a1, $s2
	pcaddu18i	$ra, %call36(_ZdlPvm)
	jirl	$ra, $ra, 0
.LBB4_268:                              # %_ZNSt6vectorIiSaIiEE17_M_realloc_appendIJiEEEvDpOT_.exit.i.i313
	addi.d	$a0, $s3, 4
	st.d	$s0, $s6, 0
	st.d	$a0, $s6, 8
	alsl.d	$a1, $fp, $s0, 2
	st.d	$a1, $s6, 16
	ori	$s7, $zero, 1
	ld.d	$a1, $sp, 136                   # 8-byte Folded Reload
	ld.d	$a2, $sp, 56                    # 8-byte Folded Reload
	bge	$a2, $s7, .LBB4_253
.LBB4_269:
	move	$s1, $s0
.LBB4_270:                              # %._crit_edge537
	ld.d	$a6, $sp, 128                   # 8-byte Folded Reload
	ld.d	$a0, $a6, 8
	ld.d	$a1, $a6, 16
	ld.d	$a2, $sp, 112                   # 8-byte Folded Reload
	addi.d	$s3, $a2, 1
	beq	$a0, $a1, .LBB4_272
# %bb.271:
	st.w	$s3, $a0, 0
	addi.d	$a0, $a0, 4
	st.d	$a0, $a6, 8
	b	.LBB4_278
.LBB4_272:
	ld.d	$s0, $a6, 0
	sub.d	$s1, $a0, $s0
	addi.w	$a0, $zero, -4
	lu52i.d	$a0, $a0, 2047
	beq	$s1, $a0, .LBB4_377
# %bb.273:                              # %_ZNSt12_Vector_baseIiSaIiEE11_M_allocateEm.exit.i.i316
	srai.d	$a0, $s1, 2
	ori	$s4, $zero, 1
	sltu	$a1, $s4, $a0
	masknez	$a2, $s4, $a1
	maskeqz	$a1, $a0, $a1
	or	$a1, $a1, $a2
	add.d	$a0, $a1, $a0
	sltu	$a1, $a0, $a1
	ld.d	$a2, $sp, 40                    # 8-byte Folded Reload
	lu52i.d	$a2, $a2, 511
	sltu	$a3, $a0, $a2
	maskeqz	$a0, $a0, $a3
	masknez	$a3, $a2, $a3
	or	$a0, $a0, $a3
	masknez	$a0, $a0, $a1
	maskeqz	$a1, $a2, $a1
	or	$fp, $a1, $a0
	slli.d	$a0, $fp, 2
	pcaddu18i	$ra, %call36(_Znwm)
	jirl	$ra, $ra, 0
	move	$s2, $a0
	stx.w	$s3, $a0, $s1
	blt	$s1, $s4, .LBB4_275
# %bb.274:
	move	$a0, $s2
	move	$a1, $s0
	move	$a2, $s1
	pcaddu18i	$ra, %call36(memcpy)
	jirl	$ra, $ra, 0
.LBB4_275:                              # %_ZNSt6vectorIiSaIiEE11_S_relocateEPiS2_S2_RS0_.exit.i.i318
	add.d	$s3, $s2, $s1
	beqz	$s0, .LBB4_277
# %bb.276:
	move	$a0, $s0
	move	$a1, $s1
	pcaddu18i	$ra, %call36(_ZdlPvm)
	jirl	$ra, $ra, 0
.LBB4_277:                              # %_ZNSt6vectorIiSaIiEE17_M_realloc_appendIJRKiEEEvDpOT_.exit.i320
	addi.d	$a0, $s3, 4
	ld.d	$a6, $sp, 128                   # 8-byte Folded Reload
	st.d	$s2, $a6, 0
	ld.d	$s1, $s6, 0
	st.d	$a0, $a6, 8
	alsl.d	$a0, $fp, $s2, 2
	st.d	$a0, $a6, 16
.LBB4_278:                              # %_ZNSt6vectorIiSaIiEE9push_backERKi.exit321
	ld.d	$a1, $s6, 8
	ld.d	$a5, $sp, 120                   # 8-byte Folded Reload
	ld.d	$a0, $a5, 8
	ld.d	$a2, $a5, 16
	sub.d	$a1, $a1, $s1
	srli.d	$a1, $a1, 2
	ld.d	$a3, $sp, 96                    # 8-byte Folded Reload
	sub.d	$fp, $a1, $a3
	beq	$a0, $a2, .LBB4_280
# %bb.279:
	st.w	$fp, $a0, 0
	addi.d	$a0, $a0, 4
	st.d	$a0, $a5, 8
	b	.LBB4_286
.LBB4_280:
	ld.d	$s0, $a5, 0
	sub.d	$s1, $a0, $s0
	addi.w	$a0, $zero, -4
	lu52i.d	$a0, $a0, 2047
	beq	$s1, $a0, .LBB4_377
# %bb.281:                              # %_ZNSt12_Vector_baseIiSaIiEE11_M_allocateEm.exit.i.i.i323
	srai.d	$a0, $s1, 2
	ori	$s4, $zero, 1
	sltu	$a1, $s4, $a0
	masknez	$a2, $s4, $a1
	maskeqz	$a1, $a0, $a1
	or	$a1, $a1, $a2
	add.d	$a0, $a1, $a0
	sltu	$a1, $a0, $a1
	ld.d	$a2, $sp, 40                    # 8-byte Folded Reload
	lu52i.d	$a2, $a2, 511
	sltu	$a3, $a0, $a2
	maskeqz	$a0, $a0, $a3
	masknez	$a3, $a2, $a3
	or	$a0, $a0, $a3
	masknez	$a0, $a0, $a1
	maskeqz	$a1, $a2, $a1
	or	$s3, $a1, $a0
	slli.d	$a0, $s3, 2
	pcaddu18i	$ra, %call36(_Znwm)
	jirl	$ra, $ra, 0
	move	$s2, $a0
	stx.w	$fp, $a0, $s1
	blt	$s1, $s4, .LBB4_283
# %bb.282:
	move	$a0, $s2
	move	$a1, $s0
	move	$a2, $s1
	pcaddu18i	$ra, %call36(memcpy)
	jirl	$ra, $ra, 0
.LBB4_283:                              # %_ZNSt6vectorIiSaIiEE11_S_relocateEPiS2_S2_RS0_.exit.i.i.i325
	add.d	$fp, $s2, $s1
	beqz	$s0, .LBB4_285
# %bb.284:
	move	$a0, $s0
	move	$a1, $s1
	pcaddu18i	$ra, %call36(_ZdlPvm)
	jirl	$ra, $ra, 0
.LBB4_285:                              # %_ZNSt6vectorIiSaIiEE17_M_realloc_appendIJiEEEvDpOT_.exit.i.i327
	addi.d	$a0, $fp, 4
	ld.d	$a5, $sp, 120                   # 8-byte Folded Reload
	st.d	$s2, $a5, 0
	st.d	$a0, $a5, 8
	alsl.d	$a0, $s3, $s2, 2
	st.d	$a0, $a5, 16
	ld.d	$a6, $sp, 128                   # 8-byte Folded Reload
.LBB4_286:                              # %_ZNSt6vectorIiSaIiEE9push_backEOi.exit328
	ld.d	$s1, $sp, 136                   # 8-byte Folded Reload
	ld.w	$a0, $s1, 64
	ld.w	$a1, $s1, 68
	or	$a0, $a0, $a1
	bnez	$a0, .LBB4_312
# %bb.287:                              # %.preheader
	ld.w	$a0, $s1, 56
	ori	$a1, $zero, 3
	blt	$a0, $a1, .LBB4_325
# %bb.288:                              # %.lr.ph539.preheader
	ori	$fp, $zero, 2
	addi.w	$a0, $zero, -4
	lu52i.d	$s3, $a0, 2047
	ori	$s7, $zero, 1
	ld.d	$a0, $sp, 40                    # 8-byte Folded Reload
	lu52i.d	$s8, $a0, 511
	b	.LBB4_290
	.p2align	4, , 16
.LBB4_289:                              #   in Loop: Header=BB4_290 Depth=1
	st.w	$s7, $a0, 0
	addi.d	$a0, $a0, 4
	st.d	$a0, $a5, 8
	ld.w	$a0, $s1, 56
	addi.w	$fp, $fp, 1
	bge	$fp, $a0, .LBB4_311
.LBB4_290:                              # %.lr.ph539
                                        # =>This Inner Loop Header: Depth=1
	ld.d	$a0, $s6, 8
	ld.d	$a1, $s6, 16
	beq	$a0, $a1, .LBB4_293
# %bb.291:                              #   in Loop: Header=BB4_290 Depth=1
	st.w	$zero, $a0, 0
	addi.d	$a0, $a0, 4
	st.d	$a0, $s6, 8
	ld.d	$a0, $a6, 8
	ld.d	$a1, $a6, 16
	beq	$a0, $a1, .LBB4_299
.LBB4_292:                              #   in Loop: Header=BB4_290 Depth=1
	st.w	$fp, $a0, 0
	addi.d	$a0, $a0, 4
	st.d	$a0, $a6, 8
	ld.d	$a0, $a5, 8
	ld.d	$a1, $a5, 16
	bne	$a0, $a1, .LBB4_289
	b	.LBB4_305
	.p2align	4, , 16
.LBB4_293:                              #   in Loop: Header=BB4_290 Depth=1
	ld.d	$s1, $s6, 0
	sub.d	$s0, $a0, $s1
	beq	$s0, $s3, .LBB4_377
# %bb.294:                              # %_ZNSt12_Vector_baseIiSaIiEE11_M_allocateEm.exit.i.i.i337
                                        #   in Loop: Header=BB4_290 Depth=1
	srai.d	$a0, $s0, 2
	sltu	$a1, $s7, $a0
	masknez	$a2, $s7, $a1
	maskeqz	$a1, $a0, $a1
	or	$a1, $a1, $a2
	add.d	$a0, $a1, $a0
	sltu	$a1, $a0, $a1
	sltu	$a2, $a0, $s8
	maskeqz	$a0, $a0, $a2
	masknez	$a2, $s8, $a2
	or	$a0, $a0, $a2
	masknez	$a0, $a0, $a1
	maskeqz	$a1, $s8, $a1
	or	$s4, $a1, $a0
	slli.d	$a0, $s4, 2
	pcaddu18i	$ra, %call36(_Znwm)
	jirl	$ra, $ra, 0
	move	$s2, $a0
	stx.w	$zero, $a0, $s0
	blt	$s0, $s7, .LBB4_296
# %bb.295:                              #   in Loop: Header=BB4_290 Depth=1
	move	$a0, $s2
	move	$a1, $s1
	move	$a2, $s0
	pcaddu18i	$ra, %call36(memcpy)
	jirl	$ra, $ra, 0
.LBB4_296:                              # %_ZNSt6vectorIiSaIiEE11_S_relocateEPiS2_S2_RS0_.exit.i.i.i339
                                        #   in Loop: Header=BB4_290 Depth=1
	beqz	$s1, .LBB4_298
# %bb.297:                              #   in Loop: Header=BB4_290 Depth=1
	move	$a0, $s1
	move	$a1, $s0
	pcaddu18i	$ra, %call36(_ZdlPvm)
	jirl	$ra, $ra, 0
.LBB4_298:                              # %_ZNSt6vectorIiSaIiEE17_M_realloc_appendIJiEEEvDpOT_.exit.i.i341
                                        #   in Loop: Header=BB4_290 Depth=1
	add.d	$a0, $s2, $s0
	addi.d	$a0, $a0, 4
	st.d	$s2, $s6, 0
	st.d	$a0, $s6, 8
	alsl.d	$a0, $s4, $s2, 2
	st.d	$a0, $s6, 16
	ld.d	$s1, $sp, 136                   # 8-byte Folded Reload
	ld.d	$a5, $sp, 120                   # 8-byte Folded Reload
	ld.d	$a6, $sp, 128                   # 8-byte Folded Reload
	ld.d	$a0, $a6, 8
	ld.d	$a1, $a6, 16
	bne	$a0, $a1, .LBB4_292
.LBB4_299:                              #   in Loop: Header=BB4_290 Depth=1
	ld.d	$s1, $a6, 0
	sub.d	$s0, $a0, $s1
	beq	$s0, $s3, .LBB4_377
# %bb.300:                              # %_ZNSt12_Vector_baseIiSaIiEE11_M_allocateEm.exit.i.i344
                                        #   in Loop: Header=BB4_290 Depth=1
	srai.d	$a0, $s0, 2
	sltu	$a1, $s7, $a0
	masknez	$a2, $s7, $a1
	maskeqz	$a1, $a0, $a1
	or	$a1, $a1, $a2
	add.d	$a0, $a1, $a0
	sltu	$a1, $a0, $a1
	sltu	$a2, $a0, $s8
	maskeqz	$a0, $a0, $a2
	masknez	$a2, $s8, $a2
	or	$a0, $a0, $a2
	masknez	$a0, $a0, $a1
	maskeqz	$a1, $s8, $a1
	or	$s4, $a1, $a0
	slli.d	$a0, $s4, 2
	pcaddu18i	$ra, %call36(_Znwm)
	jirl	$ra, $ra, 0
	move	$s2, $a0
	stx.w	$fp, $a0, $s0
	blt	$s0, $s7, .LBB4_302
# %bb.301:                              #   in Loop: Header=BB4_290 Depth=1
	move	$a0, $s2
	move	$a1, $s1
	move	$a2, $s0
	pcaddu18i	$ra, %call36(memcpy)
	jirl	$ra, $ra, 0
.LBB4_302:                              # %_ZNSt6vectorIiSaIiEE11_S_relocateEPiS2_S2_RS0_.exit.i.i346
                                        #   in Loop: Header=BB4_290 Depth=1
	beqz	$s1, .LBB4_304
# %bb.303:                              #   in Loop: Header=BB4_290 Depth=1
	move	$a0, $s1
	move	$a1, $s0
	pcaddu18i	$ra, %call36(_ZdlPvm)
	jirl	$ra, $ra, 0
.LBB4_304:                              # %_ZNSt6vectorIiSaIiEE17_M_realloc_appendIJRKiEEEvDpOT_.exit.i348
                                        #   in Loop: Header=BB4_290 Depth=1
	add.d	$a0, $s2, $s0
	addi.d	$a0, $a0, 4
	ld.d	$a6, $sp, 128                   # 8-byte Folded Reload
	st.d	$s2, $a6, 0
	st.d	$a0, $a6, 8
	alsl.d	$a0, $s4, $s2, 2
	st.d	$a0, $a6, 16
	ld.d	$s1, $sp, 136                   # 8-byte Folded Reload
	ld.d	$a5, $sp, 120                   # 8-byte Folded Reload
	ld.d	$a0, $a5, 8
	ld.d	$a1, $a5, 16
	bne	$a0, $a1, .LBB4_289
.LBB4_305:                              #   in Loop: Header=BB4_290 Depth=1
	ld.d	$s1, $a5, 0
	sub.d	$s0, $a0, $s1
	beq	$s0, $s3, .LBB4_377
# %bb.306:                              # %_ZNSt12_Vector_baseIiSaIiEE11_M_allocateEm.exit.i.i.i351
                                        #   in Loop: Header=BB4_290 Depth=1
	srai.d	$a0, $s0, 2
	sltu	$a1, $s7, $a0
	masknez	$a2, $s7, $a1
	maskeqz	$a1, $a0, $a1
	or	$a1, $a1, $a2
	add.d	$a0, $a1, $a0
	sltu	$a1, $a0, $a1
	sltu	$a2, $a0, $s8
	maskeqz	$a0, $a0, $a2
	masknez	$a2, $s8, $a2
	or	$a0, $a0, $a2
	masknez	$a0, $a0, $a1
	maskeqz	$a1, $s8, $a1
	or	$s4, $a1, $a0
	slli.d	$a0, $s4, 2
	pcaddu18i	$ra, %call36(_Znwm)
	jirl	$ra, $ra, 0
	move	$s2, $a0
	stx.w	$s7, $a0, $s0
	blt	$s0, $s7, .LBB4_308
# %bb.307:                              #   in Loop: Header=BB4_290 Depth=1
	move	$a0, $s2
	move	$a1, $s1
	move	$a2, $s0
	pcaddu18i	$ra, %call36(memcpy)
	jirl	$ra, $ra, 0
.LBB4_308:                              # %_ZNSt6vectorIiSaIiEE11_S_relocateEPiS2_S2_RS0_.exit.i.i.i353
                                        #   in Loop: Header=BB4_290 Depth=1
	beqz	$s1, .LBB4_310
# %bb.309:                              #   in Loop: Header=BB4_290 Depth=1
	move	$a0, $s1
	move	$a1, $s0
	pcaddu18i	$ra, %call36(_ZdlPvm)
	jirl	$ra, $ra, 0
.LBB4_310:                              # %_ZNSt6vectorIiSaIiEE17_M_realloc_appendIJiEEEvDpOT_.exit.i.i355
                                        #   in Loop: Header=BB4_290 Depth=1
	add.d	$a0, $s2, $s0
	addi.d	$a0, $a0, 4
	ld.d	$a5, $sp, 120                   # 8-byte Folded Reload
	st.d	$s2, $a5, 0
	st.d	$a0, $a5, 8
	alsl.d	$a0, $s4, $s2, 2
	st.d	$a0, $a5, 16
	ld.d	$s1, $sp, 136                   # 8-byte Folded Reload
	ld.d	$a6, $sp, 128                   # 8-byte Folded Reload
	ld.w	$a0, $s1, 56
	addi.w	$fp, $fp, 1
	blt	$fp, $a0, .LBB4_290
.LBB4_311:                              # %thread-pre-split.loopexit
	ld.w	$a1, $s1, 68
.LBB4_312:                              # %thread-pre-split
	ld.w	$a0, $s1, 60
	addi.w	$a0, $a0, -1
	beq	$a1, $a0, .LBB4_326
.LBB4_313:
	pcalau12i	$a0, %got_pc_hi20(_ZN8Parallel4mypeE)
	ld.d	$a0, $a0, %got_pc_lo12(_ZN8Parallel4mypeE)
	ld.w	$a4, $a0, 0
	ld.d	$a0, $s6, 8
	move	$a2, $s1
	ld.d	$s1, $s6, 0
	ld.w	$a5, $a2, 56
	sub.d	$s4, $a0, $s1
	st.d	$s4, $sp, 88                    # 8-byte Folded Spill
	st.d	$a4, $sp, 112                   # 8-byte Folded Spill
	st.d	$a5, $sp, 96                    # 8-byte Folded Spill
	bltz	$s5, .LBB4_330
# %bb.314:                              # %.lr.ph544.preheader
	ld.w	$a2, $a2, 64
	sltui	$a1, $a1, 1
	maskeqz	$a1, $s5, $a1
	ld.d	$a3, $sp, 8                     # 8-byte Folded Reload
	sub.d	$fp, $a3, $a1
	beqz	$a2, .LBB4_327
# %bb.315:
	move	$s2, $s1
	beqz	$s5, .LBB4_329
.LBB4_316:                              # %.lr.ph544.peel.next.preheader
	addi.d	$s8, $fp, 1
	addi.w	$a1, $zero, -4
	lu52i.d	$s0, $a1, 2047
	ori	$fp, $zero, 1
	ld.d	$a1, $sp, 40                    # 8-byte Folded Reload
	lu52i.d	$s7, $a1, 511
	move	$s4, $s5
	b	.LBB4_318
	.p2align	4, , 16
.LBB4_317:                              #   in Loop: Header=BB4_318 Depth=1
	st.w	$s8, $a0, 0
	addi.d	$a0, $a0, 4
	st.d	$a0, $s6, 8
	move	$s1, $s2
	addi.w	$s4, $s4, -1
	addi.d	$s8, $s8, 1
	beqz	$s4, .LBB4_330
.LBB4_318:                              # %.lr.ph544.peel.next
                                        # =>This Inner Loop Header: Depth=1
	ld.d	$a1, $s6, 16
	bne	$a0, $a1, .LBB4_317
# %bb.319:                              #   in Loop: Header=BB4_318 Depth=1
	sub.d	$s3, $a0, $s2
	beq	$s3, $s0, .LBB4_377
# %bb.320:                              # %_ZNSt12_Vector_baseIiSaIiEE11_M_allocateEm.exit.i.i372
                                        #   in Loop: Header=BB4_318 Depth=1
	srai.d	$a0, $s3, 2
	sltu	$a1, $fp, $a0
	masknez	$a2, $fp, $a1
	maskeqz	$a1, $a0, $a1
	or	$a1, $a1, $a2
	add.d	$a0, $a1, $a0
	sltu	$a1, $a0, $a1
	sltu	$a2, $a0, $s7
	maskeqz	$a0, $a0, $a2
	masknez	$a2, $s7, $a2
	or	$a0, $a0, $a2
	masknez	$a0, $a0, $a1
	maskeqz	$a1, $s7, $a1
	or	$s5, $a1, $a0
	slli.d	$a0, $s5, 2
	pcaddu18i	$ra, %call36(_Znwm)
	jirl	$ra, $ra, 0
	move	$s1, $a0
	stx.w	$s8, $a0, $s3
	blt	$s3, $fp, .LBB4_322
# %bb.321:                              #   in Loop: Header=BB4_318 Depth=1
	move	$a0, $s1
	move	$a1, $s2
	move	$a2, $s3
	pcaddu18i	$ra, %call36(memcpy)
	jirl	$ra, $ra, 0
.LBB4_322:                              # %_ZNSt6vectorIiSaIiEE11_S_relocateEPiS2_S2_RS0_.exit.i.i374
                                        #   in Loop: Header=BB4_318 Depth=1
	beqz	$s2, .LBB4_324
# %bb.323:                              #   in Loop: Header=BB4_318 Depth=1
	move	$a0, $s2
	move	$a1, $s3
	pcaddu18i	$ra, %call36(_ZdlPvm)
	jirl	$ra, $ra, 0
.LBB4_324:                              # %_ZNSt6vectorIiSaIiEE17_M_realloc_appendIJRKiEEEvDpOT_.exit.i376
                                        #   in Loop: Header=BB4_318 Depth=1
	add.d	$a0, $s1, $s3
	addi.d	$a0, $a0, 4
	st.d	$s1, $s6, 0
	st.d	$a0, $s6, 8
	alsl.d	$a1, $s5, $s1, 2
	st.d	$a1, $s6, 16
	move	$s2, $s1
	ld.d	$s5, $sp, 104                   # 8-byte Folded Reload
	addi.w	$s4, $s4, -1
	addi.d	$s8, $s8, 1
	bnez	$s4, .LBB4_318
	b	.LBB4_330
.LBB4_325:
	move	$a1, $zero
	ld.w	$a0, $s1, 60
	addi.w	$a0, $a0, -1
	bne	$a1, $a0, .LBB4_313
.LBB4_326:                              # %_ZNSt6vectorIiSaIiEE9push_backEOi.exit370
	ld.w	$s2, $s1, 56
	ld.w	$a0, $s1, 64
	addi.w	$a1, $s2, -1
	beq	$a0, $a1, .LBB4_370
	b	.LBB4_346
.LBB4_327:
	ld.d	$a1, $s6, 16
	beq	$a0, $a1, .LBB4_371
# %bb.328:
	st.w	$fp, $a0, 0
	addi.d	$a0, $a0, 4
	st.d	$a0, $s6, 8
	move	$s2, $s1
	bnez	$s5, .LBB4_316
.LBB4_329:
	move	$s1, $s2
.LBB4_330:                              # %._crit_edge545
	ld.d	$a6, $sp, 128                   # 8-byte Folded Reload
	ld.d	$a0, $a6, 8
	ld.d	$a1, $a6, 16
	ld.d	$a2, $sp, 112                   # 8-byte Folded Reload
	ld.d	$a3, $sp, 96                    # 8-byte Folded Reload
	add.d	$s0, $a3, $a2
	beq	$a0, $a1, .LBB4_332
# %bb.331:
	st.w	$s0, $a0, 0
	addi.d	$a0, $a0, 4
	st.d	$a0, $a6, 8
	b	.LBB4_338
.LBB4_332:
	ld.d	$s1, $a6, 0
	sub.d	$s2, $a0, $s1
	addi.w	$a0, $zero, -4
	lu52i.d	$a0, $a0, 2047
	beq	$s2, $a0, .LBB4_377
# %bb.333:                              # %_ZNSt12_Vector_baseIiSaIiEE11_M_allocateEm.exit.i.i358
	srai.d	$a0, $s2, 2
	ori	$s4, $zero, 1
	sltu	$a1, $s4, $a0
	masknez	$a2, $s4, $a1
	maskeqz	$a1, $a0, $a1
	or	$a1, $a1, $a2
	add.d	$a0, $a1, $a0
	sltu	$a1, $a0, $a1
	ld.d	$a2, $sp, 40                    # 8-byte Folded Reload
	lu52i.d	$a2, $a2, 511
	sltu	$a3, $a0, $a2
	maskeqz	$a0, $a0, $a3
	masknez	$a3, $a2, $a3
	or	$a0, $a0, $a3
	masknez	$a0, $a0, $a1
	maskeqz	$a1, $a2, $a1
	or	$fp, $a1, $a0
	slli.d	$a0, $fp, 2
	pcaddu18i	$ra, %call36(_Znwm)
	jirl	$ra, $ra, 0
	move	$s3, $a0
	stx.w	$s0, $a0, $s2
	blt	$s2, $s4, .LBB4_335
# %bb.334:
	move	$a0, $s3
	move	$a1, $s1
	move	$a2, $s2
	pcaddu18i	$ra, %call36(memcpy)
	jirl	$ra, $ra, 0
.LBB4_335:                              # %_ZNSt6vectorIiSaIiEE11_S_relocateEPiS2_S2_RS0_.exit.i.i360
	add.d	$s0, $s3, $s2
	beqz	$s1, .LBB4_337
# %bb.336:
	move	$a0, $s1
	move	$a1, $s2
	pcaddu18i	$ra, %call36(_ZdlPvm)
	jirl	$ra, $ra, 0
.LBB4_337:                              # %_ZNSt6vectorIiSaIiEE17_M_realloc_appendIJRKiEEEvDpOT_.exit.i362
	addi.d	$a0, $s0, 4
	ld.d	$a6, $sp, 128                   # 8-byte Folded Reload
	st.d	$s3, $a6, 0
	ld.d	$s1, $s6, 0
	st.d	$a0, $a6, 8
	alsl.d	$a0, $fp, $s3, 2
	st.d	$a0, $a6, 16
.LBB4_338:                              # %_ZNSt6vectorIiSaIiEE9push_backERKi.exit363
	ld.d	$a3, $sp, 88                    # 8-byte Folded Reload
	ld.d	$a1, $s6, 8
	ld.d	$a5, $sp, 120                   # 8-byte Folded Reload
	ld.d	$a0, $a5, 8
	ld.d	$a2, $a5, 16
	srli.d	$a3, $a3, 2
	sub.d	$a1, $a1, $s1
	srli.d	$a1, $a1, 2
	sub.d	$fp, $a1, $a3
	beq	$a0, $a2, .LBB4_340
# %bb.339:
	st.w	$fp, $a0, 0
	addi.d	$a0, $a0, 4
	st.d	$a0, $a5, 8
	ld.d	$s1, $sp, 136                   # 8-byte Folded Reload
	ld.w	$s2, $s1, 56
	ld.w	$a0, $s1, 64
	addi.w	$a1, $s2, -1
	beq	$a0, $a1, .LBB4_370
	b	.LBB4_346
.LBB4_340:
	ld.d	$s0, $a5, 0
	sub.d	$s1, $a0, $s0
	addi.w	$a0, $zero, -4
	lu52i.d	$a0, $a0, 2047
	beq	$s1, $a0, .LBB4_377
# %bb.341:                              # %_ZNSt12_Vector_baseIiSaIiEE11_M_allocateEm.exit.i.i.i365
	srai.d	$a0, $s1, 2
	ori	$s4, $zero, 1
	sltu	$a1, $s4, $a0
	masknez	$a2, $s4, $a1
	maskeqz	$a1, $a0, $a1
	or	$a1, $a1, $a2
	add.d	$a0, $a1, $a0
	sltu	$a1, $a0, $a1
	ld.d	$a2, $sp, 40                    # 8-byte Folded Reload
	lu52i.d	$a2, $a2, 511
	sltu	$a3, $a0, $a2
	maskeqz	$a0, $a0, $a3
	masknez	$a3, $a2, $a3
	or	$a0, $a0, $a3
	masknez	$a0, $a0, $a1
	maskeqz	$a1, $a2, $a1
	or	$s3, $a1, $a0
	slli.d	$a0, $s3, 2
	pcaddu18i	$ra, %call36(_Znwm)
	jirl	$ra, $ra, 0
	move	$s2, $a0
	stx.w	$fp, $a0, $s1
	blt	$s1, $s4, .LBB4_343
# %bb.342:
	move	$a0, $s2
	move	$a1, $s0
	move	$a2, $s1
	pcaddu18i	$ra, %call36(memcpy)
	jirl	$ra, $ra, 0
.LBB4_343:                              # %_ZNSt6vectorIiSaIiEE11_S_relocateEPiS2_S2_RS0_.exit.i.i.i367
	add.d	$fp, $s2, $s1
	beqz	$s0, .LBB4_345
# %bb.344:
	move	$a0, $s0
	move	$a1, $s1
	pcaddu18i	$ra, %call36(_ZdlPvm)
	jirl	$ra, $ra, 0
.LBB4_345:                              # %_ZNSt6vectorIiSaIiEE17_M_realloc_appendIJiEEEvDpOT_.exit.i.i369
	addi.d	$a0, $fp, 4
	ld.d	$a5, $sp, 120                   # 8-byte Folded Reload
	st.d	$s2, $a5, 0
	st.d	$a0, $a5, 8
	alsl.d	$a0, $s3, $s2, 2
	st.d	$a0, $a5, 16
	ld.d	$s1, $sp, 136                   # 8-byte Folded Reload
	ld.d	$a6, $sp, 128                   # 8-byte Folded Reload
	ld.w	$s2, $s1, 56
	ld.w	$a0, $s1, 64
	addi.w	$a1, $s2, -1
	beq	$a0, $a1, .LBB4_370
.LBB4_346:
	ld.w	$a1, $s1, 60
	ld.w	$a0, $s1, 68
	addi.w	$a1, $a1, -1
	beq	$a0, $a1, .LBB4_370
# %bb.347:
	pcalau12i	$a1, %got_pc_hi20(_ZN8Parallel4mypeE)
	ld.d	$a1, $a1, %got_pc_lo12(_ZN8Parallel4mypeE)
	ld.w	$s3, $a1, 0
	sltui	$a1, $a0, 1
	nor	$a2, $s5, $zero
	ld.d	$a0, $s6, 8
	ld.d	$a3, $s6, 16
	ld.d	$a4, $sp, 40                    # 8-byte Folded Reload
	masknez	$a4, $a4, $a1
	maskeqz	$a1, $a2, $a1
	or	$a1, $a1, $a4
	ld.d	$a2, $sp, 0                     # 8-byte Folded Reload
	add.d	$s4, $a1, $a2
	beq	$a0, $a3, .LBB4_349
# %bb.348:
	st.w	$s4, $a0, 0
	addi.d	$a0, $a0, 4
	st.d	$a0, $s6, 8
	b	.LBB4_355
.LBB4_349:
	ld.d	$fp, $s6, 0
	sub.d	$s0, $a0, $fp
	addi.w	$a0, $zero, -4
	lu52i.d	$a0, $a0, 2047
	beq	$s0, $a0, .LBB4_377
# %bb.350:                              # %_ZNSt12_Vector_baseIiSaIiEE11_M_allocateEm.exit.i.i379
	srai.d	$a0, $s0, 2
	ori	$s7, $zero, 1
	sltu	$a1, $s7, $a0
	masknez	$a2, $s7, $a1
	maskeqz	$a1, $a0, $a1
	or	$a1, $a1, $a2
	add.d	$a0, $a1, $a0
	sltu	$a1, $a0, $a1
	ld.d	$a2, $sp, 40                    # 8-byte Folded Reload
	lu52i.d	$a2, $a2, 511
	sltu	$a3, $a0, $a2
	maskeqz	$a0, $a0, $a3
	masknez	$a3, $a2, $a3
	or	$a0, $a0, $a3
	masknez	$a0, $a0, $a1
	maskeqz	$a1, $a2, $a1
	or	$s5, $a1, $a0
	slli.d	$a0, $s5, 2
	pcaddu18i	$ra, %call36(_Znwm)
	jirl	$ra, $ra, 0
	move	$s1, $a0
	stx.w	$s4, $a0, $s0
	blt	$s0, $s7, .LBB4_352
# %bb.351:
	move	$a0, $s1
	move	$a1, $fp
	move	$a2, $s0
	pcaddu18i	$ra, %call36(memcpy)
	jirl	$ra, $ra, 0
.LBB4_352:                              # %_ZNSt6vectorIiSaIiEE11_S_relocateEPiS2_S2_RS0_.exit.i.i381
	add.d	$s4, $s1, $s0
	beqz	$fp, .LBB4_354
# %bb.353:
	move	$a0, $fp
	move	$a1, $s0
	pcaddu18i	$ra, %call36(_ZdlPvm)
	jirl	$ra, $ra, 0
.LBB4_354:                              # %_ZNSt6vectorIiSaIiEE17_M_realloc_appendIJRKiEEEvDpOT_.exit.i383
	addi.d	$a0, $s4, 4
	st.d	$s1, $s6, 0
	st.d	$a0, $s6, 8
	alsl.d	$a0, $s5, $s1, 2
	st.d	$a0, $s6, 16
	ld.d	$a5, $sp, 120                   # 8-byte Folded Reload
	ld.d	$a6, $sp, 128                   # 8-byte Folded Reload
.LBB4_355:                              # %_ZNSt6vectorIiSaIiEE9push_backERKi.exit384
	ld.d	$a0, $a6, 8
	ld.d	$a1, $a6, 16
	add.d	$a2, $s2, $s3
	addi.d	$s2, $a2, 1
	beq	$a0, $a1, .LBB4_358
# %bb.356:
	st.w	$s2, $a0, 0
	addi.d	$a0, $a0, 4
	st.d	$a0, $a6, 8
	ld.d	$a0, $a5, 8
	ld.d	$a1, $a5, 16
	beq	$a0, $a1, .LBB4_364
.LBB4_357:
	ori	$a1, $zero, 1
	st.w	$a1, $a0, 0
	addi.d	$a0, $a0, 4
	st.d	$a0, $a5, 8
	b	.LBB4_370
.LBB4_358:
	ld.d	$fp, $a6, 0
	sub.d	$s0, $a0, $fp
	addi.w	$a0, $zero, -4
	lu52i.d	$a0, $a0, 2047
	beq	$s0, $a0, .LBB4_377
# %bb.359:                              # %_ZNSt12_Vector_baseIiSaIiEE11_M_allocateEm.exit.i.i386
	srai.d	$a0, $s0, 2
	ori	$s4, $zero, 1
	sltu	$a1, $s4, $a0
	masknez	$a2, $s4, $a1
	maskeqz	$a1, $a0, $a1
	or	$a1, $a1, $a2
	add.d	$a0, $a1, $a0
	sltu	$a1, $a0, $a1
	ld.d	$a2, $sp, 40                    # 8-byte Folded Reload
	lu52i.d	$a2, $a2, 511
	sltu	$a3, $a0, $a2
	maskeqz	$a0, $a0, $a3
	masknez	$a3, $a2, $a3
	or	$a0, $a0, $a3
	masknez	$a0, $a0, $a1
	maskeqz	$a1, $a2, $a1
	or	$s3, $a1, $a0
	slli.d	$a0, $s3, 2
	pcaddu18i	$ra, %call36(_Znwm)
	jirl	$ra, $ra, 0
	move	$s1, $a0
	stx.w	$s2, $a0, $s0
	blt	$s0, $s4, .LBB4_361
# %bb.360:
	move	$a0, $s1
	move	$a1, $fp
	move	$a2, $s0
	pcaddu18i	$ra, %call36(memcpy)
	jirl	$ra, $ra, 0
.LBB4_361:                              # %_ZNSt6vectorIiSaIiEE11_S_relocateEPiS2_S2_RS0_.exit.i.i388
	add.d	$s2, $s1, $s0
	beqz	$fp, .LBB4_363
# %bb.362:
	move	$a0, $fp
	move	$a1, $s0
	pcaddu18i	$ra, %call36(_ZdlPvm)
	jirl	$ra, $ra, 0
.LBB4_363:                              # %_ZNSt6vectorIiSaIiEE17_M_realloc_appendIJRKiEEEvDpOT_.exit.i390
	addi.d	$a0, $s2, 4
	ld.d	$a1, $sp, 128                   # 8-byte Folded Reload
	st.d	$s1, $a1, 0
	st.d	$a0, $a1, 8
	alsl.d	$a0, $s3, $s1, 2
	st.d	$a0, $a1, 16
	ld.d	$a5, $sp, 120                   # 8-byte Folded Reload
	ld.d	$a0, $a5, 8
	ld.d	$a1, $a5, 16
	bne	$a0, $a1, .LBB4_357
.LBB4_364:
	ld.d	$fp, $a5, 0
	sub.d	$s0, $a0, $fp
	addi.w	$a0, $zero, -4
	lu52i.d	$a0, $a0, 2047
	beq	$s0, $a0, .LBB4_377
# %bb.365:                              # %_ZNSt12_Vector_baseIiSaIiEE11_M_allocateEm.exit.i.i.i393
	srai.d	$a0, $s0, 2
	ori	$s3, $zero, 1
	sltu	$a1, $s3, $a0
	masknez	$a2, $s3, $a1
	maskeqz	$a1, $a0, $a1
	or	$a1, $a1, $a2
	add.d	$a0, $a1, $a0
	sltu	$a1, $a0, $a1
	ld.d	$a2, $sp, 40                    # 8-byte Folded Reload
	lu52i.d	$a2, $a2, 511
	sltu	$a3, $a0, $a2
	maskeqz	$a0, $a0, $a3
	masknez	$a3, $a2, $a3
	or	$a0, $a0, $a3
	masknez	$a0, $a0, $a1
	maskeqz	$a1, $a2, $a1
	or	$s2, $a1, $a0
	slli.d	$a0, $s2, 2
	pcaddu18i	$ra, %call36(_Znwm)
	jirl	$ra, $ra, 0
	move	$s1, $a0
	stx.w	$s3, $a0, $s0
	blt	$s0, $s3, .LBB4_367
# %bb.366:
	move	$a0, $s1
	move	$a1, $fp
	move	$a2, $s0
	pcaddu18i	$ra, %call36(memcpy)
	jirl	$ra, $ra, 0
.LBB4_367:                              # %_ZNSt6vectorIiSaIiEE11_S_relocateEPiS2_S2_RS0_.exit.i.i.i395
	add.d	$s3, $s1, $s0
	beqz	$fp, .LBB4_369
# %bb.368:
	move	$a0, $fp
	move	$a1, $s0
	pcaddu18i	$ra, %call36(_ZdlPvm)
	jirl	$ra, $ra, 0
.LBB4_369:                              # %_ZNSt6vectorIiSaIiEE17_M_realloc_appendIJiEEEvDpOT_.exit.i.i397
	addi.d	$a0, $s3, 4
	ld.d	$a1, $sp, 120                   # 8-byte Folded Reload
	st.d	$s1, $a1, 0
	st.d	$a0, $a1, 8
	alsl.d	$a0, $s2, $s1, 2
	st.d	$a0, $a1, 16
.LBB4_370:                              # %_ZNSt6vectorIiSaIiEE9push_backEOi.exit398
	fld.d	$fs4, $sp, 144                  # 8-byte Folded Reload
	fld.d	$fs3, $sp, 152                  # 8-byte Folded Reload
	fld.d	$fs2, $sp, 160                  # 8-byte Folded Reload
	fld.d	$fs1, $sp, 168                  # 8-byte Folded Reload
	fld.d	$fs0, $sp, 176                  # 8-byte Folded Reload
	ld.d	$s8, $sp, 184                   # 8-byte Folded Reload
	ld.d	$s7, $sp, 192                   # 8-byte Folded Reload
	ld.d	$s6, $sp, 200                   # 8-byte Folded Reload
	ld.d	$s5, $sp, 208                   # 8-byte Folded Reload
	ld.d	$s4, $sp, 216                   # 8-byte Folded Reload
	ld.d	$s3, $sp, 224                   # 8-byte Folded Reload
	ld.d	$s2, $sp, 232                   # 8-byte Folded Reload
	ld.d	$s1, $sp, 240                   # 8-byte Folded Reload
	ld.d	$s0, $sp, 248                   # 8-byte Folded Reload
	ld.d	$fp, $sp, 256                   # 8-byte Folded Reload
	ld.d	$ra, $sp, 264                   # 8-byte Folded Reload
	addi.d	$sp, $sp, 272
	ret
.LBB4_371:
	addi.w	$a0, $zero, -4
	lu52i.d	$a0, $a0, 2047
	beq	$s4, $a0, .LBB4_377
# %bb.372:                              # %_ZNSt12_Vector_baseIiSaIiEE11_M_allocateEm.exit.i.i372.peel
	move	$a1, $s4
	srai.d	$a0, $a1, 2
	ori	$s3, $zero, 1
	sltu	$a1, $s3, $a0
	masknez	$a2, $s3, $a1
	maskeqz	$a1, $a0, $a1
	or	$a1, $a1, $a2
	add.d	$a0, $a1, $a0
	sltu	$a1, $a0, $a1
	ld.d	$a2, $sp, 40                    # 8-byte Folded Reload
	lu52i.d	$a2, $a2, 511
	sltu	$a3, $a0, $a2
	maskeqz	$a0, $a0, $a3
	masknez	$a3, $a2, $a3
	or	$a0, $a0, $a3
	masknez	$a0, $a0, $a1
	maskeqz	$a1, $a2, $a1
	or	$s0, $a1, $a0
	slli.d	$a0, $s0, 2
	pcaddu18i	$ra, %call36(_Znwm)
	jirl	$ra, $ra, 0
	move	$s2, $a0
	stx.w	$fp, $a0, $s4
	blt	$s4, $s3, .LBB4_374
# %bb.373:
	move	$a0, $s2
	move	$a1, $s1
	move	$a2, $s4
	pcaddu18i	$ra, %call36(memcpy)
	jirl	$ra, $ra, 0
.LBB4_374:                              # %_ZNSt6vectorIiSaIiEE11_S_relocateEPiS2_S2_RS0_.exit.i.i374.peel
	add.d	$s3, $s2, $s4
	beqz	$s1, .LBB4_376
# %bb.375:
	move	$a0, $s1
	move	$a1, $s4
	pcaddu18i	$ra, %call36(_ZdlPvm)
	jirl	$ra, $ra, 0
.LBB4_376:                              # %_ZNSt6vectorIiSaIiEE17_M_realloc_appendIJRKiEEEvDpOT_.exit.i376.peel
	addi.d	$a0, $s3, 4
	st.d	$s2, $s6, 0
	st.d	$a0, $s6, 8
	alsl.d	$a1, $s0, $s2, 2
	st.d	$a1, $s6, 16
	bnez	$s5, .LBB4_316
	b	.LBB4_329
.LBB4_377:                              # %.noexc
	pcalau12i	$a0, %pc_hi20(.L.str.14)
	addi.d	$a0, $a0, %pc_lo12(.L.str.14)
	pcaddu18i	$ra, %call36(_ZSt20__throw_length_errorPKc)
	jirl	$ra, $ra, 0
.LBB4_378:
	pcalau12i	$a0, %pc_hi20(.L.str.13)
	addi.d	$a0, $a0, %pc_lo12(.L.str.13)
	pcaddu18i	$ra, %call36(_ZSt20__throw_length_errorPKc)
	jirl	$ra, $ra, 0
.Lfunc_end4:
	.size	_ZN7GenMesh11generatePieERSt6vectorI7double2SaIS1_EERS0_IiSaIiEES7_S7_S7_S7_S7_S7_S7_S7_, .Lfunc_end4-_ZN7GenMesh11generatePieERSt6vectorI7double2SaIS1_EERS0_IiSaIiEES7_S7_S7_S7_S7_S7_S7_S7_
	.cfi_endproc
                                        # -- End function
	.globl	_ZN7GenMesh12generateRectERSt6vectorI7double2SaIS1_EERS0_IiSaIiEES7_S7_S7_S7_S7_S7_S7_S7_ # -- Begin function _ZN7GenMesh12generateRectERSt6vectorI7double2SaIS1_EERS0_IiSaIiEES7_S7_S7_S7_S7_S7_S7_S7_
	.p2align	5
	.type	_ZN7GenMesh12generateRectERSt6vectorI7double2SaIS1_EERS0_IiSaIiEES7_S7_S7_S7_S7_S7_S7_S7_,@function
_ZN7GenMesh12generateRectERSt6vectorI7double2SaIS1_EERS0_IiSaIiEES7_S7_S7_S7_S7_S7_S7_S7_: # @_ZN7GenMesh12generateRectERSt6vectorI7double2SaIS1_EERS0_IiSaIiEES7_S7_S7_S7_S7_S7_S7_S7_
	.cfi_startproc
# %bb.0:
	addi.d	$sp, $sp, -256
	.cfi_def_cfa_offset 256
	st.d	$ra, $sp, 248                   # 8-byte Folded Spill
	st.d	$fp, $sp, 240                   # 8-byte Folded Spill
	st.d	$s0, $sp, 232                   # 8-byte Folded Spill
	st.d	$s1, $sp, 224                   # 8-byte Folded Spill
	st.d	$s2, $sp, 216                   # 8-byte Folded Spill
	st.d	$s3, $sp, 208                   # 8-byte Folded Spill
	st.d	$s4, $sp, 200                   # 8-byte Folded Spill
	st.d	$s5, $sp, 192                   # 8-byte Folded Spill
	st.d	$s6, $sp, 184                   # 8-byte Folded Spill
	st.d	$s7, $sp, 176                   # 8-byte Folded Spill
	st.d	$s8, $sp, 168                   # 8-byte Folded Spill
	fst.d	$fs0, $sp, 160                  # 8-byte Folded Spill
	fst.d	$fs1, $sp, 152                  # 8-byte Folded Spill
	fst.d	$fs2, $sp, 144                  # 8-byte Folded Spill
	fst.d	$fs3, $sp, 136                  # 8-byte Folded Spill
	.cfi_offset 1, -8
	.cfi_offset 22, -16
	.cfi_offset 23, -24
	.cfi_offset 24, -32
	.cfi_offset 25, -40
	.cfi_offset 26, -48
	.cfi_offset 27, -56
	.cfi_offset 28, -64
	.cfi_offset 29, -72
	.cfi_offset 30, -80
	.cfi_offset 31, -88
	.cfi_offset 56, -96
	.cfi_offset 57, -104
	.cfi_offset 58, -112
	.cfi_offset 59, -120
	move	$s5, $a0
	ld.w	$a0, $a0, 72
	ld.w	$s2, $s5, 76
	st.d	$a0, $sp, 80                    # 8-byte Folded Spill
	addi.d	$a0, $a0, 1
	addi.d	$t0, $s2, 1
	st.d	$a0, $sp, 72                    # 8-byte Folded Spill
	st.d	$t0, $sp, 16                    # 8-byte Folded Spill
	mul.w	$s1, $t0, $a0
	addi.w	$a0, $zero, -1
	st.d	$a7, $sp, 48                    # 8-byte Folded Spill
	st.d	$a6, $sp, 24                    # 8-byte Folded Spill
	st.d	$a5, $sp, 32                    # 8-byte Folded Spill
	st.d	$a3, $sp, 88                    # 8-byte Folded Spill
	st.d	$a2, $sp, 112                   # 8-byte Folded Spill
	st.d	$a0, $sp, 40                    # 8-byte Folded Spill
	bge	$a0, $s1, .LBB5_315
# %bb.1:
	move	$s3, $a4
	move	$s6, $a1
	ld.d	$fp, $a1, 16
	ld.d	$s7, $a1, 0
	sub.d	$s8, $fp, $s7
	srai.d	$a0, $s8, 4
	st.d	$s1, $sp, 8                     # 8-byte Folded Spill
	bgeu	$a0, $s1, .LBB5_8
# %bb.2:                                # %_ZNSt12_Vector_baseI7double2SaIS0_EE11_M_allocateEm.exit.i.i
	ld.d	$fp, $s6, 8
	slli.d	$a0, $s1, 4
	pcaddu18i	$ra, %call36(_Znwm)
	jirl	$ra, $ra, 0
	move	$s0, $a0
	beq	$fp, $s7, .LBB5_5
# %bb.3:                                # %.lr.ph.i.i.i.i.i.i.preheader
	move	$a0, $s0
	move	$a1, $s7
	.p2align	4, , 16
.LBB5_4:                                # %.lr.ph.i.i.i.i.i.i
                                        # =>This Inner Loop Header: Depth=1
	vld	$vr0, $a1, 0
	vst	$vr0, $a0, 0
	addi.d	$a1, $a1, 16
	addi.d	$a0, $a0, 16
	bne	$a1, $fp, .LBB5_4
.LBB5_5:                                # %_ZNSt6vectorI7double2SaIS0_EE20_M_allocate_and_copyIPKS0_EEPS0_mT_S7_.exit.i
	sub.d	$fp, $fp, $s7
	beqz	$s7, .LBB5_7
# %bb.6:
	move	$a0, $s7
	move	$a1, $s8
	pcaddu18i	$ra, %call36(_ZdlPvm)
	jirl	$ra, $ra, 0
.LBB5_7:                                # %_ZNSt12_Vector_baseI7double2SaIS0_EE13_M_deallocateEPS0_m.exit.i
	st.d	$s0, $s6, 0
	add.d	$a0, $s0, $fp
	st.d	$a0, $s6, 8
	alsl.d	$fp, $s1, $s0, 4
	st.d	$fp, $s6, 16
	st.d	$s5, $sp, 120                   # 8-byte Folded Spill
	ld.d	$s8, $sp, 80                    # 8-byte Folded Reload
	st.d	$s2, $sp, 56                    # 8-byte Folded Spill
	bgez	$s2, .LBB5_9
	b	.LBB5_22
.LBB5_8:
	move	$s0, $s7
	st.d	$s5, $sp, 120                   # 8-byte Folded Spill
	ld.d	$s8, $sp, 80                    # 8-byte Folded Reload
	st.d	$s2, $sp, 56                    # 8-byte Folded Spill
	bltz	$s2, .LBB5_22
.LBB5_9:                                # %.lr.ph380
	bltz	$s8, .LBB5_22
# %bb.10:                               # %.lr.ph.preheader
	ld.w	$a0, $s5, 32
	move	$a1, $zero
	fld.d	$fa0, $s5, 40
	movgr2fr.w	$fa1, $a0
	ld.w	$a0, $s5, 36
	ffint.d.w	$fa1, $fa1
	fld.d	$fa2, $s5, 48
	fdiv.d	$fs0, $fa0, $fa1
	movgr2fr.w	$fa0, $a0
	ffint.d.w	$fa0, $fa0
	fdiv.d	$fs1, $fa2, $fa0
	ld.d	$a0, $s6, 8
	addi.w	$a2, $zero, -16
	lu52i.d	$a2, $a2, 2047
	st.d	$a2, $sp, 128                   # 8-byte Folded Spill
	ld.d	$a2, $sp, 40                    # 8-byte Folded Reload
	lu52i.d	$s1, $a2, 127
	b	.LBB5_12
	.p2align	4, , 16
.LBB5_11:                               # %._crit_edge
                                        #   in Loop: Header=BB5_12 Depth=1
	ld.d	$a2, $sp, 104                   # 8-byte Folded Reload
	addi.w	$a1, $a2, 1
	ld.d	$s2, $sp, 56                    # 8-byte Folded Reload
	beq	$a2, $s2, .LBB5_22
.LBB5_12:                               # %.lr.ph
                                        # =>This Loop Header: Depth=1
                                        #     Child Loop BB5_14 Depth 2
                                        #       Child Loop BB5_18 Depth 3
	ld.w	$a3, $s5, 84
	move	$a2, $zero
	st.d	$a1, $sp, 104                   # 8-byte Folded Spill
	add.d	$a1, $a3, $a1
	movgr2fr.w	$fa0, $a1
	ffint.d.w	$fa0, $fa0
	fmul.d	$fs2, $fs1, $fa0
	b	.LBB5_14
	.p2align	4, , 16
.LBB5_13:                               #   in Loop: Header=BB5_14 Depth=2
	fst.d	$fs3, $a0, 0
	fst.d	$fs2, $a0, 8
	addi.d	$a0, $a0, 16
	st.d	$a0, $s6, 8
	addi.w	$a2, $s2, 1
	beq	$s2, $s8, .LBB5_11
.LBB5_14:                               #   Parent Loop BB5_12 Depth=1
                                        # =>  This Loop Header: Depth=2
                                        #       Child Loop BB5_18 Depth 3
	ld.w	$a1, $s5, 80
	move	$s2, $a2
	add.d	$a1, $a1, $a2
	movgr2fr.w	$fa0, $a1
	ffint.d.w	$fa0, $fa0
	fmul.d	$fs3, $fs0, $fa0
	bne	$a0, $fp, .LBB5_13
# %bb.15:                               #   in Loop: Header=BB5_14 Depth=2
	sub.d	$s8, $fp, $s0
	ld.d	$a0, $sp, 128                   # 8-byte Folded Reload
	beq	$s8, $a0, .LBB5_314
# %bb.16:                               # %.noexc314
                                        #   in Loop: Header=BB5_14 Depth=2
	srai.d	$a0, $s8, 4
	ori	$a2, $zero, 1
	sltu	$a1, $a2, $a0
	masknez	$a2, $a2, $a1
	maskeqz	$a1, $a0, $a1
	or	$a1, $a1, $a2
	add.d	$a0, $a1, $a0
	sltu	$a1, $a0, $a1
	sltu	$a2, $a0, $s1
	maskeqz	$a0, $a0, $a2
	masknez	$a2, $s1, $a2
	or	$a0, $a0, $a2
	masknez	$a0, $a0, $a1
	maskeqz	$a1, $s1, $a1
	or	$s4, $a1, $a0
	slli.d	$a0, $s4, 4
	pcaddu18i	$ra, %call36(_Znwm)
	jirl	$ra, $ra, 0
	move	$s7, $a0
	add.d	$a0, $a0, $s8
	fstx.d	$fs3, $s7, $s8
	fst.d	$fs2, $a0, 8
	move	$s5, $s7
	beq	$s0, $fp, .LBB5_19
# %bb.17:                               # %.lr.ph.i.i.i.i.i.i.i.preheader
                                        #   in Loop: Header=BB5_14 Depth=2
	move	$s5, $s7
	move	$a0, $s0
	.p2align	4, , 16
.LBB5_18:                               # %.lr.ph.i.i.i.i.i.i.i
                                        #   Parent Loop BB5_12 Depth=1
                                        #     Parent Loop BB5_14 Depth=2
                                        # =>    This Inner Loop Header: Depth=3
	vld	$vr0, $a0, 0
	vst	$vr0, $s5, 0
	addi.d	$a0, $a0, 16
	addi.d	$s5, $s5, 16
	bne	$a0, $fp, .LBB5_18
.LBB5_19:                               # %_ZSt34__uninitialized_move_if_noexcept_aIP7double2S1_SaIS0_EET0_T_S4_S3_RT1_.exit.i.i
                                        #   in Loop: Header=BB5_14 Depth=2
	beqz	$s0, .LBB5_21
# %bb.20:                               #   in Loop: Header=BB5_14 Depth=2
	move	$a0, $s0
	move	$a1, $s8
	pcaddu18i	$ra, %call36(_ZdlPvm)
	jirl	$ra, $ra, 0
.LBB5_21:                               # %_ZNSt6vectorI7double2SaIS0_EE17_M_realloc_appendIJS0_EEEvDpOT_.exit.i
                                        #   in Loop: Header=BB5_14 Depth=2
	addi.d	$a0, $s5, 16
	st.d	$s7, $s6, 0
	st.d	$a0, $s6, 8
	alsl.d	$fp, $s4, $s7, 4
	st.d	$fp, $s6, 16
	move	$s0, $s7
	ld.d	$s5, $sp, 120                   # 8-byte Folded Reload
	ld.d	$s8, $sp, 80                    # 8-byte Folded Reload
	addi.w	$a2, $s2, 1
	bne	$s2, $s8, .LBB5_14
	b	.LBB5_11
.LBB5_22:                               # %._crit_edge381
	mul.w	$fp, $s2, $s8
	ld.d	$a0, $sp, 40                    # 8-byte Folded Reload
	bge	$a0, $fp, .LBB5_315
# %bb.23:
	ld.d	$a1, $sp, 112                   # 8-byte Folded Reload
	ld.d	$a0, $a1, 16
	ld.d	$s0, $a1, 0
	sub.d	$s6, $a0, $s0
	srai.d	$a0, $s6, 2
	bgeu	$a0, $fp, .LBB5_29
# %bb.24:                               # %_ZNSt12_Vector_baseIiSaIiEE11_M_allocateEm.exit.i
	ld.d	$a0, $sp, 112                   # 8-byte Folded Reload
	ld.d	$a0, $a0, 8
	sub.d	$s7, $a0, $s0
	slli.d	$a0, $fp, 2
	pcaddu18i	$ra, %call36(_Znwm)
	jirl	$ra, $ra, 0
	ori	$a1, $zero, 1
	move	$s8, $a0
	blt	$s7, $a1, .LBB5_26
# %bb.25:
	move	$a0, $s8
	move	$a1, $s0
	move	$a2, $s7
	pcaddu18i	$ra, %call36(memcpy)
	jirl	$ra, $ra, 0
.LBB5_26:                               # %_ZNSt6vectorIiSaIiEE11_S_relocateEPiS2_S2_RS0_.exit.i
	beqz	$s0, .LBB5_28
# %bb.27:
	move	$a0, $s0
	move	$a1, $s6
	pcaddu18i	$ra, %call36(_ZdlPvm)
	jirl	$ra, $ra, 0
.LBB5_28:                               # %_ZNSt12_Vector_baseIiSaIiEE13_M_deallocateEPim.exit.i
	ld.d	$a1, $sp, 112                   # 8-byte Folded Reload
	st.d	$s8, $a1, 0
	add.d	$a0, $s8, $s7
	st.d	$a0, $a1, 8
	alsl.d	$a0, $fp, $s8, 2
	st.d	$a0, $a1, 16
	ld.d	$s8, $sp, 80                    # 8-byte Folded Reload
.LBB5_29:                               # %_ZNSt6vectorIiSaIiEE7reserveEm.exit
	ld.d	$a1, $sp, 88                    # 8-byte Folded Reload
	ld.d	$a0, $a1, 16
	ld.d	$s0, $a1, 0
	sub.d	$s6, $a0, $s0
	srai.d	$a0, $s6, 2
	bgeu	$a0, $fp, .LBB5_35
# %bb.30:                               # %_ZNSt12_Vector_baseIiSaIiEE11_M_allocateEm.exit.i137
	ld.d	$a0, $sp, 88                    # 8-byte Folded Reload
	ld.d	$a0, $a0, 8
	sub.d	$s7, $a0, $s0
	slli.d	$a0, $fp, 2
	pcaddu18i	$ra, %call36(_Znwm)
	jirl	$ra, $ra, 0
	ori	$a1, $zero, 1
	move	$s8, $a0
	blt	$s7, $a1, .LBB5_32
# %bb.31:
	move	$a0, $s8
	move	$a1, $s0
	move	$a2, $s7
	pcaddu18i	$ra, %call36(memcpy)
	jirl	$ra, $ra, 0
.LBB5_32:                               # %_ZNSt6vectorIiSaIiEE11_S_relocateEPiS2_S2_RS0_.exit.i138
	beqz	$s0, .LBB5_34
# %bb.33:
	move	$a0, $s0
	move	$a1, $s6
	pcaddu18i	$ra, %call36(_ZdlPvm)
	jirl	$ra, $ra, 0
.LBB5_34:                               # %_ZNSt12_Vector_baseIiSaIiEE13_M_deallocateEPim.exit.i140
	ld.d	$a1, $sp, 88                    # 8-byte Folded Reload
	st.d	$s8, $a1, 0
	add.d	$a0, $s8, $s7
	st.d	$a0, $a1, 8
	alsl.d	$a0, $fp, $s8, 2
	st.d	$a0, $a1, 16
	ld.d	$s8, $sp, 80                    # 8-byte Folded Reload
.LBB5_35:                               # %_ZNSt6vectorIiSaIiEE7reserveEm.exit141
	ld.d	$a0, $s3, 16
	ld.d	$s0, $s3, 0
	slli.w	$fp, $fp, 2
	sub.d	$s6, $a0, $s0
	srai.d	$a0, $s6, 2
	bgeu	$a0, $fp, .LBB5_41
# %bb.36:                               # %_ZNSt12_Vector_baseIiSaIiEE11_M_allocateEm.exit.i142
	ld.d	$a0, $s3, 8
	sub.d	$s7, $a0, $s0
	slli.d	$a0, $fp, 2
	pcaddu18i	$ra, %call36(_Znwm)
	jirl	$ra, $ra, 0
	ori	$a1, $zero, 1
	move	$s8, $a0
	blt	$s7, $a1, .LBB5_38
# %bb.37:
	move	$a0, $s8
	move	$a1, $s0
	move	$a2, $s7
	pcaddu18i	$ra, %call36(memcpy)
	jirl	$ra, $ra, 0
.LBB5_38:                               # %_ZNSt6vectorIiSaIiEE11_S_relocateEPiS2_S2_RS0_.exit.i143
	beqz	$s0, .LBB5_40
# %bb.39:
	move	$a0, $s0
	move	$a1, $s6
	pcaddu18i	$ra, %call36(_ZdlPvm)
	jirl	$ra, $ra, 0
.LBB5_40:                               # %_ZNSt12_Vector_baseIiSaIiEE13_M_deallocateEPim.exit.i145
	st.d	$s8, $s3, 0
	add.d	$a0, $s8, $s7
	st.d	$a0, $s3, 8
	alsl.d	$a0, $fp, $s8, 2
	st.d	$a0, $s3, 16
	ld.d	$s8, $sp, 80                    # 8-byte Folded Reload
.LBB5_41:                               # %_ZNSt6vectorIiSaIiEE7reserveEm.exit146
	ld.w	$a1, $s5, 76
	ori	$a0, $zero, 1
	blt	$a1, $a0, .LBB5_92
# %bb.42:                               # %.preheader.lr.ph
	ld.w	$a0, $s5, 72
	ori	$a2, $zero, 1
	blt	$a0, $a2, .LBB5_92
# %bb.43:                               # %.preheader.preheader
	st.d	$zero, $sp, 104                 # 8-byte Folded Spill
	ori	$s2, $zero, 1
	addi.w	$a2, $zero, -4
	lu52i.d	$a2, $a2, 2047
	st.d	$a2, $sp, 128                   # 8-byte Folded Spill
	ld.d	$a2, $sp, 40                    # 8-byte Folded Reload
	lu52i.d	$fp, $a2, 511
	move	$a2, $zero
	b	.LBB5_46
	.p2align	4, , 16
.LBB5_44:                               # %._crit_edge384.loopexit
                                        #   in Loop: Header=BB5_46 Depth=1
	ld.w	$a1, $s5, 76
	ld.d	$s8, $sp, 80                    # 8-byte Folded Reload
	ld.d	$a2, $sp, 64                    # 8-byte Folded Reload
.LBB5_45:                               # %._crit_edge384
                                        #   in Loop: Header=BB5_46 Depth=1
	addi.w	$a4, $a2, 1
	ld.d	$a2, $sp, 72                    # 8-byte Folded Reload
	ld.d	$a3, $sp, 104                   # 8-byte Folded Reload
	add.d	$a3, $a3, $a2
	move	$a2, $a4
	st.d	$a3, $sp, 104                   # 8-byte Folded Spill
	bge	$a4, $a1, .LBB5_92
.LBB5_46:                               # %.preheader
                                        # =>This Loop Header: Depth=1
                                        #     Child Loop BB5_49 Depth 2
	blt	$a0, $s2, .LBB5_45
# %bb.47:                               # %.lr.ph383
                                        #   in Loop: Header=BB5_46 Depth=1
	st.d	$a2, $sp, 64                    # 8-byte Folded Spill
	ld.d	$a1, $s3, 8
	move	$a0, $s8
	move	$s8, $zero
	ld.d	$a2, $sp, 104                   # 8-byte Folded Reload
	add.d	$a0, $a0, $a2
	st.d	$a0, $sp, 96                    # 8-byte Folded Spill
	b	.LBB5_49
	.p2align	4, , 16
.LBB5_48:                               #   in Loop: Header=BB5_49 Depth=2
	st.w	$s4, $a1, 0
	addi.d	$a1, $a1, 4
	st.d	$a1, $s3, 8
	ld.w	$a0, $s5, 72
	addi.w	$s8, $s8, 1
	bge	$s8, $a0, .LBB5_44
.LBB5_49:                               #   Parent Loop BB5_46 Depth=1
                                        # =>  This Inner Loop Header: Depth=2
	ld.d	$a2, $s3, 0
	ld.d	$a4, $sp, 112                   # 8-byte Folded Reload
	ld.d	$a0, $a4, 8
	ld.d	$a3, $a4, 16
	sub.d	$a1, $a1, $a2
	srli.d	$s4, $a1, 2
	beq	$a0, $a3, .LBB5_52
# %bb.50:                               #   in Loop: Header=BB5_49 Depth=2
	st.w	$s4, $a0, 0
	addi.d	$a0, $a0, 4
	st.d	$a0, $a4, 8
	ld.d	$s5, $sp, 88                    # 8-byte Folded Reload
	ld.d	$a0, $s5, 8
	ld.d	$a1, $s5, 16
	beq	$a0, $a1, .LBB5_58
.LBB5_51:                               #   in Loop: Header=BB5_49 Depth=2
	ori	$a1, $zero, 4
	st.w	$a1, $a0, 0
	addi.d	$a0, $a0, 4
	st.d	$a0, $s5, 8
	b	.LBB5_64
	.p2align	4, , 16
.LBB5_52:                               #   in Loop: Header=BB5_49 Depth=2
	ld.d	$s7, $a4, 0
	sub.d	$s6, $a0, $s7
	ld.d	$s5, $sp, 88                    # 8-byte Folded Reload
	ld.d	$a0, $sp, 128                   # 8-byte Folded Reload
	beq	$s6, $a0, .LBB5_314
# %bb.53:                               # %_ZNSt12_Vector_baseIiSaIiEE11_M_allocateEm.exit.i.i.i
                                        #   in Loop: Header=BB5_49 Depth=2
	srai.d	$a0, $s6, 2
	sltu	$a1, $s2, $a0
	masknez	$a2, $s2, $a1
	maskeqz	$a1, $a0, $a1
	or	$a1, $a1, $a2
	add.d	$a0, $a1, $a0
	sltu	$a1, $a0, $a1
	sltu	$a2, $a0, $fp
	maskeqz	$a0, $a0, $a2
	masknez	$a2, $fp, $a2
	or	$a0, $a0, $a2
	masknez	$a0, $a0, $a1
	maskeqz	$a1, $fp, $a1
	or	$s1, $a1, $a0
	slli.d	$a0, $s1, 2
	pcaddu18i	$ra, %call36(_Znwm)
	jirl	$ra, $ra, 0
	move	$s0, $a0
	stx.w	$s4, $a0, $s6
	blt	$s6, $s2, .LBB5_55
# %bb.54:                               #   in Loop: Header=BB5_49 Depth=2
	move	$a0, $s0
	move	$a1, $s7
	move	$a2, $s6
	pcaddu18i	$ra, %call36(memcpy)
	jirl	$ra, $ra, 0
.LBB5_55:                               # %_ZNSt6vectorIiSaIiEE11_S_relocateEPiS2_S2_RS0_.exit.i.i.i
                                        #   in Loop: Header=BB5_49 Depth=2
	beqz	$s7, .LBB5_57
# %bb.56:                               #   in Loop: Header=BB5_49 Depth=2
	move	$a0, $s7
	move	$a1, $s6
	pcaddu18i	$ra, %call36(_ZdlPvm)
	jirl	$ra, $ra, 0
.LBB5_57:                               # %_ZNSt6vectorIiSaIiEE17_M_realloc_appendIJiEEEvDpOT_.exit.i.i
                                        #   in Loop: Header=BB5_49 Depth=2
	add.d	$a0, $s0, $s6
	addi.d	$a0, $a0, 4
	ld.d	$a1, $sp, 112                   # 8-byte Folded Reload
	st.d	$s0, $a1, 0
	st.d	$a0, $a1, 8
	alsl.d	$a0, $s1, $s0, 2
	st.d	$a0, $a1, 16
	ld.d	$a0, $s5, 8
	ld.d	$a1, $s5, 16
	bne	$a0, $a1, .LBB5_51
.LBB5_58:                               #   in Loop: Header=BB5_49 Depth=2
	ld.d	$s7, $s5, 0
	sub.d	$s6, $a0, $s7
	ld.d	$a0, $sp, 128                   # 8-byte Folded Reload
	beq	$s6, $a0, .LBB5_314
# %bb.59:                               # %_ZNSt12_Vector_baseIiSaIiEE11_M_allocateEm.exit.i.i.i149
                                        #   in Loop: Header=BB5_49 Depth=2
	srai.d	$a0, $s6, 2
	sltu	$a1, $s2, $a0
	masknez	$a2, $s2, $a1
	maskeqz	$a1, $a0, $a1
	or	$a1, $a1, $a2
	add.d	$a0, $a1, $a0
	sltu	$a1, $a0, $a1
	sltu	$a2, $a0, $fp
	maskeqz	$a0, $a0, $a2
	masknez	$a2, $fp, $a2
	or	$a0, $a0, $a2
	masknez	$a0, $a0, $a1
	maskeqz	$a1, $fp, $a1
	or	$s1, $a1, $a0
	slli.d	$a0, $s1, 2
	pcaddu18i	$ra, %call36(_Znwm)
	jirl	$ra, $ra, 0
	move	$s0, $a0
	ori	$a0, $zero, 4
	stx.w	$a0, $s0, $s6
	blt	$s6, $s2, .LBB5_61
# %bb.60:                               #   in Loop: Header=BB5_49 Depth=2
	move	$a0, $s0
	move	$a1, $s7
	move	$a2, $s6
	pcaddu18i	$ra, %call36(memcpy)
	jirl	$ra, $ra, 0
.LBB5_61:                               # %_ZNSt6vectorIiSaIiEE11_S_relocateEPiS2_S2_RS0_.exit.i.i.i151
                                        #   in Loop: Header=BB5_49 Depth=2
	beqz	$s7, .LBB5_63
# %bb.62:                               #   in Loop: Header=BB5_49 Depth=2
	move	$a0, $s7
	move	$a1, $s6
	pcaddu18i	$ra, %call36(_ZdlPvm)
	jirl	$ra, $ra, 0
.LBB5_63:                               # %_ZNSt6vectorIiSaIiEE17_M_realloc_appendIJiEEEvDpOT_.exit.i.i153
                                        #   in Loop: Header=BB5_49 Depth=2
	add.d	$a0, $s0, $s6
	addi.d	$a0, $a0, 4
	st.d	$s0, $s5, 0
	st.d	$a0, $s5, 8
	alsl.d	$a0, $s1, $s0, 2
	st.d	$a0, $s5, 16
.LBB5_64:                               # %_ZNSt6vectorIiSaIiEE9push_backEOi.exit154
                                        #   in Loop: Header=BB5_49 Depth=2
	ld.d	$a1, $s3, 8
	ld.d	$a0, $s3, 16
	ld.d	$a2, $sp, 104                   # 8-byte Folded Reload
	add.d	$s1, $a2, $s8
	beq	$a1, $a0, .LBB5_68
# %bb.65:                               #   in Loop: Header=BB5_49 Depth=2
	st.w	$s1, $a1, 0
	addi.d	$a1, $a1, 4
	st.d	$a1, $s3, 8
	addi.d	$s4, $s1, 1
	beq	$a1, $a0, .LBB5_74
.LBB5_66:                               #   in Loop: Header=BB5_49 Depth=2
	st.w	$s4, $a1, 0
	addi.d	$a1, $a1, 4
	st.d	$a1, $s3, 8
	ld.d	$a2, $sp, 96                    # 8-byte Folded Reload
	add.d	$s1, $a2, $s8
	addi.d	$s5, $s1, 2
	beq	$a1, $a0, .LBB5_80
.LBB5_67:                               #   in Loop: Header=BB5_49 Depth=2
	st.w	$s5, $a1, 0
	addi.d	$a1, $a1, 4
	st.d	$a1, $s3, 8
	ld.d	$s5, $sp, 120                   # 8-byte Folded Reload
	addi.d	$s4, $s1, 1
	bne	$a1, $a0, .LBB5_48
	b	.LBB5_86
	.p2align	4, , 16
.LBB5_68:                               #   in Loop: Header=BB5_49 Depth=2
	ld.d	$s7, $s3, 0
	sub.d	$s6, $a1, $s7
	ld.d	$a0, $sp, 128                   # 8-byte Folded Reload
	beq	$s6, $a0, .LBB5_314
# %bb.69:                               # %_ZNSt12_Vector_baseIiSaIiEE11_M_allocateEm.exit.i.i
                                        #   in Loop: Header=BB5_49 Depth=2
	srai.d	$a0, $s6, 2
	sltu	$a1, $s2, $a0
	masknez	$a2, $s2, $a1
	maskeqz	$a1, $a0, $a1
	or	$a1, $a1, $a2
	add.d	$a0, $a1, $a0
	sltu	$a1, $a0, $a1
	sltu	$a2, $a0, $fp
	maskeqz	$a0, $a0, $a2
	masknez	$a2, $fp, $a2
	or	$a0, $a0, $a2
	masknez	$a0, $a0, $a1
	maskeqz	$a1, $fp, $a1
	or	$s4, $a1, $a0
	slli.d	$a0, $s4, 2
	pcaddu18i	$ra, %call36(_Znwm)
	jirl	$ra, $ra, 0
	move	$s0, $a0
	stx.w	$s1, $a0, $s6
	blt	$s6, $s2, .LBB5_71
# %bb.70:                               #   in Loop: Header=BB5_49 Depth=2
	move	$a0, $s0
	move	$a1, $s7
	move	$a2, $s6
	pcaddu18i	$ra, %call36(memcpy)
	jirl	$ra, $ra, 0
.LBB5_71:                               # %_ZNSt6vectorIiSaIiEE11_S_relocateEPiS2_S2_RS0_.exit.i.i
                                        #   in Loop: Header=BB5_49 Depth=2
	beqz	$s7, .LBB5_73
# %bb.72:                               #   in Loop: Header=BB5_49 Depth=2
	move	$a0, $s7
	move	$a1, $s6
	pcaddu18i	$ra, %call36(_ZdlPvm)
	jirl	$ra, $ra, 0
.LBB5_73:                               # %_ZNSt6vectorIiSaIiEE17_M_realloc_appendIJRKiEEEvDpOT_.exit.i
                                        #   in Loop: Header=BB5_49 Depth=2
	add.d	$a0, $s0, $s6
	addi.d	$a1, $a0, 4
	st.d	$s0, $s3, 0
	st.d	$a1, $s3, 8
	alsl.d	$a0, $s4, $s0, 2
	st.d	$a0, $s3, 16
	addi.d	$s4, $s1, 1
	bne	$a1, $a0, .LBB5_66
.LBB5_74:                               #   in Loop: Header=BB5_49 Depth=2
	ld.d	$s7, $s3, 0
	sub.d	$s6, $a0, $s7
	ld.d	$a0, $sp, 128                   # 8-byte Folded Reload
	beq	$s6, $a0, .LBB5_314
# %bb.75:                               # %_ZNSt12_Vector_baseIiSaIiEE11_M_allocateEm.exit.i.i.i156
                                        #   in Loop: Header=BB5_49 Depth=2
	srai.d	$a0, $s6, 2
	sltu	$a1, $s2, $a0
	masknez	$a2, $s2, $a1
	maskeqz	$a1, $a0, $a1
	or	$a1, $a1, $a2
	add.d	$a0, $a1, $a0
	sltu	$a1, $a0, $a1
	sltu	$a2, $a0, $fp
	maskeqz	$a0, $a0, $a2
	masknez	$a2, $fp, $a2
	or	$a0, $a0, $a2
	masknez	$a0, $a0, $a1
	maskeqz	$a1, $fp, $a1
	or	$s1, $a1, $a0
	slli.d	$a0, $s1, 2
	pcaddu18i	$ra, %call36(_Znwm)
	jirl	$ra, $ra, 0
	move	$s0, $a0
	stx.w	$s4, $a0, $s6
	blt	$s6, $s2, .LBB5_77
# %bb.76:                               #   in Loop: Header=BB5_49 Depth=2
	move	$a0, $s0
	move	$a1, $s7
	move	$a2, $s6
	pcaddu18i	$ra, %call36(memcpy)
	jirl	$ra, $ra, 0
.LBB5_77:                               # %_ZNSt6vectorIiSaIiEE11_S_relocateEPiS2_S2_RS0_.exit.i.i.i158
                                        #   in Loop: Header=BB5_49 Depth=2
	beqz	$s7, .LBB5_79
# %bb.78:                               #   in Loop: Header=BB5_49 Depth=2
	move	$a0, $s7
	move	$a1, $s6
	pcaddu18i	$ra, %call36(_ZdlPvm)
	jirl	$ra, $ra, 0
.LBB5_79:                               # %_ZNSt6vectorIiSaIiEE17_M_realloc_appendIJiEEEvDpOT_.exit.i.i160
                                        #   in Loop: Header=BB5_49 Depth=2
	add.d	$a0, $s0, $s6
	addi.d	$a1, $a0, 4
	st.d	$s0, $s3, 0
	st.d	$a1, $s3, 8
	alsl.d	$a0, $s1, $s0, 2
	st.d	$a0, $s3, 16
	ld.d	$a2, $sp, 96                    # 8-byte Folded Reload
	add.d	$s1, $a2, $s8
	addi.d	$s5, $s1, 2
	bne	$a1, $a0, .LBB5_67
.LBB5_80:                               #   in Loop: Header=BB5_49 Depth=2
	ld.d	$s7, $s3, 0
	sub.d	$s6, $a0, $s7
	ld.d	$a0, $sp, 128                   # 8-byte Folded Reload
	beq	$s6, $a0, .LBB5_314
# %bb.81:                               # %_ZNSt12_Vector_baseIiSaIiEE11_M_allocateEm.exit.i.i.i163
                                        #   in Loop: Header=BB5_49 Depth=2
	srai.d	$a0, $s6, 2
	sltu	$a1, $s2, $a0
	masknez	$a2, $s2, $a1
	maskeqz	$a1, $a0, $a1
	or	$a1, $a1, $a2
	add.d	$a0, $a1, $a0
	sltu	$a1, $a0, $a1
	sltu	$a2, $a0, $fp
	maskeqz	$a0, $a0, $a2
	masknez	$a2, $fp, $a2
	or	$a0, $a0, $a2
	masknez	$a0, $a0, $a1
	maskeqz	$a1, $fp, $a1
	or	$s4, $a1, $a0
	slli.d	$a0, $s4, 2
	pcaddu18i	$ra, %call36(_Znwm)
	jirl	$ra, $ra, 0
	move	$s0, $a0
	stx.w	$s5, $a0, $s6
	blt	$s6, $s2, .LBB5_83
# %bb.82:                               #   in Loop: Header=BB5_49 Depth=2
	move	$a0, $s0
	move	$a1, $s7
	move	$a2, $s6
	pcaddu18i	$ra, %call36(memcpy)
	jirl	$ra, $ra, 0
.LBB5_83:                               # %_ZNSt6vectorIiSaIiEE11_S_relocateEPiS2_S2_RS0_.exit.i.i.i165
                                        #   in Loop: Header=BB5_49 Depth=2
	ld.d	$s5, $sp, 120                   # 8-byte Folded Reload
	beqz	$s7, .LBB5_85
# %bb.84:                               #   in Loop: Header=BB5_49 Depth=2
	move	$a0, $s7
	move	$a1, $s6
	pcaddu18i	$ra, %call36(_ZdlPvm)
	jirl	$ra, $ra, 0
.LBB5_85:                               # %_ZNSt6vectorIiSaIiEE17_M_realloc_appendIJiEEEvDpOT_.exit.i.i167
                                        #   in Loop: Header=BB5_49 Depth=2
	add.d	$a0, $s0, $s6
	addi.d	$a1, $a0, 4
	st.d	$s0, $s3, 0
	st.d	$a1, $s3, 8
	alsl.d	$a0, $s4, $s0, 2
	st.d	$a0, $s3, 16
	addi.d	$s4, $s1, 1
	bne	$a1, $a0, .LBB5_48
.LBB5_86:                               #   in Loop: Header=BB5_49 Depth=2
	ld.d	$s7, $s3, 0
	sub.d	$s6, $a0, $s7
	ld.d	$a0, $sp, 128                   # 8-byte Folded Reload
	beq	$s6, $a0, .LBB5_314
# %bb.87:                               # %_ZNSt12_Vector_baseIiSaIiEE11_M_allocateEm.exit.i.i.i170
                                        #   in Loop: Header=BB5_49 Depth=2
	srai.d	$a0, $s6, 2
	sltu	$a1, $s2, $a0
	masknez	$a2, $s2, $a1
	maskeqz	$a1, $a0, $a1
	or	$a1, $a1, $a2
	add.d	$a0, $a1, $a0
	sltu	$a1, $a0, $a1
	sltu	$a2, $a0, $fp
	maskeqz	$a0, $a0, $a2
	masknez	$a2, $fp, $a2
	or	$a0, $a0, $a2
	masknez	$a0, $a0, $a1
	maskeqz	$a1, $fp, $a1
	or	$s1, $a1, $a0
	slli.d	$a0, $s1, 2
	pcaddu18i	$ra, %call36(_Znwm)
	jirl	$ra, $ra, 0
	move	$s0, $a0
	stx.w	$s4, $a0, $s6
	blt	$s6, $s2, .LBB5_89
# %bb.88:                               #   in Loop: Header=BB5_49 Depth=2
	move	$a0, $s0
	move	$a1, $s7
	move	$a2, $s6
	pcaddu18i	$ra, %call36(memcpy)
	jirl	$ra, $ra, 0
.LBB5_89:                               # %_ZNSt6vectorIiSaIiEE11_S_relocateEPiS2_S2_RS0_.exit.i.i.i172
                                        #   in Loop: Header=BB5_49 Depth=2
	beqz	$s7, .LBB5_91
# %bb.90:                               #   in Loop: Header=BB5_49 Depth=2
	move	$a0, $s7
	move	$a1, $s6
	pcaddu18i	$ra, %call36(_ZdlPvm)
	jirl	$ra, $ra, 0
.LBB5_91:                               # %_ZNSt6vectorIiSaIiEE17_M_realloc_appendIJiEEEvDpOT_.exit.i.i174
                                        #   in Loop: Header=BB5_49 Depth=2
	add.d	$a0, $s0, $s6
	addi.d	$a1, $a0, 4
	st.d	$s0, $s3, 0
	st.d	$a1, $s3, 8
	alsl.d	$a0, $s1, $s0, 2
	st.d	$a0, $s3, 16
	ld.w	$a0, $s5, 72
	addi.w	$s8, $s8, 1
	blt	$s8, $a0, .LBB5_49
	b	.LBB5_44
.LBB5_92:                               # %._crit_edge386
	pcalau12i	$a0, %got_pc_hi20(_ZN8Parallel5numpeE)
	ld.d	$a0, $a0, %got_pc_lo12(_ZN8Parallel5numpeE)
	ld.w	$a0, $a0, 0
	ori	$a1, $zero, 1
	beq	$a0, $a1, .LBB5_313
# %bb.93:
	ld.w	$s1, $s5, 68
	ld.w	$fp, $s5, 64
	sltui	$a0, $s1, 1
	ld.d	$a1, $sp, 72                    # 8-byte Folded Reload
	masknez	$a0, $a1, $a0
	sltui	$a1, $fp, 1
	ld.d	$a2, $sp, 16                    # 8-byte Folded Reload
	masknez	$a1, $a2, $a1
	add.w	$s2, $a1, $a0
	ld.d	$a0, $sp, 40                    # 8-byte Folded Reload
	bge	$a0, $s2, .LBB5_315
# %bb.94:
	ld.d	$a1, $sp, 48                    # 8-byte Folded Reload
	ld.d	$a0, $a1, 16
	ld.d	$s3, $a1, 0
	sub.d	$s4, $a0, $s3
	srai.d	$a0, $s4, 2
	bgeu	$a0, $s2, .LBB5_100
# %bb.95:                               # %_ZNSt12_Vector_baseIiSaIiEE11_M_allocateEm.exit.i176
	ld.d	$a0, $a1, 8
	sub.d	$s0, $a0, $s3
	slli.d	$a0, $s2, 2
	pcaddu18i	$ra, %call36(_Znwm)
	jirl	$ra, $ra, 0
	ori	$a1, $zero, 1
	move	$s5, $a0
	blt	$s0, $a1, .LBB5_97
# %bb.96:
	move	$a0, $s5
	move	$a1, $s3
	move	$a2, $s0
	pcaddu18i	$ra, %call36(memcpy)
	jirl	$ra, $ra, 0
.LBB5_97:                               # %_ZNSt6vectorIiSaIiEE11_S_relocateEPiS2_S2_RS0_.exit.i177
	beqz	$s3, .LBB5_99
# %bb.98:
	move	$a0, $s3
	move	$a1, $s4
	pcaddu18i	$ra, %call36(_ZdlPvm)
	jirl	$ra, $ra, 0
	ld.d	$a0, $sp, 120                   # 8-byte Folded Reload
	ld.w	$s1, $a0, 68
	ld.w	$fp, $a0, 64
.LBB5_99:                               # %_ZNSt12_Vector_baseIiSaIiEE13_M_deallocateEPim.exit.i179
	ld.d	$a1, $sp, 48                    # 8-byte Folded Reload
	st.d	$s5, $a1, 0
	add.d	$a0, $s5, $s0
	st.d	$a0, $a1, 8
	alsl.d	$a0, $s2, $s5, 2
	st.d	$a0, $a1, 16
	ld.d	$s5, $sp, 120                   # 8-byte Folded Reload
.LBB5_100:                              # %_ZNSt6vectorIiSaIiEE7reserveEm.exit180
	ld.w	$a0, $s5, 60
	addi.w	$a0, $a0, -1
	ld.w	$a1, $s5, 56
	xor	$a0, $s1, $a0
	sltui	$a0, $a0, 1
	ld.d	$a2, $sp, 72                    # 8-byte Folded Reload
	masknez	$a0, $a2, $a0
	addi.w	$a1, $a1, -1
	xor	$a1, $fp, $a1
	sltui	$a1, $a1, 1
	ld.d	$a2, $sp, 16                    # 8-byte Folded Reload
	masknez	$a1, $a2, $a1
	add.w	$a0, $a1, $a0
	addi.w	$a1, $zero, -2
	bge	$a1, $a0, .LBB5_315
# %bb.101:
	ld.d	$s7, $sp, 272
	ld.d	$a1, $s7, 16
	ld.d	$s3, $s7, 0
	addi.w	$s2, $a0, 1
	sub.d	$s4, $a1, $s3
	srai.d	$a0, $s4, 2
	bgeu	$a0, $s2, .LBB5_107
# %bb.102:                              # %_ZNSt12_Vector_baseIiSaIiEE11_M_allocateEm.exit.i181
	ld.d	$a0, $s7, 8
	sub.d	$s0, $a0, $s3
	slli.d	$a0, $s2, 2
	pcaddu18i	$ra, %call36(_Znwm)
	jirl	$ra, $ra, 0
	ori	$a1, $zero, 1
	move	$s5, $a0
	blt	$s0, $a1, .LBB5_104
# %bb.103:
	move	$a0, $s5
	move	$a1, $s3
	move	$a2, $s0
	pcaddu18i	$ra, %call36(memcpy)
	jirl	$ra, $ra, 0
.LBB5_104:                              # %_ZNSt6vectorIiSaIiEE11_S_relocateEPiS2_S2_RS0_.exit.i182
	ld.d	$s6, $sp, 120                   # 8-byte Folded Reload
	beqz	$s3, .LBB5_106
# %bb.105:
	move	$a0, $s3
	move	$a1, $s4
	pcaddu18i	$ra, %call36(_ZdlPvm)
	jirl	$ra, $ra, 0
	ld.w	$fp, $s6, 64
.LBB5_106:                              # %_ZNSt12_Vector_baseIiSaIiEE13_M_deallocateEPim.exit.i184
	st.d	$s5, $s7, 0
	add.d	$a0, $s5, $s0
	st.d	$a0, $s7, 8
	alsl.d	$a0, $s2, $s5, 2
	st.d	$a0, $s7, 16
	ld.w	$s1, $s6, 68
	move	$s5, $s6
.LBB5_107:                              # %_ZNSt6vectorIiSaIiEE7reserveEm.exit185
	ld.d	$s2, $sp, 56                    # 8-byte Folded Reload
	ld.d	$a3, $sp, 32                    # 8-byte Folded Reload
	beqz	$fp, .LBB5_133
# %bb.108:                              # %_ZNSt6vectorIiSaIiEE7reserveEm.exit185
	beqz	$s1, .LBB5_133
# %bb.109:
	pcalau12i	$a0, %got_pc_hi20(_ZN8Parallel4mypeE)
	ld.d	$a0, $a0, %got_pc_lo12(_ZN8Parallel4mypeE)
	ld.w	$fp, $a0, 0
	ld.d	$a2, $sp, 48                    # 8-byte Folded Reload
	ld.d	$a0, $a2, 8
	ld.d	$a1, $a2, 16
	ld.w	$s1, $s5, 56
	beq	$a0, $a1, .LBB5_111
# %bb.110:
	st.w	$zero, $a0, 0
	addi.d	$a0, $a0, 4
	st.d	$a0, $a2, 8
	b	.LBB5_117
.LBB5_111:
	ld.d	$s3, $a2, 0
	sub.d	$s4, $a0, $s3
	addi.w	$a0, $zero, -4
	lu52i.d	$a0, $a0, 2047
	beq	$s4, $a0, .LBB5_314
# %bb.112:                              # %_ZNSt12_Vector_baseIiSaIiEE11_M_allocateEm.exit.i.i.i187
	srai.d	$a0, $s4, 2
	ori	$s5, $zero, 1
	sltu	$a1, $s5, $a0
	masknez	$a2, $s5, $a1
	maskeqz	$a1, $a0, $a1
	or	$a1, $a1, $a2
	add.d	$a0, $a1, $a0
	sltu	$a1, $a0, $a1
	ld.d	$a2, $sp, 40                    # 8-byte Folded Reload
	lu52i.d	$a2, $a2, 511
	sltu	$a3, $a0, $a2
	maskeqz	$a0, $a0, $a3
	masknez	$a3, $a2, $a3
	or	$a0, $a0, $a3
	masknez	$a0, $a0, $a1
	maskeqz	$a1, $a2, $a1
	or	$s2, $a1, $a0
	slli.d	$a0, $s2, 2
	pcaddu18i	$ra, %call36(_Znwm)
	jirl	$ra, $ra, 0
	move	$s0, $a0
	stx.w	$zero, $a0, $s4
	blt	$s4, $s5, .LBB5_114
# %bb.113:
	move	$a0, $s0
	move	$a1, $s3
	move	$a2, $s4
	pcaddu18i	$ra, %call36(memcpy)
	jirl	$ra, $ra, 0
.LBB5_114:                              # %_ZNSt6vectorIiSaIiEE11_S_relocateEPiS2_S2_RS0_.exit.i.i.i189
	add.d	$s5, $s0, $s4
	beqz	$s3, .LBB5_116
# %bb.115:
	move	$a0, $s3
	move	$a1, $s4
	pcaddu18i	$ra, %call36(_ZdlPvm)
	jirl	$ra, $ra, 0
.LBB5_116:                              # %_ZNSt6vectorIiSaIiEE17_M_realloc_appendIJiEEEvDpOT_.exit.i.i191
	addi.d	$a0, $s5, 4
	ld.d	$a1, $sp, 48                    # 8-byte Folded Reload
	st.d	$s0, $a1, 0
	st.d	$a0, $a1, 8
	alsl.d	$a0, $s2, $s0, 2
	st.d	$a0, $a1, 16
	ld.d	$s5, $sp, 120                   # 8-byte Folded Reload
	ld.d	$s2, $sp, 56                    # 8-byte Folded Reload
	ld.d	$a3, $sp, 32                    # 8-byte Folded Reload
.LBB5_117:                              # %_ZNSt6vectorIiSaIiEE9push_backEOi.exit192
	ld.d	$a0, $a3, 8
	ld.d	$a1, $a3, 16
	nor	$a2, $s1, $zero
	add.d	$fp, $fp, $a2
	beq	$a0, $a1, .LBB5_120
# %bb.118:
	st.w	$fp, $a0, 0
	addi.d	$a0, $a0, 4
	st.d	$a0, $a3, 8
	ld.d	$a2, $sp, 24                    # 8-byte Folded Reload
	ld.d	$a0, $a2, 8
	ld.d	$a1, $a2, 16
	beq	$a0, $a1, .LBB5_126
.LBB5_119:
	ori	$a1, $zero, 1
	st.w	$a1, $a0, 0
	addi.d	$a0, $a0, 4
	st.d	$a0, $a2, 8
	b	.LBB5_132
.LBB5_120:
	ld.d	$s3, $a3, 0
	sub.d	$s4, $a0, $s3
	addi.w	$a0, $zero, -4
	lu52i.d	$a0, $a0, 2047
	beq	$s4, $a0, .LBB5_314
# %bb.121:                              # %_ZNSt12_Vector_baseIiSaIiEE11_M_allocateEm.exit.i.i194
	srai.d	$a0, $s4, 2
	ori	$s2, $zero, 1
	sltu	$a1, $s2, $a0
	masknez	$a2, $s2, $a1
	maskeqz	$a1, $a0, $a1
	or	$a1, $a1, $a2
	add.d	$a0, $a1, $a0
	sltu	$a1, $a0, $a1
	ld.d	$a2, $sp, 40                    # 8-byte Folded Reload
	lu52i.d	$a2, $a2, 511
	sltu	$a3, $a0, $a2
	maskeqz	$a0, $a0, $a3
	masknez	$a3, $a2, $a3
	or	$a0, $a0, $a3
	masknez	$a0, $a0, $a1
	maskeqz	$a1, $a2, $a1
	or	$s1, $a1, $a0
	slli.d	$a0, $s1, 2
	pcaddu18i	$ra, %call36(_Znwm)
	jirl	$ra, $ra, 0
	move	$s0, $a0
	stx.w	$fp, $a0, $s4
	blt	$s4, $s2, .LBB5_123
# %bb.122:
	move	$a0, $s0
	move	$a1, $s3
	move	$a2, $s4
	pcaddu18i	$ra, %call36(memcpy)
	jirl	$ra, $ra, 0
.LBB5_123:                              # %_ZNSt6vectorIiSaIiEE11_S_relocateEPiS2_S2_RS0_.exit.i.i196
	add.d	$fp, $s0, $s4
	ld.d	$s2, $sp, 56                    # 8-byte Folded Reload
	beqz	$s3, .LBB5_125
# %bb.124:
	move	$a0, $s3
	move	$a1, $s4
	pcaddu18i	$ra, %call36(_ZdlPvm)
	jirl	$ra, $ra, 0
.LBB5_125:                              # %_ZNSt6vectorIiSaIiEE17_M_realloc_appendIJRKiEEEvDpOT_.exit.i198
	addi.d	$a0, $fp, 4
	ld.d	$a1, $sp, 32                    # 8-byte Folded Reload
	st.d	$s0, $a1, 0
	st.d	$a0, $a1, 8
	alsl.d	$a0, $s1, $s0, 2
	st.d	$a0, $a1, 16
	ld.d	$a2, $sp, 24                    # 8-byte Folded Reload
	ld.d	$a0, $a2, 8
	ld.d	$a1, $a2, 16
	bne	$a0, $a1, .LBB5_119
.LBB5_126:
	ld.d	$s3, $a2, 0
	sub.d	$s4, $a0, $s3
	addi.w	$a0, $zero, -4
	lu52i.d	$a0, $a0, 2047
	beq	$s4, $a0, .LBB5_314
# %bb.127:                              # %_ZNSt12_Vector_baseIiSaIiEE11_M_allocateEm.exit.i.i.i201
	srai.d	$a0, $s4, 2
	ori	$s1, $zero, 1
	sltu	$a1, $s1, $a0
	masknez	$a2, $s1, $a1
	maskeqz	$a1, $a0, $a1
	or	$a1, $a1, $a2
	add.d	$a0, $a1, $a0
	sltu	$a1, $a0, $a1
	ld.d	$a2, $sp, 40                    # 8-byte Folded Reload
	lu52i.d	$a2, $a2, 511
	sltu	$a3, $a0, $a2
	maskeqz	$a0, $a0, $a3
	masknez	$a3, $a2, $a3
	or	$a0, $a0, $a3
	masknez	$a0, $a0, $a1
	maskeqz	$a1, $a2, $a1
	or	$fp, $a1, $a0
	slli.d	$a0, $fp, 2
	pcaddu18i	$ra, %call36(_Znwm)
	jirl	$ra, $ra, 0
	move	$s0, $a0
	stx.w	$s1, $a0, $s4
	blt	$s4, $s1, .LBB5_129
# %bb.128:
	move	$a0, $s0
	move	$a1, $s3
	move	$a2, $s4
	pcaddu18i	$ra, %call36(memcpy)
	jirl	$ra, $ra, 0
.LBB5_129:                              # %_ZNSt6vectorIiSaIiEE11_S_relocateEPiS2_S2_RS0_.exit.i.i.i203
	add.d	$s1, $s0, $s4
	beqz	$s3, .LBB5_131
# %bb.130:
	move	$a0, $s3
	move	$a1, $s4
	pcaddu18i	$ra, %call36(_ZdlPvm)
	jirl	$ra, $ra, 0
.LBB5_131:                              # %_ZNSt6vectorIiSaIiEE17_M_realloc_appendIJiEEEvDpOT_.exit.i.i205
	addi.d	$a0, $s1, 4
	ld.d	$a1, $sp, 24                    # 8-byte Folded Reload
	st.d	$s0, $a1, 0
	st.d	$a0, $a1, 8
	alsl.d	$a0, $fp, $s0, 2
	st.d	$a0, $a1, 16
.LBB5_132:                              # %_ZNSt6vectorIiSaIiEE9push_backEOi.exit206thread-pre-split
	ld.w	$s1, $s5, 68
.LBB5_133:                              # %_ZNSt6vectorIiSaIiEE9push_backEOi.exit206
	beqz	$s1, .LBB5_165
# %bb.134:
	pcalau12i	$a0, %got_pc_hi20(_ZN8Parallel4mypeE)
	ld.d	$a0, $a0, %got_pc_lo12(_ZN8Parallel4mypeE)
	ld.w	$a0, $a0, 0
	st.d	$a0, $sp, 128                   # 8-byte Folded Spill
	ld.d	$a2, $sp, 48                    # 8-byte Folded Reload
	ld.d	$a0, $a2, 8
	ld.d	$s4, $a2, 0
	ld.w	$s0, $s5, 56
	sub.d	$s2, $a0, $s4
	st.d	$s2, $sp, 112                   # 8-byte Folded Spill
	bltz	$s8, .LBB5_155
# %bb.135:                              # %.lr.ph391.preheader
	ld.w	$a1, $s5, 64
	beqz	$a1, .LBB5_137
# %bb.136:
	move	$s5, $s4
	bnez	$s8, .LBB5_139
	b	.LBB5_154
.LBB5_137:
	ld.d	$a1, $a2, 16
	beq	$a0, $a1, .LBB5_148
# %bb.138:
	st.w	$zero, $a0, 0
	addi.d	$a0, $a0, 4
	st.d	$a0, $a2, 8
	move	$s5, $s4
	beqz	$s8, .LBB5_154
.LBB5_139:                              # %.lr.ph391.peel.next.preheader
	move	$s1, $zero
	addi.w	$a1, $zero, -4
	lu52i.d	$s2, $a1, 2047
	ori	$s8, $zero, 1
	ld.d	$a1, $sp, 40                    # 8-byte Folded Reload
	lu52i.d	$s3, $a1, 511
	b	.LBB5_141
	.p2align	4, , 16
.LBB5_140:                              #   in Loop: Header=BB5_141 Depth=1
	st.w	$s1, $a0, 0
	addi.d	$a0, $a0, 4
	st.d	$a0, $a2, 8
	move	$s4, $s5
	ld.d	$a1, $sp, 80                    # 8-byte Folded Reload
	beq	$a1, $s1, .LBB5_155
.LBB5_141:                              # %.lr.ph391.peel.next
                                        # =>This Inner Loop Header: Depth=1
	ld.d	$a1, $a2, 16
	addi.w	$s1, $s1, 1
	bne	$a0, $a1, .LBB5_140
# %bb.142:                              #   in Loop: Header=BB5_141 Depth=1
	sub.d	$s6, $a0, $s5
	beq	$s6, $s2, .LBB5_314
# %bb.143:                              # %_ZNSt12_Vector_baseIiSaIiEE11_M_allocateEm.exit.i.i222
                                        #   in Loop: Header=BB5_141 Depth=1
	srai.d	$a0, $s6, 2
	sltu	$a1, $s8, $a0
	masknez	$a2, $s8, $a1
	maskeqz	$a1, $a0, $a1
	or	$a1, $a1, $a2
	add.d	$a0, $a1, $a0
	sltu	$a1, $a0, $a1
	sltu	$a2, $a0, $s3
	maskeqz	$a0, $a0, $a2
	masknez	$a2, $s3, $a2
	or	$a0, $a0, $a2
	masknez	$a0, $a0, $a1
	maskeqz	$a1, $s3, $a1
	or	$fp, $a1, $a0
	slli.d	$a0, $fp, 2
	pcaddu18i	$ra, %call36(_Znwm)
	jirl	$ra, $ra, 0
	move	$s4, $a0
	stx.w	$s1, $a0, $s6
	blt	$s6, $s8, .LBB5_145
# %bb.144:                              #   in Loop: Header=BB5_141 Depth=1
	move	$a0, $s4
	move	$a1, $s5
	move	$a2, $s6
	pcaddu18i	$ra, %call36(memcpy)
	jirl	$ra, $ra, 0
.LBB5_145:                              # %_ZNSt6vectorIiSaIiEE11_S_relocateEPiS2_S2_RS0_.exit.i.i224
                                        #   in Loop: Header=BB5_141 Depth=1
	beqz	$s5, .LBB5_147
# %bb.146:                              #   in Loop: Header=BB5_141 Depth=1
	move	$a0, $s5
	move	$a1, $s6
	pcaddu18i	$ra, %call36(_ZdlPvm)
	jirl	$ra, $ra, 0
.LBB5_147:                              # %_ZNSt6vectorIiSaIiEE17_M_realloc_appendIJRKiEEEvDpOT_.exit.i226
                                        #   in Loop: Header=BB5_141 Depth=1
	add.d	$a0, $s4, $s6
	addi.d	$a0, $a0, 4
	ld.d	$a2, $sp, 48                    # 8-byte Folded Reload
	st.d	$s4, $a2, 0
	st.d	$a0, $a2, 8
	alsl.d	$a1, $fp, $s4, 2
	st.d	$a1, $a2, 16
	move	$s5, $s4
	ld.d	$a1, $sp, 80                    # 8-byte Folded Reload
	bne	$a1, $s1, .LBB5_141
	b	.LBB5_155
.LBB5_148:
	addi.w	$a0, $zero, -4
	lu52i.d	$a0, $a0, 2047
	beq	$s2, $a0, .LBB5_314
# %bb.149:                              # %_ZNSt12_Vector_baseIiSaIiEE11_M_allocateEm.exit.i.i222.peel
	move	$a1, $s2
	srai.d	$a0, $a1, 2
	ori	$fp, $zero, 1
	sltu	$a1, $fp, $a0
	masknez	$a2, $fp, $a1
	maskeqz	$a1, $a0, $a1
	or	$a1, $a1, $a2
	add.d	$a0, $a1, $a0
	sltu	$a1, $a0, $a1
	ld.d	$a2, $sp, 40                    # 8-byte Folded Reload
	lu52i.d	$a2, $a2, 511
	sltu	$a3, $a0, $a2
	maskeqz	$a0, $a0, $a3
	masknez	$a3, $a2, $a3
	or	$a0, $a0, $a3
	masknez	$a0, $a0, $a1
	maskeqz	$a1, $a2, $a1
	or	$s1, $a1, $a0
	slli.d	$a0, $s1, 2
	pcaddu18i	$ra, %call36(_Znwm)
	jirl	$ra, $ra, 0
	move	$s5, $a0
	stx.w	$zero, $a0, $s2
	blt	$s2, $fp, .LBB5_151
# %bb.150:
	move	$a0, $s5
	move	$a1, $s4
	move	$a2, $s2
	pcaddu18i	$ra, %call36(memcpy)
	jirl	$ra, $ra, 0
.LBB5_151:                              # %_ZNSt6vectorIiSaIiEE11_S_relocateEPiS2_S2_RS0_.exit.i.i224.peel
	add.d	$fp, $s5, $s2
	ld.d	$s8, $sp, 80                    # 8-byte Folded Reload
	beqz	$s4, .LBB5_153
# %bb.152:
	move	$a0, $s4
	move	$a1, $s2
	pcaddu18i	$ra, %call36(_ZdlPvm)
	jirl	$ra, $ra, 0
.LBB5_153:                              # %_ZNSt6vectorIiSaIiEE17_M_realloc_appendIJRKiEEEvDpOT_.exit.i226.peel
	addi.d	$a0, $fp, 4
	ld.d	$a2, $sp, 48                    # 8-byte Folded Reload
	st.d	$s5, $a2, 0
	st.d	$a0, $a2, 8
	alsl.d	$a1, $s1, $s5, 2
	st.d	$a1, $a2, 16
	bnez	$s8, .LBB5_139
.LBB5_154:
	move	$s4, $s5
.LBB5_155:                              # %._crit_edge392
	ld.d	$s3, $sp, 32                    # 8-byte Folded Reload
	ld.d	$a0, $s3, 8
	ld.d	$a1, $s3, 16
	ld.d	$a3, $sp, 128                   # 8-byte Folded Reload
	sub.d	$s1, $a3, $s0
	beq	$a0, $a1, .LBB5_157
# %bb.156:
	st.w	$s1, $a0, 0
	addi.d	$a0, $a0, 4
	st.d	$a0, $s3, 8
	ld.d	$s8, $sp, 80                    # 8-byte Folded Reload
	b	.LBB5_163
.LBB5_157:
	ld.d	$s4, $s3, 0
	sub.d	$s5, $a0, $s4
	addi.w	$a0, $zero, -4
	lu52i.d	$a0, $a0, 2047
	ld.d	$s8, $sp, 80                    # 8-byte Folded Reload
	beq	$s5, $a0, .LBB5_314
# %bb.158:                              # %_ZNSt12_Vector_baseIiSaIiEE11_M_allocateEm.exit.i.i208
	srai.d	$a0, $s5, 2
	ori	$s2, $zero, 1
	sltu	$a1, $s2, $a0
	masknez	$a2, $s2, $a1
	maskeqz	$a1, $a0, $a1
	or	$a1, $a1, $a2
	add.d	$a0, $a1, $a0
	sltu	$a1, $a0, $a1
	ld.d	$a2, $sp, 40                    # 8-byte Folded Reload
	lu52i.d	$a2, $a2, 511
	sltu	$a3, $a0, $a2
	maskeqz	$a0, $a0, $a3
	masknez	$a3, $a2, $a3
	or	$a0, $a0, $a3
	masknez	$a0, $a0, $a1
	maskeqz	$a1, $a2, $a1
	or	$fp, $a1, $a0
	slli.d	$a0, $fp, 2
	pcaddu18i	$ra, %call36(_Znwm)
	jirl	$ra, $ra, 0
	move	$s0, $a0
	stx.w	$s1, $a0, $s5
	blt	$s5, $s2, .LBB5_160
# %bb.159:
	move	$a0, $s0
	move	$a1, $s4
	move	$a2, $s5
	pcaddu18i	$ra, %call36(memcpy)
	jirl	$ra, $ra, 0
.LBB5_160:                              # %_ZNSt6vectorIiSaIiEE11_S_relocateEPiS2_S2_RS0_.exit.i.i210
	add.d	$s1, $s0, $s5
	beqz	$s4, .LBB5_162
# %bb.161:
	move	$a0, $s4
	move	$a1, $s5
	pcaddu18i	$ra, %call36(_ZdlPvm)
	jirl	$ra, $ra, 0
.LBB5_162:                              # %_ZNSt6vectorIiSaIiEE17_M_realloc_appendIJRKiEEEvDpOT_.exit.i212
	addi.d	$a0, $s1, 4
	st.d	$s0, $s3, 0
	ld.d	$a2, $sp, 48                    # 8-byte Folded Reload
	ld.d	$s4, $a2, 0
	st.d	$a0, $s3, 8
	alsl.d	$a0, $fp, $s0, 2
	st.d	$a0, $s3, 16
.LBB5_163:                              # %_ZNSt6vectorIiSaIiEE9push_backERKi.exit213
	ld.d	$s2, $sp, 56                    # 8-byte Folded Reload
	ld.d	$a1, $a2, 8
	ld.d	$a4, $sp, 24                    # 8-byte Folded Reload
	ld.d	$a0, $a4, 8
	ld.d	$a2, $a4, 16
	ld.d	$a3, $sp, 112                   # 8-byte Folded Reload
	srli.d	$a3, $a3, 2
	sub.d	$a1, $a1, $s4
	srli.d	$a1, $a1, 2
	sub.d	$fp, $a1, $a3
	ld.d	$s5, $sp, 120                   # 8-byte Folded Reload
	beq	$a0, $a2, .LBB5_169
# %bb.164:
	st.w	$fp, $a0, 0
	addi.d	$a0, $a0, 4
	st.d	$a0, $a4, 8
.LBB5_165:                              # %_ZNSt6vectorIiSaIiEE9push_backEOi.exit220
	ld.w	$a0, $s5, 64
	ld.d	$a2, $sp, 48                    # 8-byte Folded Reload
	beqz	$a0, .LBB5_210
.LBB5_166:
	pcalau12i	$a0, %got_pc_hi20(_ZN8Parallel4mypeE)
	ld.d	$a1, $a0, %got_pc_lo12(_ZN8Parallel4mypeE)
	ld.d	$a0, $a2, 8
	ld.d	$s4, $a2, 0
	ld.w	$a4, $a1, 0
	sub.d	$a3, $a0, $s4
	st.d	$a3, $sp, 128                   # 8-byte Folded Spill
	st.d	$a4, $sp, 112                   # 8-byte Folded Spill
	bltz	$s2, .LBB5_194
# %bb.167:                              # %.lr.ph397.preheader
	ld.w	$a1, $s5, 68
	beqz	$a1, .LBB5_175
# %bb.168:
	move	$s5, $s4
	bnez	$s2, .LBB5_177
	b	.LBB5_193
.LBB5_169:
	ld.d	$s3, $a4, 0
	sub.d	$s4, $a0, $s3
	addi.w	$a0, $zero, -4
	lu52i.d	$a0, $a0, 2047
	beq	$s4, $a0, .LBB5_314
# %bb.170:                              # %_ZNSt12_Vector_baseIiSaIiEE11_M_allocateEm.exit.i.i.i215
	srai.d	$a0, $s4, 2
	ori	$s2, $zero, 1
	sltu	$a1, $s2, $a0
	masknez	$a2, $s2, $a1
	maskeqz	$a1, $a0, $a1
	or	$a1, $a1, $a2
	add.d	$a0, $a1, $a0
	sltu	$a1, $a0, $a1
	ld.d	$a2, $sp, 40                    # 8-byte Folded Reload
	lu52i.d	$a2, $a2, 511
	sltu	$a3, $a0, $a2
	maskeqz	$a0, $a0, $a3
	masknez	$a3, $a2, $a3
	or	$a0, $a0, $a3
	masknez	$a0, $a0, $a1
	maskeqz	$a1, $a2, $a1
	or	$s1, $a1, $a0
	slli.d	$a0, $s1, 2
	pcaddu18i	$ra, %call36(_Znwm)
	jirl	$ra, $ra, 0
	move	$s0, $a0
	stx.w	$fp, $a0, $s4
	blt	$s4, $s2, .LBB5_172
# %bb.171:
	move	$a0, $s0
	move	$a1, $s3
	move	$a2, $s4
	pcaddu18i	$ra, %call36(memcpy)
	jirl	$ra, $ra, 0
.LBB5_172:                              # %_ZNSt6vectorIiSaIiEE11_S_relocateEPiS2_S2_RS0_.exit.i.i.i217
	add.d	$fp, $s0, $s4
	beqz	$s3, .LBB5_174
# %bb.173:
	move	$a0, $s3
	move	$a1, $s4
	pcaddu18i	$ra, %call36(_ZdlPvm)
	jirl	$ra, $ra, 0
.LBB5_174:                              # %_ZNSt6vectorIiSaIiEE17_M_realloc_appendIJiEEEvDpOT_.exit.i.i219
	addi.d	$a0, $fp, 4
	ld.d	$a1, $sp, 24                    # 8-byte Folded Reload
	st.d	$s0, $a1, 0
	st.d	$a0, $a1, 8
	alsl.d	$a0, $s1, $s0, 2
	st.d	$a0, $a1, 16
	ld.d	$s2, $sp, 56                    # 8-byte Folded Reload
	ld.w	$a0, $s5, 64
	ld.d	$a2, $sp, 48                    # 8-byte Folded Reload
	bnez	$a0, .LBB5_166
	b	.LBB5_210
.LBB5_175:
	ld.d	$a1, $a2, 16
	beq	$a0, $a1, .LBB5_187
# %bb.176:
	st.w	$zero, $a0, 0
	addi.d	$a0, $a0, 4
	st.d	$a0, $a2, 8
	move	$s5, $s4
	beqz	$s2, .LBB5_193
.LBB5_177:
	move	$s8, $s2
	addi.w	$a1, $zero, -4
	lu52i.d	$s0, $a1, 2047
	ori	$s1, $zero, 1
	ld.d	$a1, $sp, 40                    # 8-byte Folded Reload
	lu52i.d	$s2, $a1, 511
	ld.d	$s3, $sp, 72                    # 8-byte Folded Reload
	b	.LBB5_180
	.p2align	4, , 16
.LBB5_178:                              #   in Loop: Header=BB5_180 Depth=1
	st.w	$s3, $a0, 0
	addi.d	$a0, $a0, 4
	st.d	$a0, $a2, 8
	move	$s4, $s5
.LBB5_179:                              # %_ZNSt6vectorIiSaIiEE9push_backERKi.exit248
                                        #   in Loop: Header=BB5_180 Depth=1
	addi.w	$s8, $s8, -1
	ld.d	$a1, $sp, 72                    # 8-byte Folded Reload
	add.d	$s3, $s3, $a1
	beqz	$s8, .LBB5_194
.LBB5_180:                              # %.lr.ph397.peel.next
                                        # =>This Inner Loop Header: Depth=1
	ld.d	$a1, $a2, 16
	bne	$a0, $a1, .LBB5_178
# %bb.181:                              #   in Loop: Header=BB5_180 Depth=1
	sub.d	$s6, $a0, $s5
	beq	$s6, $s0, .LBB5_314
# %bb.182:                              # %_ZNSt12_Vector_baseIiSaIiEE11_M_allocateEm.exit.i.i243
                                        #   in Loop: Header=BB5_180 Depth=1
	srai.d	$a0, $s6, 2
	sltu	$a1, $s1, $a0
	masknez	$a2, $s1, $a1
	maskeqz	$a1, $a0, $a1
	or	$a1, $a1, $a2
	add.d	$a0, $a1, $a0
	sltu	$a1, $a0, $a1
	sltu	$a2, $a0, $s2
	maskeqz	$a0, $a0, $a2
	masknez	$a2, $s2, $a2
	or	$a0, $a0, $a2
	masknez	$a0, $a0, $a1
	maskeqz	$a1, $s2, $a1
	or	$fp, $a1, $a0
	slli.d	$a0, $fp, 2
	pcaddu18i	$ra, %call36(_Znwm)
	jirl	$ra, $ra, 0
	move	$s4, $a0
	stx.w	$s3, $a0, $s6
	blt	$s6, $s1, .LBB5_184
# %bb.183:                              #   in Loop: Header=BB5_180 Depth=1
	move	$a0, $s4
	move	$a1, $s5
	move	$a2, $s6
	pcaddu18i	$ra, %call36(memcpy)
	jirl	$ra, $ra, 0
.LBB5_184:                              # %_ZNSt6vectorIiSaIiEE11_S_relocateEPiS2_S2_RS0_.exit.i.i245
                                        #   in Loop: Header=BB5_180 Depth=1
	beqz	$s5, .LBB5_186
# %bb.185:                              #   in Loop: Header=BB5_180 Depth=1
	move	$a0, $s5
	move	$a1, $s6
	pcaddu18i	$ra, %call36(_ZdlPvm)
	jirl	$ra, $ra, 0
.LBB5_186:                              # %_ZNSt6vectorIiSaIiEE17_M_realloc_appendIJRKiEEEvDpOT_.exit.i247
                                        #   in Loop: Header=BB5_180 Depth=1
	add.d	$a0, $s4, $s6
	addi.d	$a0, $a0, 4
	ld.d	$a2, $sp, 48                    # 8-byte Folded Reload
	st.d	$s4, $a2, 0
	st.d	$a0, $a2, 8
	alsl.d	$a1, $fp, $s4, 2
	st.d	$a1, $a2, 16
	move	$s5, $s4
	b	.LBB5_179
.LBB5_187:
	addi.w	$a0, $zero, -4
	lu52i.d	$a0, $a0, 2047
	beq	$a3, $a0, .LBB5_314
# %bb.188:                              # %_ZNSt12_Vector_baseIiSaIiEE11_M_allocateEm.exit.i.i243.peel
	ld.d	$s1, $sp, 128                   # 8-byte Folded Reload
	srai.d	$a0, $s1, 2
	ori	$fp, $zero, 1
	sltu	$a1, $fp, $a0
	masknez	$a2, $fp, $a1
	maskeqz	$a1, $a0, $a1
	or	$a1, $a1, $a2
	add.d	$a0, $a1, $a0
	sltu	$a1, $a0, $a1
	ld.d	$a2, $sp, 40                    # 8-byte Folded Reload
	lu52i.d	$a2, $a2, 511
	sltu	$a3, $a0, $a2
	maskeqz	$a0, $a0, $a3
	masknez	$a3, $a2, $a3
	or	$a0, $a0, $a3
	masknez	$a0, $a0, $a1
	maskeqz	$a1, $a2, $a1
	or	$s0, $a1, $a0
	slli.d	$a0, $s0, 2
	pcaddu18i	$ra, %call36(_Znwm)
	jirl	$ra, $ra, 0
	move	$s5, $a0
	stx.w	$zero, $a0, $s1
	blt	$s1, $fp, .LBB5_190
# %bb.189:
	move	$a0, $s5
	move	$a1, $s4
	move	$a2, $s1
	pcaddu18i	$ra, %call36(memcpy)
	jirl	$ra, $ra, 0
.LBB5_190:                              # %_ZNSt6vectorIiSaIiEE11_S_relocateEPiS2_S2_RS0_.exit.i.i245.peel
	add.d	$fp, $s5, $s1
	ld.d	$s2, $sp, 56                    # 8-byte Folded Reload
	beqz	$s4, .LBB5_192
# %bb.191:
	move	$a0, $s4
	move	$a1, $s1
	pcaddu18i	$ra, %call36(_ZdlPvm)
	jirl	$ra, $ra, 0
.LBB5_192:                              # %_ZNSt6vectorIiSaIiEE17_M_realloc_appendIJRKiEEEvDpOT_.exit.i247.peel
	addi.d	$a0, $fp, 4
	ld.d	$a2, $sp, 48                    # 8-byte Folded Reload
	st.d	$s5, $a2, 0
	st.d	$a0, $a2, 8
	alsl.d	$a1, $s0, $s5, 2
	st.d	$a1, $a2, 16
	bnez	$s2, .LBB5_177
.LBB5_193:
	move	$s4, $s5
.LBB5_194:                              # %._crit_edge398
	ld.d	$s3, $sp, 32                    # 8-byte Folded Reload
	ld.d	$a0, $s3, 8
	ld.d	$a1, $s3, 16
	ld.d	$a3, $sp, 112                   # 8-byte Folded Reload
	addi.d	$s1, $a3, -1
	beq	$a0, $a1, .LBB5_196
# %bb.195:
	st.w	$s1, $a0, 0
	addi.d	$a0, $a0, 4
	st.d	$a0, $s3, 8
	ld.d	$s8, $sp, 80                    # 8-byte Folded Reload
	b	.LBB5_202
.LBB5_196:
	ld.d	$s4, $s3, 0
	sub.d	$s5, $a0, $s4
	addi.w	$a0, $zero, -4
	lu52i.d	$a0, $a0, 2047
	beq	$s5, $a0, .LBB5_314
# %bb.197:                              # %_ZNSt12_Vector_baseIiSaIiEE11_M_allocateEm.exit.i.i229
	srai.d	$a0, $s5, 2
	ori	$s2, $zero, 1
	sltu	$a1, $s2, $a0
	masknez	$a2, $s2, $a1
	maskeqz	$a1, $a0, $a1
	or	$a1, $a1, $a2
	add.d	$a0, $a1, $a0
	sltu	$a1, $a0, $a1
	ld.d	$a2, $sp, 40                    # 8-byte Folded Reload
	lu52i.d	$a2, $a2, 511
	sltu	$a3, $a0, $a2
	maskeqz	$a0, $a0, $a3
	masknez	$a3, $a2, $a3
	or	$a0, $a0, $a3
	masknez	$a0, $a0, $a1
	maskeqz	$a1, $a2, $a1
	or	$fp, $a1, $a0
	slli.d	$a0, $fp, 2
	pcaddu18i	$ra, %call36(_Znwm)
	jirl	$ra, $ra, 0
	move	$s0, $a0
	stx.w	$s1, $a0, $s5
	blt	$s5, $s2, .LBB5_199
# %bb.198:
	move	$a0, $s0
	move	$a1, $s4
	move	$a2, $s5
	pcaddu18i	$ra, %call36(memcpy)
	jirl	$ra, $ra, 0
.LBB5_199:                              # %_ZNSt6vectorIiSaIiEE11_S_relocateEPiS2_S2_RS0_.exit.i.i231
	add.d	$s1, $s0, $s5
	ld.d	$s8, $sp, 80                    # 8-byte Folded Reload
	beqz	$s4, .LBB5_201
# %bb.200:
	move	$a0, $s4
	move	$a1, $s5
	pcaddu18i	$ra, %call36(_ZdlPvm)
	jirl	$ra, $ra, 0
.LBB5_201:                              # %_ZNSt6vectorIiSaIiEE17_M_realloc_appendIJRKiEEEvDpOT_.exit.i233
	addi.d	$a0, $s1, 4
	st.d	$s0, $s3, 0
	ld.d	$a2, $sp, 48                    # 8-byte Folded Reload
	ld.d	$s4, $a2, 0
	st.d	$a0, $s3, 8
	alsl.d	$a0, $fp, $s0, 2
	st.d	$a0, $s3, 16
.LBB5_202:                              # %_ZNSt6vectorIiSaIiEE9push_backERKi.exit234
	ld.d	$s2, $sp, 56                    # 8-byte Folded Reload
	ld.d	$a1, $a2, 8
	ld.d	$a4, $sp, 24                    # 8-byte Folded Reload
	ld.d	$a0, $a4, 8
	ld.d	$a2, $a4, 16
	ld.d	$a3, $sp, 128                   # 8-byte Folded Reload
	srli.d	$a3, $a3, 2
	sub.d	$a1, $a1, $s4
	srli.d	$a1, $a1, 2
	sub.d	$fp, $a1, $a3
	ld.d	$s5, $sp, 120                   # 8-byte Folded Reload
	beq	$a0, $a2, .LBB5_204
# %bb.203:
	st.w	$fp, $a0, 0
	addi.d	$a0, $a0, 4
	st.d	$a0, $a4, 8
	b	.LBB5_210
.LBB5_204:
	ld.d	$s1, $a4, 0
	sub.d	$s3, $a0, $s1
	addi.w	$a0, $zero, -4
	lu52i.d	$a0, $a0, 2047
	beq	$s3, $a0, .LBB5_314
# %bb.205:                              # %_ZNSt12_Vector_baseIiSaIiEE11_M_allocateEm.exit.i.i.i236
	srai.d	$a0, $s3, 2
	ori	$s4, $zero, 1
	sltu	$a1, $s4, $a0
	masknez	$a2, $s4, $a1
	maskeqz	$a1, $a0, $a1
	or	$a1, $a1, $a2
	add.d	$a0, $a1, $a0
	sltu	$a1, $a0, $a1
	ld.d	$a2, $sp, 40                    # 8-byte Folded Reload
	lu52i.d	$a2, $a2, 511
	sltu	$a3, $a0, $a2
	maskeqz	$a0, $a0, $a3
	masknez	$a3, $a2, $a3
	or	$a0, $a0, $a3
	masknez	$a0, $a0, $a1
	maskeqz	$a1, $a2, $a1
	or	$s2, $a1, $a0
	slli.d	$a0, $s2, 2
	pcaddu18i	$ra, %call36(_Znwm)
	jirl	$ra, $ra, 0
	move	$s0, $a0
	stx.w	$fp, $a0, $s3
	blt	$s3, $s4, .LBB5_207
# %bb.206:
	move	$a0, $s0
	move	$a1, $s1
	move	$a2, $s3
	pcaddu18i	$ra, %call36(memcpy)
	jirl	$ra, $ra, 0
.LBB5_207:                              # %_ZNSt6vectorIiSaIiEE11_S_relocateEPiS2_S2_RS0_.exit.i.i.i238
	add.d	$fp, $s0, $s3
	beqz	$s1, .LBB5_209
# %bb.208:
	move	$a0, $s1
	move	$a1, $s3
	pcaddu18i	$ra, %call36(_ZdlPvm)
	jirl	$ra, $ra, 0
.LBB5_209:                              # %_ZNSt6vectorIiSaIiEE17_M_realloc_appendIJiEEEvDpOT_.exit.i.i240
	addi.d	$a0, $fp, 4
	ld.d	$a1, $sp, 24                    # 8-byte Folded Reload
	st.d	$s0, $a1, 0
	st.d	$a0, $a1, 8
	alsl.d	$a0, $s2, $s0, 2
	st.d	$a0, $a1, 16
	ld.d	$s2, $sp, 56                    # 8-byte Folded Reload
.LBB5_210:                              # %_ZNSt6vectorIiSaIiEE9push_backEOi.exit241
	ld.d	$a0, $sp, 264
	st.d	$a0, $sp, 128                   # 8-byte Folded Spill
	ld.w	$a0, $s5, 56
	ld.w	$a1, $s5, 64
	ld.d	$a2, $sp, 256
	st.d	$a2, $sp, 112                   # 8-byte Folded Spill
	addi.w	$a0, $a0, -1
	beq	$a1, $a0, .LBB5_243
# %bb.211:
	pcalau12i	$a0, %got_pc_hi20(_ZN8Parallel4mypeE)
	ld.d	$a1, $a0, %got_pc_lo12(_ZN8Parallel4mypeE)
	ld.d	$a0, $s7, 8
	ld.d	$s1, $s7, 0
	ld.w	$a2, $a1, 0
	sub.d	$a1, $a0, $s1
	st.d	$a1, $sp, 104                   # 8-byte Folded Spill
	st.d	$a2, $sp, 96                    # 8-byte Folded Spill
	bltz	$s2, .LBB5_233
# %bb.212:                              # %.lr.ph403.preheader
	ld.w	$a1, $s5, 68
	beqz	$a1, .LBB5_214
# %bb.213:
	move	$s4, $s1
	bnez	$s2, .LBB5_216
	b	.LBB5_232
.LBB5_214:
	ld.d	$a1, $s7, 16
	beq	$a0, $a1, .LBB5_226
# %bb.215:
	st.w	$s8, $a0, 0
	addi.d	$a0, $a0, 4
	st.d	$a0, $s7, 8
	move	$s4, $s1
	beqz	$s2, .LBB5_232
.LBB5_216:                              # %.lr.ph403.peel.next.preheader
	move	$s5, $s2
	slli.d	$a1, $s8, 1
	addi.d	$s2, $a1, 1
	addi.w	$a1, $zero, -4
	lu52i.d	$s8, $a1, 2047
	ori	$s0, $zero, 1
	ld.d	$a1, $sp, 40                    # 8-byte Folded Reload
	lu52i.d	$fp, $a1, 511
	b	.LBB5_219
	.p2align	4, , 16
.LBB5_217:                              #   in Loop: Header=BB5_219 Depth=1
	st.w	$s2, $a0, 0
	addi.d	$a0, $a0, 4
	st.d	$a0, $s7, 8
	move	$s1, $s4
.LBB5_218:                              # %_ZNSt6vectorIiSaIiEE9push_backERKi.exit269
                                        #   in Loop: Header=BB5_219 Depth=1
	addi.w	$s5, $s5, -1
	ld.d	$a1, $sp, 72                    # 8-byte Folded Reload
	add.d	$s2, $s2, $a1
	beqz	$s5, .LBB5_233
.LBB5_219:                              # %.lr.ph403.peel.next
                                        # =>This Inner Loop Header: Depth=1
	ld.d	$a1, $s7, 16
	bne	$a0, $a1, .LBB5_217
# %bb.220:                              #   in Loop: Header=BB5_219 Depth=1
	sub.d	$s3, $a0, $s4
	beq	$s3, $s8, .LBB5_314
# %bb.221:                              # %_ZNSt12_Vector_baseIiSaIiEE11_M_allocateEm.exit.i.i264
                                        #   in Loop: Header=BB5_219 Depth=1
	srai.d	$a0, $s3, 2
	sltu	$a1, $s0, $a0
	masknez	$a2, $s0, $a1
	maskeqz	$a1, $a0, $a1
	or	$a1, $a1, $a2
	add.d	$a0, $a1, $a0
	sltu	$a1, $a0, $a1
	sltu	$a2, $a0, $fp
	maskeqz	$a0, $a0, $a2
	masknez	$a2, $fp, $a2
	or	$a0, $a0, $a2
	masknez	$a0, $a0, $a1
	maskeqz	$a1, $fp, $a1
	or	$s6, $a1, $a0
	slli.d	$a0, $s6, 2
	pcaddu18i	$ra, %call36(_Znwm)
	jirl	$ra, $ra, 0
	move	$s1, $a0
	stx.w	$s2, $a0, $s3
	blt	$s3, $s0, .LBB5_223
# %bb.222:                              #   in Loop: Header=BB5_219 Depth=1
	move	$a0, $s1
	move	$a1, $s4
	move	$a2, $s3
	pcaddu18i	$ra, %call36(memcpy)
	jirl	$ra, $ra, 0
.LBB5_223:                              # %_ZNSt6vectorIiSaIiEE11_S_relocateEPiS2_S2_RS0_.exit.i.i266
                                        #   in Loop: Header=BB5_219 Depth=1
	beqz	$s4, .LBB5_225
# %bb.224:                              #   in Loop: Header=BB5_219 Depth=1
	move	$a0, $s4
	move	$a1, $s3
	pcaddu18i	$ra, %call36(_ZdlPvm)
	jirl	$ra, $ra, 0
.LBB5_225:                              # %_ZNSt6vectorIiSaIiEE17_M_realloc_appendIJRKiEEEvDpOT_.exit.i268
                                        #   in Loop: Header=BB5_219 Depth=1
	add.d	$a0, $s1, $s3
	addi.d	$a0, $a0, 4
	st.d	$s1, $s7, 0
	st.d	$a0, $s7, 8
	alsl.d	$a1, $s6, $s1, 2
	st.d	$a1, $s7, 16
	move	$s4, $s1
	b	.LBB5_218
.LBB5_226:
	addi.w	$a0, $zero, -4
	lu52i.d	$a0, $a0, 2047
	ld.d	$a1, $sp, 104                   # 8-byte Folded Reload
	beq	$a1, $a0, .LBB5_314
# %bb.227:                              # %_ZNSt12_Vector_baseIiSaIiEE11_M_allocateEm.exit.i.i264.peel
	ld.d	$s3, $sp, 104                   # 8-byte Folded Reload
	srai.d	$a0, $s3, 2
	ori	$s0, $zero, 1
	sltu	$a1, $s0, $a0
	masknez	$a2, $s0, $a1
	maskeqz	$a1, $a0, $a1
	or	$a1, $a1, $a2
	add.d	$a0, $a1, $a0
	sltu	$a1, $a0, $a1
	ld.d	$a2, $sp, 40                    # 8-byte Folded Reload
	lu52i.d	$a2, $a2, 511
	sltu	$a3, $a0, $a2
	maskeqz	$a0, $a0, $a3
	masknez	$a3, $a2, $a3
	or	$a0, $a0, $a3
	masknez	$a0, $a0, $a1
	maskeqz	$a1, $a2, $a1
	or	$fp, $a1, $a0
	slli.d	$a0, $fp, 2
	pcaddu18i	$ra, %call36(_Znwm)
	jirl	$ra, $ra, 0
	move	$s4, $a0
	ld.d	$s8, $sp, 80                    # 8-byte Folded Reload
	stx.w	$s8, $a0, $s3
	blt	$s3, $s0, .LBB5_229
# %bb.228:
	move	$a0, $s4
	move	$a1, $s1
	move	$a2, $s3
	pcaddu18i	$ra, %call36(memcpy)
	jirl	$ra, $ra, 0
.LBB5_229:                              # %_ZNSt6vectorIiSaIiEE11_S_relocateEPiS2_S2_RS0_.exit.i.i266.peel
	add.d	$s0, $s4, $s3
	ld.d	$s2, $sp, 56                    # 8-byte Folded Reload
	beqz	$s1, .LBB5_231
# %bb.230:
	move	$a0, $s1
	move	$a1, $s3
	pcaddu18i	$ra, %call36(_ZdlPvm)
	jirl	$ra, $ra, 0
.LBB5_231:                              # %_ZNSt6vectorIiSaIiEE17_M_realloc_appendIJRKiEEEvDpOT_.exit.i268.peel
	addi.d	$a0, $s0, 4
	st.d	$s4, $s7, 0
	st.d	$a0, $s7, 8
	alsl.d	$a1, $fp, $s4, 2
	st.d	$a1, $s7, 16
	bnez	$s2, .LBB5_216
.LBB5_232:
	move	$s1, $s4
.LBB5_233:                              # %._crit_edge404
	ld.d	$a2, $sp, 112                   # 8-byte Folded Reload
	ld.d	$a0, $a2, 8
	ld.d	$a1, $a2, 16
	ld.d	$a3, $sp, 96                    # 8-byte Folded Reload
	addi.d	$s0, $a3, 1
	beq	$a0, $a1, .LBB5_235
# %bb.234:
	st.w	$s0, $a0, 0
	addi.d	$a0, $a0, 4
	st.d	$a0, $a2, 8
	ld.d	$s5, $sp, 120                   # 8-byte Folded Reload
	ld.d	$s8, $sp, 80                    # 8-byte Folded Reload
	b	.LBB5_241
.LBB5_235:
	ld.d	$s1, $a2, 0
	sub.d	$s4, $a0, $s1
	addi.w	$a0, $zero, -4
	lu52i.d	$a0, $a0, 2047
	ld.d	$s8, $sp, 80                    # 8-byte Folded Reload
	beq	$s4, $a0, .LBB5_314
# %bb.236:                              # %_ZNSt12_Vector_baseIiSaIiEE11_M_allocateEm.exit.i.i250
	srai.d	$a0, $s4, 2
	ori	$s2, $zero, 1
	sltu	$a1, $s2, $a0
	masknez	$a2, $s2, $a1
	maskeqz	$a1, $a0, $a1
	or	$a1, $a1, $a2
	add.d	$a0, $a1, $a0
	sltu	$a1, $a0, $a1
	ld.d	$a2, $sp, 40                    # 8-byte Folded Reload
	lu52i.d	$a2, $a2, 511
	sltu	$a3, $a0, $a2
	maskeqz	$a0, $a0, $a3
	masknez	$a3, $a2, $a3
	or	$a0, $a0, $a3
	masknez	$a0, $a0, $a1
	maskeqz	$a1, $a2, $a1
	or	$fp, $a1, $a0
	slli.d	$a0, $fp, 2
	pcaddu18i	$ra, %call36(_Znwm)
	jirl	$ra, $ra, 0
	move	$s3, $a0
	stx.w	$s0, $a0, $s4
	blt	$s4, $s2, .LBB5_238
# %bb.237:
	move	$a0, $s3
	move	$a1, $s1
	move	$a2, $s4
	pcaddu18i	$ra, %call36(memcpy)
	jirl	$ra, $ra, 0
.LBB5_238:                              # %_ZNSt6vectorIiSaIiEE11_S_relocateEPiS2_S2_RS0_.exit.i.i252
	add.d	$s0, $s3, $s4
	ld.d	$s5, $sp, 120                   # 8-byte Folded Reload
	beqz	$s1, .LBB5_240
# %bb.239:
	move	$a0, $s1
	move	$a1, $s4
	pcaddu18i	$ra, %call36(_ZdlPvm)
	jirl	$ra, $ra, 0
.LBB5_240:                              # %_ZNSt6vectorIiSaIiEE17_M_realloc_appendIJRKiEEEvDpOT_.exit.i254
	addi.d	$a0, $s0, 4
	ld.d	$a1, $sp, 112                   # 8-byte Folded Reload
	st.d	$s3, $a1, 0
	ld.d	$s1, $s7, 0
	st.d	$a0, $a1, 8
	alsl.d	$a0, $fp, $s3, 2
	st.d	$a0, $a1, 16
.LBB5_241:                              # %_ZNSt6vectorIiSaIiEE9push_backERKi.exit255
	ld.d	$s2, $sp, 56                    # 8-byte Folded Reload
	ld.d	$a1, $s7, 8
	ld.d	$a4, $sp, 128                   # 8-byte Folded Reload
	ld.d	$a0, $a4, 8
	ld.d	$a2, $a4, 16
	ld.d	$a3, $sp, 104                   # 8-byte Folded Reload
	srli.d	$a3, $a3, 2
	sub.d	$a1, $a1, $s1
	srli.d	$a1, $a1, 2
	sub.d	$fp, $a1, $a3
	beq	$a0, $a2, .LBB5_247
# %bb.242:
	st.w	$fp, $a0, 0
	addi.d	$a0, $a0, 4
	st.d	$a0, $a4, 8
.LBB5_243:                              # %_ZNSt6vectorIiSaIiEE9push_backEOi.exit262
	ld.w	$a0, $s5, 60
	ld.w	$a1, $s5, 68
	addi.w	$a0, $a0, -1
	beq	$a1, $a0, .LBB5_282
.LBB5_244:
	pcalau12i	$a0, %got_pc_hi20(_ZN8Parallel4mypeE)
	ld.d	$a0, $a0, %got_pc_lo12(_ZN8Parallel4mypeE)
	ld.w	$a3, $a0, 0
	ld.d	$a0, $s7, 8
	ld.d	$s1, $s7, 0
	ld.w	$a4, $s5, 56
	sub.d	$s6, $a0, $s1
	st.d	$a3, $sp, 104                   # 8-byte Folded Spill
	st.d	$a4, $sp, 96                    # 8-byte Folded Spill
	bltz	$s8, .LBB5_272
# %bb.245:                              # %.lr.ph409.preheader
	ld.w	$a1, $s5, 64
	ld.d	$a2, $sp, 72                    # 8-byte Folded Reload
	mul.d	$fp, $s2, $a2
	beqz	$a1, .LBB5_253
# %bb.246:
	move	$s4, $s1
	bnez	$s8, .LBB5_255
	b	.LBB5_271
.LBB5_247:
	ld.d	$s0, $a4, 0
	sub.d	$s1, $a0, $s0
	addi.w	$a0, $zero, -4
	lu52i.d	$a0, $a0, 2047
	beq	$s1, $a0, .LBB5_314
# %bb.248:                              # %_ZNSt12_Vector_baseIiSaIiEE11_M_allocateEm.exit.i.i.i257
	srai.d	$a0, $s1, 2
	ori	$s4, $zero, 1
	sltu	$a1, $s4, $a0
	masknez	$a2, $s4, $a1
	maskeqz	$a1, $a0, $a1
	or	$a1, $a1, $a2
	add.d	$a0, $a1, $a0
	sltu	$a1, $a0, $a1
	ld.d	$a2, $sp, 40                    # 8-byte Folded Reload
	lu52i.d	$a2, $a2, 511
	sltu	$a3, $a0, $a2
	maskeqz	$a0, $a0, $a3
	masknez	$a3, $a2, $a3
	or	$a0, $a0, $a3
	masknez	$a0, $a0, $a1
	maskeqz	$a1, $a2, $a1
	or	$s2, $a1, $a0
	slli.d	$a0, $s2, 2
	pcaddu18i	$ra, %call36(_Znwm)
	jirl	$ra, $ra, 0
	move	$s3, $a0
	stx.w	$fp, $a0, $s1
	blt	$s1, $s4, .LBB5_250
# %bb.249:
	move	$a0, $s3
	move	$a1, $s0
	move	$a2, $s1
	pcaddu18i	$ra, %call36(memcpy)
	jirl	$ra, $ra, 0
.LBB5_250:                              # %_ZNSt6vectorIiSaIiEE11_S_relocateEPiS2_S2_RS0_.exit.i.i.i259
	add.d	$fp, $s3, $s1
	beqz	$s0, .LBB5_252
# %bb.251:
	move	$a0, $s0
	move	$a1, $s1
	pcaddu18i	$ra, %call36(_ZdlPvm)
	jirl	$ra, $ra, 0
.LBB5_252:                              # %_ZNSt6vectorIiSaIiEE17_M_realloc_appendIJiEEEvDpOT_.exit.i.i261
	addi.d	$a0, $fp, 4
	ld.d	$a1, $sp, 128                   # 8-byte Folded Reload
	st.d	$s3, $a1, 0
	st.d	$a0, $a1, 8
	alsl.d	$a0, $s2, $s3, 2
	st.d	$a0, $a1, 16
	ld.d	$s2, $sp, 56                    # 8-byte Folded Reload
	ld.w	$a0, $s5, 60
	ld.w	$a1, $s5, 68
	addi.w	$a0, $a0, -1
	bne	$a1, $a0, .LBB5_244
	b	.LBB5_282
.LBB5_253:
	ld.d	$a1, $s7, 16
	beq	$a0, $a1, .LBB5_265
# %bb.254:
	st.w	$fp, $a0, 0
	addi.d	$a0, $a0, 4
	st.d	$a0, $s7, 8
	move	$s4, $s1
	beqz	$s8, .LBB5_271
.LBB5_255:                              # %.lr.ph409.peel.next.preheader
	addi.d	$s8, $fp, 1
	addi.w	$a1, $zero, -4
	lu52i.d	$s0, $a1, 2047
	ori	$fp, $zero, 1
	ld.d	$a1, $sp, 40                    # 8-byte Folded Reload
	lu52i.d	$s2, $a1, 511
	b	.LBB5_258
	.p2align	4, , 16
.LBB5_256:                              #   in Loop: Header=BB5_258 Depth=1
	st.w	$s8, $a0, 0
	addi.d	$a0, $a0, 4
	st.d	$a0, $s7, 8
	move	$s1, $s4
.LBB5_257:                              # %_ZNSt6vectorIiSaIiEE9push_backERKi.exit290
                                        #   in Loop: Header=BB5_258 Depth=1
	ld.d	$a1, $sp, 80                    # 8-byte Folded Reload
	addi.w	$a1, $a1, -1
	addi.d	$s8, $s8, 1
	st.d	$a1, $sp, 80                    # 8-byte Folded Spill
	beqz	$a1, .LBB5_272
.LBB5_258:                              # %.lr.ph409.peel.next
                                        # =>This Inner Loop Header: Depth=1
	ld.d	$a1, $s7, 16
	bne	$a0, $a1, .LBB5_256
# %bb.259:                              #   in Loop: Header=BB5_258 Depth=1
	sub.d	$s3, $a0, $s4
	beq	$s3, $s0, .LBB5_314
# %bb.260:                              # %_ZNSt12_Vector_baseIiSaIiEE11_M_allocateEm.exit.i.i285
                                        #   in Loop: Header=BB5_258 Depth=1
	srai.d	$a0, $s3, 2
	sltu	$a1, $fp, $a0
	masknez	$a2, $fp, $a1
	maskeqz	$a1, $a0, $a1
	or	$a1, $a1, $a2
	add.d	$a0, $a1, $a0
	sltu	$a1, $a0, $a1
	sltu	$a2, $a0, $s2
	maskeqz	$a0, $a0, $a2
	masknez	$a2, $s2, $a2
	or	$a0, $a0, $a2
	masknez	$a0, $a0, $a1
	maskeqz	$a1, $s2, $a1
	or	$s5, $a1, $a0
	slli.d	$a0, $s5, 2
	pcaddu18i	$ra, %call36(_Znwm)
	jirl	$ra, $ra, 0
	move	$s1, $a0
	stx.w	$s8, $a0, $s3
	blt	$s3, $fp, .LBB5_262
# %bb.261:                              #   in Loop: Header=BB5_258 Depth=1
	move	$a0, $s1
	move	$a1, $s4
	move	$a2, $s3
	pcaddu18i	$ra, %call36(memcpy)
	jirl	$ra, $ra, 0
.LBB5_262:                              # %_ZNSt6vectorIiSaIiEE11_S_relocateEPiS2_S2_RS0_.exit.i.i287
                                        #   in Loop: Header=BB5_258 Depth=1
	beqz	$s4, .LBB5_264
# %bb.263:                              #   in Loop: Header=BB5_258 Depth=1
	move	$a0, $s4
	move	$a1, $s3
	pcaddu18i	$ra, %call36(_ZdlPvm)
	jirl	$ra, $ra, 0
.LBB5_264:                              # %_ZNSt6vectorIiSaIiEE17_M_realloc_appendIJRKiEEEvDpOT_.exit.i289
                                        #   in Loop: Header=BB5_258 Depth=1
	add.d	$a0, $s1, $s3
	addi.d	$a0, $a0, 4
	st.d	$s1, $s7, 0
	st.d	$a0, $s7, 8
	alsl.d	$a1, $s5, $s1, 2
	st.d	$a1, $s7, 16
	move	$s4, $s1
	ld.d	$s5, $sp, 120                   # 8-byte Folded Reload
	b	.LBB5_257
.LBB5_265:
	addi.w	$a0, $zero, -4
	lu52i.d	$a0, $a0, 2047
	beq	$s6, $a0, .LBB5_314
# %bb.266:                              # %_ZNSt12_Vector_baseIiSaIiEE11_M_allocateEm.exit.i.i285.peel
	srai.d	$a0, $s6, 2
	ori	$s2, $zero, 1
	sltu	$a1, $s2, $a0
	masknez	$a2, $s2, $a1
	maskeqz	$a1, $a0, $a1
	or	$a1, $a1, $a2
	add.d	$a0, $a1, $a0
	sltu	$a1, $a0, $a1
	ld.d	$a2, $sp, 40                    # 8-byte Folded Reload
	lu52i.d	$a2, $a2, 511
	sltu	$a3, $a0, $a2
	maskeqz	$a0, $a0, $a3
	masknez	$a3, $a2, $a3
	or	$a0, $a0, $a3
	masknez	$a0, $a0, $a1
	maskeqz	$a1, $a2, $a1
	or	$s0, $a1, $a0
	slli.d	$a0, $s0, 2
	pcaddu18i	$ra, %call36(_Znwm)
	jirl	$ra, $ra, 0
	move	$s4, $a0
	stx.w	$fp, $a0, $s6
	blt	$s6, $s2, .LBB5_268
# %bb.267:
	move	$a0, $s4
	move	$a1, $s1
	move	$a2, $s6
	pcaddu18i	$ra, %call36(memcpy)
	jirl	$ra, $ra, 0
.LBB5_268:                              # %_ZNSt6vectorIiSaIiEE11_S_relocateEPiS2_S2_RS0_.exit.i.i287.peel
	add.d	$s2, $s4, $s6
	ld.d	$s8, $sp, 80                    # 8-byte Folded Reload
	beqz	$s1, .LBB5_270
# %bb.269:
	move	$a0, $s1
	move	$a1, $s6
	pcaddu18i	$ra, %call36(_ZdlPvm)
	jirl	$ra, $ra, 0
.LBB5_270:                              # %_ZNSt6vectorIiSaIiEE17_M_realloc_appendIJRKiEEEvDpOT_.exit.i289.peel
	addi.d	$a0, $s2, 4
	st.d	$s4, $s7, 0
	st.d	$a0, $s7, 8
	alsl.d	$a1, $s0, $s4, 2
	st.d	$a1, $s7, 16
	bnez	$s8, .LBB5_255
.LBB5_271:
	move	$s1, $s4
.LBB5_272:                              # %._crit_edge410
	move	$s8, $s6
	ld.d	$s6, $sp, 112                   # 8-byte Folded Reload
	ld.d	$a0, $s6, 8
	ld.d	$a1, $s6, 16
	ld.d	$a2, $sp, 104                   # 8-byte Folded Reload
	ld.d	$a3, $sp, 96                    # 8-byte Folded Reload
	add.d	$s0, $a3, $a2
	beq	$a0, $a1, .LBB5_274
# %bb.273:
	st.w	$s0, $a0, 0
	addi.d	$a0, $a0, 4
	st.d	$a0, $s6, 8
	b	.LBB5_280
.LBB5_274:
	ld.d	$s1, $s6, 0
	sub.d	$s2, $a0, $s1
	addi.w	$a0, $zero, -4
	lu52i.d	$a0, $a0, 2047
	beq	$s2, $a0, .LBB5_314
# %bb.275:                              # %_ZNSt12_Vector_baseIiSaIiEE11_M_allocateEm.exit.i.i271
	srai.d	$a0, $s2, 2
	ori	$s4, $zero, 1
	sltu	$a1, $s4, $a0
	masknez	$a2, $s4, $a1
	maskeqz	$a1, $a0, $a1
	or	$a1, $a1, $a2
	add.d	$a0, $a1, $a0
	sltu	$a1, $a0, $a1
	ld.d	$a2, $sp, 40                    # 8-byte Folded Reload
	lu52i.d	$a2, $a2, 511
	sltu	$a3, $a0, $a2
	maskeqz	$a0, $a0, $a3
	masknez	$a3, $a2, $a3
	or	$a0, $a0, $a3
	masknez	$a0, $a0, $a1
	maskeqz	$a1, $a2, $a1
	or	$fp, $a1, $a0
	slli.d	$a0, $fp, 2
	pcaddu18i	$ra, %call36(_Znwm)
	jirl	$ra, $ra, 0
	move	$s3, $a0
	stx.w	$s0, $a0, $s2
	blt	$s2, $s4, .LBB5_277
# %bb.276:
	move	$a0, $s3
	move	$a1, $s1
	move	$a2, $s2
	pcaddu18i	$ra, %call36(memcpy)
	jirl	$ra, $ra, 0
.LBB5_277:                              # %_ZNSt6vectorIiSaIiEE11_S_relocateEPiS2_S2_RS0_.exit.i.i273
	add.d	$s0, $s3, $s2
	beqz	$s1, .LBB5_279
# %bb.278:
	move	$a0, $s1
	move	$a1, $s2
	pcaddu18i	$ra, %call36(_ZdlPvm)
	jirl	$ra, $ra, 0
.LBB5_279:                              # %_ZNSt6vectorIiSaIiEE17_M_realloc_appendIJRKiEEEvDpOT_.exit.i275
	addi.d	$a0, $s0, 4
	st.d	$s3, $s6, 0
	ld.d	$s1, $s7, 0
	st.d	$a0, $s6, 8
	alsl.d	$a0, $fp, $s3, 2
	st.d	$a0, $s6, 16
.LBB5_280:                              # %_ZNSt6vectorIiSaIiEE9push_backERKi.exit276
	ld.d	$a4, $sp, 128                   # 8-byte Folded Reload
	ld.d	$a1, $s7, 8
	ld.d	$a0, $a4, 8
	ld.d	$a2, $a4, 16
	srli.d	$a3, $s8, 2
	sub.d	$a1, $a1, $s1
	srli.d	$a1, $a1, 2
	sub.d	$fp, $a1, $a3
	beq	$a0, $a2, .LBB5_286
# %bb.281:
	st.w	$fp, $a0, 0
	addi.d	$a0, $a0, 4
	st.d	$a0, $a4, 8
.LBB5_282:                              # %_ZNSt6vectorIiSaIiEE9push_backEOi.exit283
	ld.w	$s2, $s5, 56
	ld.w	$a0, $s5, 64
	addi.w	$a1, $s2, -1
	beq	$a0, $a1, .LBB5_313
.LBB5_283:
	ld.w	$a0, $s5, 60
	ld.w	$a1, $s5, 68
	addi.w	$a0, $a0, -1
	beq	$a1, $a0, .LBB5_313
# %bb.284:
	pcalau12i	$a0, %got_pc_hi20(_ZN8Parallel4mypeE)
	ld.d	$a1, $a0, %got_pc_lo12(_ZN8Parallel4mypeE)
	ld.d	$a0, $s7, 8
	ld.d	$a2, $s7, 16
	ld.w	$s3, $a1, 0
	ld.d	$a1, $sp, 8                     # 8-byte Folded Reload
	addi.d	$s4, $a1, -1
	beq	$a0, $a2, .LBB5_292
# %bb.285:
	st.w	$s4, $a0, 0
	addi.d	$a0, $a0, 4
	st.d	$a0, $s7, 8
	ld.d	$s8, $sp, 112                   # 8-byte Folded Reload
	b	.LBB5_298
.LBB5_286:
	ld.d	$s0, $a4, 0
	sub.d	$s1, $a0, $s0
	addi.w	$a0, $zero, -4
	lu52i.d	$a0, $a0, 2047
	beq	$s1, $a0, .LBB5_314
# %bb.287:                              # %_ZNSt12_Vector_baseIiSaIiEE11_M_allocateEm.exit.i.i.i278
	srai.d	$a0, $s1, 2
	ori	$s4, $zero, 1
	sltu	$a1, $s4, $a0
	masknez	$a2, $s4, $a1
	maskeqz	$a1, $a0, $a1
	or	$a1, $a1, $a2
	add.d	$a0, $a1, $a0
	sltu	$a1, $a0, $a1
	ld.d	$a2, $sp, 40                    # 8-byte Folded Reload
	lu52i.d	$a2, $a2, 511
	sltu	$a3, $a0, $a2
	maskeqz	$a0, $a0, $a3
	masknez	$a3, $a2, $a3
	or	$a0, $a0, $a3
	masknez	$a0, $a0, $a1
	maskeqz	$a1, $a2, $a1
	or	$s3, $a1, $a0
	slli.d	$a0, $s3, 2
	pcaddu18i	$ra, %call36(_Znwm)
	jirl	$ra, $ra, 0
	move	$s2, $a0
	stx.w	$fp, $a0, $s1
	blt	$s1, $s4, .LBB5_289
# %bb.288:
	move	$a0, $s2
	move	$a1, $s0
	move	$a2, $s1
	pcaddu18i	$ra, %call36(memcpy)
	jirl	$ra, $ra, 0
.LBB5_289:                              # %_ZNSt6vectorIiSaIiEE11_S_relocateEPiS2_S2_RS0_.exit.i.i.i280
	add.d	$fp, $s2, $s1
	beqz	$s0, .LBB5_291
# %bb.290:
	move	$a0, $s0
	move	$a1, $s1
	pcaddu18i	$ra, %call36(_ZdlPvm)
	jirl	$ra, $ra, 0
.LBB5_291:                              # %_ZNSt6vectorIiSaIiEE17_M_realloc_appendIJiEEEvDpOT_.exit.i.i282
	addi.d	$a0, $fp, 4
	ld.d	$a1, $sp, 128                   # 8-byte Folded Reload
	st.d	$s2, $a1, 0
	st.d	$a0, $a1, 8
	alsl.d	$a0, $s3, $s2, 2
	st.d	$a0, $a1, 16
	ld.w	$s2, $s5, 56
	ld.w	$a0, $s5, 64
	addi.w	$a1, $s2, -1
	bne	$a0, $a1, .LBB5_283
	b	.LBB5_313
.LBB5_292:
	ld.d	$fp, $s7, 0
	sub.d	$s0, $a0, $fp
	addi.w	$a0, $zero, -4
	lu52i.d	$a0, $a0, 2047
	ld.d	$s8, $sp, 112                   # 8-byte Folded Reload
	beq	$s0, $a0, .LBB5_314
# %bb.293:                              # %_ZNSt12_Vector_baseIiSaIiEE11_M_allocateEm.exit.i.i292
	srai.d	$a0, $s0, 2
	ori	$s6, $zero, 1
	sltu	$a1, $s6, $a0
	masknez	$a2, $s6, $a1
	maskeqz	$a1, $a0, $a1
	or	$a1, $a1, $a2
	add.d	$a0, $a1, $a0
	sltu	$a1, $a0, $a1
	ld.d	$a2, $sp, 40                    # 8-byte Folded Reload
	lu52i.d	$a2, $a2, 511
	sltu	$a3, $a0, $a2
	maskeqz	$a0, $a0, $a3
	masknez	$a3, $a2, $a3
	or	$a0, $a0, $a3
	masknez	$a0, $a0, $a1
	maskeqz	$a1, $a2, $a1
	or	$s5, $a1, $a0
	slli.d	$a0, $s5, 2
	pcaddu18i	$ra, %call36(_Znwm)
	jirl	$ra, $ra, 0
	move	$s1, $a0
	stx.w	$s4, $a0, $s0
	blt	$s0, $s6, .LBB5_295
# %bb.294:
	move	$a0, $s1
	move	$a1, $fp
	move	$a2, $s0
	pcaddu18i	$ra, %call36(memcpy)
	jirl	$ra, $ra, 0
.LBB5_295:                              # %_ZNSt6vectorIiSaIiEE11_S_relocateEPiS2_S2_RS0_.exit.i.i294
	add.d	$s4, $s1, $s0
	beqz	$fp, .LBB5_297
# %bb.296:
	move	$a0, $fp
	move	$a1, $s0
	pcaddu18i	$ra, %call36(_ZdlPvm)
	jirl	$ra, $ra, 0
.LBB5_297:                              # %_ZNSt6vectorIiSaIiEE17_M_realloc_appendIJRKiEEEvDpOT_.exit.i296
	addi.d	$a0, $s4, 4
	st.d	$s1, $s7, 0
	st.d	$a0, $s7, 8
	alsl.d	$a0, $s5, $s1, 2
	st.d	$a0, $s7, 16
.LBB5_298:                              # %_ZNSt6vectorIiSaIiEE9push_backERKi.exit297
	ld.d	$a0, $s8, 8
	ld.d	$a1, $s8, 16
	add.d	$a2, $s2, $s3
	addi.d	$s2, $a2, 1
	ld.d	$s4, $sp, 128                   # 8-byte Folded Reload
	beq	$a0, $a1, .LBB5_301
# %bb.299:
	st.w	$s2, $a0, 0
	addi.d	$a0, $a0, 4
	st.d	$a0, $s8, 8
	ld.d	$a0, $s4, 8
	ld.d	$a1, $s4, 16
	beq	$a0, $a1, .LBB5_307
.LBB5_300:
	ori	$a1, $zero, 1
	st.w	$a1, $a0, 0
	addi.d	$a0, $a0, 4
	st.d	$a0, $s4, 8
	b	.LBB5_313
.LBB5_301:
	ld.d	$fp, $s8, 0
	sub.d	$s0, $a0, $fp
	addi.w	$a0, $zero, -4
	lu52i.d	$a0, $a0, 2047
	beq	$s0, $a0, .LBB5_314
# %bb.302:                              # %_ZNSt12_Vector_baseIiSaIiEE11_M_allocateEm.exit.i.i299
	srai.d	$a0, $s0, 2
	ori	$s4, $zero, 1
	sltu	$a1, $s4, $a0
	masknez	$a2, $s4, $a1
	maskeqz	$a1, $a0, $a1
	or	$a1, $a1, $a2
	add.d	$a0, $a1, $a0
	sltu	$a1, $a0, $a1
	ld.d	$a2, $sp, 40                    # 8-byte Folded Reload
	lu52i.d	$a2, $a2, 511
	sltu	$a3, $a0, $a2
	maskeqz	$a0, $a0, $a3
	masknez	$a3, $a2, $a3
	or	$a0, $a0, $a3
	masknez	$a0, $a0, $a1
	maskeqz	$a1, $a2, $a1
	or	$s3, $a1, $a0
	slli.d	$a0, $s3, 2
	pcaddu18i	$ra, %call36(_Znwm)
	jirl	$ra, $ra, 0
	move	$s1, $a0
	stx.w	$s2, $a0, $s0
	blt	$s0, $s4, .LBB5_304
# %bb.303:
	move	$a0, $s1
	move	$a1, $fp
	move	$a2, $s0
	pcaddu18i	$ra, %call36(memcpy)
	jirl	$ra, $ra, 0
.LBB5_304:                              # %_ZNSt6vectorIiSaIiEE11_S_relocateEPiS2_S2_RS0_.exit.i.i301
	add.d	$s2, $s1, $s0
	beqz	$fp, .LBB5_306
# %bb.305:
	move	$a0, $fp
	move	$a1, $s0
	pcaddu18i	$ra, %call36(_ZdlPvm)
	jirl	$ra, $ra, 0
.LBB5_306:                              # %_ZNSt6vectorIiSaIiEE17_M_realloc_appendIJRKiEEEvDpOT_.exit.i303
	addi.d	$a0, $s2, 4
	st.d	$s1, $s8, 0
	st.d	$a0, $s8, 8
	alsl.d	$a0, $s3, $s1, 2
	st.d	$a0, $s8, 16
	ld.d	$s4, $sp, 128                   # 8-byte Folded Reload
	ld.d	$a0, $s4, 8
	ld.d	$a1, $s4, 16
	bne	$a0, $a1, .LBB5_300
.LBB5_307:
	ld.d	$fp, $s4, 0
	sub.d	$s0, $a0, $fp
	addi.w	$a0, $zero, -4
	lu52i.d	$a0, $a0, 2047
	beq	$s0, $a0, .LBB5_314
# %bb.308:                              # %_ZNSt12_Vector_baseIiSaIiEE11_M_allocateEm.exit.i.i.i306
	srai.d	$a0, $s0, 2
	ori	$s3, $zero, 1
	sltu	$a1, $s3, $a0
	masknez	$a2, $s3, $a1
	maskeqz	$a1, $a0, $a1
	or	$a1, $a1, $a2
	add.d	$a0, $a1, $a0
	sltu	$a1, $a0, $a1
	ld.d	$a2, $sp, 40                    # 8-byte Folded Reload
	lu52i.d	$a2, $a2, 511
	sltu	$a3, $a0, $a2
	maskeqz	$a0, $a0, $a3
	masknez	$a3, $a2, $a3
	or	$a0, $a0, $a3
	masknez	$a0, $a0, $a1
	maskeqz	$a1, $a2, $a1
	or	$s2, $a1, $a0
	slli.d	$a0, $s2, 2
	pcaddu18i	$ra, %call36(_Znwm)
	jirl	$ra, $ra, 0
	move	$s1, $a0
	stx.w	$s3, $a0, $s0
	blt	$s0, $s3, .LBB5_310
# %bb.309:
	move	$a0, $s1
	move	$a1, $fp
	move	$a2, $s0
	pcaddu18i	$ra, %call36(memcpy)
	jirl	$ra, $ra, 0
.LBB5_310:                              # %_ZNSt6vectorIiSaIiEE11_S_relocateEPiS2_S2_RS0_.exit.i.i.i308
	add.d	$s3, $s1, $s0
	beqz	$fp, .LBB5_312
# %bb.311:
	move	$a0, $fp
	move	$a1, $s0
	pcaddu18i	$ra, %call36(_ZdlPvm)
	jirl	$ra, $ra, 0
.LBB5_312:                              # %_ZNSt6vectorIiSaIiEE17_M_realloc_appendIJiEEEvDpOT_.exit.i.i310
	addi.d	$a0, $s3, 4
	st.d	$s1, $s4, 0
	st.d	$a0, $s4, 8
	alsl.d	$a0, $s2, $s1, 2
	st.d	$a0, $s4, 16
.LBB5_313:                              # %_ZNSt6vectorIiSaIiEE9push_backEOi.exit311
	fld.d	$fs3, $sp, 136                  # 8-byte Folded Reload
	fld.d	$fs2, $sp, 144                  # 8-byte Folded Reload
	fld.d	$fs1, $sp, 152                  # 8-byte Folded Reload
	fld.d	$fs0, $sp, 160                  # 8-byte Folded Reload
	ld.d	$s8, $sp, 168                   # 8-byte Folded Reload
	ld.d	$s7, $sp, 176                   # 8-byte Folded Reload
	ld.d	$s6, $sp, 184                   # 8-byte Folded Reload
	ld.d	$s5, $sp, 192                   # 8-byte Folded Reload
	ld.d	$s4, $sp, 200                   # 8-byte Folded Reload
	ld.d	$s3, $sp, 208                   # 8-byte Folded Reload
	ld.d	$s2, $sp, 216                   # 8-byte Folded Reload
	ld.d	$s1, $sp, 224                   # 8-byte Folded Reload
	ld.d	$s0, $sp, 232                   # 8-byte Folded Reload
	ld.d	$fp, $sp, 240                   # 8-byte Folded Reload
	ld.d	$ra, $sp, 248                   # 8-byte Folded Reload
	addi.d	$sp, $sp, 256
	ret
.LBB5_314:                              # %.noexc
	pcalau12i	$a0, %pc_hi20(.L.str.14)
	addi.d	$a0, $a0, %pc_lo12(.L.str.14)
	pcaddu18i	$ra, %call36(_ZSt20__throw_length_errorPKc)
	jirl	$ra, $ra, 0
.LBB5_315:
	pcalau12i	$a0, %pc_hi20(.L.str.13)
	addi.d	$a0, $a0, %pc_lo12(.L.str.13)
	pcaddu18i	$ra, %call36(_ZSt20__throw_length_errorPKc)
	jirl	$ra, $ra, 0
.Lfunc_end5:
	.size	_ZN7GenMesh12generateRectERSt6vectorI7double2SaIS1_EERS0_IiSaIiEES7_S7_S7_S7_S7_S7_S7_S7_, .Lfunc_end5-_ZN7GenMesh12generateRectERSt6vectorI7double2SaIS1_EERS0_IiSaIiEES7_S7_S7_S7_S7_S7_S7_S7_
	.cfi_endproc
                                        # -- End function
	.globl	_ZN7GenMesh11generateHexERSt6vectorI7double2SaIS1_EERS0_IiSaIiEES7_S7_S7_S7_S7_S7_S7_S7_ # -- Begin function _ZN7GenMesh11generateHexERSt6vectorI7double2SaIS1_EERS0_IiSaIiEES7_S7_S7_S7_S7_S7_S7_S7_
	.p2align	5
	.type	_ZN7GenMesh11generateHexERSt6vectorI7double2SaIS1_EERS0_IiSaIiEES7_S7_S7_S7_S7_S7_S7_S7_,@function
_ZN7GenMesh11generateHexERSt6vectorI7double2SaIS1_EERS0_IiSaIiEES7_S7_S7_S7_S7_S7_S7_S7_: # @_ZN7GenMesh11generateHexERSt6vectorI7double2SaIS1_EERS0_IiSaIiEES7_S7_S7_S7_S7_S7_S7_S7_
.Lfunc_begin1:
	.cfi_startproc
	.cfi_personality 155, DW.ref.__gxx_personality_v0
	.cfi_lsda 27, .Lexception1
# %bb.0:
	addi.d	$sp, $sp, -352
	.cfi_def_cfa_offset 352
	st.d	$ra, $sp, 344                   # 8-byte Folded Spill
	st.d	$fp, $sp, 336                   # 8-byte Folded Spill
	st.d	$s0, $sp, 328                   # 8-byte Folded Spill
	st.d	$s1, $sp, 320                   # 8-byte Folded Spill
	st.d	$s2, $sp, 312                   # 8-byte Folded Spill
	st.d	$s3, $sp, 304                   # 8-byte Folded Spill
	st.d	$s4, $sp, 296                   # 8-byte Folded Spill
	st.d	$s5, $sp, 288                   # 8-byte Folded Spill
	st.d	$s6, $sp, 280                   # 8-byte Folded Spill
	st.d	$s7, $sp, 272                   # 8-byte Folded Spill
	st.d	$s8, $sp, 264                   # 8-byte Folded Spill
	fst.d	$fs0, $sp, 256                  # 8-byte Folded Spill
	fst.d	$fs1, $sp, 248                  # 8-byte Folded Spill
	fst.d	$fs2, $sp, 240                  # 8-byte Folded Spill
	fst.d	$fs3, $sp, 232                  # 8-byte Folded Spill
	fst.d	$fs4, $sp, 224                  # 8-byte Folded Spill
	fst.d	$fs5, $sp, 216                  # 8-byte Folded Spill
	fst.d	$fs6, $sp, 208                  # 8-byte Folded Spill
	fst.d	$fs7, $sp, 200                  # 8-byte Folded Spill
	.cfi_offset 1, -8
	.cfi_offset 22, -16
	.cfi_offset 23, -24
	.cfi_offset 24, -32
	.cfi_offset 25, -40
	.cfi_offset 26, -48
	.cfi_offset 27, -56
	.cfi_offset 28, -64
	.cfi_offset 29, -72
	.cfi_offset 30, -80
	.cfi_offset 31, -88
	.cfi_offset 56, -96
	.cfi_offset 57, -104
	.cfi_offset 58, -112
	.cfi_offset 59, -120
	.cfi_offset 60, -128
	.cfi_offset 61, -136
	.cfi_offset 62, -144
	.cfi_offset 63, -152
	move	$s5, $a0
	ld.w	$t0, $a0, 72
	ld.w	$a0, $a0, 76
	st.d	$t0, $sp, 120                   # 8-byte Folded Spill
	addi.w	$t0, $t0, 1
	st.d	$a0, $sp, 72                    # 8-byte Folded Spill
	addi.w	$s7, $a0, 1
	st.d	$t0, $sp, 48                    # 8-byte Folded Spill
	mul.d	$a0, $t0, $s7
	slli.w	$s0, $a0, 1
	addi.w	$a0, $zero, -1
	st.d	$a7, $sp, 88                    # 8-byte Folded Spill
	st.d	$a6, $sp, 64                    # 8-byte Folded Spill
	st.d	$a5, $sp, 56                    # 8-byte Folded Spill
	st.d	$a4, $sp, 136                   # 8-byte Folded Spill
	st.d	$a3, $sp, 128                   # 8-byte Folded Spill
	st.d	$a2, $sp, 176                   # 8-byte Folded Spill
	st.d	$a0, $sp, 184                   # 8-byte Folded Spill
	bge	$a0, $s0, .LBB6_497
# %bb.1:
	move	$s8, $a1
	ld.d	$s2, $a1, 16
	ld.d	$fp, $a1, 0
	ld.d	$a0, $sp, 368
	st.d	$a0, $sp, 80                    # 8-byte Folded Spill
	ld.d	$s3, $sp, 360
	ld.d	$s4, $sp, 352
	sub.d	$s1, $s2, $fp
	srai.d	$a0, $s1, 4
	bgeu	$a0, $s0, .LBB6_8
# %bb.2:                                # %_ZNSt12_Vector_baseI7double2SaIS0_EE11_M_allocateEm.exit.i.i
	ld.d	$s2, $s8, 8
	slli.d	$a0, $s0, 4
	pcaddu18i	$ra, %call36(_Znwm)
	jirl	$ra, $ra, 0
	move	$a2, $a0
	beq	$s2, $fp, .LBB6_5
# %bb.3:                                # %.lr.ph.i.i.i.i.i.i.preheader
	move	$a0, $a2
	move	$a1, $fp
	.p2align	4, , 16
.LBB6_4:                                # %.lr.ph.i.i.i.i.i.i
                                        # =>This Inner Loop Header: Depth=1
	vld	$vr0, $a1, 0
	vst	$vr0, $a0, 0
	addi.d	$a1, $a1, 16
	addi.d	$a0, $a0, 16
	bne	$a1, $s2, .LBB6_4
.LBB6_5:                                # %_ZNSt6vectorI7double2SaIS0_EE20_M_allocate_and_copyIPKS0_EEPS0_mT_S7_.exit.i
	sub.d	$s2, $s2, $fp
	beqz	$fp, .LBB6_7
# %bb.6:
	move	$a0, $fp
	move	$a1, $s1
	move	$fp, $a2
	pcaddu18i	$ra, %call36(_ZdlPvm)
	jirl	$ra, $ra, 0
	move	$a2, $fp
.LBB6_7:                                # %_ZNSt12_Vector_baseI7double2SaIS0_EE13_M_deallocateEPS0_m.exit.i
	st.d	$a2, $s8, 0
	add.d	$a0, $a2, $s2
	st.d	$a0, $s8, 8
	alsl.d	$s2, $s0, $a2, 4
	st.d	$s2, $s8, 16
	b	.LBB6_9
.LBB6_8:
	move	$a2, $fp
.LBB6_9:                                # %_ZNSt6vectorI7double2SaIS0_EE7reserveEm.exit
	addi.w	$a0, $zero, -2
	ld.d	$a1, $sp, 72                    # 8-byte Folded Reload
	ld.d	$a6, $sp, 120                   # 8-byte Folded Reload
	bge	$a0, $a1, .LBB6_498
# %bb.10:                               # %_ZNSt6vectorIiSaIiEE17_S_check_init_lenEmRKS0_.exit.i
	st.d	$s4, $sp, 40                    # 8-byte Folded Spill
	st.d	$s3, $sp, 32                    # 8-byte Folded Spill
	st.d	$s5, $sp, 168                   # 8-byte Folded Spill
	st.d	$s7, $sp, 96                    # 8-byte Folded Spill
	beqz	$s7, .LBB6_71
# %bb.11:                               # %.noexc296
	move	$s0, $a2
	ld.w	$a0, $s5, 32
	fld.d	$fa0, $s5, 40
	addi.d	$a0, $a0, -1
	movgr2fr.w	$fa1, $a0
	ld.w	$a0, $s5, 36
	ffint.d.w	$fa1, $fa1
	fdiv.d	$fs0, $fa0, $fa1
	fld.d	$fa0, $s5, 48
	addi.d	$a0, $a0, -1
	movgr2fr.w	$fa1, $a0
	ffint.d.w	$fa1, $fa1
	fdiv.d	$fa0, $fa0, $fa1
	fst.d	$fa0, $sp, 192                  # 8-byte Folded Spill
	slli.d	$fp, $s7, 2
	move	$a0, $fp
	pcaddu18i	$ra, %call36(_Znwm)
	jirl	$ra, $ra, 0
	move	$s7, $a0
	st.w	$zero, $a0, 0
	ld.d	$a0, $sp, 72                    # 8-byte Folded Reload
	beqz	$a0, .LBB6_13
# %bb.12:                               # %_ZSt6fill_nIPimiET_S1_T0_RKT1_.exit.loopexit.i.i.i.i.i
	addi.d	$a0, $s7, 4
	addi.d	$a2, $fp, -4
	move	$a1, $zero
	pcaddu18i	$ra, %call36(memset)
	jirl	$ra, $ra, 0
.LBB6_13:                               # %.lr.ph975
	move	$a4, $zero
	ld.d	$a0, $sp, 96                    # 8-byte Folded Reload
	alsl.d	$a0, $a0, $s7, 2
	st.d	$a0, $sp, 24                    # 8-byte Folded Spill
	vldi	$vr0, -1000
	fdiv.d	$fs2, $fs0, $fa0
	fld.d	$fa1, $sp, 192                  # 8-byte Folded Reload
	fdiv.d	$fa0, $fa1, $fa0
	fst.d	$fa0, $sp, 160                  # 8-byte Folded Spill
	ld.d	$a3, $s8, 8
	vldi	$vr3, -800
	movgr2fr.d	$fs4, $zero
	move	$a2, $s0
	ld.d	$s3, $sp, 176                   # 8-byte Folded Reload
	ld.d	$a6, $sp, 120                   # 8-byte Folded Reload
	st.d	$s7, $sp, 112                   # 8-byte Folded Spill
	b	.LBB6_15
	.p2align	4, , 16
.LBB6_14:                               # %._crit_edge
                                        #   in Loop: Header=BB6_15 Depth=1
	addi.d	$a4, $a4, 1
	ld.d	$a0, $sp, 96                    # 8-byte Folded Reload
	ld.d	$s7, $sp, 112                   # 8-byte Folded Reload
	beq	$a4, $a0, .LBB6_70
.LBB6_15:                               # =>This Loop Header: Depth=1
                                        #     Child Loop BB6_21 Depth 2
                                        #       Child Loop BB6_54 Depth 3
                                        #       Child Loop BB6_62 Depth 3
                                        #       Child Loop BB6_69 Depth 3
                                        #       Child Loop BB6_49 Depth 3
                                        #       Child Loop BB6_33 Depth 3
	sub.d	$a0, $a3, $a2
	srli.d	$a0, $a0, 4
	slli.d	$a1, $a4, 2
	stx.w	$a0, $s7, $a1
	bltz	$a6, .LBB6_14
# %bb.16:                               # %.lr.ph
                                        #   in Loop: Header=BB6_15 Depth=1
	ld.w	$a1, $s5, 84
	move	$a0, $zero
	add.d	$a1, $a1, $a4
	movgr2fr.w	$fa0, $a1
	addi.w	$a5, $a1, 0
	fld.d	$fa1, $s5, 48
	ffint.d.w	$fa0, $fa0
	fadd.d	$fa0, $fa0, $fa3
	fld.d	$fa2, $sp, 192                  # 8-byte Folded Reload
	fmul.d	$fa0, $fa2, $fa0
	fcmp.clt.d	$fcc0, $fa0, $fa1
	fsel	$fa0, $fa1, $fa0, $fcc0
	fcmp.clt.d	$fcc0, $fs4, $fa0
	fsel	$fs5, $fs4, $fa0, $fcc0
	fld.d	$fa0, $sp, 160                  # 8-byte Folded Reload
	fadd.d	$fs6, $fa0, $fs5
	fsub.d	$fs7, $fs5, $fa0
	move	$s4, $a2
	move	$s7, $a4
	move	$s6, $a5
	b	.LBB6_21
	.p2align	4, , 16
.LBB6_17:                               #   in Loop: Header=BB6_21 Depth=2
	beq	$a3, $s2, .LBB6_29
# %bb.18:                               #   in Loop: Header=BB6_21 Depth=2
	fst.d	$fs1, $a3, 0
	fst.d	$fs5, $a3, 8
.LBB6_19:                               # %_ZNSt6vectorI7double2SaIS0_EE9push_backEOS0_.exit
                                        #   in Loop: Header=BB6_21 Depth=2
	addi.d	$a3, $a3, 16
	st.d	$a3, $s8, 8
	move	$a2, $s4
.LBB6_20:                               # %_ZNSt6vectorI7double2SaIS0_EE9push_backEOS0_.exit
                                        #   in Loop: Header=BB6_21 Depth=2
	addi.w	$a0, $fp, 1
	move	$s4, $a2
	beq	$fp, $a6, .LBB6_14
.LBB6_21:                               #   Parent Loop BB6_15 Depth=1
                                        # =>  This Loop Header: Depth=2
                                        #       Child Loop BB6_54 Depth 3
                                        #       Child Loop BB6_62 Depth 3
                                        #       Child Loop BB6_69 Depth 3
                                        #       Child Loop BB6_49 Depth 3
                                        #       Child Loop BB6_33 Depth 3
	ld.w	$a1, $s5, 80
	move	$fp, $a0
	add.d	$a1, $a1, $a0
	addi.w	$a0, $a1, 0
	movgr2fr.w	$fa0, $a1
	fld.d	$fa1, $s5, 40
	ffint.d.w	$fa0, $fa0
	fadd.d	$fa0, $fa0, $fa3
	fmul.d	$fa0, $fs0, $fa0
	fcmp.clt.d	$fcc0, $fa0, $fa1
	fsel	$fa0, $fa1, $fa0, $fcc0
	fcmp.clt.d	$fcc0, $fs4, $fa0
	fsel	$fs1, $fs4, $fa0, $fcc0
	beqz	$a0, .LBB6_17
# %bb.22:                               #   in Loop: Header=BB6_21 Depth=2
	ld.w	$a1, $s5, 32
	beq	$a0, $a1, .LBB6_17
# %bb.23:                               #   in Loop: Header=BB6_21 Depth=2
	beqz	$a5, .LBB6_17
# %bb.24:                               #   in Loop: Header=BB6_21 Depth=2
	ld.w	$a0, $s5, 36
	beq	$a5, $a0, .LBB6_17
# %bb.25:                               #   in Loop: Header=BB6_21 Depth=2
	bnez	$a4, .LBB6_38
# %bb.26:                               #   in Loop: Header=BB6_21 Depth=2
	ld.w	$a0, $s5, 72
	bne	$fp, $a0, .LBB6_38
# %bb.27:                               #   in Loop: Header=BB6_21 Depth=2
	fsub.d	$fs1, $fs1, $fs2
	beq	$a3, $s2, .LBB6_45
# %bb.28:                               #   in Loop: Header=BB6_21 Depth=2
	fst.d	$fs1, $a3, 0
	fst.d	$fs6, $a3, 8
	b	.LBB6_19
	.p2align	4, , 16
.LBB6_29:                               #   in Loop: Header=BB6_21 Depth=2
	sub.d	$s1, $s2, $s4
	addi.w	$a0, $zero, -16
	lu52i.d	$a0, $a0, 2047
	beq	$s1, $a0, .LBB6_485
# %bb.30:                               #   in Loop: Header=BB6_21 Depth=2
	srai.d	$a0, $s1, 4
	ori	$a2, $zero, 1
	sltu	$a1, $a2, $a0
	masknez	$a2, $a2, $a1
	maskeqz	$a1, $a0, $a1
	or	$a1, $a1, $a2
	add.d	$a0, $a1, $a0
	sltu	$a1, $a0, $a1
	ld.d	$a2, $sp, 184                   # 8-byte Folded Reload
	lu52i.d	$a2, $a2, 127
	sltu	$a3, $a0, $a2
	maskeqz	$a0, $a0, $a3
	masknez	$a3, $a2, $a3
	or	$a0, $a0, $a3
	masknez	$a0, $a0, $a1
	maskeqz	$a1, $a2, $a1
	or	$s0, $a1, $a0
	slli.d	$a0, $s0, 4
.Ltmp58:
	pcaddu18i	$ra, %call36(_Znwm)
	jirl	$ra, $ra, 0
.Ltmp59:
# %bb.31:                               # %.noexc627
                                        #   in Loop: Header=BB6_21 Depth=2
	move	$a2, $a0
	add.d	$a0, $a0, $s1
	fstx.d	$fs1, $a2, $s1
	fst.d	$fs5, $a0, 8
	move	$s3, $a2
	beq	$s4, $s2, .LBB6_34
# %bb.32:                               # %.lr.ph.i.i.i.i.i.i.i.preheader
                                        #   in Loop: Header=BB6_21 Depth=2
	move	$s3, $a2
	move	$a0, $s4
	.p2align	4, , 16
.LBB6_33:                               # %.lr.ph.i.i.i.i.i.i.i
                                        #   Parent Loop BB6_15 Depth=1
                                        #     Parent Loop BB6_21 Depth=2
                                        # =>    This Inner Loop Header: Depth=3
	vld	$vr0, $a0, 0
	vst	$vr0, $s3, 0
	addi.d	$a0, $a0, 16
	addi.d	$s3, $s3, 16
	bne	$a0, $s2, .LBB6_33
.LBB6_34:                               # %_ZSt34__uninitialized_move_if_noexcept_aIP7double2S1_SaIS0_EET0_T_S4_S3_RT1_.exit.i.i
                                        #   in Loop: Header=BB6_21 Depth=2
	beqz	$s4, .LBB6_37
# %bb.35:                               #   in Loop: Header=BB6_21 Depth=2
	move	$a0, $s4
	move	$a1, $s1
.LBB6_36:                               # %_ZNSt6vectorI7double2SaIS0_EE17_M_realloc_appendIJS0_EEEvDpOT_.exit.i
                                        #   in Loop: Header=BB6_21 Depth=2
	move	$s1, $a2
	pcaddu18i	$ra, %call36(_ZdlPvm)
	jirl	$ra, $ra, 0
	move	$a2, $s1
.LBB6_37:                               # %_ZNSt6vectorI7double2SaIS0_EE17_M_realloc_appendIJS0_EEEvDpOT_.exit.i
                                        #   in Loop: Header=BB6_21 Depth=2
	addi.d	$a3, $s3, 16
	st.d	$a2, $s8, 0
	st.d	$a3, $s8, 8
	alsl.d	$s2, $s0, $a2, 4
	st.d	$s2, $s8, 16
	ld.d	$s3, $sp, 176                   # 8-byte Folded Reload
	move	$a4, $s7
	vldi	$vr3, -800
	move	$a5, $s6
	ld.d	$a6, $sp, 120                   # 8-byte Folded Reload
	b	.LBB6_20
.LBB6_38:                               #   in Loop: Header=BB6_21 Depth=2
	bnez	$fp, .LBB6_42
# %bb.39:                               #   in Loop: Header=BB6_21 Depth=2
	ld.wu	$a0, $s5, 76
	bne	$a4, $a0, .LBB6_42
# %bb.40:                               #   in Loop: Header=BB6_21 Depth=2
	fadd.d	$fs1, $fs2, $fs1
	beq	$a3, $s2, .LBB6_65
# %bb.41:                               #   in Loop: Header=BB6_21 Depth=2
	fst.d	$fs1, $a3, 0
	fst.d	$fs7, $a3, 8
	b	.LBB6_19
.LBB6_42:                               #   in Loop: Header=BB6_21 Depth=2
	fsub.d	$fs3, $fs1, $fs2
	beq	$a3, $s2, .LBB6_50
# %bb.43:                               #   in Loop: Header=BB6_21 Depth=2
	fst.d	$fs3, $a3, 0
	fst.d	$fs6, $a3, 8
	addi.d	$a0, $a3, 16
	st.d	$a0, $s8, 8
	move	$s1, $s4
	fadd.d	$fs1, $fs2, $fs1
	beq	$a0, $s2, .LBB6_58
.LBB6_44:                               #   in Loop: Header=BB6_21 Depth=2
	fst.d	$fs1, $a0, 0
	fst.d	$fs7, $a0, 8
	addi.d	$a3, $a0, 16
	st.d	$a3, $s8, 8
	move	$a2, $s1
	b	.LBB6_20
.LBB6_45:                               #   in Loop: Header=BB6_21 Depth=2
	sub.d	$s1, $s2, $s4
	addi.w	$a0, $zero, -16
	lu52i.d	$a0, $a0, 2047
	beq	$s1, $a0, .LBB6_487
# %bb.46:                               #   in Loop: Header=BB6_21 Depth=2
	srai.d	$a0, $s1, 4
	ori	$a2, $zero, 1
	sltu	$a1, $a2, $a0
	masknez	$a2, $a2, $a1
	maskeqz	$a1, $a0, $a1
	or	$a1, $a1, $a2
	add.d	$a0, $a1, $a0
	sltu	$a1, $a0, $a1
	ld.d	$a2, $sp, 184                   # 8-byte Folded Reload
	lu52i.d	$a2, $a2, 127
	sltu	$a3, $a0, $a2
	maskeqz	$a0, $a0, $a3
	masknez	$a3, $a2, $a3
	or	$a0, $a0, $a3
	masknez	$a0, $a0, $a1
	maskeqz	$a1, $a2, $a1
	or	$s0, $a1, $a0
	slli.d	$a0, $s0, 4
.Ltmp52:
	pcaddu18i	$ra, %call36(_Znwm)
	jirl	$ra, $ra, 0
.Ltmp53:
# %bb.47:                               # %.noexc640
                                        #   in Loop: Header=BB6_21 Depth=2
	move	$a2, $a0
	add.d	$a0, $a0, $s1
	fstx.d	$fs1, $a2, $s1
	fst.d	$fs6, $a0, 8
	move	$s3, $a2
	beq	$s4, $s2, .LBB6_34
# %bb.48:                               # %.lr.ph.i.i.i.i.i.i.i631.preheader
                                        #   in Loop: Header=BB6_21 Depth=2
	move	$s3, $a2
	move	$a0, $s4
	.p2align	4, , 16
.LBB6_49:                               # %.lr.ph.i.i.i.i.i.i.i631
                                        #   Parent Loop BB6_15 Depth=1
                                        #     Parent Loop BB6_21 Depth=2
                                        # =>    This Inner Loop Header: Depth=3
	vld	$vr0, $a0, 0
	vst	$vr0, $s3, 0
	addi.d	$a0, $a0, 16
	addi.d	$s3, $s3, 16
	bne	$a0, $s2, .LBB6_49
	b	.LBB6_34
.LBB6_50:                               #   in Loop: Header=BB6_21 Depth=2
	sub.d	$s3, $s2, $s4
	addi.w	$a0, $zero, -16
	lu52i.d	$a0, $a0, 2047
	beq	$s3, $a0, .LBB6_489
# %bb.51:                               #   in Loop: Header=BB6_21 Depth=2
	srai.d	$a0, $s3, 4
	ori	$a2, $zero, 1
	sltu	$a1, $a2, $a0
	masknez	$a2, $a2, $a1
	maskeqz	$a1, $a0, $a1
	or	$a1, $a1, $a2
	add.d	$a0, $a1, $a0
	sltu	$a1, $a0, $a1
	ld.d	$a2, $sp, 184                   # 8-byte Folded Reload
	lu52i.d	$a2, $a2, 127
	sltu	$a3, $a0, $a2
	maskeqz	$a0, $a0, $a3
	masknez	$a3, $a2, $a3
	or	$a0, $a0, $a3
	masknez	$a0, $a0, $a1
	maskeqz	$a1, $a2, $a1
	or	$s0, $a1, $a0
	slli.d	$a0, $s0, 4
.Ltmp34:
	pcaddu18i	$ra, %call36(_Znwm)
	jirl	$ra, $ra, 0
.Ltmp35:
# %bb.52:                               # %.noexc668
                                        #   in Loop: Header=BB6_21 Depth=2
	move	$s1, $a0
	add.d	$a0, $a0, $s3
	fstx.d	$fs3, $s1, $s3
	fst.d	$fs6, $a0, 8
	move	$s5, $s1
	beq	$s4, $s2, .LBB6_55
# %bb.53:                               # %.lr.ph.i.i.i.i.i.i.i659.preheader
                                        #   in Loop: Header=BB6_21 Depth=2
	move	$s5, $s1
	move	$a0, $s4
	.p2align	4, , 16
.LBB6_54:                               # %.lr.ph.i.i.i.i.i.i.i659
                                        #   Parent Loop BB6_15 Depth=1
                                        #     Parent Loop BB6_21 Depth=2
                                        # =>    This Inner Loop Header: Depth=3
	vld	$vr0, $a0, 0
	vst	$vr0, $s5, 0
	addi.d	$a0, $a0, 16
	addi.d	$s5, $s5, 16
	bne	$a0, $s2, .LBB6_54
.LBB6_55:                               # %_ZSt34__uninitialized_move_if_noexcept_aIP7double2S1_SaIS0_EET0_T_S4_S3_RT1_.exit.i.i663
                                        #   in Loop: Header=BB6_21 Depth=2
	beqz	$s4, .LBB6_57
# %bb.56:                               #   in Loop: Header=BB6_21 Depth=2
	move	$a0, $s4
	move	$a1, $s3
	pcaddu18i	$ra, %call36(_ZdlPvm)
	jirl	$ra, $ra, 0
.LBB6_57:                               # %_ZNSt6vectorI7double2SaIS0_EE17_M_realloc_appendIJS0_EEEvDpOT_.exit.i666
                                        #   in Loop: Header=BB6_21 Depth=2
	addi.d	$a0, $s5, 16
	st.d	$s1, $s8, 0
	st.d	$a0, $s8, 8
	alsl.d	$s2, $s0, $s1, 4
	st.d	$s2, $s8, 16
	ld.d	$s5, $sp, 168                   # 8-byte Folded Reload
	ld.d	$s3, $sp, 176                   # 8-byte Folded Reload
	move	$a4, $s7
	vldi	$vr3, -800
	move	$a5, $s6
	ld.d	$a6, $sp, 120                   # 8-byte Folded Reload
	fadd.d	$fs1, $fs2, $fs1
	bne	$a0, $s2, .LBB6_44
.LBB6_58:                               #   in Loop: Header=BB6_21 Depth=2
	sub.d	$s4, $s2, $s1
	addi.w	$a0, $zero, -16
	lu52i.d	$a0, $a0, 2047
	beq	$s4, $a0, .LBB6_491
# %bb.59:                               #   in Loop: Header=BB6_21 Depth=2
	srai.d	$a0, $s4, 4
	ori	$a2, $zero, 1
	sltu	$a1, $a2, $a0
	masknez	$a2, $a2, $a1
	maskeqz	$a1, $a0, $a1
	or	$a1, $a1, $a2
	add.d	$a0, $a1, $a0
	sltu	$a1, $a0, $a1
	ld.d	$a2, $sp, 184                   # 8-byte Folded Reload
	lu52i.d	$a2, $a2, 127
	sltu	$a3, $a0, $a2
	maskeqz	$a0, $a0, $a3
	masknez	$a3, $a2, $a3
	or	$a0, $a0, $a3
	masknez	$a0, $a0, $a1
	maskeqz	$a1, $a2, $a1
	or	$s0, $a1, $a0
	slli.d	$a0, $s0, 4
.Ltmp37:
	pcaddu18i	$ra, %call36(_Znwm)
	jirl	$ra, $ra, 0
.Ltmp38:
# %bb.60:                               # %.noexc682
                                        #   in Loop: Header=BB6_21 Depth=2
	move	$a2, $a0
	add.d	$a0, $a0, $s4
	fstx.d	$fs1, $a2, $s4
	fst.d	$fs7, $a0, 8
	move	$s3, $a2
	beq	$s1, $s2, .LBB6_63
# %bb.61:                               # %.lr.ph.i.i.i.i.i.i.i673.preheader
                                        #   in Loop: Header=BB6_21 Depth=2
	move	$s3, $a2
	move	$a0, $s1
	.p2align	4, , 16
.LBB6_62:                               # %.lr.ph.i.i.i.i.i.i.i673
                                        #   Parent Loop BB6_15 Depth=1
                                        #     Parent Loop BB6_21 Depth=2
                                        # =>    This Inner Loop Header: Depth=3
	vld	$vr0, $a0, 0
	vst	$vr0, $s3, 0
	addi.d	$a0, $a0, 16
	addi.d	$s3, $s3, 16
	bne	$a0, $s2, .LBB6_62
.LBB6_63:                               # %_ZSt34__uninitialized_move_if_noexcept_aIP7double2S1_SaIS0_EET0_T_S4_S3_RT1_.exit.i.i677
                                        #   in Loop: Header=BB6_21 Depth=2
	beqz	$s1, .LBB6_37
# %bb.64:                               #   in Loop: Header=BB6_21 Depth=2
	move	$a0, $s1
	move	$a1, $s4
	b	.LBB6_36
.LBB6_65:                               #   in Loop: Header=BB6_21 Depth=2
	sub.d	$s1, $s2, $s4
	addi.w	$a0, $zero, -16
	lu52i.d	$a0, $a0, 2047
	beq	$s1, $a0, .LBB6_493
# %bb.66:                               #   in Loop: Header=BB6_21 Depth=2
	srai.d	$a0, $s1, 4
	ori	$a2, $zero, 1
	sltu	$a1, $a2, $a0
	masknez	$a2, $a2, $a1
	maskeqz	$a1, $a0, $a1
	or	$a1, $a1, $a2
	add.d	$a0, $a1, $a0
	sltu	$a1, $a0, $a1
	ld.d	$a2, $sp, 184                   # 8-byte Folded Reload
	lu52i.d	$a2, $a2, 127
	sltu	$a3, $a0, $a2
	maskeqz	$a0, $a0, $a3
	masknez	$a3, $a2, $a3
	or	$a0, $a0, $a3
	masknez	$a0, $a0, $a1
	maskeqz	$a1, $a2, $a1
	or	$s0, $a1, $a0
	slli.d	$a0, $s0, 4
.Ltmp46:
	pcaddu18i	$ra, %call36(_Znwm)
	jirl	$ra, $ra, 0
.Ltmp47:
# %bb.67:                               # %.noexc654
                                        #   in Loop: Header=BB6_21 Depth=2
	move	$a2, $a0
	add.d	$a0, $a0, $s1
	fstx.d	$fs1, $a2, $s1
	fst.d	$fs7, $a0, 8
	move	$s3, $a2
	beq	$s4, $s2, .LBB6_34
# %bb.68:                               # %.lr.ph.i.i.i.i.i.i.i645.preheader
                                        #   in Loop: Header=BB6_21 Depth=2
	move	$s3, $a2
	move	$a0, $s4
	.p2align	4, , 16
.LBB6_69:                               # %.lr.ph.i.i.i.i.i.i.i645
                                        #   Parent Loop BB6_15 Depth=1
                                        #     Parent Loop BB6_21 Depth=2
                                        # =>    This Inner Loop Header: Depth=3
	vld	$vr0, $a0, 0
	vst	$vr0, $s3, 0
	addi.d	$a0, $a0, 16
	addi.d	$s3, $s3, 16
	bne	$a0, $s2, .LBB6_69
	b	.LBB6_34
.LBB6_70:
	st.d	$a3, $sp, 8                     # 8-byte Folded Spill
	st.d	$a2, $sp, 16                    # 8-byte Folded Spill
	ld.d	$a0, $sp, 72                    # 8-byte Folded Reload
	mul.w	$s0, $a0, $a6
	bgez	$s0, .LBB6_72
	b	.LBB6_495
.LBB6_71:                               # %_ZNSt6vectorIiSaIiEEC2EmRKS0_.exit.._crit_edge976_crit_edge
	st.d	$a2, $sp, 16                    # 8-byte Folded Spill
	ld.d	$a0, $s8, 8
	st.d	$a0, $sp, 8                     # 8-byte Folded Spill
	move	$s7, $zero
	st.d	$zero, $sp, 24                  # 8-byte Folded Spill
	ld.d	$s3, $sp, 176                   # 8-byte Folded Reload
	ld.d	$a0, $sp, 72                    # 8-byte Folded Reload
	mul.w	$s0, $a0, $a6
	bltz	$s0, .LBB6_495
.LBB6_72:
	ld.d	$a0, $s3, 16
	ld.d	$s1, $s3, 0
	sub.d	$s2, $a0, $s1
	srai.d	$a0, $s2, 2
	bgeu	$a0, $s0, .LBB6_79
# %bb.73:                               # %_ZNSt12_Vector_baseIiSaIiEE11_M_allocateEm.exit.i
	ld.d	$fp, $s3, 8
	slli.d	$a0, $s0, 2
.Ltmp64:
	pcaddu18i	$ra, %call36(_Znwm)
	jirl	$ra, $ra, 0
.Ltmp65:
# %bb.74:                               # %.noexc298
	move	$s4, $a0
	sub.d	$fp, $fp, $s1
	ori	$a0, $zero, 1
	blt	$fp, $a0, .LBB6_76
# %bb.75:
	move	$a0, $s4
	move	$a1, $s1
	move	$a2, $fp
	pcaddu18i	$ra, %call36(memcpy)
	jirl	$ra, $ra, 0
.LBB6_76:                               # %_ZNSt6vectorIiSaIiEE11_S_relocateEPiS2_S2_RS0_.exit.i
	beqz	$s1, .LBB6_78
# %bb.77:
	move	$a0, $s1
	move	$a1, $s2
	pcaddu18i	$ra, %call36(_ZdlPvm)
	jirl	$ra, $ra, 0
.LBB6_78:                               # %_ZNSt12_Vector_baseIiSaIiEE13_M_deallocateEPim.exit.i
	st.d	$s4, $s3, 0
	add.d	$a0, $s4, $fp
	st.d	$a0, $s3, 8
	alsl.d	$a0, $s0, $s4, 2
	st.d	$a0, $s3, 16
	ld.d	$s5, $sp, 168                   # 8-byte Folded Reload
.LBB6_79:                               # %_ZNSt6vectorIiSaIiEE7reserveEm.exit
	ld.d	$a1, $sp, 128                   # 8-byte Folded Reload
	ld.d	$a0, $a1, 16
	ld.d	$s1, $a1, 0
	sub.d	$s2, $a0, $s1
	srai.d	$a0, $s2, 2
	bgeu	$a0, $s0, .LBB6_86
# %bb.80:                               # %_ZNSt12_Vector_baseIiSaIiEE11_M_allocateEm.exit.i311
	ld.d	$a0, $sp, 128                   # 8-byte Folded Reload
	ld.d	$fp, $a0, 8
	slli.d	$a0, $s0, 2
.Ltmp66:
	pcaddu18i	$ra, %call36(_Znwm)
	jirl	$ra, $ra, 0
.Ltmp67:
# %bb.81:                               # %.noexc316
	move	$s4, $a0
	sub.d	$fp, $fp, $s1
	ori	$a0, $zero, 1
	blt	$fp, $a0, .LBB6_83
# %bb.82:
	move	$a0, $s4
	move	$a1, $s1
	move	$a2, $fp
	pcaddu18i	$ra, %call36(memcpy)
	jirl	$ra, $ra, 0
.LBB6_83:                               # %_ZNSt6vectorIiSaIiEE11_S_relocateEPiS2_S2_RS0_.exit.i312
	beqz	$s1, .LBB6_85
# %bb.84:
	move	$a0, $s1
	move	$a1, $s2
	pcaddu18i	$ra, %call36(_ZdlPvm)
	jirl	$ra, $ra, 0
.LBB6_85:                               # %_ZNSt12_Vector_baseIiSaIiEE13_M_deallocateEPim.exit.i314
	ld.d	$a1, $sp, 128                   # 8-byte Folded Reload
	st.d	$s4, $a1, 0
	add.d	$a0, $s4, $fp
	st.d	$a0, $a1, 8
	alsl.d	$a0, $s0, $s4, 2
	st.d	$a0, $a1, 16
	ld.d	$s5, $sp, 168                   # 8-byte Folded Reload
.LBB6_86:                               # %_ZNSt6vectorIiSaIiEE7reserveEm.exit317
	ld.d	$a1, $sp, 136                   # 8-byte Folded Reload
	ld.d	$a0, $a1, 16
	ld.d	$s1, $a1, 0
	slli.d	$a1, $s0, 2
	alsl.w	$s0, $s0, $a1, 1
	sub.d	$s2, $a0, $s1
	srai.d	$a0, $s2, 2
	bgeu	$a0, $s0, .LBB6_93
# %bb.87:                               # %_ZNSt12_Vector_baseIiSaIiEE11_M_allocateEm.exit.i318
	ld.d	$a0, $sp, 136                   # 8-byte Folded Reload
	ld.d	$fp, $a0, 8
	slli.d	$a0, $s0, 2
.Ltmp68:
	pcaddu18i	$ra, %call36(_Znwm)
	jirl	$ra, $ra, 0
.Ltmp69:
# %bb.88:                               # %.noexc323
	move	$s4, $a0
	sub.d	$fp, $fp, $s1
	ori	$a0, $zero, 1
	blt	$fp, $a0, .LBB6_90
# %bb.89:
	move	$a0, $s4
	move	$a1, $s1
	move	$a2, $fp
	pcaddu18i	$ra, %call36(memcpy)
	jirl	$ra, $ra, 0
.LBB6_90:                               # %_ZNSt6vectorIiSaIiEE11_S_relocateEPiS2_S2_RS0_.exit.i319
	ld.d	$s5, $sp, 168                   # 8-byte Folded Reload
	beqz	$s1, .LBB6_92
# %bb.91:
	move	$a0, $s1
	move	$a1, $s2
	pcaddu18i	$ra, %call36(_ZdlPvm)
	jirl	$ra, $ra, 0
.LBB6_92:                               # %_ZNSt12_Vector_baseIiSaIiEE13_M_deallocateEPim.exit.i321
	ld.d	$a1, $sp, 136                   # 8-byte Folded Reload
	st.d	$s4, $a1, 0
	add.d	$a0, $s4, $fp
	st.d	$a0, $a1, 8
	alsl.d	$a0, $s0, $s4, 2
	st.d	$a0, $a1, 16
.LBB6_93:                               # %_ZNSt6vectorIiSaIiEE7reserveEm.exit324
	ld.w	$a0, $s5, 76
	ori	$a5, $zero, 1
	st.d	$s7, $sp, 112                   # 8-byte Folded Spill
	ld.d	$s6, $sp, 120                   # 8-byte Folded Reload
	ld.d	$s1, $sp, 136                   # 8-byte Folded Reload
	ld.d	$s2, $sp, 128                   # 8-byte Folded Reload
	blt	$a0, $a5, .LBB6_138
# %bb.94:                               # %.lr.ph983
	move	$a6, $zero
	b	.LBB6_97
	.p2align	4, , 16
.LBB6_95:                               # %.loopexit926.loopexit
                                        #   in Loop: Header=BB6_97 Depth=1
	ld.w	$a0, $s5, 76
	ld.d	$s7, $sp, 112                   # 8-byte Folded Reload
	ld.d	$s6, $sp, 120                   # 8-byte Folded Reload
	ori	$a5, $zero, 1
	ld.d	$a6, $sp, 104                   # 8-byte Folded Reload
.LBB6_96:                               # %.loopexit926
                                        #   in Loop: Header=BB6_97 Depth=1
	bge	$a6, $a0, .LBB6_138
.LBB6_97:                               # =>This Loop Header: Depth=1
                                        #     Child Loop BB6_101 Depth 2
	move	$a1, $a6
	ld.w	$a2, $s5, 84
	slli.d	$a3, $a6, 2
	ldx.w	$s8, $s7, $a3
	addi.d	$a6, $a6, 1
	slli.d	$a3, $a6, 2
	ld.w	$a4, $s5, 64
	ldx.w	$a3, $s7, $a3
	add.w	$a7, $a2, $a1
	blt	$a4, $a5, .LBB6_99
# %bb.98:                               #   in Loop: Header=BB6_97 Depth=1
	slt	$a2, $zero, $a7
	add.d	$s8, $s8, $a2
	addi.w	$a2, $a0, -1
	slt	$a1, $a1, $a2
	add.d	$a3, $a3, $a1
.LBB6_99:                               #   in Loop: Header=BB6_97 Depth=1
	ld.w	$a1, $s5, 72
	blt	$a1, $a5, .LBB6_96
# %bb.100:                              # %.lr.ph981
                                        #   in Loop: Header=BB6_97 Depth=1
	st.d	$a7, $sp, 152                   # 8-byte Folded Spill
	st.d	$a3, $sp, 160                   # 8-byte Folded Spill
	st.d	$a6, $sp, 104                   # 8-byte Folded Spill
	move	$s6, $zero
	move	$s7, $zero
	ori	$s0, $zero, 2
	st.d	$s8, $sp, 144                   # 8-byte Folded Spill
	.p2align	4, , 16
.LBB6_101:                              #   Parent Loop BB6_97 Depth=1
                                        # =>  This Inner Loop Header: Depth=2
	ld.w	$fp, $s5, 80
.Ltmp70:
	ori	$a0, $zero, 24
	pcaddu18i	$ra, %call36(_Znwm)
	jirl	$ra, $ra, 0
.Ltmp71:
# %bb.102:                              #   in Loop: Header=BB6_101 Depth=2
	move	$s4, $a0
	add.w	$a2, $s7, $fp
	addi.d	$fp, $a0, 24
	addi.d	$a0, $a0, 4
	add.d	$a1, $s8, $s0
	addi.d	$a3, $a1, -2
	st.w	$a3, $s4, 4
	addi.d	$a3, $a1, -3
	st.w	$a3, $s4, 0
	addi.d	$a1, $a1, -1
	st.w	$a1, $s4, 8
	ld.d	$a4, $sp, 160                   # 8-byte Folded Reload
	add.d	$a3, $a4, $s6
	addi.d	$a1, $s4, 20
	st.w	$a3, $s4, 20
	addi.d	$a3, $a3, 1
	st.w	$a3, $s4, 16
	add.d	$a3, $a4, $s0
	st.w	$a3, $s4, 12
	ld.d	$a5, $sp, 152                   # 8-byte Folded Reload
	beqz	$a5, .LBB6_106
# %bb.103:                              #   in Loop: Header=BB6_101 Depth=2
	ld.w	$a3, $s5, 36
	addi.w	$a3, $a3, -1
	bne	$a5, $a3, .LBB6_110
# %bb.104:                              #   in Loop: Header=BB6_101 Depth=2
	add.d	$a3, $a4, $s7
	st.w	$a3, $s4, 20
	addi.d	$a4, $a3, 1
	st.w	$a4, $s4, 12
	st.w	$a3, $s4, 16
	move	$fp, $a1
	bnez	$a2, .LBB6_115
# %bb.105:                              #   in Loop: Header=BB6_101 Depth=2
	vld	$vr0, $a0, 0
	addi.d	$fp, $s4, 16
	vst	$vr0, $s4, 0
	b	.LBB6_115
	.p2align	4, , 16
.LBB6_106:                              #   in Loop: Header=BB6_101 Depth=2
	ld.w	$a4, $s5, 32
	add.d	$a3, $s8, $s7
	st.w	$a3, $s4, 0
	addi.d	$a3, $a3, 1
	addi.w	$a4, $a4, -1
	st.w	$a3, $s4, 8
	bne	$a2, $a4, .LBB6_108
# %bb.107:                              #   in Loop: Header=BB6_101 Depth=2
	ld.d	$a2, $s4, 16
	st.d	$a2, $s4, 12
	move	$fp, $a1
.LBB6_108:                              #   in Loop: Header=BB6_101 Depth=2
	addi.d	$a1, $s4, 8
	sub.d	$a2, $fp, $a1
	ori	$a4, $zero, 5
	blt	$a2, $a4, .LBB6_135
# %bb.109:                              #   in Loop: Header=BB6_101 Depth=2
	pcaddu18i	$ra, %call36(memmove)
	jirl	$ra, $ra, 0
	addi.d	$fp, $fp, -4
	b	.LBB6_115
	.p2align	4, , 16
.LBB6_110:                              #   in Loop: Header=BB6_101 Depth=2
	beqz	$a2, .LBB6_113
# %bb.111:                              #   in Loop: Header=BB6_101 Depth=2
	ld.w	$a0, $s5, 32
	addi.w	$a0, $a0, -1
	bne	$a2, $a0, .LBB6_115
# %bb.112:                              #   in Loop: Header=BB6_101 Depth=2
	ld.d	$a0, $s4, 16
	st.d	$a0, $s4, 12
	b	.LBB6_114
.LBB6_113:                              #   in Loop: Header=BB6_101 Depth=2
	ld.w	$a2, $a0, 16
	vld	$vr0, $a0, 0
	st.w	$a2, $s4, 16
	vst	$vr0, $s4, 0
.LBB6_114:                              #   in Loop: Header=BB6_101 Depth=2
	move	$fp, $a1
.LBB6_115:                              #   in Loop: Header=BB6_101 Depth=2
	ld.d	$a1, $s1, 8
	ld.d	$a2, $s1, 0
	ld.d	$a0, $s3, 8
	ld.d	$a3, $s3, 16
	sub.d	$a1, $a1, $a2
	srli.d	$s5, $a1, 2
	beq	$a0, $a3, .LBB6_117
# %bb.116:                              #   in Loop: Header=BB6_101 Depth=2
	st.w	$s5, $a0, 0
	addi.d	$a0, $a0, 4
	st.d	$a0, $s3, 8
	b	.LBB6_124
	.p2align	4, , 16
.LBB6_117:                              #   in Loop: Header=BB6_101 Depth=2
	ld.d	$s2, $s3, 0
	sub.d	$s1, $a0, $s2
	addi.w	$a0, $zero, -4
	lu52i.d	$a0, $a0, 2047
	beq	$s1, $a0, .LBB6_481
# %bb.118:                              # %_ZNSt12_Vector_baseIiSaIiEE11_M_allocateEm.exit.i.i.i
                                        #   in Loop: Header=BB6_101 Depth=2
	st.d	$fp, $sp, 192                   # 8-byte Folded Spill
	srai.d	$a0, $s1, 2
	ori	$s8, $zero, 1
	sltu	$a1, $s8, $a0
	masknez	$a2, $s8, $a1
	maskeqz	$a1, $a0, $a1
	or	$a1, $a1, $a2
	add.d	$a0, $a1, $a0
	sltu	$a1, $a0, $a1
	ld.d	$a2, $sp, 184                   # 8-byte Folded Reload
	lu52i.d	$a2, $a2, 511
	sltu	$a3, $a0, $a2
	maskeqz	$a0, $a0, $a3
	masknez	$a3, $a2, $a3
	or	$a0, $a0, $a3
	masknez	$a0, $a0, $a1
	maskeqz	$a1, $a2, $a1
	or	$s3, $a1, $a0
	slli.d	$a0, $s3, 2
.Ltmp73:
	pcaddu18i	$ra, %call36(_Znwm)
	jirl	$ra, $ra, 0
.Ltmp74:
# %bb.119:                              # %.noexc348
                                        #   in Loop: Header=BB6_101 Depth=2
	move	$fp, $a0
	stx.w	$s5, $a0, $s1
	blt	$s1, $s8, .LBB6_121
# %bb.120:                              #   in Loop: Header=BB6_101 Depth=2
	move	$a0, $fp
	move	$a1, $s2
	move	$a2, $s1
	pcaddu18i	$ra, %call36(memcpy)
	jirl	$ra, $ra, 0
.LBB6_121:                              # %_ZNSt6vectorIiSaIiEE11_S_relocateEPiS2_S2_RS0_.exit.i.i.i
                                        #   in Loop: Header=BB6_101 Depth=2
	beqz	$s2, .LBB6_123
# %bb.122:                              #   in Loop: Header=BB6_101 Depth=2
	move	$a0, $s2
	move	$a1, $s1
	pcaddu18i	$ra, %call36(_ZdlPvm)
	jirl	$ra, $ra, 0
.LBB6_123:                              # %_ZNSt6vectorIiSaIiEE17_M_realloc_appendIJiEEEvDpOT_.exit.i.i
                                        #   in Loop: Header=BB6_101 Depth=2
	add.d	$a0, $fp, $s1
	addi.d	$a0, $a0, 4
	ld.d	$a1, $sp, 176                   # 8-byte Folded Reload
	st.d	$fp, $a1, 0
	st.d	$a0, $a1, 8
	alsl.d	$a0, $s3, $fp, 2
	move	$s3, $a1
	st.d	$a0, $a1, 16
	ld.d	$s1, $sp, 136                   # 8-byte Folded Reload
	ld.d	$s2, $sp, 128                   # 8-byte Folded Reload
	ld.d	$s8, $sp, 144                   # 8-byte Folded Reload
	ld.d	$fp, $sp, 192                   # 8-byte Folded Reload
.LBB6_124:                              # %_ZNSt6vectorIiSaIiEE9push_backEOi.exit
                                        #   in Loop: Header=BB6_101 Depth=2
	ld.d	$a0, $s2, 8
	ld.d	$a1, $s2, 16
	sub.d	$a2, $fp, $s4
	srli.d	$s5, $a2, 2
	beq	$a0, $a1, .LBB6_126
# %bb.125:                              #   in Loop: Header=BB6_101 Depth=2
	st.w	$s5, $a0, 0
	addi.d	$a0, $a0, 4
	st.d	$a0, $s2, 8
	ld.d	$s5, $sp, 168                   # 8-byte Folded Reload
	b	.LBB6_133
	.p2align	4, , 16
.LBB6_126:                              #   in Loop: Header=BB6_101 Depth=2
	ld.d	$s2, $s2, 0
	sub.d	$s1, $a0, $s2
	addi.w	$a0, $zero, -4
	lu52i.d	$a0, $a0, 2047
	beq	$s1, $a0, .LBB6_483
# %bb.127:                              # %_ZNSt12_Vector_baseIiSaIiEE11_M_allocateEm.exit.i.i.i350
                                        #   in Loop: Header=BB6_101 Depth=2
	st.d	$fp, $sp, 192                   # 8-byte Folded Spill
	srai.d	$a0, $s1, 2
	ori	$s8, $zero, 1
	sltu	$a1, $s8, $a0
	masknez	$a2, $s8, $a1
	maskeqz	$a1, $a0, $a1
	or	$a1, $a1, $a2
	add.d	$a0, $a1, $a0
	sltu	$a1, $a0, $a1
	ld.d	$a2, $sp, 184                   # 8-byte Folded Reload
	lu52i.d	$a2, $a2, 511
	sltu	$a3, $a0, $a2
	maskeqz	$a0, $a0, $a3
	masknez	$a3, $a2, $a3
	or	$a0, $a0, $a3
	masknez	$a0, $a0, $a1
	maskeqz	$a1, $a2, $a1
	or	$s3, $a1, $a0
	slli.d	$a0, $s3, 2
.Ltmp76:
	pcaddu18i	$ra, %call36(_Znwm)
	jirl	$ra, $ra, 0
.Ltmp77:
# %bb.128:                              # %.noexc356
                                        #   in Loop: Header=BB6_101 Depth=2
	move	$fp, $a0
	stx.w	$s5, $a0, $s1
	blt	$s1, $s8, .LBB6_130
# %bb.129:                              #   in Loop: Header=BB6_101 Depth=2
	move	$a0, $fp
	move	$a1, $s2
	move	$a2, $s1
	pcaddu18i	$ra, %call36(memcpy)
	jirl	$ra, $ra, 0
.LBB6_130:                              # %_ZNSt6vectorIiSaIiEE11_S_relocateEPiS2_S2_RS0_.exit.i.i.i352
                                        #   in Loop: Header=BB6_101 Depth=2
	ld.d	$s5, $sp, 168                   # 8-byte Folded Reload
	beqz	$s2, .LBB6_132
# %bb.131:                              #   in Loop: Header=BB6_101 Depth=2
	move	$a0, $s2
	move	$a1, $s1
	pcaddu18i	$ra, %call36(_ZdlPvm)
	jirl	$ra, $ra, 0
.LBB6_132:                              # %_ZNSt6vectorIiSaIiEE17_M_realloc_appendIJiEEEvDpOT_.exit.i.i354
                                        #   in Loop: Header=BB6_101 Depth=2
	add.d	$a0, $fp, $s1
	addi.d	$a0, $a0, 4
	ld.d	$s2, $sp, 128                   # 8-byte Folded Reload
	st.d	$fp, $s2, 0
	st.d	$a0, $s2, 8
	alsl.d	$a0, $s3, $fp, 2
	st.d	$a0, $s2, 16
	ld.d	$s1, $sp, 136                   # 8-byte Folded Reload
	ld.d	$s3, $sp, 176                   # 8-byte Folded Reload
	ld.d	$s8, $sp, 144                   # 8-byte Folded Reload
	ld.d	$fp, $sp, 192                   # 8-byte Folded Reload
.LBB6_133:                              # %_ZNSt6vectorIiSaIiEE9push_backEOi.exit357
                                        #   in Loop: Header=BB6_101 Depth=2
	ld.d	$a1, $s1, 8
.Ltmp79:
	move	$a0, $s1
	move	$a2, $s4
	move	$a3, $fp
	move	$a4, $zero
	pcaddu18i	$ra, %call36(_ZNSt6vectorIiSaIiEE15_M_range_insertIN9__gnu_cxx17__normal_iteratorIPiS1_EEEEvS6_T_S7_St20forward_iterator_tag)
	jirl	$ra, $ra, 0
.Ltmp80:
# %bb.134:                              # %_ZNSt6vectorIiSaIiEED2Ev.exit
                                        #   in Loop: Header=BB6_101 Depth=2
	ori	$a1, $zero, 24
	move	$a0, $s4
	pcaddu18i	$ra, %call36(_ZdlPvm)
	jirl	$ra, $ra, 0
	ld.w	$a0, $s5, 72
	addi.w	$s7, $s7, 1
	addi.d	$s0, $s0, 2
	addi.d	$s6, $s6, 2
	blt	$s7, $a0, .LBB6_101
	b	.LBB6_95
.LBB6_135:                              #   in Loop: Header=BB6_101 Depth=2
	ori	$a1, $zero, 4
	bne	$a2, $a1, .LBB6_137
# %bb.136:                              #   in Loop: Header=BB6_101 Depth=2
	st.w	$a3, $a0, 0
.LBB6_137:                              #   in Loop: Header=BB6_101 Depth=2
	addi.d	$fp, $fp, -4
	b	.LBB6_115
.LBB6_138:                              # %._crit_edge984
	pcalau12i	$a0, %got_pc_hi20(_ZN8Parallel5numpeE)
	ld.d	$a0, $a0, %got_pc_lo12(_ZN8Parallel5numpeE)
	ld.w	$a0, $a0, 0
	beq	$a0, $a5, .LBB6_435
# %bb.139:
	ld.w	$fp, $s5, 68
	ld.w	$s0, $s5, 64
	sltu	$a0, $zero, $fp
	ld.d	$a1, $sp, 48                    # 8-byte Folded Reload
	mul.d	$a0, $a0, $a1
	sltu	$a1, $zero, $s0
	ld.d	$a2, $sp, 96                    # 8-byte Folded Reload
	mul.d	$a1, $a1, $a2
	slli.d	$a1, $a1, 1
	alsl.w	$s3, $a0, $a1, 1
	bltz	$s3, .LBB6_495
# %bb.140:
	ld.d	$a1, $sp, 88                    # 8-byte Folded Reload
	ld.d	$a0, $a1, 16
	ld.d	$s2, $a1, 0
	sub.d	$s4, $a0, $s2
	srai.d	$a0, $s4, 2
	bgeu	$a0, $s3, .LBB6_147
# %bb.141:                              # %_ZNSt12_Vector_baseIiSaIiEE11_M_allocateEm.exit.i361
	ld.d	$s5, $a1, 8
	slli.d	$a0, $s3, 2
.Ltmp82:
	pcaddu18i	$ra, %call36(_Znwm)
	jirl	$ra, $ra, 0
.Ltmp83:
# %bb.142:                              # %.noexc366
	move	$s1, $a0
	sub.d	$s5, $s5, $s2
	ori	$a0, $zero, 1
	blt	$s5, $a0, .LBB6_144
# %bb.143:
	move	$a0, $s1
	move	$a1, $s2
	move	$a2, $s5
	pcaddu18i	$ra, %call36(memcpy)
	jirl	$ra, $ra, 0
.LBB6_144:                              # %_ZNSt6vectorIiSaIiEE11_S_relocateEPiS2_S2_RS0_.exit.i362
	beqz	$s2, .LBB6_146
# %bb.145:
	move	$a0, $s2
	move	$a1, $s4
	pcaddu18i	$ra, %call36(_ZdlPvm)
	jirl	$ra, $ra, 0
	ld.d	$a0, $sp, 168                   # 8-byte Folded Reload
	ld.w	$fp, $a0, 68
	ld.w	$s0, $a0, 64
.LBB6_146:                              # %_ZNSt12_Vector_baseIiSaIiEE13_M_deallocateEPim.exit.i364
	ld.d	$a1, $sp, 88                    # 8-byte Folded Reload
	st.d	$s1, $a1, 0
	add.d	$a0, $s1, $s5
	st.d	$a0, $a1, 8
	alsl.d	$a0, $s3, $s1, 2
	st.d	$a0, $a1, 16
	ld.d	$s5, $sp, 168                   # 8-byte Folded Reload
.LBB6_147:                              # %_ZNSt6vectorIiSaIiEE7reserveEm.exit367
	ld.w	$a0, $s5, 60
	addi.w	$a0, $a0, -1
	ld.w	$a1, $s5, 56
	xor	$a0, $fp, $a0
	sltu	$a0, $zero, $a0
	ld.d	$a2, $sp, 48                    # 8-byte Folded Reload
	mul.d	$a0, $a0, $a2
	addi.w	$a1, $a1, -1
	xor	$a1, $s0, $a1
	sltu	$a1, $zero, $a1
	ld.d	$a2, $sp, 96                    # 8-byte Folded Reload
	mul.d	$a1, $a1, $a2
	slli.d	$a1, $a1, 1
	alsl.w	$a2, $a0, $a1, 1
	addi.w	$a3, $zero, -3
	bge	$a3, $a2, .LBB6_495
# %bb.148:
	ld.d	$a3, $sp, 80                    # 8-byte Folded Reload
	ld.d	$a2, $a3, 16
	ld.d	$s1, $a3, 0
	alsl.d	$a0, $a0, $a1, 1
	addi.w	$s3, $a0, 2
	sub.d	$s2, $a2, $s1
	srai.d	$a0, $s2, 2
	bgeu	$a0, $s3, .LBB6_155
# %bb.149:                              # %_ZNSt12_Vector_baseIiSaIiEE11_M_allocateEm.exit.i368
	ld.d	$fp, $a3, 8
	slli.d	$a0, $s3, 2
.Ltmp84:
	pcaddu18i	$ra, %call36(_Znwm)
	jirl	$ra, $ra, 0
.Ltmp85:
# %bb.150:                              # %.noexc373
	move	$s4, $a0
	sub.d	$fp, $fp, $s1
	ori	$a0, $zero, 1
	blt	$fp, $a0, .LBB6_152
# %bb.151:
	move	$a0, $s4
	move	$a1, $s1
	move	$a2, $fp
	pcaddu18i	$ra, %call36(memcpy)
	jirl	$ra, $ra, 0
.LBB6_152:                              # %_ZNSt6vectorIiSaIiEE11_S_relocateEPiS2_S2_RS0_.exit.i369
	ld.d	$s5, $sp, 168                   # 8-byte Folded Reload
	beqz	$s1, .LBB6_154
# %bb.153:
	move	$a0, $s1
	move	$a1, $s2
	pcaddu18i	$ra, %call36(_ZdlPvm)
	jirl	$ra, $ra, 0
	ld.w	$s0, $s5, 64
.LBB6_154:                              # %_ZNSt12_Vector_baseIiSaIiEE13_M_deallocateEPim.exit.i371
	ld.d	$a3, $sp, 80                    # 8-byte Folded Reload
	st.d	$s4, $a3, 0
	add.d	$a0, $s4, $fp
	st.d	$a0, $a3, 8
	alsl.d	$a0, $s3, $s4, 2
	st.d	$a0, $a3, 16
	ld.w	$fp, $s5, 68
.LBB6_155:                              # %_ZNSt6vectorIiSaIiEE7reserveEm.exit374
	beqz	$s0, .LBB6_192
# %bb.156:                              # %_ZNSt6vectorIiSaIiEE7reserveEm.exit374
	beqz	$fp, .LBB6_192
# %bb.157:
	pcalau12i	$a0, %got_pc_hi20(_ZN8Parallel4mypeE)
	ld.d	$a0, $a0, %got_pc_lo12(_ZN8Parallel4mypeE)
	ld.w	$s0, $a0, 0
	ld.d	$a2, $sp, 88                    # 8-byte Folded Reload
	ld.d	$a1, $a2, 8
	ld.d	$a0, $a2, 16
	ld.w	$s3, $s5, 56
	beq	$a1, $a0, .LBB6_160
# %bb.158:
	st.w	$zero, $a1, 0
	addi.d	$a1, $a1, 4
	st.d	$a1, $a2, 8
	ld.d	$a4, $sp, 64                    # 8-byte Folded Reload
	ld.d	$a5, $sp, 56                    # 8-byte Folded Reload
	beq	$a1, $a0, .LBB6_167
.LBB6_159:
	ori	$a0, $zero, 1
	st.w	$a0, $a1, 0
	addi.d	$a0, $a1, 4
	ld.d	$a1, $sp, 88                    # 8-byte Folded Reload
	st.d	$a0, $a1, 8
	b	.LBB6_174
.LBB6_160:
	ld.d	$s1, $a2, 0
	sub.d	$s4, $a1, $s1
	addi.w	$a0, $zero, -4
	lu52i.d	$a0, $a0, 2047
	beq	$s4, $a0, .LBB6_531
# %bb.161:                              # %_ZNSt12_Vector_baseIiSaIiEE11_M_allocateEm.exit.i.i.i376
	srai.d	$a0, $s4, 2
	ori	$s5, $zero, 1
	sltu	$a1, $s5, $a0
	masknez	$a2, $s5, $a1
	maskeqz	$a1, $a0, $a1
	or	$a1, $a1, $a2
	add.d	$a0, $a1, $a0
	sltu	$a1, $a0, $a1
	ld.d	$a2, $sp, 184                   # 8-byte Folded Reload
	lu52i.d	$a2, $a2, 511
	sltu	$a3, $a0, $a2
	maskeqz	$a0, $a0, $a3
	masknez	$a3, $a2, $a3
	or	$a0, $a0, $a3
	masknez	$a0, $a0, $a1
	maskeqz	$a1, $a2, $a1
	or	$fp, $a1, $a0
	slli.d	$a0, $fp, 2
.Ltmp86:
	pcaddu18i	$ra, %call36(_Znwm)
	jirl	$ra, $ra, 0
.Ltmp87:
# %bb.162:                              # %.noexc382
	move	$s2, $a0
	stx.w	$zero, $a0, $s4
	blt	$s4, $s5, .LBB6_164
# %bb.163:
	move	$a0, $s2
	move	$a1, $s1
	move	$a2, $s4
	pcaddu18i	$ra, %call36(memcpy)
	jirl	$ra, $ra, 0
.LBB6_164:                              # %_ZNSt6vectorIiSaIiEE11_S_relocateEPiS2_S2_RS0_.exit.i.i.i378
	add.d	$s5, $s2, $s4
	beqz	$s1, .LBB6_166
# %bb.165:
	move	$a0, $s1
	move	$a1, $s4
	pcaddu18i	$ra, %call36(_ZdlPvm)
	jirl	$ra, $ra, 0
.LBB6_166:                              # %_ZNSt6vectorIiSaIiEE17_M_realloc_appendIJiEEEvDpOT_.exit.i.i380
	addi.d	$a1, $s5, 4
	ld.d	$a2, $sp, 88                    # 8-byte Folded Reload
	st.d	$s2, $a2, 0
	st.d	$a1, $a2, 8
	alsl.d	$a0, $fp, $s2, 2
	st.d	$a0, $a2, 16
	ld.d	$a3, $sp, 80                    # 8-byte Folded Reload
	ld.d	$s5, $sp, 168                   # 8-byte Folded Reload
	ld.d	$a4, $sp, 64                    # 8-byte Folded Reload
	ld.d	$a5, $sp, 56                    # 8-byte Folded Reload
	bne	$a1, $a0, .LBB6_159
.LBB6_167:
	ld.d	$a1, $sp, 88                    # 8-byte Folded Reload
	ld.d	$s1, $a1, 0
	sub.d	$s4, $a0, $s1
	addi.w	$a0, $zero, -4
	lu52i.d	$a0, $a0, 2047
	beq	$s4, $a0, .LBB6_533
# %bb.168:                              # %_ZNSt12_Vector_baseIiSaIiEE11_M_allocateEm.exit.i.i.i385
	srai.d	$a0, $s4, 2
	ori	$s5, $zero, 1
	sltu	$a1, $s5, $a0
	masknez	$a2, $s5, $a1
	maskeqz	$a1, $a0, $a1
	or	$a1, $a1, $a2
	add.d	$a0, $a1, $a0
	sltu	$a1, $a0, $a1
	ld.d	$a2, $sp, 184                   # 8-byte Folded Reload
	lu52i.d	$a2, $a2, 511
	sltu	$a3, $a0, $a2
	maskeqz	$a0, $a0, $a3
	masknez	$a3, $a2, $a3
	or	$a0, $a0, $a3
	masknez	$a0, $a0, $a1
	maskeqz	$a1, $a2, $a1
	or	$s2, $a1, $a0
	slli.d	$a0, $s2, 2
.Ltmp88:
	pcaddu18i	$ra, %call36(_Znwm)
	jirl	$ra, $ra, 0
.Ltmp89:
# %bb.169:                              # %.noexc391
	move	$fp, $a0
	stx.w	$s5, $a0, $s4
	blt	$s4, $s5, .LBB6_171
# %bb.170:
	move	$a0, $fp
	move	$a1, $s1
	move	$a2, $s4
	pcaddu18i	$ra, %call36(memcpy)
	jirl	$ra, $ra, 0
.LBB6_171:                              # %_ZNSt6vectorIiSaIiEE11_S_relocateEPiS2_S2_RS0_.exit.i.i.i387
	add.d	$s5, $fp, $s4
	beqz	$s1, .LBB6_173
# %bb.172:
	move	$a0, $s1
	move	$a1, $s4
	pcaddu18i	$ra, %call36(_ZdlPvm)
	jirl	$ra, $ra, 0
.LBB6_173:                              # %_ZNSt6vectorIiSaIiEE17_M_realloc_appendIJiEEEvDpOT_.exit.i.i389
	addi.d	$a0, $s5, 4
	ld.d	$a1, $sp, 88                    # 8-byte Folded Reload
	st.d	$fp, $a1, 0
	st.d	$a0, $a1, 8
	alsl.d	$a0, $s2, $fp, 2
	st.d	$a0, $a1, 16
	ld.d	$a3, $sp, 80                    # 8-byte Folded Reload
	ld.d	$s5, $sp, 168                   # 8-byte Folded Reload
	ld.d	$a4, $sp, 64                    # 8-byte Folded Reload
	ld.d	$a5, $sp, 56                    # 8-byte Folded Reload
.LBB6_174:                              # %_ZNSt6vectorIiSaIiEE9push_backEOi.exit392
	ld.d	$a0, $a5, 8
	ld.d	$a1, $a5, 16
	nor	$a2, $s3, $zero
	add.d	$s0, $s0, $a2
	beq	$a0, $a1, .LBB6_177
# %bb.175:
	st.w	$s0, $a0, 0
	addi.d	$a0, $a0, 4
	st.d	$a0, $a5, 8
	ld.d	$a0, $a4, 8
	ld.d	$a1, $a4, 16
	beq	$a0, $a1, .LBB6_184
.LBB6_176:
	ori	$a1, $zero, 2
	st.w	$a1, $a0, 0
	addi.d	$a0, $a0, 4
	st.d	$a0, $a4, 8
	b	.LBB6_191
.LBB6_177:
	ld.d	$s1, $a5, 0
	sub.d	$s4, $a0, $s1
	addi.w	$a0, $zero, -4
	lu52i.d	$a0, $a0, 2047
