	.file	"Cmd.cc"
                                        # Start of file scope inline assembly
	.globl	_ZSt21ios_base_library_initv

                                        # End of file scope inline assembly
	.text
	.globl	_ZN2PP3CmdC2Ev                  # -- Begin function _ZN2PP3CmdC2Ev
	.p2align	5
	.type	_ZN2PP3CmdC2Ev,@function
_ZN2PP3CmdC2Ev:                         # @_ZN2PP3CmdC2Ev
.Lfunc_begin0:
	.cfi_startproc
	.cfi_personality 155, DW.ref.__gxx_personality_v0
	.cfi_lsda 27, .Lexception0
# %bb.0:
	addi.d	$sp, $sp, -160
	.cfi_def_cfa_offset 160
	st.d	$ra, $sp, 152                   # 8-byte Folded Spill
	st.d	$fp, $sp, 144                   # 8-byte Folded Spill
	st.d	$s0, $sp, 136                   # 8-byte Folded Spill
	st.d	$s1, $sp, 128                   # 8-byte Folded Spill
	st.d	$s2, $sp, 120                   # 8-byte Folded Spill
	st.d	$s3, $sp, 112                   # 8-byte Folded Spill
	st.d	$s4, $sp, 104                   # 8-byte Folded Spill
	st.d	$s5, $sp, 96                    # 8-byte Folded Spill
	st.d	$s6, $sp, 88                    # 8-byte Folded Spill
	st.d	$s7, $sp, 80                    # 8-byte Folded Spill
	st.d	$s8, $sp, 72                    # 8-byte Folded Spill
	.cfi_offset 1, -8
	.cfi_offset 22, -16
	.cfi_offset 23, -24
	.cfi_offset 24, -32
	.cfi_offset 25, -40
	.cfi_offset 26, -48
	.cfi_offset 27, -56
	.cfi_offset 28, -64
	.cfi_offset 29, -72
	.cfi_offset 30, -80
	.cfi_offset 31, -88
	move	$s3, $a0
	addi.d	$a0, $a0, 8
	st.d	$a0, $sp, 64                    # 8-byte Folded Spill
	addi.d	$a0, $s3, 24
	st.d	$a0, $sp, 40                    # 8-byte Folded Spill
	st.d	$a0, $s3, 8
	st.d	$zero, $s3, 16
	st.b	$zero, $s3, 24
	addi.d	$s0, $s3, 48
	addi.d	$a0, $s3, 64
	st.d	$a0, $sp, 32                    # 8-byte Folded Spill
	st.d	$a0, $s3, 48
	st.d	$zero, $s3, 56
	st.b	$zero, $s3, 64
	addi.d	$s1, $s3, 96
	addi.d	$s6, $s3, 112
	st.d	$s6, $s3, 96
	st.d	$zero, $s3, 104
	st.b	$zero, $s3, 112
	addi.d	$s2, $s3, 128
	addi.d	$fp, $s3, 144
	st.d	$fp, $s3, 128
	st.d	$zero, $s3, 136
	st.b	$zero, $s3, 144
	addi.d	$s4, $s3, 160
	ori	$a2, $zero, 80
	move	$a0, $s4
	move	$a1, $zero
	pcaddu18i	$ra, %call36(memset)
	jirl	$ra, $ra, 0
.Ltmp0:
	move	$a0, $s4
	move	$a1, $zero
	pcaddu18i	$ra, %call36(_ZNSt11_Deque_baseIN2PP4WordESaIS1_EE17_M_initialize_mapEm)
	jirl	$ra, $ra, 0
.Ltmp1:
# %bb.1:                                # %_ZNSt5dequeIN2PP4WordESaIS1_EEC2Ev.exit
	addi.d	$s7, $s3, 256
	st.d	$s7, $s3, 240
	st.d	$zero, $s3, 248
	st.b	$zero, $s3, 256
	addi.d	$s5, $s3, 288
	st.d	$s5, $s3, 272
	st.d	$zero, $s3, 280
	st.b	$zero, $s3, 288
	addi.d	$a0, $s3, 304
	st.d	$a0, $sp, 24                    # 8-byte Folded Spill
	addi.d	$a0, $s3, 328
	st.d	$a0, $sp, 16                    # 8-byte Folded Spill
	addi.d	$a0, $s3, 352
	st.d	$a0, $sp, 8                     # 8-byte Folded Spill
	st.d	$zero, $s3, 368
	st.w	$zero, $s3, 376
	addi.d	$s8, $s3, 392
	st.d	$zero, $s3, 408
	st.w	$zero, $s3, 416
	st.d	$zero, $s3, 424
	st.d	$zero, $s3, 304
	vrepli.b	$vr0, 0
	vst	$vr0, $s3, 312
	vst	$vr0, $s3, 328
	vst	$vr0, $s3, 344
	ld.d	$a2, $s3, 56
	st.w	$zero, $s3, 360
	vst	$vr0, $sp, 48                   # 16-byte Folded Spill
	vst	$vr0, $s3, 384
	st.w	$zero, $s3, 400
.Ltmp3:
	pcalau12i	$a0, %pc_hi20(.L.str)
	addi.d	$a3, $a0, %pc_lo12(.L.str)
	move	$a0, $s0
	move	$a1, $zero
	move	$a4, $zero
	pcaddu18i	$ra, %call36(_ZNSt7__cxx1112basic_stringIcSt11char_traitsIcESaIcEE10_M_replaceEmmPKcm)
	jirl	$ra, $ra, 0
.Ltmp4:
# %bb.2:                                # %.noexc
	ld.d	$a2, $s3, 104
.Ltmp5:
	pcalau12i	$a0, %pc_hi20(.L.str.1)
	addi.d	$a3, $a0, %pc_lo12(.L.str.1)
	ori	$a4, $zero, 2
	move	$a0, $s1
	move	$a1, $zero
	pcaddu18i	$ra, %call36(_ZNSt7__cxx1112basic_stringIcSt11char_traitsIcESaIcEE10_M_replaceEmmPKcm)
	jirl	$ra, $ra, 0
.Ltmp6:
# %bb.3:                                # %.noexc4
	ld.d	$a2, $s3, 136
.Ltmp7:
	pcalau12i	$a0, %pc_hi20(.L.str.2)
	addi.d	$a3, $a0, %pc_lo12(.L.str.2)
	ori	$a4, $zero, 14
	move	$a0, $s2
	move	$a1, $zero
	pcaddu18i	$ra, %call36(_ZNSt7__cxx1112basic_stringIcSt11char_traitsIcESaIcEE10_M_replaceEmmPKcm)
	jirl	$ra, $ra, 0
.Ltmp8:
# %bb.4:                                # %.noexc5
	ld.d	$a2, $s3, 16
	st.d	$zero, $s3, 0
	vld	$vr0, $sp, 48                   # 16-byte Folded Reload
	vst	$vr0, $s3, 80
.Ltmp9:
	pcalau12i	$a0, %pc_hi20(.L.str)
	addi.d	$a3, $a0, %pc_lo12(.L.str)
	ld.d	$a0, $sp, 64                    # 8-byte Folded Reload
	move	$a1, $zero
	move	$a4, $zero
	pcaddu18i	$ra, %call36(_ZNSt7__cxx1112basic_stringIcSt11char_traitsIcESaIcEE10_M_replaceEmmPKcm)
	jirl	$ra, $ra, 0
.Ltmp10:
# %bb.5:                                # %_ZN2PP3Cmd4initEv.exit
	ld.d	$s8, $sp, 72                    # 8-byte Folded Reload
	ld.d	$s7, $sp, 80                    # 8-byte Folded Reload
	ld.d	$s6, $sp, 88                    # 8-byte Folded Reload
	ld.d	$s5, $sp, 96                    # 8-byte Folded Reload
	ld.d	$s4, $sp, 104                   # 8-byte Folded Reload
	ld.d	$s3, $sp, 112                   # 8-byte Folded Reload
	ld.d	$s2, $sp, 120                   # 8-byte Folded Reload
	ld.d	$s1, $sp, 128                   # 8-byte Folded Reload
	ld.d	$s0, $sp, 136                   # 8-byte Folded Reload
	ld.d	$fp, $sp, 144                   # 8-byte Folded Reload
	ld.d	$ra, $sp, 152                   # 8-byte Folded Reload
	addi.d	$sp, $sp, 160
	ret
.LBB0_6:
.Ltmp2:
	st.d	$a0, $sp, 48                    # 8-byte Folded Spill
	b	.LBB0_12
.LBB0_7:
.Ltmp11:
	st.d	$a0, $sp, 48                    # 8-byte Folded Spill
	move	$a0, $s8
	pcaddu18i	$ra, %call36(_ZNSt13_Bvector_baseISaIbEED2Ev)
	jirl	$ra, $ra, 0
	ld.d	$a0, $sp, 8                     # 8-byte Folded Reload
	pcaddu18i	$ra, %call36(_ZNSt13_Bvector_baseISaIbEED2Ev)
	jirl	$ra, $ra, 0
	ld.d	$a0, $sp, 16                    # 8-byte Folded Reload
	pcaddu18i	$ra, %call36(_ZNSt6vectorINSt7__cxx1112basic_stringIcSt11char_traitsIcESaIcEEESaIS5_EED2Ev)
	jirl	$ra, $ra, 0
	ld.d	$a0, $sp, 24                    # 8-byte Folded Reload
	pcaddu18i	$ra, %call36(_ZNSt6vectorINSt7__cxx1112basic_stringIcSt11char_traitsIcESaIcEEESaIS5_EED2Ev)
	jirl	$ra, $ra, 0
	ld.d	$a0, $s3, 272
	beq	$a0, $s5, .LBB0_9
# %bb.8:                                # %_ZNKSt7__cxx1112basic_stringIcSt11char_traitsIcESaIcEE11_M_is_localEv.exit.i.i
	ld.d	$a1, $s5, 0
	addi.d	$a1, $a1, 1
	pcaddu18i	$ra, %call36(_ZdlPvm)
	jirl	$ra, $ra, 0
.LBB0_9:                                # %_ZNSt7__cxx1112basic_stringIcSt11char_traitsIcESaIcEED2Ev.exit
	ld.d	$a0, $s3, 240
	beq	$a0, $s7, .LBB0_11
# %bb.10:                               # %_ZNKSt7__cxx1112basic_stringIcSt11char_traitsIcESaIcEE11_M_is_localEv.exit.i.i7
	ld.d	$a1, $s7, 0
	addi.d	$a1, $a1, 1
	pcaddu18i	$ra, %call36(_ZdlPvm)
	jirl	$ra, $ra, 0
.LBB0_11:                               # %_ZNSt7__cxx1112basic_stringIcSt11char_traitsIcESaIcEED2Ev.exit9
	move	$a0, $s4
	pcaddu18i	$ra, %call36(_ZNSt5dequeIN2PP4WordESaIS1_EED2Ev)
	jirl	$ra, $ra, 0
.LBB0_12:
	ld.d	$a0, $s2, 0
	bne	$a0, $fp, .LBB0_17
# %bb.13:                               # %_ZNSt7__cxx1112basic_stringIcSt11char_traitsIcESaIcEED2Ev.exit12
	ld.d	$a0, $s1, 0
	bne	$a0, $s6, .LBB0_18
.LBB0_14:                               # %_ZNSt7__cxx1112basic_stringIcSt11char_traitsIcESaIcEED2Ev.exit15
	ld.d	$a0, $s0, 0
	ld.d	$a1, $sp, 32                    # 8-byte Folded Reload
	bne	$a0, $a1, .LBB0_19
.LBB0_15:                               # %_ZNSt7__cxx1112basic_stringIcSt11char_traitsIcESaIcEED2Ev.exit18
	ld.d	$a0, $sp, 64                    # 8-byte Folded Reload
	ld.d	$a0, $a0, 0
	ld.d	$a1, $sp, 40                    # 8-byte Folded Reload
	bne	$a0, $a1, .LBB0_20
.LBB0_16:                               # %_ZNSt7__cxx1112basic_stringIcSt11char_traitsIcESaIcEED2Ev.exit21
	ld.d	$a0, $sp, 48                    # 8-byte Folded Reload
	pcaddu18i	$ra, %call36(_Unwind_Resume)
	jirl	$ra, $ra, 0
.LBB0_17:                               # %_ZNKSt7__cxx1112basic_stringIcSt11char_traitsIcESaIcEE11_M_is_localEv.exit.i.i10
	ld.d	$a1, $fp, 0
	addi.d	$a1, $a1, 1
	pcaddu18i	$ra, %call36(_ZdlPvm)
	jirl	$ra, $ra, 0
	ld.d	$a0, $s1, 0
	beq	$a0, $s6, .LBB0_14
.LBB0_18:                               # %_ZNKSt7__cxx1112basic_stringIcSt11char_traitsIcESaIcEE11_M_is_localEv.exit.i.i13
	ld.d	$a1, $s6, 0
	addi.d	$a1, $a1, 1
	pcaddu18i	$ra, %call36(_ZdlPvm)
	jirl	$ra, $ra, 0
	ld.d	$a0, $s0, 0
	ld.d	$a1, $sp, 32                    # 8-byte Folded Reload
	beq	$a0, $a1, .LBB0_15
.LBB0_19:                               # %_ZNKSt7__cxx1112basic_stringIcSt11char_traitsIcESaIcEE11_M_is_localEv.exit.i.i16
	ld.d	$a1, $sp, 32                    # 8-byte Folded Reload
	ld.d	$a1, $a1, 0
	addi.d	$a1, $a1, 1
	pcaddu18i	$ra, %call36(_ZdlPvm)
	jirl	$ra, $ra, 0
	ld.d	$a0, $sp, 64                    # 8-byte Folded Reload
	ld.d	$a0, $a0, 0
	ld.d	$a1, $sp, 40                    # 8-byte Folded Reload
	beq	$a0, $a1, .LBB0_16
.LBB0_20:                               # %_ZNKSt7__cxx1112basic_stringIcSt11char_traitsIcESaIcEE11_M_is_localEv.exit.i.i19
	ld.d	$a1, $sp, 40                    # 8-byte Folded Reload
	ld.d	$a1, $a1, 0
	addi.d	$a1, $a1, 1
	pcaddu18i	$ra, %call36(_ZdlPvm)
	jirl	$ra, $ra, 0
	ld.d	$a0, $sp, 48                    # 8-byte Folded Reload
	pcaddu18i	$ra, %call36(_Unwind_Resume)
	jirl	$ra, $ra, 0
.Lfunc_end0:
	.size	_ZN2PP3CmdC2Ev, .Lfunc_end0-_ZN2PP3CmdC2Ev
	.cfi_endproc
	.section	.gcc_except_table,"a",@progbits
	.p2align	2, 0x0
GCC_except_table0:
.Lexception0:
	.byte	255                             # @LPStart Encoding = omit
	.byte	255                             # @TType Encoding = omit
	.byte	1                               # Call site Encoding = uleb128
	.uleb128 .Lcst_end0-.Lcst_begin0
.Lcst_begin0:
	.uleb128 .Lfunc_begin0-.Lfunc_begin0    # >> Call Site 1 <<
	.uleb128 .Ltmp0-.Lfunc_begin0           #   Call between .Lfunc_begin0 and .Ltmp0
	.byte	0                               #     has no landing pad
	.byte	0                               #   On action: cleanup
	.uleb128 .Ltmp0-.Lfunc_begin0           # >> Call Site 2 <<
	.uleb128 .Ltmp1-.Ltmp0                  #   Call between .Ltmp0 and .Ltmp1
	.uleb128 .Ltmp2-.Lfunc_begin0           #     jumps to .Ltmp2
	.byte	0                               #   On action: cleanup
	.uleb128 .Ltmp3-.Lfunc_begin0           # >> Call Site 3 <<
	.uleb128 .Ltmp10-.Ltmp3                 #   Call between .Ltmp3 and .Ltmp10
	.uleb128 .Ltmp11-.Lfunc_begin0          #     jumps to .Ltmp11
	.byte	0                               #   On action: cleanup
	.uleb128 .Ltmp10-.Lfunc_begin0          # >> Call Site 4 <<
	.uleb128 .Lfunc_end0-.Ltmp10            #   Call between .Ltmp10 and .Lfunc_end0
	.byte	0                               #     has no landing pad
	.byte	0                               #   On action: cleanup
.Lcst_end0:
	.p2align	2, 0x0
                                        # -- End function
	.text
	.globl	_ZN2PP3Cmd4initEv               # -- Begin function _ZN2PP3Cmd4initEv
	.p2align	5
	.type	_ZN2PP3Cmd4initEv,@function
_ZN2PP3Cmd4initEv:                      # @_ZN2PP3Cmd4initEv
	.cfi_startproc
# %bb.0:
	addi.d	$sp, $sp, -32
	.cfi_def_cfa_offset 32
	st.d	$ra, $sp, 24                    # 8-byte Folded Spill
	st.d	$fp, $sp, 16                    # 8-byte Folded Spill
	st.d	$s0, $sp, 8                     # 8-byte Folded Spill
	.cfi_offset 1, -8
	.cfi_offset 22, -16
	.cfi_offset 23, -24
	move	$fp, $a0
	ld.d	$a2, $a0, 56
	addi.d	$a0, $a0, 48
	pcalau12i	$a1, %pc_hi20(.L.str)
	addi.d	$s0, $a1, %pc_lo12(.L.str)
	move	$a1, $zero
	move	$a3, $s0
	move	$a4, $zero
	pcaddu18i	$ra, %call36(_ZNSt7__cxx1112basic_stringIcSt11char_traitsIcESaIcEE10_M_replaceEmmPKcm)
	jirl	$ra, $ra, 0
	ld.d	$a2, $fp, 104
	addi.d	$a0, $fp, 96
	pcalau12i	$a1, %pc_hi20(.L.str.1)
	addi.d	$a3, $a1, %pc_lo12(.L.str.1)
	ori	$a4, $zero, 2
	move	$a1, $zero
	pcaddu18i	$ra, %call36(_ZNSt7__cxx1112basic_stringIcSt11char_traitsIcESaIcEE10_M_replaceEmmPKcm)
	jirl	$ra, $ra, 0
	ld.d	$a2, $fp, 136
	addi.d	$a0, $fp, 128
	pcalau12i	$a1, %pc_hi20(.L.str.2)
	addi.d	$a3, $a1, %pc_lo12(.L.str.2)
	ori	$a4, $zero, 14
	move	$a1, $zero
	pcaddu18i	$ra, %call36(_ZNSt7__cxx1112basic_stringIcSt11char_traitsIcESaIcEE10_M_replaceEmmPKcm)
	jirl	$ra, $ra, 0
	ld.d	$a2, $fp, 16
	st.d	$zero, $fp, 0
	addi.d	$a0, $fp, 8
	vrepli.b	$vr0, 0
	vst	$vr0, $fp, 80
	move	$a1, $zero
	move	$a3, $s0
	move	$a4, $zero
	ld.d	$s0, $sp, 8                     # 8-byte Folded Reload
	ld.d	$fp, $sp, 16                    # 8-byte Folded Reload
	ld.d	$ra, $sp, 24                    # 8-byte Folded Reload
	addi.d	$sp, $sp, 32
	pcaddu18i	$t8, %call36(_ZNSt7__cxx1112basic_stringIcSt11char_traitsIcESaIcEE10_M_replaceEmmPKcm)
	jr	$t8
.Lfunc_end1:
	.size	_ZN2PP3Cmd4initEv, .Lfunc_end1-_ZN2PP3Cmd4initEv
	.cfi_endproc
                                        # -- End function
	.section	.text._ZNSt13_Bvector_baseISaIbEED2Ev,"axG",@progbits,_ZNSt13_Bvector_baseISaIbEED2Ev,comdat
	.weak	_ZNSt13_Bvector_baseISaIbEED2Ev # -- Begin function _ZNSt13_Bvector_baseISaIbEED2Ev
	.p2align	5
	.type	_ZNSt13_Bvector_baseISaIbEED2Ev,@function
_ZNSt13_Bvector_baseISaIbEED2Ev:        # @_ZNSt13_Bvector_baseISaIbEED2Ev
	.cfi_startproc
# %bb.0:
	ld.d	$a2, $a0, 0
	beqz	$a2, .LBB2_2
# %bb.1:
	addi.d	$sp, $sp, -16
	.cfi_def_cfa_offset 16
	st.d	$ra, $sp, 8                     # 8-byte Folded Spill
	st.d	$fp, $sp, 0                     # 8-byte Folded Spill
	.cfi_offset 1, -8
	.cfi_offset 22, -16
	ld.d	$a1, $a0, 32
	sub.d	$a1, $a1, $a2
	move	$fp, $a0
	move	$a0, $a2
	pcaddu18i	$ra, %call36(_ZdlPvm)
	jirl	$ra, $ra, 0
	st.d	$zero, $fp, 0
	st.w	$zero, $fp, 8
	st.d	$zero, $fp, 16
	st.w	$zero, $fp, 24
	st.d	$zero, $fp, 32
	ld.d	$fp, $sp, 0                     # 8-byte Folded Reload
	ld.d	$ra, $sp, 8                     # 8-byte Folded Reload
	addi.d	$sp, $sp, 16
.LBB2_2:                                # %_ZNSt13_Bvector_baseISaIbEE13_M_deallocateEv.exit
	ret
.Lfunc_end2:
	.size	_ZNSt13_Bvector_baseISaIbEED2Ev, .Lfunc_end2-_ZNSt13_Bvector_baseISaIbEED2Ev
	.cfi_endproc
                                        # -- End function
	.section	.text._ZNSt6vectorINSt7__cxx1112basic_stringIcSt11char_traitsIcESaIcEEESaIS5_EED2Ev,"axG",@progbits,_ZNSt6vectorINSt7__cxx1112basic_stringIcSt11char_traitsIcESaIcEEESaIS5_EED2Ev,comdat
	.weak	_ZNSt6vectorINSt7__cxx1112basic_stringIcSt11char_traitsIcESaIcEEESaIS5_EED2Ev # -- Begin function _ZNSt6vectorINSt7__cxx1112basic_stringIcSt11char_traitsIcESaIcEEESaIS5_EED2Ev
	.p2align	5
	.type	_ZNSt6vectorINSt7__cxx1112basic_stringIcSt11char_traitsIcESaIcEEESaIS5_EED2Ev,@function
_ZNSt6vectorINSt7__cxx1112basic_stringIcSt11char_traitsIcESaIcEEESaIS5_EED2Ev: # @_ZNSt6vectorINSt7__cxx1112basic_stringIcSt11char_traitsIcESaIcEEESaIS5_EED2Ev
	.cfi_startproc
# %bb.0:
	addi.d	$sp, $sp, -32
	.cfi_def_cfa_offset 32
	st.d	$ra, $sp, 24                    # 8-byte Folded Spill
	st.d	$fp, $sp, 16                    # 8-byte Folded Spill
	st.d	$s0, $sp, 8                     # 8-byte Folded Spill
	st.d	$s1, $sp, 0                     # 8-byte Folded Spill
	.cfi_offset 1, -8
	.cfi_offset 22, -16
	.cfi_offset 23, -24
	.cfi_offset 24, -32
	move	$fp, $a0
	ld.d	$a0, $a0, 0
	ld.d	$s0, $fp, 8
	beq	$a0, $s0, .LBB3_6
# %bb.1:                                # %.lr.ph.i.i.preheader
	addi.d	$s1, $a0, 16
	b	.LBB3_3
	.p2align	4, , 16
.LBB3_2:                                # %_ZSt8_DestroyINSt7__cxx1112basic_stringIcSt11char_traitsIcESaIcEEEEvPT_.exit.i.i
                                        #   in Loop: Header=BB3_3 Depth=1
	addi.d	$a0, $s1, 16
	addi.d	$s1, $s1, 32
	beq	$a0, $s0, .LBB3_5
.LBB3_3:                                # %.lr.ph.i.i
                                        # =>This Inner Loop Header: Depth=1
	ld.d	$a0, $s1, -16
	beq	$s1, $a0, .LBB3_2
# %bb.4:                                # %_ZNKSt7__cxx1112basic_stringIcSt11char_traitsIcESaIcEE11_M_is_localEv.exit.i.i.i.i.i
                                        #   in Loop: Header=BB3_3 Depth=1
	ld.d	$a1, $s1, 0
	addi.d	$a1, $a1, 1
	pcaddu18i	$ra, %call36(_ZdlPvm)
	jirl	$ra, $ra, 0
	b	.LBB3_2
.LBB3_5:                                # %_ZSt8_DestroyIPNSt7__cxx1112basic_stringIcSt11char_traitsIcESaIcEEES5_EvT_S7_RSaIT0_E.exitthread-pre-split
	ld.d	$a0, $fp, 0
.LBB3_6:                                # %_ZSt8_DestroyIPNSt7__cxx1112basic_stringIcSt11char_traitsIcESaIcEEES5_EvT_S7_RSaIT0_E.exit
	beqz	$a0, .LBB3_8
# %bb.7:
	ld.d	$a1, $fp, 16
	sub.d	$a1, $a1, $a0
	ld.d	$s1, $sp, 0                     # 8-byte Folded Reload
	ld.d	$s0, $sp, 8                     # 8-byte Folded Reload
	ld.d	$fp, $sp, 16                    # 8-byte Folded Reload
	ld.d	$ra, $sp, 24                    # 8-byte Folded Reload
	addi.d	$sp, $sp, 32
	pcaddu18i	$t8, %call36(_ZdlPvm)
	jr	$t8
.LBB3_8:                                # %_ZNSt12_Vector_baseINSt7__cxx1112basic_stringIcSt11char_traitsIcESaIcEEESaIS5_EED2Ev.exit
	ld.d	$s1, $sp, 0                     # 8-byte Folded Reload
	ld.d	$s0, $sp, 8                     # 8-byte Folded Reload
	ld.d	$fp, $sp, 16                    # 8-byte Folded Reload
	ld.d	$ra, $sp, 24                    # 8-byte Folded Reload
	addi.d	$sp, $sp, 32
	ret
.Lfunc_end3:
	.size	_ZNSt6vectorINSt7__cxx1112basic_stringIcSt11char_traitsIcESaIcEEESaIS5_EED2Ev, .Lfunc_end3-_ZNSt6vectorINSt7__cxx1112basic_stringIcSt11char_traitsIcESaIcEEESaIS5_EED2Ev
	.cfi_endproc
                                        # -- End function
	.section	.text._ZNSt5dequeIN2PP4WordESaIS1_EED2Ev,"axG",@progbits,_ZNSt5dequeIN2PP4WordESaIS1_EED2Ev,comdat
	.weak	_ZNSt5dequeIN2PP4WordESaIS1_EED2Ev # -- Begin function _ZNSt5dequeIN2PP4WordESaIS1_EED2Ev
	.p2align	5
	.type	_ZNSt5dequeIN2PP4WordESaIS1_EED2Ev,@function
_ZNSt5dequeIN2PP4WordESaIS1_EED2Ev:     # @_ZNSt5dequeIN2PP4WordESaIS1_EED2Ev
.Lfunc_begin1:
	.cfi_startproc
	.cfi_personality 155, DW.ref.__gxx_personality_v0
	.cfi_lsda 27, .Lexception1
# %bb.0:
	addi.d	$sp, $sp, -96
	.cfi_def_cfa_offset 96
	st.d	$ra, $sp, 88                    # 8-byte Folded Spill
	st.d	$fp, $sp, 80                    # 8-byte Folded Spill
	st.d	$s0, $sp, 72                    # 8-byte Folded Spill
	st.d	$s1, $sp, 64                    # 8-byte Folded Spill
	.cfi_offset 1, -8
	.cfi_offset 22, -16
	.cfi_offset 23, -24
	.cfi_offset 24, -32
	move	$fp, $a0
	vld	$vr0, $a0, 16
	vld	$vr1, $a0, 32
	vld	$vr2, $a0, 48
	vld	$vr3, $a0, 64
	vst	$vr0, $sp, 32
	vst	$vr1, $sp, 48
	vst	$vr2, $sp, 0
	vst	$vr3, $sp, 16
.Ltmp12:
	addi.d	$a1, $sp, 32
	addi.d	$a2, $sp, 0
	pcaddu18i	$ra, %call36(_ZNSt5dequeIN2PP4WordESaIS1_EE19_M_destroy_data_auxESt15_Deque_iteratorIS1_RS1_PS1_ES7_)
	jirl	$ra, $ra, 0
.Ltmp13:
# %bb.1:
	ld.d	$a0, $fp, 0
	beqz	$a0, .LBB4_7
# %bb.2:
	ld.d	$s0, $fp, 72
	ld.d	$a1, $fp, 40
	addi.d	$a2, $s0, 8
	bgeu	$a1, $a2, .LBB4_6
# %bb.3:                                # %.lr.ph.i.i.preheader
	addi.d	$a1, $a1, -8
	.p2align	4, , 16
.LBB4_4:                                # %.lr.ph.i.i
                                        # =>This Inner Loop Header: Depth=1
	ld.d	$a0, $a1, 8
	addi.d	$s1, $a1, 8
	ori	$a1, $zero, 512
	pcaddu18i	$ra, %call36(_ZdlPvm)
	jirl	$ra, $ra, 0
	move	$a1, $s1
	bltu	$s1, $s0, .LBB4_4
# %bb.5:                                # %_ZNSt11_Deque_baseIN2PP4WordESaIS1_EE16_M_destroy_nodesEPPS1_S5_.exit.loopexit.i
	ld.d	$a0, $fp, 0
.LBB4_6:                                # %_ZNSt11_Deque_baseIN2PP4WordESaIS1_EE16_M_destroy_nodesEPPS1_S5_.exit.i
	ld.d	$a1, $fp, 8
	slli.d	$a1, $a1, 3
	pcaddu18i	$ra, %call36(_ZdlPvm)
	jirl	$ra, $ra, 0
.LBB4_7:                                # %_ZNSt11_Deque_baseIN2PP4WordESaIS1_EED2Ev.exit
	ld.d	$s1, $sp, 64                    # 8-byte Folded Reload
	ld.d	$s0, $sp, 72                    # 8-byte Folded Reload
	ld.d	$fp, $sp, 80                    # 8-byte Folded Reload
	ld.d	$ra, $sp, 88                    # 8-byte Folded Reload
	addi.d	$sp, $sp, 96
	ret
.LBB4_8:
.Ltmp14:
	pcaddu18i	$ra, %call36(__clang_call_terminate)
	jirl	$ra, $ra, 0
.Lfunc_end4:
	.size	_ZNSt5dequeIN2PP4WordESaIS1_EED2Ev, .Lfunc_end4-_ZNSt5dequeIN2PP4WordESaIS1_EED2Ev
	.cfi_endproc
	.section	.gcc_except_table._ZNSt5dequeIN2PP4WordESaIS1_EED2Ev,"aG",@progbits,_ZNSt5dequeIN2PP4WordESaIS1_EED2Ev,comdat
	.p2align	2, 0x0
GCC_except_table4:
.Lexception1:
	.byte	255                             # @LPStart Encoding = omit
	.byte	155                             # @TType Encoding = indirect pcrel sdata4
	.uleb128 .Lttbase0-.Lttbaseref0
.Lttbaseref0:
	.byte	1                               # Call site Encoding = uleb128
	.uleb128 .Lcst_end1-.Lcst_begin1
.Lcst_begin1:
	.uleb128 .Ltmp12-.Lfunc_begin1          # >> Call Site 1 <<
	.uleb128 .Ltmp13-.Ltmp12                #   Call between .Ltmp12 and .Ltmp13
	.uleb128 .Ltmp14-.Lfunc_begin1          #     jumps to .Ltmp14
	.byte	1                               #   On action: 1
	.uleb128 .Ltmp13-.Lfunc_begin1          # >> Call Site 2 <<
	.uleb128 .Lfunc_end4-.Ltmp13            #   Call between .Ltmp13 and .Lfunc_end4
	.byte	0                               #     has no landing pad
	.byte	0                               #   On action: cleanup
.Lcst_end1:
	.byte	1                               # >> Action Record 1 <<
                                        #   Catch TypeInfo 1
	.byte	0                               #   No further actions
	.p2align	2, 0x0
                                        # >> Catch TypeInfos <<
	.word	0                               # TypeInfo 1
.Lttbase0:
	.p2align	2, 0x0
                                        # -- End function
	.text
	.globl	_ZN2PP3CmdC2ENSt7__cxx1112basic_stringIcSt11char_traitsIcESaIcEEEPSt3mapIS6_NS_8VariableESt4lessIS6_ESaISt4pairIKS6_S8_EEEPS7_IS6_NS_8FunctionESA_SaISB_ISC_SH_EEEPSt5dequeIS6_SaIS6_EEiiS6_RNS1_18basic_stringstreamIcS4_S5_EERi # -- Begin function _ZN2PP3CmdC2ENSt7__cxx1112basic_stringIcSt11char_traitsIcESaIcEEEPSt3mapIS6_NS_8VariableESt4lessIS6_ESaISt4pairIKS6_S8_EEEPS7_IS6_NS_8FunctionESA_SaISB_ISC_SH_EEEPSt5dequeIS6_SaIS6_EEiiS6_RNS1_18basic_stringstreamIcS4_S5_EERi
	.p2align	5
	.type	_ZN2PP3CmdC2ENSt7__cxx1112basic_stringIcSt11char_traitsIcESaIcEEEPSt3mapIS6_NS_8VariableESt4lessIS6_ESaISt4pairIKS6_S8_EEEPS7_IS6_NS_8FunctionESA_SaISB_ISC_SH_EEEPSt5dequeIS6_SaIS6_EEiiS6_RNS1_18basic_stringstreamIcS4_S5_EERi,@function
_ZN2PP3CmdC2ENSt7__cxx1112basic_stringIcSt11char_traitsIcESaIcEEEPSt3mapIS6_NS_8VariableESt4lessIS6_ESaISt4pairIKS6_S8_EEEPS7_IS6_NS_8FunctionESA_SaISB_ISC_SH_EEEPSt5dequeIS6_SaIS6_EEiiS6_RNS1_18basic_stringstreamIcS4_S5_EERi: # @_ZN2PP3CmdC2ENSt7__cxx1112basic_stringIcSt11char_traitsIcESaIcEEEPSt3mapIS6_NS_8VariableESt4lessIS6_ESaISt4pairIKS6_S8_EEEPS7_IS6_NS_8FunctionESA_SaISB_ISC_SH_EEEPSt5dequeIS6_SaIS6_EEiiS6_RNS1_18basic_stringstreamIcS4_S5_EERi
.Lfunc_begin2:
	.cfi_startproc
	.cfi_personality 155, DW.ref.__gxx_personality_v0
	.cfi_lsda 27, .Lexception2
# %bb.0:
	addi.d	$sp, $sp, -224
	.cfi_def_cfa_offset 224
	st.d	$ra, $sp, 216                   # 8-byte Folded Spill
	st.d	$fp, $sp, 208                   # 8-byte Folded Spill
	st.d	$s0, $sp, 200                   # 8-byte Folded Spill
	st.d	$s1, $sp, 192                   # 8-byte Folded Spill
	st.d	$s2, $sp, 184                   # 8-byte Folded Spill
	st.d	$s3, $sp, 176                   # 8-byte Folded Spill
	st.d	$s4, $sp, 168                   # 8-byte Folded Spill
	st.d	$s5, $sp, 160                   # 8-byte Folded Spill
	st.d	$s6, $sp, 152                   # 8-byte Folded Spill
	st.d	$s7, $sp, 144                   # 8-byte Folded Spill
	st.d	$s8, $sp, 136                   # 8-byte Folded Spill
	.cfi_offset 1, -8
	.cfi_offset 22, -16
	.cfi_offset 23, -24
	.cfi_offset 24, -32
	.cfi_offset 25, -40
	.cfi_offset 26, -48
	.cfi_offset 27, -56
	.cfi_offset 28, -64
	.cfi_offset 29, -72
	.cfi_offset 30, -80
	.cfi_offset 31, -88
	move	$s7, $a7
	move	$s8, $a6
	move	$s1, $a5
	move	$s6, $a4
	move	$s2, $a3
	move	$fp, $a2
	move	$s5, $a1
	move	$s3, $a0
	addi.d	$a0, $a0, 8
	st.d	$a0, $sp, 88                    # 8-byte Folded Spill
	addi.d	$a0, $s3, 24
	st.d	$a0, $sp, 40                    # 8-byte Folded Spill
	st.d	$a0, $s3, 8
	st.d	$zero, $s3, 16
	st.b	$zero, $s3, 24
	addi.d	$s0, $s3, 48
	addi.d	$a0, $s3, 64
	st.d	$a0, $sp, 32                    # 8-byte Folded Spill
	st.d	$a0, $s3, 48
	st.d	$zero, $s3, 56
	st.b	$zero, $s3, 64
	addi.d	$a0, $s3, 96
	st.d	$a0, $sp, 80                    # 8-byte Folded Spill
	addi.d	$a0, $s3, 112
	st.d	$a0, $sp, 24                    # 8-byte Folded Spill
	st.d	$a0, $s3, 96
	st.d	$zero, $s3, 104
	st.b	$zero, $s3, 112
	addi.d	$a0, $s3, 128
	st.d	$a0, $sp, 72                    # 8-byte Folded Spill
	addi.d	$a0, $s3, 144
	st.d	$a0, $sp, 16                    # 8-byte Folded Spill
	st.d	$a0, $s3, 128
	st.d	$zero, $s3, 136
	st.b	$zero, $s3, 144
	addi.d	$s4, $s3, 160
	ori	$a2, $zero, 80
	move	$a0, $s4
	move	$a1, $zero
	pcaddu18i	$ra, %call36(memset)
	jirl	$ra, $ra, 0
.Ltmp15:
	move	$a0, $s4
	move	$a1, $zero
	pcaddu18i	$ra, %call36(_ZNSt11_Deque_baseIN2PP4WordESaIS1_EE17_M_initialize_mapEm)
	jirl	$ra, $ra, 0
.Ltmp16:
# %bb.1:                                # %_ZNSt5dequeIN2PP4WordESaIS1_EEC2Ev.exit
	addi.d	$a0, $s3, 256
	st.d	$a0, $sp, 8                     # 8-byte Folded Spill
	st.d	$a0, $s3, 240
	st.d	$zero, $s3, 248
	st.b	$zero, $s3, 256
	addi.d	$a0, $s3, 288
	st.d	$a0, $sp, 0                     # 8-byte Folded Spill
	st.d	$a0, $s3, 272
	st.d	$zero, $s3, 280
	st.b	$zero, $s3, 288
	st.d	$zero, $s3, 368
	st.w	$zero, $s3, 376
	st.d	$zero, $s3, 408
	st.w	$zero, $s3, 416
	st.d	$zero, $s3, 424
	st.d	$zero, $s3, 304
	vrepli.b	$vr0, 0
	vst	$vr0, $s3, 312
	vst	$vr0, $s3, 328
	vst	$vr0, $s3, 344
	ld.d	$a2, $s3, 56
	st.w	$zero, $s3, 360
	vst	$vr0, $sp, 48                   # 16-byte Folded Spill
	vst	$vr0, $s3, 384
	st.w	$zero, $s3, 400
.Ltmp18:
	pcalau12i	$a0, %pc_hi20(.L.str)
	addi.d	$a3, $a0, %pc_lo12(.L.str)
	move	$a0, $s0
	move	$a1, $zero
	move	$a4, $zero
	pcaddu18i	$ra, %call36(_ZNSt7__cxx1112basic_stringIcSt11char_traitsIcESaIcEE10_M_replaceEmmPKcm)
	jirl	$ra, $ra, 0
.Ltmp19:
# %bb.2:                                # %.noexc
	ld.d	$a2, $s3, 104
.Ltmp20:
	pcalau12i	$a0, %pc_hi20(.L.str.1)
	addi.d	$a3, $a0, %pc_lo12(.L.str.1)
	ori	$a4, $zero, 2
	ld.d	$a0, $sp, 80                    # 8-byte Folded Reload
	move	$a1, $zero
	pcaddu18i	$ra, %call36(_ZNSt7__cxx1112basic_stringIcSt11char_traitsIcESaIcEE10_M_replaceEmmPKcm)
	jirl	$ra, $ra, 0
.Ltmp21:
# %bb.3:                                # %.noexc13
	ld.d	$a2, $s3, 136
.Ltmp22:
	pcalau12i	$a0, %pc_hi20(.L.str.2)
	addi.d	$a3, $a0, %pc_lo12(.L.str.2)
	ori	$a4, $zero, 14
	ld.d	$a0, $sp, 72                    # 8-byte Folded Reload
	move	$a1, $zero
	pcaddu18i	$ra, %call36(_ZNSt7__cxx1112basic_stringIcSt11char_traitsIcESaIcEE10_M_replaceEmmPKcm)
	jirl	$ra, $ra, 0
.Ltmp23:
# %bb.4:                                # %.noexc14
	ld.d	$a2, $s3, 16
	st.d	$zero, $s3, 0
	vld	$vr0, $sp, 48                   # 16-byte Folded Reload
	vst	$vr0, $s3, 80
.Ltmp24:
	pcalau12i	$a0, %pc_hi20(.L.str)
	addi.d	$a3, $a0, %pc_lo12(.L.str)
	ld.d	$a0, $sp, 88                    # 8-byte Folded Reload
	move	$a1, $zero
	move	$a4, $zero
	pcaddu18i	$ra, %call36(_ZNSt7__cxx1112basic_stringIcSt11char_traitsIcESaIcEE10_M_replaceEmmPKcm)
	jirl	$ra, $ra, 0
.Ltmp25:
# %bb.5:                                # %_ZN2PP3Cmd4initEv.exit
	st.d	$fp, $s3, 80
	st.d	$s2, $s3, 88
.Ltmp26:
	move	$a0, $s0
	move	$a1, $s5
	pcaddu18i	$ra, %call36(_ZNSt7__cxx1112basic_stringIcSt11char_traitsIcESaIcEE9_M_assignERKS4_)
	jirl	$ra, $ra, 0
.Ltmp27:
# %bb.6:                                # %_ZNSt7__cxx1112basic_stringIcSt11char_traitsIcESaIcEEaSERKS4_.exit
	st.w	$s1, $s3, 0
	st.w	$s8, $s3, 4
.Ltmp28:
	ld.d	$a0, $sp, 88                    # 8-byte Folded Reload
	move	$a1, $s7
	pcaddu18i	$ra, %call36(_ZNSt7__cxx1112basic_stringIcSt11char_traitsIcESaIcEE9_M_assignERKS4_)
	jirl	$ra, $ra, 0
.Ltmp29:
# %bb.7:                                # %_ZNSt7__cxx1112basic_stringIcSt11char_traitsIcESaIcEEaSERKS4_.exit18
	st.d	$s6, $s3, 40
	addi.d	$s2, $sp, 112
	ld.d	$fp, $s5, 8
	ld.d	$s1, $s5, 0
	st.d	$s2, $sp, 96
	ori	$a1, $zero, 16
	st.d	$fp, $sp, 128
	move	$a0, $s2
	bltu	$fp, $a1, .LBB5_10
# %bb.8:                                # %.noexc.i
.Ltmp30:
	addi.d	$a0, $sp, 96
	addi.d	$a1, $sp, 128
	move	$a2, $zero
	pcaddu18i	$ra, %call36(_ZNSt7__cxx1112basic_stringIcSt11char_traitsIcESaIcEE9_M_createERmm)
	jirl	$ra, $ra, 0
.Ltmp31:
# %bb.9:                                # %.noexc19
	ld.d	$a1, $sp, 128
	st.d	$a0, $sp, 96
	st.d	$a1, $sp, 112
.LBB5_10:                               # %._crit_edge.i.i
	ld.d	$a3, $sp, 232
	ld.d	$a2, $sp, 224
	beqz	$fp, .LBB5_14
# %bb.11:                               # %._crit_edge.i.i
	ori	$a1, $zero, 1
	bne	$fp, $a1, .LBB5_13
# %bb.12:
	ld.b	$a1, $s1, 0
	st.b	$a1, $a0, 0
	b	.LBB5_14
.LBB5_13:
	move	$a1, $s1
	move	$s1, $a2
	move	$a2, $fp
	move	$fp, $a3
	pcaddu18i	$ra, %call36(memcpy)
	jirl	$ra, $ra, 0
	move	$a2, $s1
	move	$a3, $fp
.LBB5_14:
	ld.d	$a0, $sp, 128
	ld.d	$a1, $sp, 96
	st.d	$a0, $sp, 104
	stx.b	$zero, $a1, $a0
.Ltmp33:
	addi.d	$a1, $sp, 96
	move	$a0, $s3
	pcaddu18i	$ra, %call36(_ZN2PP3Cmd14process_stringENSt7__cxx1112basic_stringIcSt11char_traitsIcESaIcEEERNS1_18basic_stringstreamIcS4_S5_EERi)
	jirl	$ra, $ra, 0
.Ltmp34:
# %bb.15:
	ld.d	$a0, $sp, 96
	beq	$a0, $s2, .LBB5_17
# %bb.16:                               # %_ZNKSt7__cxx1112basic_stringIcSt11char_traitsIcESaIcEE11_M_is_localEv.exit.i.i
	ld.d	$a1, $sp, 112
	addi.d	$a1, $a1, 1
	pcaddu18i	$ra, %call36(_ZdlPvm)
	jirl	$ra, $ra, 0
.LBB5_17:                               # %_ZNSt7__cxx1112basic_stringIcSt11char_traitsIcESaIcEED2Ev.exit
	ld.d	$s8, $sp, 136                   # 8-byte Folded Reload
	ld.d	$s7, $sp, 144                   # 8-byte Folded Reload
	ld.d	$s6, $sp, 152                   # 8-byte Folded Reload
	ld.d	$s5, $sp, 160                   # 8-byte Folded Reload
	ld.d	$s4, $sp, 168                   # 8-byte Folded Reload
	ld.d	$s3, $sp, 176                   # 8-byte Folded Reload
	ld.d	$s2, $sp, 184                   # 8-byte Folded Reload
	ld.d	$s1, $sp, 192                   # 8-byte Folded Reload
	ld.d	$s0, $sp, 200                   # 8-byte Folded Reload
	ld.d	$fp, $sp, 208                   # 8-byte Folded Reload
	ld.d	$ra, $sp, 216                   # 8-byte Folded Reload
	addi.d	$sp, $sp, 224
	ret
.LBB5_18:
.Ltmp35:
	ld.d	$a2, $sp, 96
	move	$fp, $a0
	beq	$a2, $s2, .LBB5_22
# %bb.19:                               # %_ZNKSt7__cxx1112basic_stringIcSt11char_traitsIcESaIcEE11_M_is_localEv.exit.i.i20
	ld.d	$a0, $sp, 112
	addi.d	$a1, $a0, 1
	move	$a0, $a2
	pcaddu18i	$ra, %call36(_ZdlPvm)
	jirl	$ra, $ra, 0
	b	.LBB5_22
.LBB5_20:
.Ltmp17:
	move	$fp, $a0
	b	.LBB5_27
.LBB5_21:
.Ltmp32:
	move	$fp, $a0
.LBB5_22:                               # %_ZNSt7__cxx1112basic_stringIcSt11char_traitsIcESaIcEED2Ev.exit22
	addi.d	$s1, $s3, 304
	addi.d	$s2, $s3, 328
	addi.d	$s5, $s3, 352
	addi.d	$a0, $s3, 392
	pcaddu18i	$ra, %call36(_ZNSt13_Bvector_baseISaIbEED2Ev)
	jirl	$ra, $ra, 0
	move	$a0, $s5
	pcaddu18i	$ra, %call36(_ZNSt13_Bvector_baseISaIbEED2Ev)
	jirl	$ra, $ra, 0
	move	$a0, $s2
	pcaddu18i	$ra, %call36(_ZNSt6vectorINSt7__cxx1112basic_stringIcSt11char_traitsIcESaIcEEESaIS5_EED2Ev)
	jirl	$ra, $ra, 0
	move	$a0, $s1
	pcaddu18i	$ra, %call36(_ZNSt6vectorINSt7__cxx1112basic_stringIcSt11char_traitsIcESaIcEEESaIS5_EED2Ev)
	jirl	$ra, $ra, 0
	ld.d	$a0, $s3, 272
	ld.d	$a1, $sp, 0                     # 8-byte Folded Reload
	beq	$a0, $a1, .LBB5_24
# %bb.23:                               # %_ZNKSt7__cxx1112basic_stringIcSt11char_traitsIcESaIcEE11_M_is_localEv.exit.i.i23
	ld.d	$a1, $sp, 0                     # 8-byte Folded Reload
	ld.d	$a1, $a1, 0
	addi.d	$a1, $a1, 1
	pcaddu18i	$ra, %call36(_ZdlPvm)
	jirl	$ra, $ra, 0
.LBB5_24:                               # %_ZNSt7__cxx1112basic_stringIcSt11char_traitsIcESaIcEED2Ev.exit25
	ld.d	$a0, $s3, 240
	ld.d	$a1, $sp, 8                     # 8-byte Folded Reload
	beq	$a0, $a1, .LBB5_26
# %bb.25:                               # %_ZNKSt7__cxx1112basic_stringIcSt11char_traitsIcESaIcEE11_M_is_localEv.exit.i.i26
	ld.d	$a1, $sp, 8                     # 8-byte Folded Reload
	ld.d	$a1, $a1, 0
	addi.d	$a1, $a1, 1
	pcaddu18i	$ra, %call36(_ZdlPvm)
	jirl	$ra, $ra, 0
.LBB5_26:                               # %_ZNSt7__cxx1112basic_stringIcSt11char_traitsIcESaIcEED2Ev.exit28
	move	$a0, $s4
	pcaddu18i	$ra, %call36(_ZNSt5dequeIN2PP4WordESaIS1_EED2Ev)
	jirl	$ra, $ra, 0
.LBB5_27:
	ld.d	$a0, $sp, 72                    # 8-byte Folded Reload
	ld.d	$a0, $a0, 0
	ld.d	$a1, $sp, 16                    # 8-byte Folded Reload
	bne	$a0, $a1, .LBB5_32
# %bb.28:                               # %_ZNSt7__cxx1112basic_stringIcSt11char_traitsIcESaIcEED2Ev.exit31
	ld.d	$a0, $sp, 80                    # 8-byte Folded Reload
	ld.d	$a0, $a0, 0
	ld.d	$a1, $sp, 24                    # 8-byte Folded Reload
	bne	$a0, $a1, .LBB5_33
.LBB5_29:                               # %_ZNSt7__cxx1112basic_stringIcSt11char_traitsIcESaIcEED2Ev.exit34
	ld.d	$a0, $s0, 0
	ld.d	$a1, $sp, 32                    # 8-byte Folded Reload
	bne	$a0, $a1, .LBB5_34
.LBB5_30:                               # %_ZNSt7__cxx1112basic_stringIcSt11char_traitsIcESaIcEED2Ev.exit37
	ld.d	$a0, $sp, 88                    # 8-byte Folded Reload
	ld.d	$a0, $a0, 0
	ld.d	$a1, $sp, 40                    # 8-byte Folded Reload
	bne	$a0, $a1, .LBB5_35
.LBB5_31:                               # %_ZNSt7__cxx1112basic_stringIcSt11char_traitsIcESaIcEED2Ev.exit40
	move	$a0, $fp
	pcaddu18i	$ra, %call36(_Unwind_Resume)
	jirl	$ra, $ra, 0
.LBB5_32:                               # %_ZNKSt7__cxx1112basic_stringIcSt11char_traitsIcESaIcEE11_M_is_localEv.exit.i.i29
	ld.d	$a1, $sp, 16                    # 8-byte Folded Reload
	ld.d	$a1, $a1, 0
	addi.d	$a1, $a1, 1
	pcaddu18i	$ra, %call36(_ZdlPvm)
	jirl	$ra, $ra, 0
	ld.d	$a0, $sp, 80                    # 8-byte Folded Reload
	ld.d	$a0, $a0, 0
	ld.d	$a1, $sp, 24                    # 8-byte Folded Reload
	beq	$a0, $a1, .LBB5_29
.LBB5_33:                               # %_ZNKSt7__cxx1112basic_stringIcSt11char_traitsIcESaIcEE11_M_is_localEv.exit.i.i32
	ld.d	$a1, $sp, 24                    # 8-byte Folded Reload
	ld.d	$a1, $a1, 0
	addi.d	$a1, $a1, 1
	pcaddu18i	$ra, %call36(_ZdlPvm)
	jirl	$ra, $ra, 0
	ld.d	$a0, $s0, 0
	ld.d	$a1, $sp, 32                    # 8-byte Folded Reload
	beq	$a0, $a1, .LBB5_30
.LBB5_34:                               # %_ZNKSt7__cxx1112basic_stringIcSt11char_traitsIcESaIcEE11_M_is_localEv.exit.i.i35
	ld.d	$a1, $sp, 32                    # 8-byte Folded Reload
	ld.d	$a1, $a1, 0
	addi.d	$a1, $a1, 1
	pcaddu18i	$ra, %call36(_ZdlPvm)
	jirl	$ra, $ra, 0
	ld.d	$a0, $sp, 88                    # 8-byte Folded Reload
	ld.d	$a0, $a0, 0
	ld.d	$a1, $sp, 40                    # 8-byte Folded Reload
	beq	$a0, $a1, .LBB5_31
.LBB5_35:                               # %_ZNKSt7__cxx1112basic_stringIcSt11char_traitsIcESaIcEE11_M_is_localEv.exit.i.i38
	ld.d	$a1, $sp, 40                    # 8-byte Folded Reload
	ld.d	$a1, $a1, 0
	addi.d	$a1, $a1, 1
	pcaddu18i	$ra, %call36(_ZdlPvm)
	jirl	$ra, $ra, 0
	move	$a0, $fp
	pcaddu18i	$ra, %call36(_Unwind_Resume)
	jirl	$ra, $ra, 0
.Lfunc_end5:
	.size	_ZN2PP3CmdC2ENSt7__cxx1112basic_stringIcSt11char_traitsIcESaIcEEEPSt3mapIS6_NS_8VariableESt4lessIS6_ESaISt4pairIKS6_S8_EEEPS7_IS6_NS_8FunctionESA_SaISB_ISC_SH_EEEPSt5dequeIS6_SaIS6_EEiiS6_RNS1_18basic_stringstreamIcS4_S5_EERi, .Lfunc_end5-_ZN2PP3CmdC2ENSt7__cxx1112basic_stringIcSt11char_traitsIcESaIcEEEPSt3mapIS6_NS_8VariableESt4lessIS6_ESaISt4pairIKS6_S8_EEEPS7_IS6_NS_8FunctionESA_SaISB_ISC_SH_EEEPSt5dequeIS6_SaIS6_EEiiS6_RNS1_18basic_stringstreamIcS4_S5_EERi
	.cfi_endproc
	.section	.gcc_except_table,"a",@progbits
	.p2align	2, 0x0
GCC_except_table5:
.Lexception2:
	.byte	255                             # @LPStart Encoding = omit
	.byte	255                             # @TType Encoding = omit
	.byte	1                               # Call site Encoding = uleb128
	.uleb128 .Lcst_end2-.Lcst_begin2
.Lcst_begin2:
	.uleb128 .Lfunc_begin2-.Lfunc_begin2    # >> Call Site 1 <<
	.uleb128 .Ltmp15-.Lfunc_begin2          #   Call between .Lfunc_begin2 and .Ltmp15
	.byte	0                               #     has no landing pad
	.byte	0                               #   On action: cleanup
	.uleb128 .Ltmp15-.Lfunc_begin2          # >> Call Site 2 <<
	.uleb128 .Ltmp16-.Ltmp15                #   Call between .Ltmp15 and .Ltmp16
	.uleb128 .Ltmp17-.Lfunc_begin2          #     jumps to .Ltmp17
	.byte	0                               #   On action: cleanup
	.uleb128 .Ltmp18-.Lfunc_begin2          # >> Call Site 3 <<
	.uleb128 .Ltmp31-.Ltmp18                #   Call between .Ltmp18 and .Ltmp31
	.uleb128 .Ltmp32-.Lfunc_begin2          #     jumps to .Ltmp32
	.byte	0                               #   On action: cleanup
	.uleb128 .Ltmp31-.Lfunc_begin2          # >> Call Site 4 <<
	.uleb128 .Ltmp33-.Ltmp31                #   Call between .Ltmp31 and .Ltmp33
	.byte	0                               #     has no landing pad
	.byte	0                               #   On action: cleanup
	.uleb128 .Ltmp33-.Lfunc_begin2          # >> Call Site 5 <<
	.uleb128 .Ltmp34-.Ltmp33                #   Call between .Ltmp33 and .Ltmp34
	.uleb128 .Ltmp35-.Lfunc_begin2          #     jumps to .Ltmp35
	.byte	0                               #   On action: cleanup
	.uleb128 .Ltmp34-.Lfunc_begin2          # >> Call Site 6 <<
	.uleb128 .Lfunc_end5-.Ltmp34            #   Call between .Ltmp34 and .Lfunc_end5
	.byte	0                               #     has no landing pad
	.byte	0                               #   On action: cleanup
.Lcst_end2:
	.p2align	2, 0x0
                                        # -- End function
	.text
	.globl	_ZN2PP3Cmd14process_stringENSt7__cxx1112basic_stringIcSt11char_traitsIcESaIcEEERNS1_18basic_stringstreamIcS4_S5_EERi # -- Begin function _ZN2PP3Cmd14process_stringENSt7__cxx1112basic_stringIcSt11char_traitsIcESaIcEEERNS1_18basic_stringstreamIcS4_S5_EERi
	.p2align	5
	.type	_ZN2PP3Cmd14process_stringENSt7__cxx1112basic_stringIcSt11char_traitsIcESaIcEEERNS1_18basic_stringstreamIcS4_S5_EERi,@function
_ZN2PP3Cmd14process_stringENSt7__cxx1112basic_stringIcSt11char_traitsIcESaIcEEERNS1_18basic_stringstreamIcS4_S5_EERi: # @_ZN2PP3Cmd14process_stringENSt7__cxx1112basic_stringIcSt11char_traitsIcESaIcEEERNS1_18basic_stringstreamIcS4_S5_EERi
.Lfunc_begin3:
	.cfi_startproc
	.cfi_personality 155, DW.ref.__gxx_personality_v0
	.cfi_lsda 27, .Lexception3
# %bb.0:
	addi.d	$sp, $sp, -352
	.cfi_def_cfa_offset 352
	st.d	$ra, $sp, 344                   # 8-byte Folded Spill
	st.d	$fp, $sp, 336                   # 8-byte Folded Spill
	st.d	$s0, $sp, 328                   # 8-byte Folded Spill
	st.d	$s1, $sp, 320                   # 8-byte Folded Spill
	st.d	$s2, $sp, 312                   # 8-byte Folded Spill
	st.d	$s3, $sp, 304                   # 8-byte Folded Spill
	st.d	$s4, $sp, 296                   # 8-byte Folded Spill
	st.d	$s5, $sp, 288                   # 8-byte Folded Spill
	st.d	$s6, $sp, 280                   # 8-byte Folded Spill
	st.d	$s7, $sp, 272                   # 8-byte Folded Spill
	st.d	$s8, $sp, 264                   # 8-byte Folded Spill
	.cfi_offset 1, -8
	.cfi_offset 22, -16
	.cfi_offset 23, -24
	.cfi_offset 24, -32
	.cfi_offset 25, -40
	.cfi_offset 26, -48
	.cfi_offset 27, -56
	.cfi_offset 28, -64
	.cfi_offset 29, -72
	.cfi_offset 30, -80
	.cfi_offset 31, -88
	st.d	$a1, $sp, 16                    # 8-byte Folded Spill
	move	$fp, $a0
	addi.d	$a0, $sp, 240
	st.d	$a0, $sp, 224
	st.d	$zero, $sp, 232
	st.b	$zero, $sp, 240
	st.w	$zero, $sp, 220
	addi.d	$s1, $fp, 128
	addi.d	$s8, $sp, 72
	addi.d	$s2, $sp, 40
	addi.d	$a0, $fp, 160
	st.d	$a0, $sp, 8                     # 8-byte Folded Spill
	pcalau12i	$a0, %pc_hi20(.L.str.2)
	addi.d	$s3, $a0, %pc_lo12(.L.str.2)
	ori	$s0, $zero, 16
	b	.LBB6_3
	.p2align	4, , 16
.LBB6_1:                                #   in Loop: Header=BB6_3 Depth=1
.Ltmp55:
	addi.d	$a1, $sp, 88
	ld.d	$a0, $sp, 8                     # 8-byte Folded Reload
	pcaddu18i	$ra, %call36(_ZNSt5dequeIN2PP4WordESaIS1_EE16_M_push_back_auxIJRKS1_EEEvDpOT_)
	jirl	$ra, $ra, 0
.Ltmp56:
.LBB6_2:                                # %_ZNSt5dequeIN2PP4WordESaIS1_EE9push_backERKS1_.exit
                                        #   in Loop: Header=BB6_3 Depth=1
	addi.d	$a0, $sp, 88
	pcaddu18i	$ra, %call36(_ZN2PP4WordD1Ev)
	jirl	$ra, $ra, 0
.LBB6_3:                                # =>This Inner Loop Header: Depth=1
	ld.d	$a2, $fp, 136
.Ltmp36:
	ori	$a4, $zero, 14
	move	$a0, $s1
	move	$a1, $zero
	move	$a3, $s3
	pcaddu18i	$ra, %call36(_ZNSt7__cxx1112basic_stringIcSt11char_traitsIcESaIcEE10_M_replaceEmmPKcm)
	jirl	$ra, $ra, 0
.Ltmp37:
# %bb.4:                                # %_ZNSt7__cxx1112basic_stringIcSt11char_traitsIcESaIcEEaSEPKc.exit
                                        #   in Loop: Header=BB6_3 Depth=1
.Ltmp38:
	addi.d	$a1, $sp, 220
	addi.d	$a3, $sp, 224
	move	$a0, $fp
	ld.d	$a2, $sp, 16                    # 8-byte Folded Reload
	pcaddu18i	$ra, %call36(_ZN2PP3Cmd17extract_next_wordERiRNSt7__cxx1112basic_stringIcSt11char_traitsIcESaIcEEES8_RNS2_18basic_stringstreamIcS5_S6_EES1_)
	jirl	$ra, $ra, 0
.Ltmp39:
# %bb.5:                                #   in Loop: Header=BB6_3 Depth=1
	beqz	$a0, .LBB6_28
# %bb.6:                                #   in Loop: Header=BB6_3 Depth=1
	ld.d	$s4, $sp, 232
	ld.d	$s5, $sp, 224
	st.d	$s8, $sp, 56
	st.d	$s4, $sp, 256
	move	$a0, $s8
	bltu	$s4, $s0, .LBB6_9
# %bb.7:                                # %.noexc.i
                                        #   in Loop: Header=BB6_3 Depth=1
.Ltmp44:
	addi.d	$a0, $sp, 56
	addi.d	$a1, $sp, 256
	move	$a2, $zero
	pcaddu18i	$ra, %call36(_ZNSt7__cxx1112basic_stringIcSt11char_traitsIcESaIcEE9_M_createERmm)
	jirl	$ra, $ra, 0
.Ltmp45:
# %bb.8:                                # %.noexc
                                        #   in Loop: Header=BB6_3 Depth=1
	ld.d	$a1, $sp, 256
	st.d	$a0, $sp, 56
	st.d	$a1, $sp, 72
.LBB6_9:                                # %._crit_edge.i.i
                                        #   in Loop: Header=BB6_3 Depth=1
	beqz	$s4, .LBB6_13
# %bb.10:                               # %._crit_edge.i.i
                                        #   in Loop: Header=BB6_3 Depth=1
	ori	$a1, $zero, 1
	bne	$s4, $a1, .LBB6_12
# %bb.11:                               #   in Loop: Header=BB6_3 Depth=1
	ld.b	$a1, $s5, 0
	st.b	$a1, $a0, 0
	b	.LBB6_13
	.p2align	4, , 16
.LBB6_12:                               #   in Loop: Header=BB6_3 Depth=1
	move	$a1, $s5
	move	$a2, $s4
	pcaddu18i	$ra, %call36(memcpy)
	jirl	$ra, $ra, 0
.LBB6_13:                               #   in Loop: Header=BB6_3 Depth=1
	ld.d	$a0, $sp, 256
	ld.d	$a1, $sp, 56
	st.d	$a0, $sp, 64
	stx.b	$zero, $a1, $a0
	ld.w	$s4, $fp, 0
	ld.w	$s5, $fp, 4
	ld.d	$s6, $fp, 16
	ld.d	$s7, $fp, 8
	st.d	$s2, $sp, 24
	st.d	$s6, $sp, 256
	move	$a0, $s2
	bltu	$s6, $s0, .LBB6_16
# %bb.14:                               # %.noexc.i13
                                        #   in Loop: Header=BB6_3 Depth=1
.Ltmp47:
	addi.d	$a0, $sp, 24
	addi.d	$a1, $sp, 256
	move	$a2, $zero
	pcaddu18i	$ra, %call36(_ZNSt7__cxx1112basic_stringIcSt11char_traitsIcESaIcEE9_M_createERmm)
	jirl	$ra, $ra, 0
.Ltmp48:
# %bb.15:                               # %.noexc14
                                        #   in Loop: Header=BB6_3 Depth=1
	ld.d	$a1, $sp, 256
	st.d	$a0, $sp, 24
	st.d	$a1, $sp, 40
.LBB6_16:                               # %._crit_edge.i.i12
                                        #   in Loop: Header=BB6_3 Depth=1
	beqz	$s6, .LBB6_20
# %bb.17:                               # %._crit_edge.i.i12
                                        #   in Loop: Header=BB6_3 Depth=1
	ori	$a1, $zero, 1
	bne	$s6, $a1, .LBB6_19
# %bb.18:                               #   in Loop: Header=BB6_3 Depth=1
	ld.b	$a1, $s7, 0
	st.b	$a1, $a0, 0
	b	.LBB6_20
	.p2align	4, , 16
.LBB6_19:                               #   in Loop: Header=BB6_3 Depth=1
	move	$a1, $s7
	move	$a2, $s6
	pcaddu18i	$ra, %call36(memcpy)
	jirl	$ra, $ra, 0
.LBB6_20:                               #   in Loop: Header=BB6_3 Depth=1
	ld.d	$a0, $sp, 256
	ld.d	$a1, $sp, 24
	st.d	$a0, $sp, 32
	stx.b	$zero, $a1, $a0
	ld.d	$a5, $fp, 40
.Ltmp50:
	addi.d	$a0, $sp, 88
	addi.d	$a1, $sp, 56
	addi.d	$a4, $sp, 24
	move	$a2, $s4
	move	$a3, $s5
	pcaddu18i	$ra, %call36(_ZN2PP4WordC1ENSt7__cxx1112basic_stringIcSt11char_traitsIcESaIcEEEiiS6_PSt5dequeIS6_SaIS6_EE)
	jirl	$ra, $ra, 0
.Ltmp51:
# %bb.21:                               #   in Loop: Header=BB6_3 Depth=1
	ld.d	$a0, $sp, 24
	beq	$a0, $s2, .LBB6_23
# %bb.22:                               # %_ZNKSt7__cxx1112basic_stringIcSt11char_traitsIcESaIcEE11_M_is_localEv.exit.i.i
                                        #   in Loop: Header=BB6_3 Depth=1
	ld.d	$a1, $sp, 40
	addi.d	$a1, $a1, 1
	pcaddu18i	$ra, %call36(_ZdlPvm)
	jirl	$ra, $ra, 0
.LBB6_23:                               # %_ZNSt7__cxx1112basic_stringIcSt11char_traitsIcESaIcEED2Ev.exit
                                        #   in Loop: Header=BB6_3 Depth=1
	ld.d	$a0, $sp, 56
	beq	$a0, $s8, .LBB6_25
# %bb.24:                               # %_ZNKSt7__cxx1112basic_stringIcSt11char_traitsIcESaIcEE11_M_is_localEv.exit.i.i16
                                        #   in Loop: Header=BB6_3 Depth=1
	ld.d	$a1, $sp, 72
	addi.d	$a1, $a1, 1
	pcaddu18i	$ra, %call36(_ZdlPvm)
	jirl	$ra, $ra, 0
.LBB6_25:                               # %_ZNSt7__cxx1112basic_stringIcSt11char_traitsIcESaIcEED2Ev.exit18
                                        #   in Loop: Header=BB6_3 Depth=1
	ld.d	$a1, $fp, 224
	ld.d	$a0, $fp, 208
	addi.d	$a1, $a1, -128
	beq	$a0, $a1, .LBB6_1
# %bb.26:                               #   in Loop: Header=BB6_3 Depth=1
.Ltmp53:
	addi.d	$a1, $sp, 88
	pcaddu18i	$ra, %call36(_ZN2PP4WordC1ERKS0_)
	jirl	$ra, $ra, 0
.Ltmp54:
# %bb.27:                               # %.noexc19
                                        #   in Loop: Header=BB6_3 Depth=1
	ld.d	$a0, $fp, 208
	addi.d	$a0, $a0, 128
	st.d	$a0, $fp, 208
	b	.LBB6_2
.LBB6_28:
.Ltmp41:
	move	$a0, $fp
	pcaddu18i	$ra, %call36(_ZN2PP3Cmd15reset_name_typeEv)
	jirl	$ra, $ra, 0
.Ltmp42:
# %bb.29:
	ld.d	$a0, $sp, 224
	addi.d	$a1, $sp, 240
	beq	$a0, $a1, .LBB6_31
# %bb.30:                               # %_ZNKSt7__cxx1112basic_stringIcSt11char_traitsIcESaIcEE11_M_is_localEv.exit.i.i27
	ld.d	$a1, $sp, 240
	addi.d	$a1, $a1, 1
	pcaddu18i	$ra, %call36(_ZdlPvm)
	jirl	$ra, $ra, 0
.LBB6_31:                               # %_ZNSt7__cxx1112basic_stringIcSt11char_traitsIcESaIcEED2Ev.exit29
	ld.d	$s8, $sp, 264                   # 8-byte Folded Reload
	ld.d	$s7, $sp, 272                   # 8-byte Folded Reload
	ld.d	$s6, $sp, 280                   # 8-byte Folded Reload
	ld.d	$s5, $sp, 288                   # 8-byte Folded Reload
	ld.d	$s4, $sp, 296                   # 8-byte Folded Reload
	ld.d	$s3, $sp, 304                   # 8-byte Folded Reload
	ld.d	$s2, $sp, 312                   # 8-byte Folded Reload
	ld.d	$s1, $sp, 320                   # 8-byte Folded Reload
	ld.d	$s0, $sp, 328                   # 8-byte Folded Reload
	ld.d	$fp, $sp, 336                   # 8-byte Folded Reload
	ld.d	$ra, $sp, 344                   # 8-byte Folded Reload
	addi.d	$sp, $sp, 352
	ret
.LBB6_32:                               # %.loopexit.split-lp
.Ltmp43:
	move	$fp, $a0
	addi.d	$a1, $sp, 240
	ld.d	$a0, $sp, 224
	beq	$a0, $a1, .LBB6_39
	b	.LBB6_43
.LBB6_33:
.Ltmp46:
	move	$fp, $a0
	addi.d	$a1, $sp, 240
	ld.d	$a0, $sp, 224
	beq	$a0, $a1, .LBB6_39
	b	.LBB6_43
.LBB6_34:
.Ltmp49:
	move	$fp, $a0
	ld.d	$a0, $sp, 56
	beq	$a0, $s8, .LBB6_38
	b	.LBB6_41
.LBB6_35:
.Ltmp57:
	move	$fp, $a0
	addi.d	$a0, $sp, 88
	pcaddu18i	$ra, %call36(_ZN2PP4WordD1Ev)
	jirl	$ra, $ra, 0
	addi.d	$a1, $sp, 240
	ld.d	$a0, $sp, 224
	beq	$a0, $a1, .LBB6_39
	b	.LBB6_43
.LBB6_36:
.Ltmp52:
	ld.d	$a2, $sp, 24
	move	$fp, $a0
	bne	$a2, $s2, .LBB6_40
# %bb.37:                               # %_ZNSt7__cxx1112basic_stringIcSt11char_traitsIcESaIcEED2Ev.exit23
	ld.d	$a0, $sp, 56
	bne	$a0, $s8, .LBB6_41
.LBB6_38:                               # %_ZNSt7__cxx1112basic_stringIcSt11char_traitsIcESaIcEED2Ev.exit26
	addi.d	$a1, $sp, 240
	ld.d	$a0, $sp, 224
	bne	$a0, $a1, .LBB6_43
.LBB6_39:                               # %_ZNSt7__cxx1112basic_stringIcSt11char_traitsIcESaIcEED2Ev.exit32
	move	$a0, $fp
	pcaddu18i	$ra, %call36(_Unwind_Resume)
	jirl	$ra, $ra, 0
.LBB6_40:                               # %_ZNKSt7__cxx1112basic_stringIcSt11char_traitsIcESaIcEE11_M_is_localEv.exit.i.i21
	ld.d	$a0, $sp, 40
	addi.d	$a1, $a0, 1
	move	$a0, $a2
	pcaddu18i	$ra, %call36(_ZdlPvm)
	jirl	$ra, $ra, 0
	ld.d	$a0, $sp, 56
	beq	$a0, $s8, .LBB6_38
.LBB6_41:                               # %_ZNKSt7__cxx1112basic_stringIcSt11char_traitsIcESaIcEE11_M_is_localEv.exit.i.i24
	ld.d	$a1, $sp, 72
	addi.d	$a1, $a1, 1
	pcaddu18i	$ra, %call36(_ZdlPvm)
	jirl	$ra, $ra, 0
	addi.d	$a1, $sp, 240
	ld.d	$a0, $sp, 224
	beq	$a0, $a1, .LBB6_39
	b	.LBB6_43
.LBB6_42:                               # %.loopexit
.Ltmp40:
	move	$fp, $a0
	addi.d	$a1, $sp, 240
	ld.d	$a0, $sp, 224
	beq	$a0, $a1, .LBB6_39
.LBB6_43:                               # %_ZNKSt7__cxx1112basic_stringIcSt11char_traitsIcESaIcEE11_M_is_localEv.exit.i.i30
	ld.d	$a1, $sp, 240
	addi.d	$a1, $a1, 1
	pcaddu18i	$ra, %call36(_ZdlPvm)
	jirl	$ra, $ra, 0
	move	$a0, $fp
	pcaddu18i	$ra, %call36(_Unwind_Resume)
	jirl	$ra, $ra, 0
.Lfunc_end6:
	.size	_ZN2PP3Cmd14process_stringENSt7__cxx1112basic_stringIcSt11char_traitsIcESaIcEEERNS1_18basic_stringstreamIcS4_S5_EERi, .Lfunc_end6-_ZN2PP3Cmd14process_stringENSt7__cxx1112basic_stringIcSt11char_traitsIcESaIcEEERNS1_18basic_stringstreamIcS4_S5_EERi
	.cfi_endproc
	.section	.gcc_except_table,"a",@progbits
	.p2align	2, 0x0
GCC_except_table6:
.Lexception3:
	.byte	255                             # @LPStart Encoding = omit
	.byte	255                             # @TType Encoding = omit
	.byte	1                               # Call site Encoding = uleb128
	.uleb128 .Lcst_end3-.Lcst_begin3
.Lcst_begin3:
	.uleb128 .Ltmp55-.Lfunc_begin3          # >> Call Site 1 <<
	.uleb128 .Ltmp56-.Ltmp55                #   Call between .Ltmp55 and .Ltmp56
	.uleb128 .Ltmp57-.Lfunc_begin3          #     jumps to .Ltmp57
	.byte	0                               #   On action: cleanup
	.uleb128 .Ltmp56-.Lfunc_begin3          # >> Call Site 2 <<
	.uleb128 .Ltmp36-.Ltmp56                #   Call between .Ltmp56 and .Ltmp36
	.byte	0                               #     has no landing pad
	.byte	0                               #   On action: cleanup
	.uleb128 .Ltmp36-.Lfunc_begin3          # >> Call Site 3 <<
	.uleb128 .Ltmp39-.Ltmp36                #   Call between .Ltmp36 and .Ltmp39
	.uleb128 .Ltmp40-.Lfunc_begin3          #     jumps to .Ltmp40
	.byte	0                               #   On action: cleanup
	.uleb128 .Ltmp44-.Lfunc_begin3          # >> Call Site 4 <<
	.uleb128 .Ltmp45-.Ltmp44                #   Call between .Ltmp44 and .Ltmp45
	.uleb128 .Ltmp46-.Lfunc_begin3          #     jumps to .Ltmp46
	.byte	0                               #   On action: cleanup
	.uleb128 .Ltmp45-.Lfunc_begin3          # >> Call Site 5 <<
	.uleb128 .Ltmp47-.Ltmp45                #   Call between .Ltmp45 and .Ltmp47
	.byte	0                               #     has no landing pad
	.byte	0                               #   On action: cleanup
	.uleb128 .Ltmp47-.Lfunc_begin3          # >> Call Site 6 <<
	.uleb128 .Ltmp48-.Ltmp47                #   Call between .Ltmp47 and .Ltmp48
	.uleb128 .Ltmp49-.Lfunc_begin3          #     jumps to .Ltmp49
	.byte	0                               #   On action: cleanup
	.uleb128 .Ltmp48-.Lfunc_begin3          # >> Call Site 7 <<
	.uleb128 .Ltmp50-.Ltmp48                #   Call between .Ltmp48 and .Ltmp50
	.byte	0                               #     has no landing pad
	.byte	0                               #   On action: cleanup
	.uleb128 .Ltmp50-.Lfunc_begin3          # >> Call Site 8 <<
	.uleb128 .Ltmp51-.Ltmp50                #   Call between .Ltmp50 and .Ltmp51
	.uleb128 .Ltmp52-.Lfunc_begin3          #     jumps to .Ltmp52
	.byte	0                               #   On action: cleanup
	.uleb128 .Ltmp51-.Lfunc_begin3          # >> Call Site 9 <<
	.uleb128 .Ltmp53-.Ltmp51                #   Call between .Ltmp51 and .Ltmp53
	.byte	0                               #     has no landing pad
	.byte	0                               #   On action: cleanup
	.uleb128 .Ltmp53-.Lfunc_begin3          # >> Call Site 10 <<
	.uleb128 .Ltmp54-.Ltmp53                #   Call between .Ltmp53 and .Ltmp54
	.uleb128 .Ltmp57-.Lfunc_begin3          #     jumps to .Ltmp57
	.byte	0                               #   On action: cleanup
	.uleb128 .Ltmp41-.Lfunc_begin3          # >> Call Site 11 <<
	.uleb128 .Ltmp42-.Ltmp41                #   Call between .Ltmp41 and .Ltmp42
	.uleb128 .Ltmp43-.Lfunc_begin3          #     jumps to .Ltmp43
	.byte	0                               #   On action: cleanup
	.uleb128 .Ltmp42-.Lfunc_begin3          # >> Call Site 12 <<
	.uleb128 .Lfunc_end6-.Ltmp42            #   Call between .Ltmp42 and .Lfunc_end6
	.byte	0                               #     has no landing pad
	.byte	0                               #   On action: cleanup
.Lcst_end3:
	.p2align	2, 0x0
                                        # -- End function
	.text
	.globl	_ZN2PP3Cmd8add_wordENSt7__cxx1112basic_stringIcSt11char_traitsIcESaIcEEEiiS6_ # -- Begin function _ZN2PP3Cmd8add_wordENSt7__cxx1112basic_stringIcSt11char_traitsIcESaIcEEEiiS6_
	.p2align	5
	.type	_ZN2PP3Cmd8add_wordENSt7__cxx1112basic_stringIcSt11char_traitsIcESaIcEEEiiS6_,@function
_ZN2PP3Cmd8add_wordENSt7__cxx1112basic_stringIcSt11char_traitsIcESaIcEEEiiS6_: # @_ZN2PP3Cmd8add_wordENSt7__cxx1112basic_stringIcSt11char_traitsIcESaIcEEEiiS6_
.Lfunc_begin4:
	.cfi_startproc
	.cfi_personality 155, DW.ref.__gxx_personality_v0
	.cfi_lsda 27, .Lexception4
# %bb.0:
	addi.d	$sp, $sp, -272
	.cfi_def_cfa_offset 272
	st.d	$ra, $sp, 264                   # 8-byte Folded Spill
	st.d	$fp, $sp, 256                   # 8-byte Folded Spill
	st.d	$s0, $sp, 248                   # 8-byte Folded Spill
	st.d	$s1, $sp, 240                   # 8-byte Folded Spill
	st.d	$s2, $sp, 232                   # 8-byte Folded Spill
	st.d	$s3, $sp, 224                   # 8-byte Folded Spill
	st.d	$s4, $sp, 216                   # 8-byte Folded Spill
	st.d	$s5, $sp, 208                   # 8-byte Folded Spill
	.cfi_offset 1, -8
	.cfi_offset 22, -16
	.cfi_offset 23, -24
	.cfi_offset 24, -32
	.cfi_offset 25, -40
	.cfi_offset 26, -48
	.cfi_offset 27, -56
	.cfi_offset 28, -64
	move	$s2, $a4
	move	$s0, $a3
	move	$s1, $a2
	move	$fp, $a0
	addi.d	$s5, $sp, 56
	ld.d	$s3, $a1, 8
	ld.d	$s4, $a1, 0
	st.d	$s5, $sp, 40
	ori	$a1, $zero, 16
	st.d	$s3, $sp, 200
	move	$a0, $s5
	bltu	$s3, $a1, .LBB7_2
# %bb.1:                                # %.noexc.i
	addi.d	$a0, $sp, 40
	addi.d	$a1, $sp, 200
	move	$a2, $zero
	pcaddu18i	$ra, %call36(_ZNSt7__cxx1112basic_stringIcSt11char_traitsIcESaIcEE9_M_createERmm)
	jirl	$ra, $ra, 0
	ld.d	$a1, $sp, 200
	st.d	$a0, $sp, 40
	st.d	$a1, $sp, 56
.LBB7_2:                                # %._crit_edge.i.i
	beqz	$s3, .LBB7_6
# %bb.3:                                # %._crit_edge.i.i
	ori	$a1, $zero, 1
	bne	$s3, $a1, .LBB7_5
# %bb.4:
	ld.b	$a1, $s4, 0
	st.b	$a1, $a0, 0
	b	.LBB7_6
.LBB7_5:
	move	$a1, $s4
	move	$a2, $s3
	pcaddu18i	$ra, %call36(memcpy)
	jirl	$ra, $ra, 0
.LBB7_6:                                # %_ZNSt7__cxx1112basic_stringIcSt11char_traitsIcESaIcEEC2ERKS4_.exit
	ld.d	$a0, $sp, 200
	ld.d	$a1, $sp, 40
	st.d	$a0, $sp, 48
	stx.b	$zero, $a1, $a0
	addi.d	$s4, $sp, 24
	ld.d	$s3, $s2, 8
	ld.d	$s2, $s2, 0
	st.d	$s4, $sp, 8
	ori	$a1, $zero, 16
	st.d	$s3, $sp, 200
	move	$a0, $s4
	bltu	$s3, $a1, .LBB7_9
# %bb.7:                                # %.noexc.i10
.Ltmp58:
	addi.d	$a0, $sp, 8
	addi.d	$a1, $sp, 200
	move	$a2, $zero
	pcaddu18i	$ra, %call36(_ZNSt7__cxx1112basic_stringIcSt11char_traitsIcESaIcEE9_M_createERmm)
	jirl	$ra, $ra, 0
.Ltmp59:
# %bb.8:                                # %.noexc
	ld.d	$a1, $sp, 200
	st.d	$a0, $sp, 8
	st.d	$a1, $sp, 24
.LBB7_9:                                # %._crit_edge.i.i9
	beqz	$s3, .LBB7_13
# %bb.10:                               # %._crit_edge.i.i9
	ori	$a1, $zero, 1
	bne	$s3, $a1, .LBB7_12
# %bb.11:
	ld.b	$a1, $s2, 0
	st.b	$a1, $a0, 0
	b	.LBB7_13
.LBB7_12:
	move	$a1, $s2
	move	$a2, $s3
	pcaddu18i	$ra, %call36(memcpy)
	jirl	$ra, $ra, 0
.LBB7_13:
	ld.d	$a0, $sp, 200
	ld.d	$a1, $sp, 8
	st.d	$a0, $sp, 16
	stx.b	$zero, $a1, $a0
	ld.d	$a5, $fp, 40
.Ltmp61:
	addi.d	$a0, $sp, 72
	addi.d	$a1, $sp, 40
	addi.d	$a4, $sp, 8
	move	$a2, $s1
	move	$a3, $s0
	pcaddu18i	$ra, %call36(_ZN2PP4WordC1ENSt7__cxx1112basic_stringIcSt11char_traitsIcESaIcEEEiiS6_PSt5dequeIS6_SaIS6_EE)
	jirl	$ra, $ra, 0
.Ltmp62:
# %bb.14:
	ld.d	$a0, $sp, 8
	beq	$a0, $s4, .LBB7_16
# %bb.15:                               # %_ZNKSt7__cxx1112basic_stringIcSt11char_traitsIcESaIcEE11_M_is_localEv.exit.i.i
	ld.d	$a1, $sp, 24
	addi.d	$a1, $a1, 1
	pcaddu18i	$ra, %call36(_ZdlPvm)
	jirl	$ra, $ra, 0
.LBB7_16:                               # %_ZNSt7__cxx1112basic_stringIcSt11char_traitsIcESaIcEED2Ev.exit
	ld.d	$a0, $sp, 40
	beq	$a0, $s5, .LBB7_18
# %bb.17:                               # %_ZNKSt7__cxx1112basic_stringIcSt11char_traitsIcESaIcEE11_M_is_localEv.exit.i.i12
	ld.d	$a1, $sp, 56
	addi.d	$a1, $a1, 1
	pcaddu18i	$ra, %call36(_ZdlPvm)
	jirl	$ra, $ra, 0
.LBB7_18:                               # %_ZNSt7__cxx1112basic_stringIcSt11char_traitsIcESaIcEED2Ev.exit14
	ld.d	$a1, $fp, 224
	ld.d	$a0, $fp, 208
	addi.d	$a1, $a1, -128
	beq	$a0, $a1, .LBB7_21
# %bb.19:
.Ltmp64:
	addi.d	$a1, $sp, 72
	pcaddu18i	$ra, %call36(_ZN2PP4WordC1ERKS0_)
	jirl	$ra, $ra, 0
.Ltmp65:
# %bb.20:                               # %.noexc15
	ld.d	$a0, $fp, 208
	addi.d	$a0, $a0, 128
	st.d	$a0, $fp, 208
	b	.LBB7_22
.LBB7_21:
	addi.d	$a0, $fp, 160
.Ltmp66:
	addi.d	$a1, $sp, 72
	pcaddu18i	$ra, %call36(_ZNSt5dequeIN2PP4WordESaIS1_EE16_M_push_back_auxIJRKS1_EEEvDpOT_)
	jirl	$ra, $ra, 0
.Ltmp67:
.LBB7_22:                               # %_ZNSt5dequeIN2PP4WordESaIS1_EE9push_backERKS1_.exit
	addi.d	$a0, $sp, 72
	pcaddu18i	$ra, %call36(_ZN2PP4WordD1Ev)
	jirl	$ra, $ra, 0
	ld.d	$s5, $sp, 208                   # 8-byte Folded Reload
	ld.d	$s4, $sp, 216                   # 8-byte Folded Reload
	ld.d	$s3, $sp, 224                   # 8-byte Folded Reload
	ld.d	$s2, $sp, 232                   # 8-byte Folded Reload
	ld.d	$s1, $sp, 240                   # 8-byte Folded Reload
	ld.d	$s0, $sp, 248                   # 8-byte Folded Reload
	ld.d	$fp, $sp, 256                   # 8-byte Folded Reload
	ld.d	$ra, $sp, 264                   # 8-byte Folded Reload
	addi.d	$sp, $sp, 272
	ret
.LBB7_23:
.Ltmp60:
	move	$fp, $a0
	b	.LBB7_27
.LBB7_24:
.Ltmp68:
	move	$fp, $a0
	addi.d	$a0, $sp, 72
	pcaddu18i	$ra, %call36(_ZN2PP4WordD1Ev)
	jirl	$ra, $ra, 0
	move	$a0, $fp
	pcaddu18i	$ra, %call36(_Unwind_Resume)
	jirl	$ra, $ra, 0
.LBB7_25:
.Ltmp63:
	ld.d	$a2, $sp, 8
	move	$fp, $a0
	beq	$a2, $s4, .LBB7_27
# %bb.26:                               # %_ZNKSt7__cxx1112basic_stringIcSt11char_traitsIcESaIcEE11_M_is_localEv.exit.i.i17
	ld.d	$a0, $sp, 24
	addi.d	$a1, $a0, 1
	move	$a0, $a2
	pcaddu18i	$ra, %call36(_ZdlPvm)
	jirl	$ra, $ra, 0
.LBB7_27:                               # %_ZNSt7__cxx1112basic_stringIcSt11char_traitsIcESaIcEED2Ev.exit19
	ld.d	$a0, $sp, 40
	bne	$a0, $s5, .LBB7_29
# %bb.28:                               # %_ZNSt7__cxx1112basic_stringIcSt11char_traitsIcESaIcEED2Ev.exit22
	move	$a0, $fp
	pcaddu18i	$ra, %call36(_Unwind_Resume)
	jirl	$ra, $ra, 0
.LBB7_29:                               # %_ZNKSt7__cxx1112basic_stringIcSt11char_traitsIcESaIcEE11_M_is_localEv.exit.i.i20
	ld.d	$a1, $sp, 56
	addi.d	$a1, $a1, 1
	pcaddu18i	$ra, %call36(_ZdlPvm)
	jirl	$ra, $ra, 0
	move	$a0, $fp
	pcaddu18i	$ra, %call36(_Unwind_Resume)
	jirl	$ra, $ra, 0
.Lfunc_end7:
	.size	_ZN2PP3Cmd8add_wordENSt7__cxx1112basic_stringIcSt11char_traitsIcESaIcEEEiiS6_, .Lfunc_end7-_ZN2PP3Cmd8add_wordENSt7__cxx1112basic_stringIcSt11char_traitsIcESaIcEEEiiS6_
	.cfi_endproc
	.section	.gcc_except_table,"a",@progbits
	.p2align	2, 0x0
GCC_except_table7:
.Lexception4:
	.byte	255                             # @LPStart Encoding = omit
	.byte	255                             # @TType Encoding = omit
	.byte	1                               # Call site Encoding = uleb128
	.uleb128 .Lcst_end4-.Lcst_begin4
.Lcst_begin4:
	.uleb128 .Lfunc_begin4-.Lfunc_begin4    # >> Call Site 1 <<
	.uleb128 .Ltmp58-.Lfunc_begin4          #   Call between .Lfunc_begin4 and .Ltmp58
	.byte	0                               #     has no landing pad
	.byte	0                               #   On action: cleanup
	.uleb128 .Ltmp58-.Lfunc_begin4          # >> Call Site 2 <<
	.uleb128 .Ltmp59-.Ltmp58                #   Call between .Ltmp58 and .Ltmp59
	.uleb128 .Ltmp60-.Lfunc_begin4          #     jumps to .Ltmp60
	.byte	0                               #   On action: cleanup
	.uleb128 .Ltmp59-.Lfunc_begin4          # >> Call Site 3 <<
	.uleb128 .Ltmp61-.Ltmp59                #   Call between .Ltmp59 and .Ltmp61
	.byte	0                               #     has no landing pad
	.byte	0                               #   On action: cleanup
	.uleb128 .Ltmp61-.Lfunc_begin4          # >> Call Site 4 <<
	.uleb128 .Ltmp62-.Ltmp61                #   Call between .Ltmp61 and .Ltmp62
	.uleb128 .Ltmp63-.Lfunc_begin4          #     jumps to .Ltmp63
	.byte	0                               #   On action: cleanup
	.uleb128 .Ltmp62-.Lfunc_begin4          # >> Call Site 5 <<
	.uleb128 .Ltmp64-.Ltmp62                #   Call between .Ltmp62 and .Ltmp64
	.byte	0                               #     has no landing pad
	.byte	0                               #   On action: cleanup
	.uleb128 .Ltmp64-.Lfunc_begin4          # >> Call Site 6 <<
	.uleb128 .Ltmp67-.Ltmp64                #   Call between .Ltmp64 and .Ltmp67
	.uleb128 .Ltmp68-.Lfunc_begin4          #     jumps to .Ltmp68
	.byte	0                               #   On action: cleanup
	.uleb128 .Ltmp67-.Lfunc_begin4          # >> Call Site 7 <<
	.uleb128 .Lfunc_end7-.Ltmp67            #   Call between .Ltmp67 and .Lfunc_end7
	.byte	0                               #     has no landing pad
	.byte	0                               #   On action: cleanup
.Lcst_end4:
	.p2align	2, 0x0
                                        # -- End function
	.text
	.globl	_ZN2PP3Cmd10erase_wordEi        # -- Begin function _ZN2PP3Cmd10erase_wordEi
	.p2align	5
	.type	_ZN2PP3Cmd10erase_wordEi,@function
_ZN2PP3Cmd10erase_wordEi:               # @_ZN2PP3Cmd10erase_wordEi
	.cfi_startproc
# %bb.0:
	ld.d	$a5, $a0, 176
	ld.d	$a3, $a0, 184
	ld.d	$a2, $a0, 200
	sub.d	$a3, $a5, $a3
	srai.d	$a3, $a3, 7
	add.d	$a4, $a3, $a1
	bltz	$a4, .LBB8_3
# %bb.1:
	ori	$a3, $zero, 3
	bltu	$a3, $a4, .LBB8_4
# %bb.2:
	ld.d	$a3, $a2, 0
	slli.d	$a1, $a1, 7
	add.d	$a4, $a5, $a1
	b	.LBB8_6
.LBB8_3:
	srai.d	$a1, $a4, 2
	b	.LBB8_5
.LBB8_4:
	srli.d	$a1, $a4, 2
.LBB8_5:
	slli.d	$a3, $a1, 3
	ldx.d	$a3, $a2, $a3
	alsl.d	$a2, $a1, $a2, 3
	slli.d	$a1, $a1, 2
	sub.d	$a1, $a4, $a1
	slli.d	$a1, $a1, 7
	add.d	$a4, $a3, $a1
.LBB8_6:                                # %_ZStplRKSt15_Deque_iteratorIN2PP4WordERS1_PS1_El.exit
	addi.d	$sp, $sp, -80
	.cfi_def_cfa_offset 80
	st.d	$ra, $sp, 72                    # 8-byte Folded Spill
	.cfi_offset 1, -8
	addi.d	$a1, $a0, 160
	st.d	$a4, $sp, 40
	st.d	$a3, $sp, 48
	addi.d	$a0, $a3, 512
	st.d	$a0, $sp, 56
	st.d	$a2, $sp, 64
	addi.d	$a0, $sp, 8
	addi.d	$a2, $sp, 40
	pcaddu18i	$ra, %call36(_ZNSt5dequeIN2PP4WordESaIS1_EE8_M_eraseESt15_Deque_iteratorIS1_RS1_PS1_E)
	jirl	$ra, $ra, 0
	ld.d	$ra, $sp, 72                    # 8-byte Folded Reload
	addi.d	$sp, $sp, 80
	ret
.Lfunc_end8:
	.size	_ZN2PP3Cmd10erase_wordEi, .Lfunc_end8-_ZN2PP3Cmd10erase_wordEi
	.cfi_endproc
                                        # -- End function
	.globl	_ZN2PP3Cmd15erase_last_wordEv   # -- Begin function _ZN2PP3Cmd15erase_last_wordEv
	.p2align	5
	.type	_ZN2PP3Cmd15erase_last_wordEv,@function
_ZN2PP3Cmd15erase_last_wordEv:          # @_ZN2PP3Cmd15erase_last_wordEv
	.cfi_startproc
# %bb.0:
	ld.d	$a2, $a0, 200
	ld.d	$a1, $a0, 232
	ld.d	$a3, $a0, 176
	ld.d	$a4, $a0, 192
	sub.d	$a5, $a1, $a2
	srli.d	$a5, $a5, 3
	ld.d	$a6, $a0, 208
	ld.d	$a7, $a0, 216
	sltu	$a1, $zero, $a1
	sub.d	$a5, $a5, $a1
	ld.d	$a1, $a0, 184
	sub.d	$a6, $a6, $a7
	srli.d	$a6, $a6, 7
	sub.d	$a4, $a4, $a3
	srli.d	$a4, $a4, 7
	add.d	$a4, $a6, $a4
	slli.d	$a5, $a5, 34
	slli.d	$a4, $a4, 32
	add.d	$a4, $a5, $a4
	srai.d	$a5, $a4, 32
	sub.d	$a4, $a3, $a1
	srai.d	$a4, $a4, 7
	add.d	$a4, $a5, $a4
	bltz	$a4, .LBB9_3
# %bb.1:
	ori	$a6, $zero, 3
	bltu	$a6, $a4, .LBB9_4
# %bb.2:
	slli.d	$a4, $a5, 7
	add.d	$a3, $a3, $a4
	b	.LBB9_6
.LBB9_3:
	srai.d	$a3, $a4, 2
	b	.LBB9_5
.LBB9_4:
	srli.d	$a3, $a4, 2
.LBB9_5:
	slli.d	$a1, $a3, 3
	ldx.d	$a1, $a2, $a1
	alsl.d	$a2, $a3, $a2, 3
	slli.d	$a3, $a3, 2
	sub.d	$a3, $a4, $a3
	slli.d	$a3, $a3, 7
	add.d	$a3, $a1, $a3
.LBB9_6:                                # %_ZStplRKSt15_Deque_iteratorIN2PP4WordERS1_PS1_El.exit
	sub.d	$a1, $a3, $a1
	srai.d	$a4, $a1, 7
	ori	$a5, $zero, 1
	addi.d	$a1, $a4, -1
	blt	$a4, $a5, .LBB9_9
# %bb.7:
	ori	$a5, $zero, 4
	bltu	$a5, $a4, .LBB9_10
# %bb.8:
	ld.d	$a4, $a2, 0
	addi.d	$a3, $a3, -128
	b	.LBB9_12
.LBB9_9:
	srai.d	$a3, $a1, 2
	b	.LBB9_11
.LBB9_10:
	srli.d	$a3, $a1, 2
.LBB9_11:
	slli.d	$a4, $a3, 3
	ldx.d	$a4, $a2, $a4
	alsl.d	$a2, $a3, $a2, 3
	slli.d	$a3, $a3, 2
	sub.d	$a1, $a1, $a3
	slli.d	$a1, $a1, 7
	add.d	$a3, $a4, $a1
.LBB9_12:                               # %_ZStmiRKSt15_Deque_iteratorIN2PP4WordERS1_PS1_El.exit
	addi.d	$sp, $sp, -80
	.cfi_def_cfa_offset 80
	st.d	$ra, $sp, 72                    # 8-byte Folded Spill
	.cfi_offset 1, -8
	addi.d	$a1, $a0, 160
	st.d	$a3, $sp, 40
	st.d	$a4, $sp, 48
	addi.d	$a0, $a4, 512
	st.d	$a0, $sp, 56
	st.d	$a2, $sp, 64
	addi.d	$a0, $sp, 8
	addi.d	$a2, $sp, 40
	pcaddu18i	$ra, %call36(_ZNSt5dequeIN2PP4WordESaIS1_EE8_M_eraseESt15_Deque_iteratorIS1_RS1_PS1_E)
	jirl	$ra, $ra, 0
	ld.d	$ra, $sp, 72                    # 8-byte Folded Reload
	addi.d	$sp, $sp, 80
	ret
.Lfunc_end9:
	.size	_ZN2PP3Cmd15erase_last_wordEv, .Lfunc_end9-_ZN2PP3Cmd15erase_last_wordEv
	.cfi_endproc
                                        # -- End function
	.section	.text._ZNKSt5dequeIN2PP4WordESaIS1_EE4sizeEv,"axG",@progbits,_ZNKSt5dequeIN2PP4WordESaIS1_EE4sizeEv,comdat
	.weak	_ZNKSt5dequeIN2PP4WordESaIS1_EE4sizeEv # -- Begin function _ZNKSt5dequeIN2PP4WordESaIS1_EE4sizeEv
	.p2align	5
	.type	_ZNKSt5dequeIN2PP4WordESaIS1_EE4sizeEv,@function
_ZNKSt5dequeIN2PP4WordESaIS1_EE4sizeEv: # @_ZNKSt5dequeIN2PP4WordESaIS1_EE4sizeEv
# %bb.0:
	ld.d	$a1, $a0, 72
	ld.d	$a2, $a0, 40
	sub.d	$a2, $a1, $a2
	srai.d	$a2, $a2, 3
	sltu	$a1, $zero, $a1
	ld.d	$a3, $a0, 48
	ld.d	$a4, $a0, 56
	sub.d	$a1, $a2, $a1
	ld.d	$a2, $a0, 32
	ld.d	$a0, $a0, 16
	sub.d	$a3, $a3, $a4
	srai.d	$a3, $a3, 7
	alsl.d	$a1, $a1, $a3, 2
	sub.d	$a0, $a2, $a0
	srai.d	$a0, $a0, 7
	add.d	$a0, $a1, $a0
	ret
.Lfunc_end10:
	.size	_ZNKSt5dequeIN2PP4WordESaIS1_EE4sizeEv, .Lfunc_end10-_ZNKSt5dequeIN2PP4WordESaIS1_EE4sizeEv
                                        # -- End function
	.text
	.globl	_ZN2PP3Cmd13remove_commasEv     # -- Begin function _ZN2PP3Cmd13remove_commasEv
	.p2align	5
	.type	_ZN2PP3Cmd13remove_commasEv,@function
_ZN2PP3Cmd13remove_commasEv:            # @_ZN2PP3Cmd13remove_commasEv
	.cfi_startproc
# %bb.0:
	addi.d	$sp, $sp, -128
	.cfi_def_cfa_offset 128
	st.d	$ra, $sp, 120                   # 8-byte Folded Spill
	st.d	$fp, $sp, 112                   # 8-byte Folded Spill
	st.d	$s0, $sp, 104                   # 8-byte Folded Spill
	st.d	$s1, $sp, 96                    # 8-byte Folded Spill
	st.d	$s2, $sp, 88                    # 8-byte Folded Spill
	st.d	$s3, $sp, 80                    # 8-byte Folded Spill
	st.d	$s4, $sp, 72                    # 8-byte Folded Spill
	.cfi_offset 1, -8
	.cfi_offset 22, -16
	.cfi_offset 23, -24
	.cfi_offset 24, -32
	.cfi_offset 25, -40
	.cfi_offset 26, -48
	.cfi_offset 27, -56
	move	$fp, $a0
	move	$s1, $zero
	addi.d	$s0, $a0, 160
	ori	$s2, $zero, 4
	ori	$s3, $zero, 12
	ori	$s4, $zero, 3
	b	.LBB11_5
.LBB11_1:                               #   in Loop: Header=BB11_5 Depth=1
	srai.d	$a1, $a2, 2
.LBB11_2:                               #   in Loop: Header=BB11_5 Depth=1
	slli.d	$a3, $a1, 3
	ldx.d	$a3, $a0, $a3
	alsl.d	$a0, $a1, $a0, 3
	slli.d	$a1, $a1, 2
	sub.d	$a1, $a2, $a1
	slli.d	$a1, $a1, 7
	add.d	$a1, $a3, $a1
.LBB11_3:                               # %_ZStplRKSt15_Deque_iteratorIN2PP4WordERS1_PS1_El.exit
                                        #   in Loop: Header=BB11_5 Depth=1
	st.d	$a1, $sp, 40
	st.d	$a3, $sp, 48
	addi.d	$a1, $a3, 512
	st.d	$a1, $sp, 56
	st.d	$a0, $sp, 64
	addi.d	$a0, $sp, 8
	addi.d	$a2, $sp, 40
	move	$a1, $s0
	pcaddu18i	$ra, %call36(_ZNSt5dequeIN2PP4WordESaIS1_EE8_M_eraseESt15_Deque_iteratorIS1_RS1_PS1_E)
	jirl	$ra, $ra, 0
	addi.d	$s1, $s1, -1
.LBB11_4:                               #   in Loop: Header=BB11_5 Depth=1
	addi.w	$s1, $s1, 1
.LBB11_5:                               # =>This Inner Loop Header: Depth=1
	ld.d	$a1, $fp, 232
	ld.d	$a0, $fp, 200
	sub.d	$a2, $a1, $a0
	srli.d	$a2, $a2, 3
	sltu	$a1, $zero, $a1
	ld.d	$a3, $fp, 208
	ld.d	$a4, $fp, 216
	sub.d	$a2, $a2, $a1
	ld.d	$a5, $fp, 192
	ld.d	$a1, $fp, 176
	sub.d	$a3, $a3, $a4
	srli.d	$a3, $a3, 7
	alsl.d	$a2, $a2, $a3, 2
	sub.d	$a3, $a5, $a1
	srli.d	$a3, $a3, 7
	add.w	$a2, $a2, $a3
	bge	$s1, $a2, .LBB11_16
# %bb.6:                                #   in Loop: Header=BB11_5 Depth=1
	ld.d	$a2, $fp, 184
	sub.d	$a2, $a1, $a2
	srai.d	$a2, $a2, 7
	add.d	$a2, $a2, $s1
	bltz	$a2, .LBB11_9
# %bb.7:                                #   in Loop: Header=BB11_5 Depth=1
	bgeu	$a2, $s2, .LBB11_10
# %bb.8:                                # %_ZNSt5dequeIN2PP4WordESaIS1_EEixEm.exit.thread
                                        #   in Loop: Header=BB11_5 Depth=1
	slli.d	$a2, $s1, 7
	add.d	$a2, $a1, $a2
	ld.w	$a2, $a2, 32
	bne	$a2, $s3, .LBB11_4
	b	.LBB11_14
	.p2align	4, , 16
.LBB11_9:                               #   in Loop: Header=BB11_5 Depth=1
	srai.d	$a3, $a2, 2
	b	.LBB11_11
	.p2align	4, , 16
.LBB11_10:                              #   in Loop: Header=BB11_5 Depth=1
	srli.d	$a3, $a2, 2
.LBB11_11:                              # %_ZNSt5dequeIN2PP4WordESaIS1_EEixEm.exit
                                        #   in Loop: Header=BB11_5 Depth=1
	slli.d	$a4, $a3, 3
	ldx.d	$a4, $a0, $a4
	slli.d	$a3, $a3, 2
	sub.d	$a3, $a2, $a3
	slli.d	$a3, $a3, 7
	add.d	$a3, $a4, $a3
	ld.w	$a3, $a3, 32
	bne	$a3, $s3, .LBB11_4
# %bb.12:                               #   in Loop: Header=BB11_5 Depth=1
	bltz	$a2, .LBB11_1
# %bb.13:                               #   in Loop: Header=BB11_5 Depth=1
	bltu	$s4, $a2, .LBB11_15
.LBB11_14:                              # %.thread10
                                        #   in Loop: Header=BB11_5 Depth=1
	ld.d	$a3, $a0, 0
	slli.d	$a2, $s1, 7
	add.d	$a1, $a1, $a2
	b	.LBB11_3
.LBB11_15:                              #   in Loop: Header=BB11_5 Depth=1
	srli.d	$a1, $a2, 2
	b	.LBB11_2
.LBB11_16:
	ld.d	$s4, $sp, 72                    # 8-byte Folded Reload
	ld.d	$s3, $sp, 80                    # 8-byte Folded Reload
	ld.d	$s2, $sp, 88                    # 8-byte Folded Reload
	ld.d	$s1, $sp, 96                    # 8-byte Folded Reload
	ld.d	$s0, $sp, 104                   # 8-byte Folded Reload
	ld.d	$fp, $sp, 112                   # 8-byte Folded Reload
	ld.d	$ra, $sp, 120                   # 8-byte Folded Reload
	addi.d	$sp, $sp, 128
	ret
.Lfunc_end11:
	.size	_ZN2PP3Cmd13remove_commasEv, .Lfunc_end11-_ZN2PP3Cmd13remove_commasEv
	.cfi_endproc
                                        # -- End function
	.section	.text._ZNSt5dequeIN2PP4WordESaIS1_EEixEm,"axG",@progbits,_ZNSt5dequeIN2PP4WordESaIS1_EEixEm,comdat
	.weak	_ZNSt5dequeIN2PP4WordESaIS1_EEixEm # -- Begin function _ZNSt5dequeIN2PP4WordESaIS1_EEixEm
	.p2align	5
	.type	_ZNSt5dequeIN2PP4WordESaIS1_EEixEm,@function
_ZNSt5dequeIN2PP4WordESaIS1_EEixEm:     # @_ZNSt5dequeIN2PP4WordESaIS1_EEixEm
# %bb.0:
	ld.d	$a3, $a0, 16
	ld.d	$a2, $a0, 24
	ld.d	$a0, $a0, 40
	sub.d	$a2, $a3, $a2
	srai.d	$a2, $a2, 7
	add.d	$a2, $a2, $a1
	bltz	$a2, .LBB12_3
# %bb.1:
	ori	$a4, $zero, 3
	bltu	$a4, $a2, .LBB12_4
# %bb.2:
	slli.d	$a0, $a1, 7
	add.d	$a0, $a3, $a0
	ret
.LBB12_3:
	srai.d	$a1, $a2, 2
	b	.LBB12_5
.LBB12_4:
	srli.d	$a1, $a2, 2
.LBB12_5:
	slli.d	$a3, $a1, 3
	ldx.d	$a0, $a0, $a3
	slli.d	$a1, $a1, 2
	sub.d	$a1, $a2, $a1
	slli.d	$a1, $a1, 7
	add.d	$a0, $a0, $a1
	ret
.Lfunc_end12:
	.size	_ZNSt5dequeIN2PP4WordESaIS1_EEixEm, .Lfunc_end12-_ZNSt5dequeIN2PP4WordESaIS1_EEixEm
                                        # -- End function
	.text
	.globl	_ZN2PP3Cmd14set_index_baseEi    # -- Begin function _ZN2PP3Cmd14set_index_baseEi
	.p2align	5
	.type	_ZN2PP3Cmd14set_index_baseEi,@function
_ZN2PP3Cmd14set_index_baseEi:           # @_ZN2PP3Cmd14set_index_baseEi
# %bb.0:
	pcalau12i	$a0, %pc_hi20(_ZN2PPL10index_baseE)
	st.w	$a1, $a0, %pc_lo12(_ZN2PPL10index_baseE)
	ret
.Lfunc_end13:
	.size	_ZN2PP3Cmd14set_index_baseEi, .Lfunc_end13-_ZN2PP3Cmd14set_index_baseEi
                                        # -- End function
	.globl	_ZN2PP3Cmd18set_case_sensitiveEb # -- Begin function _ZN2PP3Cmd18set_case_sensitiveEb
	.p2align	5
	.type	_ZN2PP3Cmd18set_case_sensitiveEb,@function
_ZN2PP3Cmd18set_case_sensitiveEb:       # @_ZN2PP3Cmd18set_case_sensitiveEb
# %bb.0:
	pcalau12i	$a0, %pc_hi20(_ZN2PPL14case_sensitiveE)
	st.b	$a1, $a0, %pc_lo12(_ZN2PPL14case_sensitiveE)
	ret
.Lfunc_end14:
	.size	_ZN2PP3Cmd18set_case_sensitiveEb, .Lfunc_end14-_ZN2PP3Cmd18set_case_sensitiveEb
                                        # -- End function
	.globl	_ZN2PP3Cmd17extract_next_wordERiRNSt7__cxx1112basic_stringIcSt11char_traitsIcESaIcEEES8_RNS2_18basic_stringstreamIcS5_S6_EES1_ # -- Begin function _ZN2PP3Cmd17extract_next_wordERiRNSt7__cxx1112basic_stringIcSt11char_traitsIcESaIcEEES8_RNS2_18basic_stringstreamIcS5_S6_EES1_
	.p2align	5
	.type	_ZN2PP3Cmd17extract_next_wordERiRNSt7__cxx1112basic_stringIcSt11char_traitsIcESaIcEEES8_RNS2_18basic_stringstreamIcS5_S6_EES1_,@function
_ZN2PP3Cmd17extract_next_wordERiRNSt7__cxx1112basic_stringIcSt11char_traitsIcESaIcEEES8_RNS2_18basic_stringstreamIcS5_S6_EES1_: # @_ZN2PP3Cmd17extract_next_wordERiRNSt7__cxx1112basic_stringIcSt11char_traitsIcESaIcEEES8_RNS2_18basic_stringstreamIcS5_S6_EES1_
.Lfunc_begin5:
	.cfi_startproc
	.cfi_personality 155, DW.ref.__gxx_personality_v0
	.cfi_lsda 27, .Lexception5
# %bb.0:
	addi.d	$sp, $sp, -192
	.cfi_def_cfa_offset 192
	st.d	$ra, $sp, 184                   # 8-byte Folded Spill
	st.d	$fp, $sp, 176                   # 8-byte Folded Spill
	st.d	$s0, $sp, 168                   # 8-byte Folded Spill
	st.d	$s1, $sp, 160                   # 8-byte Folded Spill
	st.d	$s2, $sp, 152                   # 8-byte Folded Spill
	st.d	$s3, $sp, 144                   # 8-byte Folded Spill
	st.d	$s4, $sp, 136                   # 8-byte Folded Spill
	st.d	$s5, $sp, 128                   # 8-byte Folded Spill
	st.d	$s6, $sp, 120                   # 8-byte Folded Spill
	st.d	$s7, $sp, 112                   # 8-byte Folded Spill
	st.d	$s8, $sp, 104                   # 8-byte Folded Spill
	.cfi_offset 1, -8
	.cfi_offset 22, -16
	.cfi_offset 23, -24
	.cfi_offset 24, -32
	.cfi_offset 25, -40
	.cfi_offset 26, -48
	.cfi_offset 27, -56
	.cfi_offset 28, -64
	.cfi_offset 29, -72
	.cfi_offset 30, -80
	.cfi_offset 31, -88
	ld.w	$a4, $a1, 0
	bltz	$a4, .LBB15_5
# %bb.1:
	move	$s2, $a2
	move	$s4, $a0
	ld.w	$a0, $a2, 8
	bge	$a4, $a0, .LBB15_5
# %bb.2:
	move	$fp, $a1
	move	$s0, $a3
	ld.d	$a1, $s4, 96
	ld.d	$a3, $s4, 104
	move	$a0, $s2
	move	$a2, $a4
	pcaddu18i	$ra, %call36(_ZNKSt7__cxx1112basic_stringIcSt11char_traitsIcESaIcEE17find_first_not_ofEPKcmm)
	jirl	$ra, $ra, 0
	addi.w	$s1, $a0, 0
	addi.w	$s7, $zero, -1
	beq	$s1, $s7, .LBB15_5
# %bb.3:
	move	$s3, $a0
	ld.d	$a0, $s2, 0
	ldx.b	$a1, $a0, $s1
	addi.d	$a0, $s4, 128
	move	$a2, $zero
	pcaddu18i	$ra, %call36(_ZNKSt7__cxx1112basic_stringIcSt11char_traitsIcESaIcEE4findEcm)
	jirl	$ra, $ra, 0
	beq	$a0, $s7, .LBB15_7
# %bb.4:
	ld.d	$a0, $s2, 0
	ldx.b	$a4, $a0, $s1
	ld.d	$a2, $s0, 8
	ori	$a3, $zero, 1
	move	$a0, $s0
	move	$a1, $zero
	pcaddu18i	$ra, %call36(_ZNSt7__cxx1112basic_stringIcSt11char_traitsIcESaIcEE14_M_replace_auxEmmmc)
	jirl	$ra, $ra, 0
	ori	$a0, $zero, 1
	addi.d	$a1, $s3, 1
	st.w	$a1, $fp, 0
	b	.LBB15_6
.LBB15_5:
	move	$a0, $zero
.LBB15_6:
	ld.d	$s8, $sp, 104                   # 8-byte Folded Reload
	ld.d	$s7, $sp, 112                   # 8-byte Folded Reload
	ld.d	$s6, $sp, 120                   # 8-byte Folded Reload
	ld.d	$s5, $sp, 128                   # 8-byte Folded Reload
	ld.d	$s4, $sp, 136                   # 8-byte Folded Reload
	ld.d	$s3, $sp, 144                   # 8-byte Folded Reload
	ld.d	$s2, $sp, 152                   # 8-byte Folded Reload
	ld.d	$s1, $sp, 160                   # 8-byte Folded Reload
	ld.d	$s0, $sp, 168                   # 8-byte Folded Reload
	ld.d	$fp, $sp, 176                   # 8-byte Folded Reload
	ld.d	$ra, $sp, 184                   # 8-byte Folded Reload
	addi.d	$sp, $sp, 192
	ret
.LBB15_7:
	addi.d	$a0, $sp, 80
	ld.d	$s5, $s4, 136
	ld.d	$s4, $s4, 128
	st.d	$a0, $sp, 64
	ori	$a1, $zero, 16
	st.d	$s5, $sp, 32
	bltu	$s5, $a1, .LBB15_9
# %bb.8:                                # %.noexc.i
	addi.d	$a0, $sp, 64
	addi.d	$a1, $sp, 32
	move	$a2, $zero
	pcaddu18i	$ra, %call36(_ZNSt7__cxx1112basic_stringIcSt11char_traitsIcESaIcEE9_M_createERmm)
	jirl	$ra, $ra, 0
	ld.d	$a1, $sp, 32
	st.d	$a0, $sp, 64
	st.d	$a1, $sp, 80
.LBB15_9:                               # %._crit_edge.i.i
	beqz	$s5, .LBB15_13
# %bb.10:                               # %._crit_edge.i.i
	ori	$a1, $zero, 1
	bne	$s5, $a1, .LBB15_12
# %bb.11:
	ld.b	$a1, $s4, 0
	st.b	$a1, $a0, 0
	b	.LBB15_13
.LBB15_12:
	move	$a1, $s4
	move	$a2, $s5
	pcaddu18i	$ra, %call36(memcpy)
	jirl	$ra, $ra, 0
.LBB15_13:                              # %_ZNSt7__cxx1112basic_stringIcSt11char_traitsIcESaIcEEC2ERKS4_.exit
	ld.d	$a0, $sp, 32
	ld.d	$a1, $sp, 64
	st.d	$a0, $sp, 72
	stx.b	$zero, $a1, $a0
	ld.d	$a0, $s2, 0
	ldx.bu	$s4, $a0, $s1
	ori	$a1, $zero, 34
	move	$a0, $s4
	bne	$s4, $a1, .LBB15_16
# %bb.14:
	ld.d	$a2, $sp, 72
.Ltmp69:
	pcalau12i	$a0, %pc_hi20(.L.str.3)
	addi.d	$a3, $a0, %pc_lo12(.L.str.3)
	addi.d	$a0, $sp, 64
	ori	$a4, $zero, 1
	move	$a1, $zero
	pcaddu18i	$ra, %call36(_ZNSt7__cxx1112basic_stringIcSt11char_traitsIcESaIcEE10_M_replaceEmmPKcm)
	jirl	$ra, $ra, 0
.Ltmp70:
# %bb.15:                               # %._ZNSt7__cxx1112basic_stringIcSt11char_traitsIcESaIcEEaSEPKc.exit_crit_edge
	ld.d	$a0, $s2, 0
	ldx.bu	$a0, $a0, $s1
.LBB15_16:                              # %_ZNSt7__cxx1112basic_stringIcSt11char_traitsIcESaIcEEaSEPKc.exit
	ori	$a1, $zero, 39
	bne	$a0, $a1, .LBB15_18
# %bb.17:
	ld.d	$a2, $sp, 72
	ori	$a0, $zero, 1
	st.d	$a0, $sp, 16                    # 8-byte Folded Spill
.Ltmp71:
	pcalau12i	$a0, %pc_hi20(.L.str.4)
	addi.d	$a3, $a0, %pc_lo12(.L.str.4)
	addi.d	$a0, $sp, 64
	ori	$a4, $zero, 1
	move	$a1, $zero
	pcaddu18i	$ra, %call36(_ZNSt7__cxx1112basic_stringIcSt11char_traitsIcESaIcEE10_M_replaceEmmPKcm)
	jirl	$ra, $ra, 0
.Ltmp72:
	b	.LBB15_19
.LBB15_18:
	addi.d	$a0, $s4, -34
	sltui	$a0, $a0, 1
	st.d	$a0, $sp, 16                    # 8-byte Folded Spill
.LBB15_19:                              # %_ZNSt7__cxx1112basic_stringIcSt11char_traitsIcESaIcEEaSEPKc.exit83
	slli.d	$a0, $s3, 32
	ori	$a1, $zero, 0
	st.d	$a1, $sp, 24                    # 8-byte Folded Spill
	ori	$s8, $zero, 0
	ld.d	$a1, $sp, 64
	ld.d	$a3, $sp, 72
	lu32i.d	$s8, 1
	add.d	$a0, $a0, $s8
	srai.d	$a2, $a0, 32
	move	$a0, $s2
	pcaddu18i	$ra, %call36(_ZNKSt7__cxx1112basic_stringIcSt11char_traitsIcESaIcEE13find_first_ofEPKcmm)
	jirl	$ra, $ra, 0
	addi.w	$a1, $a0, 0
	beq	$a1, $s7, .LBB15_31
# %bb.20:                               # %.lr.ph104.preheader
	addi.d	$a1, $s3, 1
	st.d	$a1, $sp, 8                     # 8-byte Folded Spill
	ld.d	$a1, $sp, 24                    # 8-byte Folded Reload
	lu32i.d	$a1, -1
	st.d	$a1, $sp, 24                    # 8-byte Folded Spill
	ori	$s6, $zero, 3
	lu32i.d	$s6, 3
	ori	$s4, $zero, 46
	ori	$s5, $zero, 10
	b	.LBB15_22
.LBB15_21:                              # %.critedge.loopexit
                                        #   in Loop: Header=BB15_22 Depth=1
	ld.d	$a1, $sp, 64
	ld.d	$a3, $sp, 72
	add.d	$a0, $a2, $s8
	srai.d	$a2, $a0, 32
	move	$a0, $s2
	pcaddu18i	$ra, %call36(_ZNKSt7__cxx1112basic_stringIcSt11char_traitsIcESaIcEE13find_first_ofEPKcmm)
	jirl	$ra, $ra, 0
	addi.w	$a1, $a0, 0
	beq	$a1, $s7, .LBB15_31
.LBB15_22:                              # %.lr.ph104
                                        # =>This Loop Header: Depth=1
                                        #     Child Loop BB15_29 Depth 2
	ld.d	$a1, $s2, 0
	addi.w	$a2, $a0, 0
	ldx.bu	$a2, $a1, $a2
	ori	$a3, $zero, 45
	beq	$a2, $a3, .LBB15_24
# %bb.23:                               # %.lr.ph104
                                        #   in Loop: Header=BB15_22 Depth=1
	ori	$a3, $zero, 43
	bne	$a2, $a3, .LBB15_32
.LBB15_24:                              #   in Loop: Header=BB15_22 Depth=1
	slli.d	$a2, $a0, 32
	ld.d	$a3, $sp, 24                    # 8-byte Folded Reload
	add.d	$a3, $a2, $a3
	srai.d	$a3, $a3, 32
	ldx.bu	$a3, $a1, $a3
	addi.d	$a3, $a3, -68
	ori	$a4, $zero, 33
	bltu	$a4, $a3, .LBB15_32
# %bb.25:                               #   in Loop: Header=BB15_22 Depth=1
	ori	$a4, $zero, 1
	sll.d	$a3, $a4, $a3
	and	$a3, $a3, $s6
	beqz	$a3, .LBB15_32
# %bb.26:                               #   in Loop: Header=BB15_22 Depth=1
	addi.w	$a3, $a0, -2
	blt	$a3, $s1, .LBB15_21
# %bb.27:                               # %.lr.ph.preheader
                                        #   in Loop: Header=BB15_22 Depth=1
	add.d	$a1, $a1, $s1
	addi.w	$a3, $a0, 0
	ld.d	$a4, $sp, 8                     # 8-byte Folded Reload
	b	.LBB15_29
	.p2align	4, , 16
.LBB15_28:                              #   in Loop: Header=BB15_29 Depth=2
	addi.w	$a4, $a4, 1
	addi.d	$a1, $a1, 1
	beq	$a3, $a4, .LBB15_21
.LBB15_29:                              # %.lr.ph
                                        #   Parent Loop BB15_22 Depth=1
                                        # =>  This Inner Loop Header: Depth=2
	ld.b	$a5, $a1, 0
	beq	$a5, $s4, .LBB15_28
# %bb.30:                               # %.lr.ph
                                        #   in Loop: Header=BB15_29 Depth=2
	addi.d	$a5, $a5, -48
	bltu	$a5, $s5, .LBB15_28
	b	.LBB15_32
.LBB15_31:                              # %.critedge._crit_edge
	ld.d	$a0, $s2, 8
.LBB15_32:                              # %.critedge.thread
	ld.d	$a3, $s2, 8
	bltu	$a3, $s1, .LBB15_59
# %bb.33:                               # %_ZNKSt7__cxx1112basic_stringIcSt11char_traitsIcESaIcEE8_M_checkEmPKc.exit.i.i
	addi.w	$a1, $a3, -1
	addi.w	$a2, $a0, 0
	slt	$a4, $a2, $a1
	masknez	$a1, $a1, $a4
	maskeqz	$a2, $a2, $a4
	or	$a1, $a2, $a1
	addi.d	$a1, $a1, 1
	ld.d	$a2, $sp, 16                    # 8-byte Folded Reload
	maskeqz	$a1, $a1, $a2
	masknez	$a0, $a0, $a2
	or	$s4, $a1, $a0
	sub.w	$a0, $s4, $s3
	addi.d	$s3, $sp, 48
	st.d	$s3, $sp, 32
	ld.d	$s5, $s2, 0
	sub.d	$a1, $a3, $s1
	sltu	$a2, $a0, $a1
	masknez	$a1, $a1, $a2
	maskeqz	$a0, $a0, $a2
	or	$s2, $a0, $a1
	ori	$a1, $zero, 16
	st.d	$s2, $sp, 96
	move	$a0, $s3
	bltu	$s2, $a1, .LBB15_36
# %bb.34:                               # %.noexc10.i.i
.Ltmp74:
	addi.d	$a0, $sp, 32
	addi.d	$a1, $sp, 96
	move	$a2, $zero
	pcaddu18i	$ra, %call36(_ZNSt7__cxx1112basic_stringIcSt11char_traitsIcESaIcEE9_M_createERmm)
	jirl	$ra, $ra, 0
.Ltmp75:
# %bb.35:                               # %.noexc84
	ld.d	$a1, $sp, 96
	st.d	$a0, $sp, 32
	st.d	$a1, $sp, 48
.LBB15_36:                              # %._crit_edge.i.i.i
	beqz	$s2, .LBB15_40
# %bb.37:                               # %._crit_edge.i.i.i
	ori	$a2, $zero, 1
	add.d	$a1, $s5, $s1
	bne	$s2, $a2, .LBB15_39
# %bb.38:
	ld.b	$a1, $a1, 0
	st.b	$a1, $a0, 0
	b	.LBB15_40
.LBB15_39:
	move	$a2, $s2
	pcaddu18i	$ra, %call36(memcpy)
	jirl	$ra, $ra, 0
.LBB15_40:
	ld.d	$a0, $sp, 96
	ld.d	$a1, $sp, 32
	st.d	$a0, $sp, 40
	stx.b	$zero, $a1, $a0
	ld.d	$a0, $s0, 0
	addi.d	$a1, $s0, 16
	beq	$a0, $a1, .LBB15_44
# %bb.41:                               # %_ZNKSt7__cxx1112basic_stringIcSt11char_traitsIcESaIcEE11_M_is_localEv.exit.thread.i
	ld.d	$a1, $sp, 32
	beq	$a1, $s3, .LBB15_47
# %bb.42:                               # %_ZNKSt7__cxx1112basic_stringIcSt11char_traitsIcESaIcEE11_M_is_localEv.exit23.thread25.i
	vld	$vr0, $sp, 40
	ld.d	$a2, $s0, 16
	st.d	$a1, $s0, 0
	vst	$vr0, $s0, 8
	beqz	$a0, .LBB15_46
# %bb.43:
	st.d	$a0, $sp, 32
	st.d	$a2, $sp, 48
	b	.LBB15_53
.LBB15_44:                              # %_ZNKSt7__cxx1112basic_stringIcSt11char_traitsIcESaIcEE11_M_is_localEv.exit.i
	ld.d	$a1, $sp, 32
	beq	$a1, $s3, .LBB15_47
# %bb.45:                               # %.thread.i
	vld	$vr0, $sp, 40
	st.d	$a1, $s0, 0
	vst	$vr0, $s0, 8
.LBB15_46:
	st.d	$s3, $sp, 32
	move	$a0, $s3
	b	.LBB15_53
.LBB15_47:
	addi.d	$a2, $sp, 32
	beq	$a2, $s0, .LBB15_58
# %bb.48:
	ld.d	$a2, $sp, 40
	beqz	$a2, .LBB15_52
# %bb.49:
	ori	$a3, $zero, 1
	bne	$a2, $a3, .LBB15_51
# %bb.50:
	ld.b	$a1, $a1, 0
	st.b	$a1, $a0, 0
	b	.LBB15_52
.LBB15_51:
	pcaddu18i	$ra, %call36(memcpy)
	jirl	$ra, $ra, 0
.LBB15_52:                              # %_ZNSt7__cxx1112basic_stringIcSt11char_traitsIcESaIcEE7_S_copyEPcPKcm.exit.i
	ld.d	$a0, $sp, 40
	ld.d	$a1, $s0, 0
	st.d	$a0, $s0, 8
	stx.b	$zero, $a1, $a0
	ld.d	$a0, $sp, 32
.LBB15_53:                              # %_ZNSt7__cxx1112basic_stringIcSt11char_traitsIcESaIcEEaSEOS4_.exit
	addi.d	$s0, $sp, 80
	st.d	$zero, $sp, 40
	st.b	$zero, $a0, 0
	ld.d	$a0, $sp, 32
	beq	$a0, $s3, .LBB15_55
# %bb.54:                               # %_ZNKSt7__cxx1112basic_stringIcSt11char_traitsIcESaIcEE11_M_is_localEv.exit.i.i
	ld.d	$a1, $sp, 48
	addi.d	$a1, $a1, 1
	pcaddu18i	$ra, %call36(_ZdlPvm)
	jirl	$ra, $ra, 0
.LBB15_55:                              # %_ZNSt7__cxx1112basic_stringIcSt11char_traitsIcESaIcEED2Ev.exit
	ld.d	$a0, $sp, 64
	st.w	$s4, $fp, 0
	beq	$a0, $s0, .LBB15_57
# %bb.56:                               # %_ZNKSt7__cxx1112basic_stringIcSt11char_traitsIcESaIcEE11_M_is_localEv.exit.i.i85
	ld.d	$a1, $sp, 80
	addi.d	$a1, $a1, 1
	pcaddu18i	$ra, %call36(_ZdlPvm)
	jirl	$ra, $ra, 0
.LBB15_57:                              # %_ZNSt7__cxx1112basic_stringIcSt11char_traitsIcESaIcEED2Ev.exit87
	ori	$a0, $zero, 1
	b	.LBB15_6
.LBB15_58:
	move	$a0, $a1
	b	.LBB15_53
.LBB15_59:
.Ltmp76:
	pcalau12i	$a0, %pc_hi20(.L.str.222)
	addi.d	$a0, $a0, %pc_lo12(.L.str.222)
	pcalau12i	$a1, %pc_hi20(.L.str.221)
	addi.d	$a1, $a1, %pc_lo12(.L.str.221)
	move	$a2, $s1
	pcaddu18i	$ra, %call36(_ZSt24__throw_out_of_range_fmtPKcz)
	jirl	$ra, $ra, 0
.Ltmp77:
# %bb.60:                               # %.noexc
.LBB15_61:
.Ltmp73:
	b	.LBB15_63
.LBB15_62:
.Ltmp78:
.LBB15_63:
	move	$fp, $a0
	ld.d	$a0, $sp, 64
	addi.d	$a1, $sp, 80
	beq	$a0, $a1, .LBB15_65
# %bb.64:                               # %_ZNKSt7__cxx1112basic_stringIcSt11char_traitsIcESaIcEE11_M_is_localEv.exit.i.i88
	ld.d	$a1, $sp, 80
	addi.d	$a1, $a1, 1
	pcaddu18i	$ra, %call36(_ZdlPvm)
	jirl	$ra, $ra, 0
.LBB15_65:                              # %_ZNSt7__cxx1112basic_stringIcSt11char_traitsIcESaIcEED2Ev.exit90
	move	$a0, $fp
	pcaddu18i	$ra, %call36(_Unwind_Resume)
	jirl	$ra, $ra, 0
.Lfunc_end15:
	.size	_ZN2PP3Cmd17extract_next_wordERiRNSt7__cxx1112basic_stringIcSt11char_traitsIcESaIcEEES8_RNS2_18basic_stringstreamIcS5_S6_EES1_, .Lfunc_end15-_ZN2PP3Cmd17extract_next_wordERiRNSt7__cxx1112basic_stringIcSt11char_traitsIcESaIcEEES8_RNS2_18basic_stringstreamIcS5_S6_EES1_
	.cfi_endproc
	.section	.gcc_except_table,"a",@progbits
	.p2align	2, 0x0
GCC_except_table15:
.Lexception5:
	.byte	255                             # @LPStart Encoding = omit
	.byte	255                             # @TType Encoding = omit
	.byte	1                               # Call site Encoding = uleb128
	.uleb128 .Lcst_end5-.Lcst_begin5
.Lcst_begin5:
	.uleb128 .Lfunc_begin5-.Lfunc_begin5    # >> Call Site 1 <<
	.uleb128 .Ltmp69-.Lfunc_begin5          #   Call between .Lfunc_begin5 and .Ltmp69
	.byte	0                               #     has no landing pad
	.byte	0                               #   On action: cleanup
	.uleb128 .Ltmp69-.Lfunc_begin5          # >> Call Site 2 <<
	.uleb128 .Ltmp72-.Ltmp69                #   Call between .Ltmp69 and .Ltmp72
	.uleb128 .Ltmp73-.Lfunc_begin5          #     jumps to .Ltmp73
	.byte	0                               #   On action: cleanup
	.uleb128 .Ltmp72-.Lfunc_begin5          # >> Call Site 3 <<
	.uleb128 .Ltmp74-.Ltmp72                #   Call between .Ltmp72 and .Ltmp74
	.byte	0                               #     has no landing pad
	.byte	0                               #   On action: cleanup
	.uleb128 .Ltmp74-.Lfunc_begin5          # >> Call Site 4 <<
	.uleb128 .Ltmp75-.Ltmp74                #   Call between .Ltmp74 and .Ltmp75
	.uleb128 .Ltmp78-.Lfunc_begin5          #     jumps to .Ltmp78
	.byte	0                               #   On action: cleanup
	.uleb128 .Ltmp75-.Lfunc_begin5          # >> Call Site 5 <<
	.uleb128 .Ltmp76-.Ltmp75                #   Call between .Ltmp75 and .Ltmp76
	.byte	0                               #     has no landing pad
	.byte	0                               #   On action: cleanup
	.uleb128 .Ltmp76-.Lfunc_begin5          # >> Call Site 6 <<
	.uleb128 .Ltmp77-.Ltmp76                #   Call between .Ltmp76 and .Ltmp77
	.uleb128 .Ltmp78-.Lfunc_begin5          #     jumps to .Ltmp78
	.byte	0                               #   On action: cleanup
	.uleb128 .Ltmp77-.Lfunc_begin5          # >> Call Site 7 <<
	.uleb128 .Lfunc_end15-.Ltmp77           #   Call between .Ltmp77 and .Lfunc_end15
	.byte	0                               #     has no landing pad
	.byte	0                               #   On action: cleanup
.Lcst_end5:
	.p2align	2, 0x0
                                        # -- End function
	.text
	.globl	_ZN2PP3Cmd15reset_name_typeEv   # -- Begin function _ZN2PP3Cmd15reset_name_typeEv
	.p2align	5
	.type	_ZN2PP3Cmd15reset_name_typeEv,@function
_ZN2PP3Cmd15reset_name_typeEv:          # @_ZN2PP3Cmd15reset_name_typeEv
	.cfi_startproc
# %bb.0:
	addi.d	$sp, $sp, -96
	.cfi_def_cfa_offset 96
	st.d	$ra, $sp, 88                    # 8-byte Folded Spill
	st.d	$fp, $sp, 80                    # 8-byte Folded Spill
	st.d	$s0, $sp, 72                    # 8-byte Folded Spill
	st.d	$s1, $sp, 64                    # 8-byte Folded Spill
	st.d	$s2, $sp, 56                    # 8-byte Folded Spill
	st.d	$s3, $sp, 48                    # 8-byte Folded Spill
	st.d	$s4, $sp, 40                    # 8-byte Folded Spill
	.cfi_offset 1, -8
	.cfi_offset 22, -16
	.cfi_offset 23, -24
	.cfi_offset 24, -32
	.cfi_offset 25, -40
	.cfi_offset 26, -48
	.cfi_offset 27, -56
	move	$fp, $a0
	ld.d	$a1, $a0, 232
	ld.d	$a0, $a0, 200
	sub.d	$a2, $a1, $a0
	srli.d	$a2, $a2, 3
	sltu	$a1, $zero, $a1
	ld.d	$a3, $fp, 208
	ld.d	$a4, $fp, 216
	sub.d	$a2, $a2, $a1
	ld.d	$a5, $fp, 192
	ld.d	$a1, $fp, 176
	sub.d	$a3, $a3, $a4
	srli.d	$a3, $a3, 7
	alsl.d	$a2, $a2, $a3, 2
	sub.d	$a3, $a5, $a1
	srli.d	$a3, $a3, 7
	add.d	$a2, $a2, $a3
	bstrpick.d	$a2, $a2, 31, 0
	addi.d	$s1, $fp, 240
	addi.d	$s0, $fp, 272
	beqz	$a2, .LBB16_4
# %bb.1:
	ld.d	$a2, $fp, 184
	sub.d	$a3, $a1, $a2
	srai.d	$a2, $a3, 7
	bltz	$a2, .LBB16_5
# %bb.2:
	ori	$a3, $zero, 4
	bltu	$a2, $a3, .LBB16_7
# %bb.3:
	srli.d	$a1, $a2, 2
	b	.LBB16_6
.LBB16_4:
	ld.d	$a2, $fp, 248
	pcalau12i	$a0, %pc_hi20(.L.str.5)
	addi.d	$s2, $a0, %pc_lo12(.L.str.5)
	ori	$a4, $zero, 1
	move	$a0, $s1
	move	$a1, $zero
	move	$a3, $s2
	pcaddu18i	$ra, %call36(_ZNSt7__cxx1112basic_stringIcSt11char_traitsIcESaIcEE10_M_replaceEmmPKcm)
	jirl	$ra, $ra, 0
	ld.d	$a2, $fp, 280
	ori	$a4, $zero, 1
	move	$a0, $s0
	move	$a1, $zero
	move	$a3, $s2
	ld.d	$s4, $sp, 40                    # 8-byte Folded Reload
	ld.d	$s3, $sp, 48                    # 8-byte Folded Reload
	ld.d	$s2, $sp, 56                    # 8-byte Folded Reload
	ld.d	$s1, $sp, 64                    # 8-byte Folded Reload
	ld.d	$s0, $sp, 72                    # 8-byte Folded Reload
	ld.d	$fp, $sp, 80                    # 8-byte Folded Reload
	ld.d	$ra, $sp, 88                    # 8-byte Folded Reload
	addi.d	$sp, $sp, 96
	pcaddu18i	$t8, %call36(_ZNSt7__cxx1112basic_stringIcSt11char_traitsIcESaIcEE10_M_replaceEmmPKcm)
	jr	$t8
.LBB16_5:
	srai.d	$a1, $a3, 9
.LBB16_6:
	slli.d	$a3, $a1, 3
	ldx.d	$a0, $a0, $a3
	slli.d	$a1, $a1, 2
	sub.d	$a1, $a2, $a1
	slli.d	$a1, $a1, 7
	add.d	$a1, $a0, $a1
.LBB16_7:                               # %_ZNSt5dequeIN2PP4WordESaIS1_EEixEm.exit
	addi.d	$s4, $sp, 16
	ld.d	$s2, $a1, 8
	ld.d	$s3, $a1, 0
	st.d	$s4, $sp, 0
	ori	$a1, $zero, 16
	st.d	$s2, $sp, 32
	move	$a0, $s4
	bltu	$s2, $a1, .LBB16_9
# %bb.8:                                # %.noexc.i.i
	addi.d	$a0, $sp, 0
	addi.d	$a1, $sp, 32
	move	$a2, $zero
	pcaddu18i	$ra, %call36(_ZNSt7__cxx1112basic_stringIcSt11char_traitsIcESaIcEE9_M_createERmm)
	jirl	$ra, $ra, 0
	ld.d	$a1, $sp, 32
	st.d	$a0, $sp, 0
	st.d	$a1, $sp, 16
.LBB16_9:                               # %._crit_edge.i.i.i
	beqz	$s2, .LBB16_13
# %bb.10:                               # %._crit_edge.i.i.i
	ori	$a1, $zero, 1
	bne	$s2, $a1, .LBB16_12
# %bb.11:
	ld.b	$a1, $s3, 0
	st.b	$a1, $a0, 0
	b	.LBB16_13
.LBB16_12:
	move	$a1, $s3
	move	$a2, $s2
	pcaddu18i	$ra, %call36(memcpy)
	jirl	$ra, $ra, 0
.LBB16_13:                              # %_ZN2PP4Word10get_stringB5cxx11Ev.exit
	ld.d	$a0, $sp, 32
	ld.d	$a1, $sp, 0
	st.d	$a0, $sp, 8
	stx.b	$zero, $a1, $a0
	ld.d	$a0, $fp, 240
	addi.d	$a1, $fp, 256
	beq	$a0, $a1, .LBB16_17
# %bb.14:                               # %_ZNKSt7__cxx1112basic_stringIcSt11char_traitsIcESaIcEE11_M_is_localEv.exit.thread.i
	ld.d	$a1, $sp, 0
	beq	$a1, $s4, .LBB16_20
# %bb.15:                               # %_ZNKSt7__cxx1112basic_stringIcSt11char_traitsIcESaIcEE11_M_is_localEv.exit23.thread25.i
	vld	$vr0, $sp, 8
	ld.d	$a2, $fp, 256
	st.d	$a1, $fp, 240
	vst	$vr0, $fp, 248
	beqz	$a0, .LBB16_19
# %bb.16:
	st.d	$a0, $sp, 0
	st.d	$a2, $sp, 16
	st.d	$zero, $sp, 8
	st.b	$zero, $a0, 0
	ld.d	$a0, $sp, 0
	bne	$a0, $s4, .LBB16_26
	b	.LBB16_27
.LBB16_17:                              # %_ZNKSt7__cxx1112basic_stringIcSt11char_traitsIcESaIcEE11_M_is_localEv.exit.i
	ld.d	$a1, $sp, 0
	beq	$a1, $s4, .LBB16_20
# %bb.18:                               # %.thread.i
	vld	$vr0, $sp, 8
	st.d	$a1, $fp, 240
	vst	$vr0, $fp, 248
.LBB16_19:
	st.d	$s4, $sp, 0
	move	$a0, $s4
	st.d	$zero, $sp, 8
	st.b	$zero, $a0, 0
	ld.d	$a0, $sp, 0
	bne	$a0, $s4, .LBB16_26
	b	.LBB16_27
.LBB16_20:
	addi.d	$a2, $sp, 0
	beq	$a2, $s1, .LBB16_73
# %bb.21:
	ld.d	$a2, $sp, 8
	beqz	$a2, .LBB16_25
# %bb.22:
	ori	$a3, $zero, 1
	bne	$a2, $a3, .LBB16_24
# %bb.23:
	ld.b	$a1, $a1, 0
	st.b	$a1, $a0, 0
	b	.LBB16_25
.LBB16_24:
	pcaddu18i	$ra, %call36(memcpy)
	jirl	$ra, $ra, 0
.LBB16_25:                              # %_ZNSt7__cxx1112basic_stringIcSt11char_traitsIcESaIcEE7_S_copyEPcPKcm.exit.i
	ld.d	$a0, $sp, 8
	ld.d	$a1, $fp, 240
	st.d	$a0, $fp, 248
	stx.b	$zero, $a1, $a0
	ld.d	$a0, $sp, 0
	st.d	$zero, $sp, 8
	st.b	$zero, $a0, 0
	ld.d	$a0, $sp, 0
	beq	$a0, $s4, .LBB16_27
.LBB16_26:                              # %_ZNKSt7__cxx1112basic_stringIcSt11char_traitsIcESaIcEE11_M_is_localEv.exit.i.i
	ld.d	$a1, $sp, 16
	addi.d	$a1, $a1, 1
	pcaddu18i	$ra, %call36(_ZdlPvm)
	jirl	$ra, $ra, 0
.LBB16_27:                              # %_ZNSt7__cxx1112basic_stringIcSt11char_traitsIcESaIcEED2Ev.exit
	pcalau12i	$a0, %pc_hi20(_ZN2PPL14case_sensitiveE)
	ld.bu	$a0, $a0, %pc_lo12(_ZN2PPL14case_sensitiveE)
	bnez	$a0, .LBB16_31
# %bb.28:
	ld.d	$s2, $fp, 248
	beqz	$s2, .LBB16_31
# %bb.29:                               # %.lr.ph.i.preheader
	ld.d	$s3, $fp, 240
	.p2align	4, , 16
.LBB16_30:                              # %.lr.ph.i
                                        # =>This Inner Loop Header: Depth=1
	ld.b	$a0, $s3, 0
	pcaddu18i	$ra, %call36(tolower)
	jirl	$ra, $ra, 0
	st.b	$a0, $s3, 0
	addi.d	$s2, $s2, -1
	addi.d	$s3, $s3, 1
	bnez	$s2, .LBB16_30
.LBB16_31:                              # %_ZSt9transformIN9__gnu_cxx17__normal_iteratorIPcNSt7__cxx1112basic_stringIcSt11char_traitsIcESaIcEEEEES9_PDoFiiEET0_T_SD_SC_T1_.exit
	ld.d	$a2, $fp, 280
	pcalau12i	$a0, %pc_hi20(.L.str.6)
	addi.d	$a3, $a0, %pc_lo12(.L.str.6)
	ori	$a4, $zero, 7
	move	$a0, $s0
	move	$a1, $zero
	pcaddu18i	$ra, %call36(_ZNSt7__cxx1112basic_stringIcSt11char_traitsIcESaIcEE10_M_replaceEmmPKcm)
	jirl	$ra, $ra, 0
	ld.d	$a2, $fp, 176
	ld.d	$a1, $fp, 184
	ld.d	$a0, $fp, 200
	sub.d	$a3, $a2, $a1
	srai.d	$a1, $a3, 7
	bltz	$a1, .LBB16_35
# %bb.32:
	ori	$a3, $zero, 4
	bgeu	$a1, $a3, .LBB16_36
# %bb.33:                               # %_ZNSt5dequeIN2PP4WordESaIS1_EEixEm.exit6
	ld.w	$a0, $a2, 32
	ori	$a1, $zero, 13
	beq	$a0, $a1, .LBB16_38
.LBB16_34:
	ld.d	$a0, $fp, 248
	ori	$a1, $zero, 21
	beq	$a0, $a1, .LBB16_39
	b	.LBB16_43
.LBB16_35:
	srai.d	$a2, $a3, 9
	b	.LBB16_37
.LBB16_36:
	srli.d	$a2, $a1, 2
.LBB16_37:
	slli.d	$a3, $a2, 3
	ldx.d	$a0, $a0, $a3
	slli.d	$a2, $a2, 2
	sub.d	$a1, $a1, $a2
	slli.d	$a1, $a1, 7
	add.d	$a2, $a0, $a1
	ld.w	$a0, $a2, 32
	ori	$a1, $zero, 13
	bne	$a0, $a1, .LBB16_34
.LBB16_38:
	ld.d	$a2, $fp, 280
	pcalau12i	$a0, %pc_hi20(.L.str.7)
	addi.d	$a3, $a0, %pc_lo12(.L.str.7)
	ori	$a4, $zero, 10
	move	$a0, $s0
	move	$a1, $zero
	pcaddu18i	$ra, %call36(_ZNSt7__cxx1112basic_stringIcSt11char_traitsIcESaIcEE10_M_replaceEmmPKcm)
	jirl	$ra, $ra, 0
	ld.d	$a0, $fp, 248
	ori	$a1, $zero, 21
	bne	$a0, $a1, .LBB16_43
.LBB16_39:                              # %_ZSteqIcSt11char_traitsIcESaIcEEbRKNSt7__cxx1112basic_stringIT_T0_T1_EEPKS5_.exit
	ld.d	$a0, $s1, 0
	pcalau12i	$a1, %pc_hi20(.L.str.8)
	addi.d	$a1, $a1, %pc_lo12(.L.str.8)
	ori	$a2, $zero, 21
	ori	$s2, $zero, 21
	pcaddu18i	$ra, %call36(bcmp)
	jirl	$ra, $ra, 0
	bnez	$a0, .LBB16_41
# %bb.40:                               # %_ZSteqIcSt11char_traitsIcESaIcEEbRKNSt7__cxx1112basic_stringIT_T0_T1_EEPKS5_.exit.thread29
	ld.d	$a2, $fp, 280
	pcalau12i	$a0, %pc_hi20(.L.str.9)
	addi.d	$a3, $a0, %pc_lo12(.L.str.9)
	ori	$a4, $zero, 5
	move	$a0, $s0
	move	$a1, $zero
	pcaddu18i	$ra, %call36(_ZNSt7__cxx1112basic_stringIcSt11char_traitsIcESaIcEE10_M_replaceEmmPKcm)
	jirl	$ra, $ra, 0
	ld.d	$a0, $fp, 248
	bne	$a0, $s2, .LBB16_43
.LBB16_41:                              # %_ZSteqIcSt11char_traitsIcESaIcEEbRKNSt7__cxx1112basic_stringIT_T0_T1_EEPKS5_.exit8
	ld.d	$a0, $s1, 0
	pcalau12i	$a1, %pc_hi20(.L.str.10)
	addi.d	$a1, $a1, %pc_lo12(.L.str.10)
	ori	$a2, $zero, 21
	pcaddu18i	$ra, %call36(bcmp)
	jirl	$ra, $ra, 0
	bnez	$a0, .LBB16_72
# %bb.42:                               # %_ZSteqIcSt11char_traitsIcESaIcEEbRKNSt7__cxx1112basic_stringIT_T0_T1_EEPKS5_.exit8.thread
	ld.d	$a2, $fp, 280
	pcalau12i	$a0, %pc_hi20(.L.str.9)
	addi.d	$a3, $a0, %pc_lo12(.L.str.9)
	ori	$a4, $zero, 5
	move	$a0, $s0
	move	$a1, $zero
	pcaddu18i	$ra, %call36(_ZNSt7__cxx1112basic_stringIcSt11char_traitsIcESaIcEE10_M_replaceEmmPKcm)
	jirl	$ra, $ra, 0
	ld.d	$a0, $fp, 248
.LBB16_43:                              # %_ZSteqIcSt11char_traitsIcESaIcEEbRKNSt7__cxx1112basic_stringIT_T0_T1_EEPKS5_.exit8.thread30
	ori	$a1, $zero, 20
	bne	$a0, $a1, .LBB16_46
# %bb.44:                               # %_ZSteqIcSt11char_traitsIcESaIcEEbRKNSt7__cxx1112basic_stringIT_T0_T1_EEPKS5_.exit10
	ld.d	$a0, $s1, 0
	pcalau12i	$a1, %pc_hi20(.L.str.11)
	addi.d	$a1, $a1, %pc_lo12(.L.str.11)
	ori	$a2, $zero, 20
	pcaddu18i	$ra, %call36(bcmp)
	jirl	$ra, $ra, 0
	bnez	$a0, .LBB16_72
# %bb.45:                               # %_ZSteqIcSt11char_traitsIcESaIcEEbRKNSt7__cxx1112basic_stringIT_T0_T1_EEPKS5_.exit10.thread
	ld.d	$a2, $fp, 280
	pcalau12i	$a0, %pc_hi20(.L.str.9)
	addi.d	$a3, $a0, %pc_lo12(.L.str.9)
	ori	$a4, $zero, 5
	move	$a0, $s0
	move	$a1, $zero
	pcaddu18i	$ra, %call36(_ZNSt7__cxx1112basic_stringIcSt11char_traitsIcESaIcEE10_M_replaceEmmPKcm)
	jirl	$ra, $ra, 0
	ld.d	$a0, $fp, 248
.LBB16_46:                              # %_ZSteqIcSt11char_traitsIcESaIcEEbRKNSt7__cxx1112basic_stringIT_T0_T1_EEPKS5_.exit10.thread31
	ori	$a1, $zero, 2
	bne	$a0, $a1, .LBB16_49
# %bb.47:                               # %_ZSteqIcSt11char_traitsIcESaIcEEbRKNSt7__cxx1112basic_stringIT_T0_T1_EEPKS5_.exit12
	ld.d	$a0, $s1, 0
	ld.hu	$a0, $a0, 0
	lu12i.w	$a1, 6
	ori	$a1, $a1, 1641
	bne	$a0, $a1, .LBB16_56
# %bb.48:                               # %_ZSteqIcSt11char_traitsIcESaIcEEbRKNSt7__cxx1112basic_stringIT_T0_T1_EEPKS5_.exit12.thread
	ld.d	$a2, $fp, 280
	pcalau12i	$a0, %pc_hi20(.L.str.13)
	addi.d	$a3, $a0, %pc_lo12(.L.str.13)
	ori	$a4, $zero, 12
	move	$a0, $s0
	move	$a1, $zero
	pcaddu18i	$ra, %call36(_ZNSt7__cxx1112basic_stringIcSt11char_traitsIcESaIcEE10_M_replaceEmmPKcm)
	jirl	$ra, $ra, 0
	ld.d	$a0, $fp, 248
.LBB16_49:                              # %_ZSteqIcSt11char_traitsIcESaIcEEbRKNSt7__cxx1112basic_stringIT_T0_T1_EEPKS5_.exit12.thread34
	ori	$a1, $zero, 6
	bne	$a0, $a1, .LBB16_52
# %bb.50:                               # %_ZSteqIcSt11char_traitsIcESaIcEEbRKNSt7__cxx1112basic_stringIT_T0_T1_EEPKS5_.exit14
	ld.d	$a0, $s1, 0
	pcalau12i	$a1, %pc_hi20(.L.str.14)
	addi.d	$a1, $a1, %pc_lo12(.L.str.14)
	ori	$a2, $zero, 6
	pcaddu18i	$ra, %call36(bcmp)
	jirl	$ra, $ra, 0
	bnez	$a0, .LBB16_59
# %bb.51:                               # %_ZSteqIcSt11char_traitsIcESaIcEEbRKNSt7__cxx1112basic_stringIT_T0_T1_EEPKS5_.exit14.thread
	ld.d	$a2, $fp, 280
	pcalau12i	$a0, %pc_hi20(.L.str.13)
	addi.d	$a3, $a0, %pc_lo12(.L.str.13)
	ori	$a4, $zero, 12
	move	$a0, $s0
	move	$a1, $zero
	pcaddu18i	$ra, %call36(_ZNSt7__cxx1112basic_stringIcSt11char_traitsIcESaIcEE10_M_replaceEmmPKcm)
	jirl	$ra, $ra, 0
	ld.d	$a0, $fp, 248
.LBB16_52:                              # %_ZSteqIcSt11char_traitsIcESaIcEEbRKNSt7__cxx1112basic_stringIT_T0_T1_EEPKS5_.exit14.thread35
	ori	$a1, $zero, 5
	bne	$a0, $a1, .LBB16_55
# %bb.53:                               # %_ZSteqIcSt11char_traitsIcESaIcEEbRKNSt7__cxx1112basic_stringIT_T0_T1_EEPKS5_.exit16
	ld.d	$a0, $s1, 0
	pcalau12i	$a1, %pc_hi20(.L.str.15)
	addi.d	$a1, $a1, %pc_lo12(.L.str.15)
	ori	$a2, $zero, 5
	pcaddu18i	$ra, %call36(bcmp)
	jirl	$ra, $ra, 0
	bnez	$a0, .LBB16_62
# %bb.54:                               # %_ZSteqIcSt11char_traitsIcESaIcEEbRKNSt7__cxx1112basic_stringIT_T0_T1_EEPKS5_.exit16.thread
	ld.d	$a2, $fp, 280
	pcalau12i	$a0, %pc_hi20(.L.str.13)
	addi.d	$a3, $a0, %pc_lo12(.L.str.13)
	ori	$a4, $zero, 12
	move	$a0, $s0
	move	$a1, $zero
	pcaddu18i	$ra, %call36(_ZNSt7__cxx1112basic_stringIcSt11char_traitsIcESaIcEE10_M_replaceEmmPKcm)
	jirl	$ra, $ra, 0
	ld.d	$a0, $fp, 248
.LBB16_55:                              # %_ZSteqIcSt11char_traitsIcESaIcEEbRKNSt7__cxx1112basic_stringIT_T0_T1_EEPKS5_.exit16.thread38
	ori	$a1, $zero, 2
	bne	$a0, $a1, .LBB16_58
.LBB16_56:                              # %_ZSteqIcSt11char_traitsIcESaIcEEbRKNSt7__cxx1112basic_stringIT_T0_T1_EEPKS5_.exit18
	ld.d	$a0, $s1, 0
	ld.hu	$a0, $a0, 0
	lu12i.w	$a1, 6
	ori	$a1, $a1, 3940
	bne	$a0, $a1, .LBB16_72
# %bb.57:                               # %_ZSteqIcSt11char_traitsIcESaIcEEbRKNSt7__cxx1112basic_stringIT_T0_T1_EEPKS5_.exit18.thread
	ld.d	$a2, $fp, 280
	pcalau12i	$a0, %pc_hi20(.L.str.13)
	addi.d	$a3, $a0, %pc_lo12(.L.str.13)
	ori	$a4, $zero, 12
	move	$a0, $s0
	move	$a1, $zero
	pcaddu18i	$ra, %call36(_ZNSt7__cxx1112basic_stringIcSt11char_traitsIcESaIcEE10_M_replaceEmmPKcm)
	jirl	$ra, $ra, 0
	ld.d	$a0, $fp, 248
.LBB16_58:                              # %_ZSteqIcSt11char_traitsIcESaIcEEbRKNSt7__cxx1112basic_stringIT_T0_T1_EEPKS5_.exit18.thread39
	ori	$a1, $zero, 6
	bne	$a0, $a1, .LBB16_61
.LBB16_59:                              # %_ZSteqIcSt11char_traitsIcESaIcEEbRKNSt7__cxx1112basic_stringIT_T0_T1_EEPKS5_.exit20
	ld.d	$a0, $s1, 0
	pcalau12i	$a1, %pc_hi20(.L.str.17)
	addi.d	$a1, $a1, %pc_lo12(.L.str.17)
	ori	$a2, $zero, 6
	pcaddu18i	$ra, %call36(bcmp)
	jirl	$ra, $ra, 0
	bnez	$a0, .LBB16_72
# %bb.60:                               # %_ZSteqIcSt11char_traitsIcESaIcEEbRKNSt7__cxx1112basic_stringIT_T0_T1_EEPKS5_.exit20.thread
	ld.d	$a2, $fp, 280
	pcalau12i	$a0, %pc_hi20(.L.str.13)
	addi.d	$a3, $a0, %pc_lo12(.L.str.13)
	ori	$a4, $zero, 12
	move	$a0, $s0
	move	$a1, $zero
	pcaddu18i	$ra, %call36(_ZNSt7__cxx1112basic_stringIcSt11char_traitsIcESaIcEE10_M_replaceEmmPKcm)
	jirl	$ra, $ra, 0
	ld.d	$a0, $fp, 248
.LBB16_61:                              # %_ZSteqIcSt11char_traitsIcESaIcEEbRKNSt7__cxx1112basic_stringIT_T0_T1_EEPKS5_.exit20.thread42
	ori	$a1, $zero, 5
	bne	$a0, $a1, .LBB16_64
.LBB16_62:                              # %_ZSteqIcSt11char_traitsIcESaIcEEbRKNSt7__cxx1112basic_stringIT_T0_T1_EEPKS5_.exit22
	ld.d	$a0, $s1, 0
	pcalau12i	$a1, %pc_hi20(.L.str.18)
	addi.d	$a1, $a1, %pc_lo12(.L.str.18)
	ori	$a2, $zero, 5
	pcaddu18i	$ra, %call36(bcmp)
	jirl	$ra, $ra, 0
	bnez	$a0, .LBB16_72
# %bb.63:                               # %_ZSteqIcSt11char_traitsIcESaIcEEbRKNSt7__cxx1112basic_stringIT_T0_T1_EEPKS5_.exit22.thread
	ld.d	$a2, $fp, 280
	pcalau12i	$a0, %pc_hi20(.L.str.13)
	addi.d	$a3, $a0, %pc_lo12(.L.str.13)
	ori	$a4, $zero, 12
	move	$a0, $s0
	move	$a1, $zero
	pcaddu18i	$ra, %call36(_ZNSt7__cxx1112basic_stringIcSt11char_traitsIcESaIcEE10_M_replaceEmmPKcm)
	jirl	$ra, $ra, 0
	ld.d	$a0, $fp, 248
.LBB16_64:                              # %_ZSteqIcSt11char_traitsIcESaIcEEbRKNSt7__cxx1112basic_stringIT_T0_T1_EEPKS5_.exit22.thread43
	ori	$a1, $zero, 4
	bne	$a0, $a1, .LBB16_69
# %bb.65:                               # %_ZSteqIcSt11char_traitsIcESaIcEEbRKNSt7__cxx1112basic_stringIT_T0_T1_EEPKS5_.exit24
	ld.d	$a0, $s1, 0
	ld.w	$a0, $a0, 0
	lu12i.w	$a1, 460535
	ori	$a1, $a1, 1139
	bne	$a0, $a1, .LBB16_67
# %bb.66:                               # %_ZSteqIcSt11char_traitsIcESaIcEEbRKNSt7__cxx1112basic_stringIT_T0_T1_EEPKS5_.exit24.thread46
	ld.d	$a2, $fp, 280
	pcalau12i	$a0, %pc_hi20(.L.str.13)
	addi.d	$a3, $a0, %pc_lo12(.L.str.13)
	ori	$a4, $zero, 12
	move	$a0, $s0
	move	$a1, $zero
	pcaddu18i	$ra, %call36(_ZNSt7__cxx1112basic_stringIcSt11char_traitsIcESaIcEE10_M_replaceEmmPKcm)
	jirl	$ra, $ra, 0
	ld.d	$a0, $fp, 248
	ori	$a1, $zero, 4
	bne	$a0, $a1, .LBB16_69
.LBB16_67:                              # %_ZSteqIcSt11char_traitsIcESaIcEEbRKNSt7__cxx1112basic_stringIT_T0_T1_EEPKS5_.exit26
	ld.d	$a0, $s1, 0
	ld.w	$a0, $a0, 0
	lu12i.w	$a1, 452182
	ori	$a1, $a1, 2167
	bne	$a0, $a1, .LBB16_72
# %bb.68:                               # %_ZSteqIcSt11char_traitsIcESaIcEEbRKNSt7__cxx1112basic_stringIT_T0_T1_EEPKS5_.exit26.thread
	ld.d	$a2, $fp, 280
	pcalau12i	$a0, %pc_hi20(.L.str.13)
	addi.d	$a3, $a0, %pc_lo12(.L.str.13)
	ori	$a4, $zero, 12
	move	$a0, $s0
	move	$a1, $zero
	pcaddu18i	$ra, %call36(_ZNSt7__cxx1112basic_stringIcSt11char_traitsIcESaIcEE10_M_replaceEmmPKcm)
	jirl	$ra, $ra, 0
	ld.d	$a0, $fp, 248
.LBB16_69:                              # %_ZSteqIcSt11char_traitsIcESaIcEEbRKNSt7__cxx1112basic_stringIT_T0_T1_EEPKS5_.exit26.thread47
	ori	$a1, $zero, 7
	bne	$a0, $a1, .LBB16_72
# %bb.70:                               # %_ZSteqIcSt11char_traitsIcESaIcEEbRKNSt7__cxx1112basic_stringIT_T0_T1_EEPKS5_.exit28
	ld.d	$a0, $s1, 0
	pcalau12i	$a1, %pc_hi20(.L.str.21)
	addi.d	$a1, $a1, %pc_lo12(.L.str.21)
	ori	$a2, $zero, 7
	pcaddu18i	$ra, %call36(bcmp)
	jirl	$ra, $ra, 0
	bnez	$a0, .LBB16_72
# %bb.71:                               # %_ZSteqIcSt11char_traitsIcESaIcEEbRKNSt7__cxx1112basic_stringIT_T0_T1_EEPKS5_.exit28.thread
	ld.d	$a2, $fp, 280
	pcalau12i	$a0, %pc_hi20(.L.str.13)
	addi.d	$a3, $a0, %pc_lo12(.L.str.13)
	ori	$a4, $zero, 12
	move	$a0, $s0
	move	$a1, $zero
	pcaddu18i	$ra, %call36(_ZNSt7__cxx1112basic_stringIcSt11char_traitsIcESaIcEE10_M_replaceEmmPKcm)
	jirl	$ra, $ra, 0
.LBB16_72:                              # %_ZSteqIcSt11char_traitsIcESaIcEEbRKNSt7__cxx1112basic_stringIT_T0_T1_EEPKS5_.exit28.thread50
	ld.d	$s4, $sp, 40                    # 8-byte Folded Reload
	ld.d	$s3, $sp, 48                    # 8-byte Folded Reload
	ld.d	$s2, $sp, 56                    # 8-byte Folded Reload
	ld.d	$s1, $sp, 64                    # 8-byte Folded Reload
	ld.d	$s0, $sp, 72                    # 8-byte Folded Reload
	ld.d	$fp, $sp, 80                    # 8-byte Folded Reload
	ld.d	$ra, $sp, 88                    # 8-byte Folded Reload
	addi.d	$sp, $sp, 96
	ret
.LBB16_73:
	move	$a0, $a1
	st.d	$zero, $sp, 8
	st.b	$zero, $a0, 0
	ld.d	$a0, $sp, 0
	bne	$a0, $s4, .LBB16_26
	b	.LBB16_27
.Lfunc_end16:
	.size	_ZN2PP3Cmd15reset_name_typeEv, .Lfunc_end16-_ZN2PP3Cmd15reset_name_typeEv
	.cfi_endproc
                                        # -- End function
	.section	.text._ZN2PP4Word10get_stringB5cxx11Ev,"axG",@progbits,_ZN2PP4Word10get_stringB5cxx11Ev,comdat
	.weak	_ZN2PP4Word10get_stringB5cxx11Ev # -- Begin function _ZN2PP4Word10get_stringB5cxx11Ev
	.p2align	5
	.type	_ZN2PP4Word10get_stringB5cxx11Ev,@function
_ZN2PP4Word10get_stringB5cxx11Ev:       # @_ZN2PP4Word10get_stringB5cxx11Ev
	.cfi_startproc
# %bb.0:
	addi.d	$sp, $sp, -48
	.cfi_def_cfa_offset 48
	st.d	$ra, $sp, 40                    # 8-byte Folded Spill
	st.d	$fp, $sp, 32                    # 8-byte Folded Spill
	st.d	$s0, $sp, 24                    # 8-byte Folded Spill
	st.d	$s1, $sp, 16                    # 8-byte Folded Spill
	.cfi_offset 1, -8
	.cfi_offset 22, -16
	.cfi_offset 23, -24
	.cfi_offset 24, -32
	move	$fp, $a0
	addi.d	$a0, $a0, 16
	ld.d	$s0, $a1, 8
	ld.d	$s1, $a1, 0
	st.d	$a0, $fp, 0
	ori	$a1, $zero, 16
	st.d	$s0, $sp, 8
	bltu	$s0, $a1, .LBB17_2
# %bb.1:                                # %.noexc.i
	addi.d	$a1, $sp, 8
	move	$a0, $fp
	move	$a2, $zero
	pcaddu18i	$ra, %call36(_ZNSt7__cxx1112basic_stringIcSt11char_traitsIcESaIcEE9_M_createERmm)
	jirl	$ra, $ra, 0
	ld.d	$a1, $sp, 8
	st.d	$a0, $fp, 0
	st.d	$a1, $fp, 16
.LBB17_2:                               # %._crit_edge.i.i
	beqz	$s0, .LBB17_6
# %bb.3:                                # %._crit_edge.i.i
	ori	$a1, $zero, 1
	bne	$s0, $a1, .LBB17_5
# %bb.4:
	ld.b	$a1, $s1, 0
	st.b	$a1, $a0, 0
	b	.LBB17_6
.LBB17_5:
	move	$a1, $s1
	move	$a2, $s0
	pcaddu18i	$ra, %call36(memcpy)
	jirl	$ra, $ra, 0
.LBB17_6:                               # %_ZNSt7__cxx1112basic_stringIcSt11char_traitsIcESaIcEEC2ERKS4_.exit
	ld.d	$a0, $sp, 8
	ld.d	$a1, $fp, 0
	st.d	$a0, $fp, 8
	stx.b	$zero, $a1, $a0
	ld.d	$s1, $sp, 16                    # 8-byte Folded Reload
	ld.d	$s0, $sp, 24                    # 8-byte Folded Reload
	ld.d	$fp, $sp, 32                    # 8-byte Folded Reload
	ld.d	$ra, $sp, 40                    # 8-byte Folded Reload
	addi.d	$sp, $sp, 48
	ret
.Lfunc_end17:
	.size	_ZN2PP4Word10get_stringB5cxx11Ev, .Lfunc_end17-_ZN2PP4Word10get_stringB5cxx11Ev
	.cfi_endproc
                                        # -- End function
	.section	.text._ZSteqIcSt11char_traitsIcESaIcEEbRKNSt7__cxx1112basic_stringIT_T0_T1_EEPKS5_,"axG",@progbits,_ZSteqIcSt11char_traitsIcESaIcEEbRKNSt7__cxx1112basic_stringIT_T0_T1_EEPKS5_,comdat
	.weak	_ZSteqIcSt11char_traitsIcESaIcEEbRKNSt7__cxx1112basic_stringIT_T0_T1_EEPKS5_ # -- Begin function _ZSteqIcSt11char_traitsIcESaIcEEbRKNSt7__cxx1112basic_stringIT_T0_T1_EEPKS5_
	.p2align	5
	.type	_ZSteqIcSt11char_traitsIcESaIcEEbRKNSt7__cxx1112basic_stringIT_T0_T1_EEPKS5_,@function
_ZSteqIcSt11char_traitsIcESaIcEEbRKNSt7__cxx1112basic_stringIT_T0_T1_EEPKS5_: # @_ZSteqIcSt11char_traitsIcESaIcEEbRKNSt7__cxx1112basic_stringIT_T0_T1_EEPKS5_
	.cfi_startproc
# %bb.0:
	addi.d	$sp, $sp, -32
	.cfi_def_cfa_offset 32
	st.d	$ra, $sp, 24                    # 8-byte Folded Spill
	st.d	$fp, $sp, 16                    # 8-byte Folded Spill
	st.d	$s0, $sp, 8                     # 8-byte Folded Spill
	st.d	$s1, $sp, 0                     # 8-byte Folded Spill
	.cfi_offset 1, -8
	.cfi_offset 22, -16
	.cfi_offset 23, -24
	.cfi_offset 24, -32
	move	$s1, $a0
	ld.d	$fp, $a0, 8
	move	$s0, $a1
	move	$a0, $a1
	pcaddu18i	$ra, %call36(strlen)
	jirl	$ra, $ra, 0
	bne	$fp, $a0, .LBB18_3
# %bb.1:
	beqz	$fp, .LBB18_4
# %bb.2:
	ld.d	$a0, $s1, 0
	move	$a1, $s0
	move	$a2, $fp
	pcaddu18i	$ra, %call36(bcmp)
	jirl	$ra, $ra, 0
	sltui	$a0, $a0, 1
	b	.LBB18_5
.LBB18_3:
	move	$a0, $zero
	b	.LBB18_5
.LBB18_4:
	ori	$a0, $zero, 1
.LBB18_5:                               # %_ZNSt11char_traitsIcE7compareEPKcS2_m.exit
	ld.d	$s1, $sp, 0                     # 8-byte Folded Reload
	ld.d	$s0, $sp, 8                     # 8-byte Folded Reload
	ld.d	$fp, $sp, 16                    # 8-byte Folded Reload
	ld.d	$ra, $sp, 24                    # 8-byte Folded Reload
	addi.d	$sp, $sp, 32
	ret
.Lfunc_end18:
	.size	_ZSteqIcSt11char_traitsIcESaIcEEbRKNSt7__cxx1112basic_stringIT_T0_T1_EEPKS5_, .Lfunc_end18-_ZSteqIcSt11char_traitsIcESaIcEEbRKNSt7__cxx1112basic_stringIT_T0_T1_EEPKS5_
	.cfi_endproc
                                        # -- End function
	.text
	.globl	_ZN2PP3Cmd16get_cmd_filenameERNSt7__cxx1118basic_stringstreamIcSt11char_traitsIcESaIcEEE # -- Begin function _ZN2PP3Cmd16get_cmd_filenameERNSt7__cxx1118basic_stringstreamIcSt11char_traitsIcESaIcEEE
	.p2align	5
	.type	_ZN2PP3Cmd16get_cmd_filenameERNSt7__cxx1118basic_stringstreamIcSt11char_traitsIcESaIcEEE,@function
_ZN2PP3Cmd16get_cmd_filenameERNSt7__cxx1118basic_stringstreamIcSt11char_traitsIcESaIcEEE: # @_ZN2PP3Cmd16get_cmd_filenameERNSt7__cxx1118basic_stringstreamIcSt11char_traitsIcESaIcEEE
.Lfunc_begin6:
	.cfi_startproc
	.cfi_personality 155, DW.ref.__gxx_personality_v0
	.cfi_lsda 27, .Lexception6
# %bb.0:
	addi.d	$sp, $sp, -608
	.cfi_def_cfa_offset 608
	st.d	$ra, $sp, 600                   # 8-byte Folded Spill
	st.d	$fp, $sp, 592                   # 8-byte Folded Spill
	st.d	$s0, $sp, 584                   # 8-byte Folded Spill
	st.d	$s1, $sp, 576                   # 8-byte Folded Spill
	st.d	$s2, $sp, 568                   # 8-byte Folded Spill
	st.d	$s3, $sp, 560                   # 8-byte Folded Spill
	st.d	$s4, $sp, 552                   # 8-byte Folded Spill
	st.d	$s5, $sp, 544                   # 8-byte Folded Spill
	st.d	$s6, $sp, 536                   # 8-byte Folded Spill
	st.d	$s7, $sp, 528                   # 8-byte Folded Spill
	st.d	$s8, $sp, 520                   # 8-byte Folded Spill
	.cfi_offset 1, -8
	.cfi_offset 22, -16
	.cfi_offset 23, -24
	.cfi_offset 24, -32
	.cfi_offset 25, -40
	.cfi_offset 26, -48
	.cfi_offset 27, -56
	.cfi_offset 28, -64
	.cfi_offset 29, -72
	.cfi_offset 30, -80
	.cfi_offset 31, -88
	move	$s0, $a1
	move	$fp, $a0
	addi.d	$s6, $a0, 16
	addi.d	$s1, $a2, 16
	ori	$s8, $zero, 128
	ori	$s7, $zero, 0
	lu32i.d	$s7, -1
	pcalau12i	$a0, %pc_hi20(.L.str.22)
	addi.d	$s3, $a0, %pc_lo12(.L.str.22)
	ori	$s2, $zero, 1
	b	.LBB19_2
	.p2align	4, , 16
.LBB19_1:                               # %_ZNSt7__cxx1112basic_stringIcSt11char_traitsIcESaIcEED2Ev.exit27
                                        #   in Loop: Header=BB19_2 Depth=1
	addi.d	$s2, $s2, 1
	addi.d	$s8, $s8, 128
.LBB19_2:                               # =>This Inner Loop Header: Depth=1
	ld.d	$a1, $s0, 232
	ld.d	$a0, $s0, 200
	sub.d	$a2, $a1, $a0
	srli.d	$a2, $a2, 3
	sltu	$a1, $zero, $a1
	ld.d	$a3, $s0, 208
	ld.d	$a4, $s0, 216
	sub.d	$a2, $a2, $a1
	ld.d	$a5, $s0, 192
	ld.d	$a1, $s0, 176
	sub.d	$a3, $a3, $a4
	srli.d	$a3, $a3, 7
	alsl.d	$a2, $a2, $a3, 2
	sub.d	$a3, $a5, $a1
	srli.d	$a3, $a3, 7
	add.w	$a2, $a2, $a3
	bge	$s2, $a2, .LBB19_38
# %bb.3:                                #   in Loop: Header=BB19_2 Depth=1
	ld.d	$a2, $s0, 184
	sub.d	$a2, $a1, $a2
	srai.d	$a2, $a2, 7
	add.d	$a2, $s2, $a2
	bltz	$a2, .LBB19_6
# %bb.4:                                #   in Loop: Header=BB19_2 Depth=1
	ori	$a3, $zero, 3
	bltu	$a3, $a2, .LBB19_7
# %bb.5:                                #   in Loop: Header=BB19_2 Depth=1
	add.d	$a0, $a1, $s8
	b	.LBB19_9
	.p2align	4, , 16
.LBB19_6:                               #   in Loop: Header=BB19_2 Depth=1
	srai.d	$a1, $a2, 2
	b	.LBB19_8
	.p2align	4, , 16
.LBB19_7:                               #   in Loop: Header=BB19_2 Depth=1
	srli.d	$a1, $a2, 2
.LBB19_8:                               #   in Loop: Header=BB19_2 Depth=1
	slli.d	$a3, $a1, 3
	ldx.d	$a0, $a0, $a3
	slli.d	$a1, $a1, 2
	sub.d	$a1, $a2, $a1
	slli.d	$a1, $a1, 7
	add.d	$a0, $a0, $a1
.LBB19_9:                               # %_ZNSt5dequeIN2PP4WordESaIS1_EEixEm.exit
                                        #   in Loop: Header=BB19_2 Depth=1
	st.d	$s6, $fp, 0
	ld.d	$s4, $a0, 8
	ld.d	$s5, $a0, 0
	st.d	$s4, $sp, 0
	move	$a0, $s6
	ori	$a1, $zero, 16
	bltu	$s4, $a1, .LBB19_11
# %bb.10:                               # %.noexc.i.i
                                        #   in Loop: Header=BB19_2 Depth=1
	addi.d	$a1, $sp, 0
	move	$a0, $fp
	move	$a2, $zero
	pcaddu18i	$ra, %call36(_ZNSt7__cxx1112basic_stringIcSt11char_traitsIcESaIcEE9_M_createERmm)
	jirl	$ra, $ra, 0
	ld.d	$a1, $sp, 0
	st.d	$a0, $fp, 0
	st.d	$a1, $fp, 16
.LBB19_11:                              # %._crit_edge.i.i.i
                                        #   in Loop: Header=BB19_2 Depth=1
	beqz	$s4, .LBB19_15
# %bb.12:                               # %._crit_edge.i.i.i
                                        #   in Loop: Header=BB19_2 Depth=1
	ori	$a1, $zero, 1
	bne	$s4, $a1, .LBB19_14
# %bb.13:                               #   in Loop: Header=BB19_2 Depth=1
	ld.b	$a1, $s5, 0
	st.b	$a1, $a0, 0
	b	.LBB19_15
	.p2align	4, , 16
.LBB19_14:                              #   in Loop: Header=BB19_2 Depth=1
	move	$a1, $s5
	move	$a2, $s4
	pcaddu18i	$ra, %call36(memcpy)
	jirl	$ra, $ra, 0
.LBB19_15:                              # %_ZN2PP4Word10get_stringB5cxx11Ev.exit
                                        #   in Loop: Header=BB19_2 Depth=1
	ld.d	$a0, $sp, 0
	ld.d	$a1, $fp, 0
	st.d	$a0, $fp, 8
	stx.b	$zero, $a1, $a0
	ld.d	$a0, $fp, 8
	ld.d	$a1, $fp, 0
	slli.d	$a2, $a0, 32
	add.d	$a2, $a2, $s7
	srai.d	$a2, $a2, 32
	ldx.bu	$a2, $a1, $a2
	ori	$a3, $zero, 39
	beq	$a2, $a3, .LBB19_17
# %bb.16:                               # %_ZN2PP4Word10get_stringB5cxx11Ev.exit
                                        #   in Loop: Header=BB19_2 Depth=1
	ori	$a3, $zero, 34
	bne	$a2, $a3, .LBB19_19
.LBB19_17:                              #   in Loop: Header=BB19_2 Depth=1
	addi.d	$a1, $a0, -1
.Ltmp79:
	ori	$a2, $zero, 1
	move	$a0, $fp
	pcaddu18i	$ra, %call36(_ZNSt7__cxx1112basic_stringIcSt11char_traitsIcESaIcEE8_M_eraseEmm)
	jirl	$ra, $ra, 0
.Ltmp80:
# %bb.18:                               # %._crit_edge
                                        #   in Loop: Header=BB19_2 Depth=1
	ld.d	$a1, $fp, 0
.LBB19_19:                              #   in Loop: Header=BB19_2 Depth=1
	ld.bu	$a0, $a1, 0
	ori	$a1, $zero, 39
	beq	$a0, $a1, .LBB19_21
# %bb.20:                               #   in Loop: Header=BB19_2 Depth=1
	ori	$a1, $zero, 34
	bne	$a0, $a1, .LBB19_22
.LBB19_21:                              #   in Loop: Header=BB19_2 Depth=1
.Ltmp82:
	ori	$a2, $zero, 1
	move	$a0, $fp
	move	$a1, $zero
	pcaddu18i	$ra, %call36(_ZNSt7__cxx1112basic_stringIcSt11char_traitsIcESaIcEE8_M_eraseEmm)
	jirl	$ra, $ra, 0
.Ltmp83:
.LBB19_22:                              #   in Loop: Header=BB19_2 Depth=1
.Ltmp85:
	ori	$a2, $zero, 4
	move	$a0, $s1
	move	$a1, $s3
	pcaddu18i	$ra, %call36(_ZSt16__ostream_insertIcSt11char_traitsIcEERSt13basic_ostreamIT_T0_ES6_PKS3_l)
	jirl	$ra, $ra, 0
.Ltmp86:
# %bb.23:                               # %_ZStlsISt11char_traitsIcEERSt13basic_ostreamIcT_ES5_PKc.exit
                                        #   in Loop: Header=BB19_2 Depth=1
	ld.d	$a1, $fp, 0
	ld.d	$a2, $fp, 8
.Ltmp87:
	move	$a0, $s1
	pcaddu18i	$ra, %call36(_ZSt16__ostream_insertIcSt11char_traitsIcEERSt13basic_ostreamIT_T0_ES6_PKS3_l)
	jirl	$ra, $ra, 0
.Ltmp88:
# %bb.24:                               # %_ZStlsIcSt11char_traitsIcESaIcEERSt13basic_ostreamIT_T0_ES7_RKNSt7__cxx1112basic_stringIS4_S5_T1_EE.exit
                                        #   in Loop: Header=BB19_2 Depth=1
	move	$s4, $a0
	ld.d	$a0, $a0, 0
	ld.d	$a0, $a0, -24
	add.d	$a0, $s4, $a0
	ld.d	$s5, $a0, 240
	beqz	$s5, .LBB19_40
# %bb.25:                               # %_ZSt13__check_facetISt5ctypeIcEERKT_PS3_.exit.i.i
                                        #   in Loop: Header=BB19_2 Depth=1
	ld.bu	$a0, $s5, 56
	beqz	$a0, .LBB19_27
# %bb.26:                               #   in Loop: Header=BB19_2 Depth=1
	ld.bu	$a0, $s5, 67
	b	.LBB19_29
	.p2align	4, , 16
.LBB19_27:                              #   in Loop: Header=BB19_2 Depth=1
.Ltmp89:
	move	$a0, $s5
	pcaddu18i	$ra, %call36(_ZNKSt5ctypeIcE13_M_widen_initEv)
	jirl	$ra, $ra, 0
.Ltmp90:
# %bb.28:                               # %.noexc30
                                        #   in Loop: Header=BB19_2 Depth=1
	ld.d	$a0, $s5, 0
	ld.d	$a2, $a0, 48
.Ltmp91:
	ori	$a1, $zero, 10
	move	$a0, $s5
	jirl	$ra, $a2, 0
.Ltmp92:
.LBB19_29:                              # %_ZNKSt9basic_iosIcSt11char_traitsIcEE5widenEc.exit.i
                                        #   in Loop: Header=BB19_2 Depth=1
.Ltmp93:
	ext.w.b	$a1, $a0
	move	$a0, $s4
	pcaddu18i	$ra, %call36(_ZNSo3putEc)
	jirl	$ra, $ra, 0
.Ltmp94:
# %bb.30:                               # %.noexc32
                                        #   in Loop: Header=BB19_2 Depth=1
.Ltmp95:
	pcaddu18i	$ra, %call36(_ZNSo5flushEv)
	jirl	$ra, $ra, 0
.Ltmp96:
# %bb.31:                               # %_ZNSolsEPFRSoS_E.exit
                                        #   in Loop: Header=BB19_2 Depth=1
	ld.d	$a1, $fp, 0
.Ltmp98:
	addi.d	$a0, $sp, 0
	ori	$a2, $zero, 8
	pcaddu18i	$ra, %call36(_ZNSt14basic_ifstreamIcSt11char_traitsIcEEC1EPKcSt13_Ios_Openmode)
	jirl	$ra, $ra, 0
.Ltmp99:
# %bb.32:                               #   in Loop: Header=BB19_2 Depth=1
.Ltmp101:
	addi.d	$a0, $sp, 16
	pcaddu18i	$ra, %call36(_ZNSt13basic_filebufIcSt11char_traitsIcEE5closeEv)
	jirl	$ra, $ra, 0
.Ltmp102:
# %bb.33:                               # %.noexc
                                        #   in Loop: Header=BB19_2 Depth=1
	bnez	$a0, .LBB19_35
# %bb.34:                               #   in Loop: Header=BB19_2 Depth=1
	ld.d	$a0, $sp, 0
	ld.d	$a0, $a0, -24
	addi.d	$a1, $sp, 0
	add.d	$a0, $a1, $a0
	ld.w	$a1, $a0, 32
	ori	$a1, $a1, 4
.Ltmp103:
	pcaddu18i	$ra, %call36(_ZNSt9basic_iosIcSt11char_traitsIcEE5clearESt12_Ios_Iostate)
	jirl	$ra, $ra, 0
.Ltmp104:
.LBB19_35:                              # %_ZNSt14basic_ifstreamIcSt11char_traitsIcEE5closeEv.exit
                                        #   in Loop: Header=BB19_2 Depth=1
	ld.d	$a0, $sp, 0
	ld.d	$a0, $a0, -24
	addi.d	$a1, $sp, 32
	ldx.wu	$a0, $a1, $a0
	andi	$s4, $a0, 5
	addi.d	$a0, $sp, 0
	pcaddu18i	$ra, %call36(_ZNSt14basic_ifstreamIcSt11char_traitsIcEED1Ev)
	jirl	$ra, $ra, 0
	beqz	$s4, .LBB19_39
# %bb.36:                               #   in Loop: Header=BB19_2 Depth=1
	ld.d	$a0, $fp, 0
	beq	$a0, $s6, .LBB19_1
# %bb.37:                               # %_ZNKSt7__cxx1112basic_stringIcSt11char_traitsIcESaIcEE11_M_is_localEv.exit.i.i25
                                        #   in Loop: Header=BB19_2 Depth=1
	ld.d	$a1, $s6, 0
	addi.d	$a1, $a1, 1
	pcaddu18i	$ra, %call36(_ZdlPvm)
	jirl	$ra, $ra, 0
	b	.LBB19_1
.LBB19_38:                              # %.critedge.thread
	st.d	$s6, $fp, 0
	st.d	$zero, $fp, 8
	st.b	$zero, $fp, 16
.LBB19_39:                              # %.critedge
	ld.d	$s8, $sp, 520                   # 8-byte Folded Reload
	ld.d	$s7, $sp, 528                   # 8-byte Folded Reload
	ld.d	$s6, $sp, 536                   # 8-byte Folded Reload
	ld.d	$s5, $sp, 544                   # 8-byte Folded Reload
	ld.d	$s4, $sp, 552                   # 8-byte Folded Reload
	ld.d	$s3, $sp, 560                   # 8-byte Folded Reload
	ld.d	$s2, $sp, 568                   # 8-byte Folded Reload
	ld.d	$s1, $sp, 576                   # 8-byte Folded Reload
	ld.d	$s0, $sp, 584                   # 8-byte Folded Reload
	ld.d	$fp, $sp, 592                   # 8-byte Folded Reload
	ld.d	$ra, $sp, 600                   # 8-byte Folded Reload
	addi.d	$sp, $sp, 608
	ret
.LBB19_40:
.Ltmp106:
	pcaddu18i	$ra, %call36(_ZSt16__throw_bad_castv)
	jirl	$ra, $ra, 0
.Ltmp107:
# %bb.41:                               # %.noexc29
.LBB19_42:
.Ltmp81:
	b	.LBB19_48
.LBB19_43:
.Ltmp84:
	b	.LBB19_48
.LBB19_44:
.Ltmp100:
	b	.LBB19_48
.LBB19_45:                              # %.loopexit.split-lp
.Ltmp108:
	b	.LBB19_48
.LBB19_46:
.Ltmp105:
	move	$s0, $a0
	addi.d	$a0, $sp, 0
	pcaddu18i	$ra, %call36(_ZNSt14basic_ifstreamIcSt11char_traitsIcEED1Ev)
	jirl	$ra, $ra, 0
	b	.LBB19_49
.LBB19_47:                              # %.loopexit
.Ltmp97:
.LBB19_48:
	move	$s0, $a0
.LBB19_49:
	ld.d	$a0, $fp, 0
	beq	$a0, $s6, .LBB19_51
# %bb.50:                               # %_ZNKSt7__cxx1112basic_stringIcSt11char_traitsIcESaIcEE11_M_is_localEv.exit.i.i
	ld.d	$a1, $s6, 0
	addi.d	$a1, $a1, 1
	pcaddu18i	$ra, %call36(_ZdlPvm)
	jirl	$ra, $ra, 0
.LBB19_51:                              # %_ZNSt7__cxx1112basic_stringIcSt11char_traitsIcESaIcEED2Ev.exit
	move	$a0, $s0
	pcaddu18i	$ra, %call36(_Unwind_Resume)
	jirl	$ra, $ra, 0
.Lfunc_end19:
	.size	_ZN2PP3Cmd16get_cmd_filenameERNSt7__cxx1118basic_stringstreamIcSt11char_traitsIcESaIcEEE, .Lfunc_end19-_ZN2PP3Cmd16get_cmd_filenameERNSt7__cxx1118basic_stringstreamIcSt11char_traitsIcESaIcEEE
	.cfi_endproc
	.section	.gcc_except_table,"a",@progbits
	.p2align	2, 0x0
GCC_except_table19:
.Lexception6:
	.byte	255                             # @LPStart Encoding = omit
	.byte	255                             # @TType Encoding = omit
	.byte	1                               # Call site Encoding = uleb128
	.uleb128 .Lcst_end6-.Lcst_begin6
.Lcst_begin6:
	.uleb128 .Lfunc_begin6-.Lfunc_begin6    # >> Call Site 1 <<
	.uleb128 .Ltmp79-.Lfunc_begin6          #   Call between .Lfunc_begin6 and .Ltmp79
	.byte	0                               #     has no landing pad
	.byte	0                               #   On action: cleanup
	.uleb128 .Ltmp79-.Lfunc_begin6          # >> Call Site 2 <<
	.uleb128 .Ltmp80-.Ltmp79                #   Call between .Ltmp79 and .Ltmp80
	.uleb128 .Ltmp81-.Lfunc_begin6          #     jumps to .Ltmp81
	.byte	0                               #   On action: cleanup
	.uleb128 .Ltmp82-.Lfunc_begin6          # >> Call Site 3 <<
	.uleb128 .Ltmp83-.Ltmp82                #   Call between .Ltmp82 and .Ltmp83
	.uleb128 .Ltmp84-.Lfunc_begin6          #     jumps to .Ltmp84
	.byte	0                               #   On action: cleanup
	.uleb128 .Ltmp85-.Lfunc_begin6          # >> Call Site 4 <<
	.uleb128 .Ltmp96-.Ltmp85                #   Call between .Ltmp85 and .Ltmp96
	.uleb128 .Ltmp97-.Lfunc_begin6          #     jumps to .Ltmp97
	.byte	0                               #   On action: cleanup
	.uleb128 .Ltmp98-.Lfunc_begin6          # >> Call Site 5 <<
	.uleb128 .Ltmp99-.Ltmp98                #   Call between .Ltmp98 and .Ltmp99
	.uleb128 .Ltmp100-.Lfunc_begin6         #     jumps to .Ltmp100
	.byte	0                               #   On action: cleanup
	.uleb128 .Ltmp101-.Lfunc_begin6         # >> Call Site 6 <<
	.uleb128 .Ltmp104-.Ltmp101              #   Call between .Ltmp101 and .Ltmp104
	.uleb128 .Ltmp105-.Lfunc_begin6         #     jumps to .Ltmp105
	.byte	0                               #   On action: cleanup
	.uleb128 .Ltmp104-.Lfunc_begin6         # >> Call Site 7 <<
	.uleb128 .Ltmp106-.Ltmp104              #   Call between .Ltmp104 and .Ltmp106
	.byte	0                               #     has no landing pad
	.byte	0                               #   On action: cleanup
	.uleb128 .Ltmp106-.Lfunc_begin6         # >> Call Site 8 <<
	.uleb128 .Ltmp107-.Ltmp106              #   Call between .Ltmp106 and .Ltmp107
	.uleb128 .Ltmp108-.Lfunc_begin6         #     jumps to .Ltmp108
	.byte	0                               #   On action: cleanup
	.uleb128 .Ltmp107-.Lfunc_begin6         # >> Call Site 9 <<
	.uleb128 .Lfunc_end19-.Ltmp107          #   Call between .Ltmp107 and .Lfunc_end19
	.byte	0                               #     has no landing pad
	.byte	0                               #   On action: cleanup
.Lcst_end6:
	.p2align	2, 0x0
                                        # -- End function
	.text
	.globl	_ZN2PP3Cmd22handle_cmd_unary_minusERNSt7__cxx1118basic_stringstreamIcSt11char_traitsIcESaIcEEERi # -- Begin function _ZN2PP3Cmd22handle_cmd_unary_minusERNSt7__cxx1118basic_stringstreamIcSt11char_traitsIcESaIcEEERi
	.p2align	5
	.type	_ZN2PP3Cmd22handle_cmd_unary_minusERNSt7__cxx1118basic_stringstreamIcSt11char_traitsIcESaIcEEERi,@function
_ZN2PP3Cmd22handle_cmd_unary_minusERNSt7__cxx1118basic_stringstreamIcSt11char_traitsIcESaIcEEERi: # @_ZN2PP3Cmd22handle_cmd_unary_minusERNSt7__cxx1118basic_stringstreamIcSt11char_traitsIcESaIcEEERi
.Lfunc_begin7:
	.cfi_startproc
	.cfi_personality 155, DW.ref.__gxx_personality_v0
	.cfi_lsda 27, .Lexception7
# %bb.0:
	addi.d	$sp, $sp, -208
	.cfi_def_cfa_offset 208
	st.d	$ra, $sp, 200                   # 8-byte Folded Spill
	st.d	$fp, $sp, 192                   # 8-byte Folded Spill
	st.d	$s0, $sp, 184                   # 8-byte Folded Spill
	st.d	$s1, $sp, 176                   # 8-byte Folded Spill
	st.d	$s2, $sp, 168                   # 8-byte Folded Spill
	st.d	$s3, $sp, 160                   # 8-byte Folded Spill
	st.d	$s4, $sp, 152                   # 8-byte Folded Spill
	st.d	$s5, $sp, 144                   # 8-byte Folded Spill
	st.d	$s6, $sp, 136                   # 8-byte Folded Spill
	st.d	$s7, $sp, 128                   # 8-byte Folded Spill
	st.d	$s8, $sp, 120                   # 8-byte Folded Spill
	.cfi_offset 1, -8
	.cfi_offset 22, -16
	.cfi_offset 23, -24
	.cfi_offset 24, -32
	.cfi_offset 25, -40
	.cfi_offset 26, -48
	.cfi_offset 27, -56
	.cfi_offset 28, -64
	.cfi_offset 29, -72
	.cfi_offset 30, -80
	.cfi_offset 31, -88
	st.d	$a2, $sp, 8                     # 8-byte Folded Spill
	st.d	$a1, $sp, 0                     # 8-byte Folded Spill
	move	$s0, $a0
	move	$s1, $zero
	addi.d	$s4, $sp, 96
	addi.d	$s5, $sp, 32
	ori	$s6, $zero, 45
	ori	$s7, $zero, 1
	addi.w	$s8, $zero, -1
	ori	$fp, $zero, 4
	ori	$s2, $zero, 2
	.p2align	4, , 16
.LBB20_1:                               # %._crit_edge.i.i
                                        # =>This Inner Loop Header: Depth=1
	ld.d	$a0, $s0, 232
	ld.d	$a1, $s0, 200
	sub.d	$a1, $a0, $a1
	srli.d	$a1, $a1, 3
	sltu	$a0, $zero, $a0
	ld.d	$a2, $s0, 208
	ld.d	$a3, $s0, 216
	sub.d	$a0, $a1, $a0
	ld.d	$a1, $s0, 192
	ld.d	$a4, $s0, 176
	sub.d	$a2, $a2, $a3
	srli.d	$a2, $a2, 7
	alsl.d	$a0, $a0, $a2, 2
	sub.d	$a1, $a1, $a4
	srli.d	$a1, $a1, 7
	add.d	$a0, $a0, $a1
	st.d	$s4, $sp, 80
	st.h	$s6, $sp, 96
	st.d	$s7, $sp, 88
	addi.w	$a2, $a0, -1
.Ltmp109:
	addi.d	$a3, $sp, 80
	move	$a0, $s0
	move	$a1, $s1
	pcaddu18i	$ra, %call36(_ZN2PP3Cmd4findEiiNSt7__cxx1112basic_stringIcSt11char_traitsIcESaIcEEE)
	jirl	$ra, $ra, 0
.Ltmp110:
# %bb.2:                                #   in Loop: Header=BB20_1 Depth=1
	move	$s3, $a0
	ld.d	$a0, $sp, 80
	beq	$a0, $s4, .LBB20_4
# %bb.3:                                # %_ZNKSt7__cxx1112basic_stringIcSt11char_traitsIcESaIcEE11_M_is_localEv.exit.i.i
                                        #   in Loop: Header=BB20_1 Depth=1
	ld.d	$a1, $sp, 96
	addi.d	$a1, $a1, 1
	pcaddu18i	$ra, %call36(_ZdlPvm)
	jirl	$ra, $ra, 0
.LBB20_4:                               # %_ZNSt7__cxx1112basic_stringIcSt11char_traitsIcESaIcEED2Ev.exit
                                        #   in Loop: Header=BB20_1 Depth=1
	beq	$s3, $s8, .LBB20_47
# %bb.5:                                #   in Loop: Header=BB20_1 Depth=1
	ld.d	$a0, $s0, 176
	ld.d	$a2, $s0, 184
	addi.w	$s1, $s3, 1
	ld.d	$a1, $s0, 200
	sub.d	$a2, $a0, $a2
	srai.d	$a2, $a2, 7
	add.d	$a2, $a2, $s1
	bltz	$a2, .LBB20_8
# %bb.6:                                #   in Loop: Header=BB20_1 Depth=1
	bgeu	$a2, $fp, .LBB20_9
# %bb.7:                                # %_ZNSt5dequeIN2PP4WordESaIS1_EEixEm.exit.thread
                                        #   in Loop: Header=BB20_1 Depth=1
	slli.d	$a1, $s1, 7
	add.d	$a1, $a0, $a1
	ld.wu	$a1, $a1, 32
	bstrpick.d	$a1, $a1, 31, 1
	slli.w	$a1, $a1, 1
	beq	$a1, $s2, .LBB20_11
	b	.LBB20_16
	.p2align	4, , 16
.LBB20_8:                               #   in Loop: Header=BB20_1 Depth=1
	srai.d	$a3, $a2, 2
	b	.LBB20_10
	.p2align	4, , 16
.LBB20_9:                               #   in Loop: Header=BB20_1 Depth=1
	srli.d	$a3, $a2, 2
.LBB20_10:                              # %_ZNSt5dequeIN2PP4WordESaIS1_EEixEm.exit
                                        #   in Loop: Header=BB20_1 Depth=1
	slli.d	$a4, $a3, 3
	ldx.d	$a4, $a1, $a4
	slli.d	$a3, $a3, 2
	sub.d	$a3, $a2, $a3
	slli.d	$a3, $a3, 7
	add.d	$a3, $a4, $a3
	ld.wu	$a3, $a3, 32
	bstrpick.d	$a3, $a3, 31, 1
	slli.w	$a3, $a3, 1
	bne	$a3, $s2, .LBB20_14
.LBB20_11:                              # %._crit_edge.i.i41
                                        #   in Loop: Header=BB20_1 Depth=1
	st.d	$s5, $sp, 16
	st.h	$s6, $sp, 32
	st.d	$s7, $sp, 24
.Ltmp125:
	addi.d	$a2, $sp, 16
	move	$a0, $s0
	move	$a1, $s3
	pcaddu18i	$ra, %call36(_ZN2PP3Cmd11do_unary_opEiNSt7__cxx1112basic_stringIcSt11char_traitsIcESaIcEEE)
	jirl	$ra, $ra, 0
.Ltmp126:
# %bb.12:                               #   in Loop: Header=BB20_1 Depth=1
	ld.d	$a0, $sp, 16
	beq	$a0, $s5, .LBB20_1
# %bb.13:                               # %_ZNKSt7__cxx1112basic_stringIcSt11char_traitsIcESaIcEE11_M_is_localEv.exit.i.i45
                                        #   in Loop: Header=BB20_1 Depth=1
	ld.d	$a1, $sp, 32
	addi.d	$a1, $a1, 1
	pcaddu18i	$ra, %call36(_ZdlPvm)
	jirl	$ra, $ra, 0
	b	.LBB20_1
.LBB20_14:
	bltz	$a2, .LBB20_17
# %bb.15:
	ori	$a3, $zero, 3
	bltu	$a3, $a2, .LBB20_18
.LBB20_16:                              # %.thread64
	slli.d	$a1, $s1, 7
	add.d	$a0, $a0, $a1
	b	.LBB20_20
.LBB20_17:
	srai.d	$a0, $a2, 2
	b	.LBB20_19
.LBB20_18:
	srli.d	$a0, $a2, 2
.LBB20_19:
	slli.d	$a3, $a0, 3
	ldx.d	$a1, $a1, $a3
	slli.d	$a0, $a0, 2
	sub.d	$a0, $a2, $a0
	slli.d	$a0, $a0, 7
	add.d	$a0, $a1, $a0
.LBB20_20:                              # %_ZNSt5dequeIN2PP4WordESaIS1_EEixEm.exit30
	ld.d	$fp, $sp, 8                     # 8-byte Folded Reload
	ld.d	$s2, $sp, 0                     # 8-byte Folded Reload
	move	$a1, $s2
	move	$a2, $fp
	pcaddu18i	$ra, %call36(_ZN2PP4Word11fatal_errorERNSt7__cxx1118basic_stringstreamIcSt11char_traitsIcESaIcEEERi)
	jirl	$ra, $ra, 0
	addi.d	$s3, $s2, 16
	pcalau12i	$a0, %pc_hi20(.L.str.24)
	addi.d	$a1, $a0, %pc_lo12(.L.str.24)
	ori	$a2, $zero, 57
	move	$a0, $s3
	pcaddu18i	$ra, %call36(_ZSt16__ostream_insertIcSt11char_traitsIcEERSt13basic_ostreamIT_T0_ES6_PKS3_l)
	jirl	$ra, $ra, 0
	ld.d	$a0, $s2, 16
	ld.d	$a0, $a0, -24
	add.d	$a0, $s3, $a0
	ld.d	$s2, $a0, 240
	beqz	$s2, .LBB20_48
# %bb.21:                               # %_ZSt13__check_facetISt5ctypeIcEERKT_PS3_.exit.i.i
	ld.bu	$a0, $s2, 56
	beqz	$a0, .LBB20_23
# %bb.22:
	ld.bu	$a0, $s2, 67
	b	.LBB20_24
.LBB20_23:
	move	$a0, $s2
	pcaddu18i	$ra, %call36(_ZNKSt5ctypeIcE13_M_widen_initEv)
	jirl	$ra, $ra, 0
	ld.d	$a0, $s2, 0
	ld.d	$a2, $a0, 48
	ori	$a1, $zero, 10
	move	$a0, $s2
	jirl	$ra, $a2, 0
.LBB20_24:                              # %_ZSt4endlIcSt11char_traitsIcEERSt13basic_ostreamIT_T0_ES6_.exit
	ext.w.b	$a1, $a0
	move	$a0, $s3
	pcaddu18i	$ra, %call36(_ZNSo3putEc)
	jirl	$ra, $ra, 0
	pcaddu18i	$ra, %call36(_ZNSo5flushEv)
	jirl	$ra, $ra, 0
	pcalau12i	$a0, %pc_hi20(.L.str.25)
	addi.d	$a1, $a0, %pc_lo12(.L.str.25)
	ori	$a2, $zero, 16
	move	$a0, $s3
	pcaddu18i	$ra, %call36(_ZSt16__ostream_insertIcSt11char_traitsIcEERSt13basic_ostreamIT_T0_ES6_PKS3_l)
	jirl	$ra, $ra, 0
	ld.d	$a2, $s0, 176
	ld.d	$a1, $s0, 184
	ld.d	$a0, $s0, 200
	sub.d	$a1, $a2, $a1
	srai.d	$a1, $a1, 7
	add.d	$a1, $a1, $s1
	bltz	$a1, .LBB20_27
# %bb.25:
	ori	$a3, $zero, 3
	bltu	$a3, $a1, .LBB20_28
# %bb.26:
	slli.d	$a0, $s1, 7
	add.d	$a0, $a2, $a0
	b	.LBB20_30
.LBB20_27:
	srai.d	$a2, $a1, 2
	b	.LBB20_29
.LBB20_28:
	srli.d	$a2, $a1, 2
.LBB20_29:
	slli.d	$a3, $a2, 3
	ldx.d	$a0, $a0, $a3
	slli.d	$a2, $a2, 2
	sub.d	$a1, $a1, $a2
	slli.d	$a1, $a1, 7
	add.d	$a0, $a0, $a1
.LBB20_30:                              # %_ZNSt5dequeIN2PP4WordESaIS1_EEixEm.exit32
	addi.d	$s2, $sp, 64
	ld.d	$s0, $a0, 8
	ld.d	$s1, $a0, 0
	st.d	$s2, $sp, 48
	ori	$a1, $zero, 16
	st.d	$s0, $sp, 112
	move	$a0, $s2
	bltu	$s0, $a1, .LBB20_32
# %bb.31:                               # %.noexc.i.i
	addi.d	$a0, $sp, 48
	addi.d	$a1, $sp, 112
	move	$a2, $zero
	pcaddu18i	$ra, %call36(_ZNSt7__cxx1112basic_stringIcSt11char_traitsIcESaIcEE9_M_createERmm)
	jirl	$ra, $ra, 0
	ld.d	$a1, $sp, 112
	st.d	$a0, $sp, 48
	st.d	$a1, $sp, 64
.LBB20_32:                              # %._crit_edge.i.i.i
	beqz	$s0, .LBB20_36
# %bb.33:                               # %._crit_edge.i.i.i
	ori	$a1, $zero, 1
	bne	$s0, $a1, .LBB20_35
# %bb.34:
	ld.b	$a1, $s1, 0
	st.b	$a1, $a0, 0
	b	.LBB20_36
.LBB20_35:
	move	$a1, $s1
	move	$a2, $s0
	pcaddu18i	$ra, %call36(memcpy)
	jirl	$ra, $ra, 0
.LBB20_36:                              # %_ZN2PP4Word10get_stringB5cxx11Ev.exit
	ld.d	$a0, $sp, 112
	ld.d	$a1, $sp, 48
	st.d	$a0, $sp, 56
	stx.b	$zero, $a1, $a0
	ld.d	$a1, $sp, 48
	ld.d	$a2, $sp, 56
.Ltmp112:
	move	$a0, $s3
	pcaddu18i	$ra, %call36(_ZSt16__ostream_insertIcSt11char_traitsIcEERSt13basic_ostreamIT_T0_ES6_PKS3_l)
	jirl	$ra, $ra, 0
.Ltmp113:
# %bb.37:                               # %_ZStlsIcSt11char_traitsIcESaIcEERSt13basic_ostreamIT_T0_ES7_RKNSt7__cxx1112basic_stringIS4_S5_T1_EE.exit
	move	$s0, $a0
	ld.d	$a0, $a0, 0
	ld.d	$a0, $a0, -24
	add.d	$a0, $s0, $a0
	ld.d	$s1, $a0, 240
	beqz	$s1, .LBB20_49
# %bb.38:                               # %_ZSt13__check_facetISt5ctypeIcEERKT_PS3_.exit.i.i52
	ld.bu	$a0, $s1, 56
	beqz	$a0, .LBB20_40
# %bb.39:
	ld.bu	$a0, $s1, 67
	b	.LBB20_42
.LBB20_40:
.Ltmp114:
	move	$a0, $s1
	pcaddu18i	$ra, %call36(_ZNKSt5ctypeIcE13_M_widen_initEv)
	jirl	$ra, $ra, 0
.Ltmp115:
# %bb.41:                               # %.noexc56
	ld.d	$a0, $s1, 0
	ld.d	$a2, $a0, 48
.Ltmp116:
	ori	$a1, $zero, 10
	move	$a0, $s1
	jirl	$ra, $a2, 0
.Ltmp117:
.LBB20_42:                              # %_ZNKSt9basic_iosIcSt11char_traitsIcEE5widenEc.exit.i
.Ltmp118:
	ext.w.b	$a1, $a0
	move	$a0, $s0
	pcaddu18i	$ra, %call36(_ZNSo3putEc)
	jirl	$ra, $ra, 0
.Ltmp119:
# %bb.43:                               # %.noexc58
.Ltmp120:
	pcaddu18i	$ra, %call36(_ZNSo5flushEv)
	jirl	$ra, $ra, 0
.Ltmp121:
# %bb.44:                               # %_ZNSolsEPFRSoS_E.exit
	ld.d	$a0, $sp, 48
	beq	$a0, $s2, .LBB20_46
# %bb.45:                               # %_ZNKSt7__cxx1112basic_stringIcSt11char_traitsIcESaIcEE11_M_is_localEv.exit.i.i35
	ld.d	$a1, $sp, 64
	addi.d	$a1, $a1, 1
	pcaddu18i	$ra, %call36(_ZdlPvm)
	jirl	$ra, $ra, 0
.LBB20_46:                              # %_ZNSt7__cxx1112basic_stringIcSt11char_traitsIcESaIcEED2Ev.exit37
	ori	$a0, $zero, 2
	st.w	$a0, $fp, 0
.LBB20_47:                              # %.loopexit
	ld.d	$s8, $sp, 120                   # 8-byte Folded Reload
	ld.d	$s7, $sp, 128                   # 8-byte Folded Reload
	ld.d	$s6, $sp, 136                   # 8-byte Folded Reload
	ld.d	$s5, $sp, 144                   # 8-byte Folded Reload
	ld.d	$s4, $sp, 152                   # 8-byte Folded Reload
	ld.d	$s3, $sp, 160                   # 8-byte Folded Reload
	ld.d	$s2, $sp, 168                   # 8-byte Folded Reload
	ld.d	$s1, $sp, 176                   # 8-byte Folded Reload
	ld.d	$s0, $sp, 184                   # 8-byte Folded Reload
	ld.d	$fp, $sp, 192                   # 8-byte Folded Reload
	ld.d	$ra, $sp, 200                   # 8-byte Folded Reload
	addi.d	$sp, $sp, 208
	ret
.LBB20_48:
	pcaddu18i	$ra, %call36(_ZSt16__throw_bad_castv)
	jirl	$ra, $ra, 0
.LBB20_49:
.Ltmp122:
	pcaddu18i	$ra, %call36(_ZSt16__throw_bad_castv)
	jirl	$ra, $ra, 0
.Ltmp123:
# %bb.50:                               # %.noexc55
.LBB20_51:
.Ltmp124:
	ld.d	$a2, $sp, 48
	move	$fp, $a0
	beq	$a2, $s2, .LBB20_58
# %bb.52:                               # %_ZNKSt7__cxx1112basic_stringIcSt11char_traitsIcESaIcEE11_M_is_localEv.exit.i.i38
	ld.d	$a0, $sp, 64
	b	.LBB20_57
.LBB20_53:
.Ltmp127:
	ld.d	$a2, $sp, 16
	move	$fp, $a0
	beq	$a2, $s5, .LBB20_58
# %bb.54:                               # %_ZNKSt7__cxx1112basic_stringIcSt11char_traitsIcESaIcEE11_M_is_localEv.exit.i.i48
	ld.d	$a0, $sp, 32
	b	.LBB20_57
.LBB20_55:
.Ltmp111:
	ld.d	$a2, $sp, 80
	move	$fp, $a0
	beq	$a2, $s4, .LBB20_58
# %bb.56:                               # %_ZNKSt7__cxx1112basic_stringIcSt11char_traitsIcESaIcEE11_M_is_localEv.exit.i.i26
	ld.d	$a0, $sp, 96
.LBB20_57:                              # %_ZNSt7__cxx1112basic_stringIcSt11char_traitsIcESaIcEED2Ev.exit28
	addi.d	$a1, $a0, 1
	move	$a0, $a2
	pcaddu18i	$ra, %call36(_ZdlPvm)
	jirl	$ra, $ra, 0
.LBB20_58:                              # %_ZNSt7__cxx1112basic_stringIcSt11char_traitsIcESaIcEED2Ev.exit28
	move	$a0, $fp
	pcaddu18i	$ra, %call36(_Unwind_Resume)
	jirl	$ra, $ra, 0
.Lfunc_end20:
	.size	_ZN2PP3Cmd22handle_cmd_unary_minusERNSt7__cxx1118basic_stringstreamIcSt11char_traitsIcESaIcEEERi, .Lfunc_end20-_ZN2PP3Cmd22handle_cmd_unary_minusERNSt7__cxx1118basic_stringstreamIcSt11char_traitsIcESaIcEEERi
	.cfi_endproc
	.section	.gcc_except_table,"a",@progbits
	.p2align	2, 0x0
GCC_except_table20:
.Lexception7:
	.byte	255                             # @LPStart Encoding = omit
	.byte	255                             # @TType Encoding = omit
	.byte	1                               # Call site Encoding = uleb128
	.uleb128 .Lcst_end7-.Lcst_begin7
.Lcst_begin7:
	.uleb128 .Ltmp109-.Lfunc_begin7         # >> Call Site 1 <<
	.uleb128 .Ltmp110-.Ltmp109              #   Call between .Ltmp109 and .Ltmp110
	.uleb128 .Ltmp111-.Lfunc_begin7         #     jumps to .Ltmp111
	.byte	0                               #   On action: cleanup
	.uleb128 .Ltmp110-.Lfunc_begin7         # >> Call Site 2 <<
	.uleb128 .Ltmp125-.Ltmp110              #   Call between .Ltmp110 and .Ltmp125
	.byte	0                               #     has no landing pad
	.byte	0                               #   On action: cleanup
	.uleb128 .Ltmp125-.Lfunc_begin7         # >> Call Site 3 <<
	.uleb128 .Ltmp126-.Ltmp125              #   Call between .Ltmp125 and .Ltmp126
	.uleb128 .Ltmp127-.Lfunc_begin7         #     jumps to .Ltmp127
	.byte	0                               #   On action: cleanup
	.uleb128 .Ltmp126-.Lfunc_begin7         # >> Call Site 4 <<
	.uleb128 .Ltmp112-.Ltmp126              #   Call between .Ltmp126 and .Ltmp112
	.byte	0                               #     has no landing pad
	.byte	0                               #   On action: cleanup
	.uleb128 .Ltmp112-.Lfunc_begin7         # >> Call Site 5 <<
	.uleb128 .Ltmp121-.Ltmp112              #   Call between .Ltmp112 and .Ltmp121
	.uleb128 .Ltmp124-.Lfunc_begin7         #     jumps to .Ltmp124
	.byte	0                               #   On action: cleanup
	.uleb128 .Ltmp121-.Lfunc_begin7         # >> Call Site 6 <<
	.uleb128 .Ltmp122-.Ltmp121              #   Call between .Ltmp121 and .Ltmp122
	.byte	0                               #     has no landing pad
	.byte	0                               #   On action: cleanup
	.uleb128 .Ltmp122-.Lfunc_begin7         # >> Call Site 7 <<
	.uleb128 .Ltmp123-.Ltmp122              #   Call between .Ltmp122 and .Ltmp123
	.uleb128 .Ltmp124-.Lfunc_begin7         #     jumps to .Ltmp124
	.byte	0                               #   On action: cleanup
	.uleb128 .Ltmp123-.Lfunc_begin7         # >> Call Site 8 <<
	.uleb128 .Lfunc_end20-.Ltmp123          #   Call between .Ltmp123 and .Lfunc_end20
	.byte	0                               #     has no landing pad
	.byte	0                               #   On action: cleanup
.Lcst_end7:
	.p2align	2, 0x0
                                        # -- End function
	.text
	.globl	_ZN2PP3Cmd4findEiiNSt7__cxx1112basic_stringIcSt11char_traitsIcESaIcEEE # -- Begin function _ZN2PP3Cmd4findEiiNSt7__cxx1112basic_stringIcSt11char_traitsIcESaIcEEE
	.p2align	5
	.type	_ZN2PP3Cmd4findEiiNSt7__cxx1112basic_stringIcSt11char_traitsIcESaIcEEE,@function
_ZN2PP3Cmd4findEiiNSt7__cxx1112basic_stringIcSt11char_traitsIcESaIcEEE: # @_ZN2PP3Cmd4findEiiNSt7__cxx1112basic_stringIcSt11char_traitsIcESaIcEEE
	.cfi_startproc
# %bb.0:
	addi.d	$sp, $sp, -144
	.cfi_def_cfa_offset 144
	st.d	$ra, $sp, 136                   # 8-byte Folded Spill
	st.d	$fp, $sp, 128                   # 8-byte Folded Spill
	st.d	$s0, $sp, 120                   # 8-byte Folded Spill
	st.d	$s1, $sp, 112                   # 8-byte Folded Spill
	st.d	$s2, $sp, 104                   # 8-byte Folded Spill
	st.d	$s3, $sp, 96                    # 8-byte Folded Spill
	st.d	$s4, $sp, 88                    # 8-byte Folded Spill
	st.d	$s5, $sp, 80                    # 8-byte Folded Spill
	st.d	$s6, $sp, 72                    # 8-byte Folded Spill
	st.d	$s7, $sp, 64                    # 8-byte Folded Spill
	st.d	$s8, $sp, 56                    # 8-byte Folded Spill
	.cfi_offset 1, -8
	.cfi_offset 22, -16
	.cfi_offset 23, -24
	.cfi_offset 24, -32
	.cfi_offset 25, -40
	.cfi_offset 26, -48
	.cfi_offset 27, -56
	.cfi_offset 28, -64
	.cfi_offset 29, -72
	.cfi_offset 30, -80
	.cfi_offset 31, -88
	move	$s2, $a0
	addi.w	$a0, $zero, -1
	blt	$a2, $a1, .LBB21_24
# %bb.1:                                # %.lr.ph
	move	$s0, $a3
	move	$s8, $a1
	st.d	$a0, $sp, 8                     # 8-byte Folded Spill
	addi.d	$s5, $sp, 32
	addi.w	$s6, $a2, 1
	slli.d	$s7, $a1, 7
	ori	$fp, $zero, 16
	move	$s1, $a1
	.p2align	4, , 16
.LBB21_2:                               # =>This Inner Loop Header: Depth=1
	ld.d	$a2, $s2, 176
	ld.d	$a1, $s2, 184
	ld.d	$a0, $s2, 200
	sub.d	$a1, $a2, $a1
	srai.d	$a1, $a1, 7
	add.d	$a1, $s1, $a1
	bltz	$a1, .LBB21_5
# %bb.3:                                #   in Loop: Header=BB21_2 Depth=1
	ori	$a3, $zero, 3
	bltu	$a3, $a1, .LBB21_6
# %bb.4:                                #   in Loop: Header=BB21_2 Depth=1
	add.d	$a0, $a2, $s7
	b	.LBB21_8
	.p2align	4, , 16
.LBB21_5:                               #   in Loop: Header=BB21_2 Depth=1
	srai.d	$a2, $a1, 2
	b	.LBB21_7
	.p2align	4, , 16
.LBB21_6:                               #   in Loop: Header=BB21_2 Depth=1
	srli.d	$a2, $a1, 2
.LBB21_7:                               #   in Loop: Header=BB21_2 Depth=1
	slli.d	$a3, $a2, 3
	ldx.d	$a0, $a0, $a3
	slli.d	$a2, $a2, 2
	sub.d	$a1, $a1, $a2
	slli.d	$a1, $a1, 7
	add.d	$a0, $a0, $a1
.LBB21_8:                               # %_ZNSt5dequeIN2PP4WordESaIS1_EEixEm.exit
                                        #   in Loop: Header=BB21_2 Depth=1
	ld.d	$s3, $a0, 8
	ld.d	$s4, $a0, 0
	st.d	$s5, $sp, 16
	st.d	$s3, $sp, 48
	move	$a0, $s5
	bltu	$s3, $fp, .LBB21_10
# %bb.9:                                # %.noexc.i.i
                                        #   in Loop: Header=BB21_2 Depth=1
	addi.d	$a0, $sp, 16
	addi.d	$a1, $sp, 48
	move	$a2, $zero
	pcaddu18i	$ra, %call36(_ZNSt7__cxx1112basic_stringIcSt11char_traitsIcESaIcEE9_M_createERmm)
	jirl	$ra, $ra, 0
	ld.d	$a1, $sp, 48
	st.d	$a0, $sp, 16
	st.d	$a1, $sp, 32
.LBB21_10:                              # %._crit_edge.i.i.i
                                        #   in Loop: Header=BB21_2 Depth=1
	beqz	$s3, .LBB21_14
# %bb.11:                               # %._crit_edge.i.i.i
                                        #   in Loop: Header=BB21_2 Depth=1
	ori	$a1, $zero, 1
	bne	$s3, $a1, .LBB21_13
# %bb.12:                               #   in Loop: Header=BB21_2 Depth=1
	ld.b	$a1, $s4, 0
	st.b	$a1, $a0, 0
	b	.LBB21_14
	.p2align	4, , 16
.LBB21_13:                              #   in Loop: Header=BB21_2 Depth=1
	move	$a1, $s4
	move	$a2, $s3
	pcaddu18i	$ra, %call36(memcpy)
	jirl	$ra, $ra, 0
.LBB21_14:                              # %_ZN2PP4Word10get_stringB5cxx11Ev.exit
                                        #   in Loop: Header=BB21_2 Depth=1
	ld.d	$a0, $sp, 48
	ld.d	$a1, $sp, 16
	st.d	$a0, $sp, 24
	stx.b	$zero, $a1, $a0
	ld.d	$a2, $sp, 24
	ld.d	$a0, $s0, 8
	bne	$a2, $a0, .LBB21_17
# %bb.15:                               #   in Loop: Header=BB21_2 Depth=1
	ld.d	$s3, $sp, 16
	beqz	$a2, .LBB21_21
# %bb.16:                               #   in Loop: Header=BB21_2 Depth=1
	ld.d	$a1, $s0, 0
	move	$a0, $s3
	pcaddu18i	$ra, %call36(bcmp)
	jirl	$ra, $ra, 0
	sltui	$s4, $a0, 1
	bne	$s3, $s5, .LBB21_18
	b	.LBB21_19
	.p2align	4, , 16
.LBB21_17:                              # %_ZN2PP4Word10get_stringB5cxx11Ev.exit._ZSteqIcSt11char_traitsIcESaIcEEbRKNSt7__cxx1112basic_stringIT_T0_T1_EESA_.exit_crit_edge
                                        #   in Loop: Header=BB21_2 Depth=1
	ld.d	$s3, $sp, 16
	move	$s4, $zero
	beq	$s3, $s5, .LBB21_19
.LBB21_18:                              # %_ZNKSt7__cxx1112basic_stringIcSt11char_traitsIcESaIcEE11_M_is_localEv.exit.i.i
                                        #   in Loop: Header=BB21_2 Depth=1
	ld.d	$a0, $sp, 32
	addi.d	$a1, $a0, 1
	move	$a0, $s3
	pcaddu18i	$ra, %call36(_ZdlPvm)
	jirl	$ra, $ra, 0
.LBB21_19:                              # %_ZNSt7__cxx1112basic_stringIcSt11char_traitsIcESaIcEED2Ev.exit
                                        #   in Loop: Header=BB21_2 Depth=1
	bnez	$s4, .LBB21_22
# %bb.20:                               #   in Loop: Header=BB21_2 Depth=1
	addi.d	$s1, $s1, 1
	addi.w	$s8, $s8, 1
	addi.d	$s7, $s7, 128
	bne	$s6, $s8, .LBB21_2
	b	.LBB21_23
.LBB21_21:                              #   in Loop: Header=BB21_2 Depth=1
	ori	$s4, $zero, 1
	bne	$s3, $s5, .LBB21_18
	b	.LBB21_19
.LBB21_22:
	move	$a0, $s8
	b	.LBB21_24
.LBB21_23:
	ld.d	$a0, $sp, 8                     # 8-byte Folded Reload
.LBB21_24:                              # %_ZNSt7__cxx1112basic_stringIcSt11char_traitsIcESaIcEED2Ev.exit._crit_edge
	ld.d	$s8, $sp, 56                    # 8-byte Folded Reload
	ld.d	$s7, $sp, 64                    # 8-byte Folded Reload
	ld.d	$s6, $sp, 72                    # 8-byte Folded Reload
	ld.d	$s5, $sp, 80                    # 8-byte Folded Reload
	ld.d	$s4, $sp, 88                    # 8-byte Folded Reload
	ld.d	$s3, $sp, 96                    # 8-byte Folded Reload
	ld.d	$s2, $sp, 104                   # 8-byte Folded Reload
	ld.d	$s1, $sp, 112                   # 8-byte Folded Reload
	ld.d	$s0, $sp, 120                   # 8-byte Folded Reload
	ld.d	$fp, $sp, 128                   # 8-byte Folded Reload
	ld.d	$ra, $sp, 136                   # 8-byte Folded Reload
	addi.d	$sp, $sp, 144
	ret
.Lfunc_end21:
	.size	_ZN2PP3Cmd4findEiiNSt7__cxx1112basic_stringIcSt11char_traitsIcESaIcEEE, .Lfunc_end21-_ZN2PP3Cmd4findEiiNSt7__cxx1112basic_stringIcSt11char_traitsIcESaIcEEE
	.cfi_endproc
                                        # -- End function
	.globl	_ZN2PP3Cmd11do_unary_opEiNSt7__cxx1112basic_stringIcSt11char_traitsIcESaIcEEE # -- Begin function _ZN2PP3Cmd11do_unary_opEiNSt7__cxx1112basic_stringIcSt11char_traitsIcESaIcEEE
	.p2align	5
	.type	_ZN2PP3Cmd11do_unary_opEiNSt7__cxx1112basic_stringIcSt11char_traitsIcESaIcEEE,@function
_ZN2PP3Cmd11do_unary_opEiNSt7__cxx1112basic_stringIcSt11char_traitsIcESaIcEEE: # @_ZN2PP3Cmd11do_unary_opEiNSt7__cxx1112basic_stringIcSt11char_traitsIcESaIcEEE
.Lfunc_begin8:
	.cfi_startproc
	.cfi_personality 155, DW.ref.__gxx_personality_v0
	.cfi_lsda 27, .Lexception8
# %bb.0:
	addi.d	$sp, $sp, -224
	.cfi_def_cfa_offset 224
	st.d	$ra, $sp, 216                   # 8-byte Folded Spill
	st.d	$fp, $sp, 208                   # 8-byte Folded Spill
	st.d	$s0, $sp, 200                   # 8-byte Folded Spill
	st.d	$s1, $sp, 192                   # 8-byte Folded Spill
	.cfi_offset 1, -8
	.cfi_offset 22, -16
	.cfi_offset 23, -24
	.cfi_offset 24, -32
	ld.d	$a3, $a2, 8
	ori	$a4, $zero, 1
	bne	$a3, $a4, .LBB22_26
# %bb.1:                                # %_ZSteqIcSt11char_traitsIcESaIcEEbRKNSt7__cxx1112basic_stringIT_T0_T1_EEPKS5_.exit
	ld.d	$a2, $a2, 0
	ld.bu	$a3, $a2, 0
	ori	$a4, $zero, 43
	bne	$a3, $a4, .LBB22_3
# %bb.2:                                # %_ZSteqIcSt11char_traitsIcESaIcEEbRKNSt7__cxx1112basic_stringIT_T0_T1_EEPKS5_.exit.thread
	move	$a2, $a1
	ld.d	$s1, $sp, 192                   # 8-byte Folded Reload
	ld.d	$s0, $sp, 200                   # 8-byte Folded Reload
	ld.d	$fp, $sp, 208                   # 8-byte Folded Reload
	ld.d	$ra, $sp, 216                   # 8-byte Folded Reload
	addi.d	$sp, $sp, 224
	pcaddu18i	$t8, %call36(_ZN2PP3Cmd12delete_wordsEii)
	jr	$t8
.LBB22_3:                               # %_ZSteqIcSt11char_traitsIcESaIcEEbRKNSt7__cxx1112basic_stringIT_T0_T1_EEPKS5_.exit9
	ld.bu	$a2, $a2, 0
	ori	$a3, $zero, 45
	bne	$a2, $a3, .LBB22_26
# %bb.4:                                # %_ZSteqIcSt11char_traitsIcESaIcEEbRKNSt7__cxx1112basic_stringIT_T0_T1_EEPKS5_.exit9.thread
	ld.d	$a2, $a0, 176
	ld.d	$a4, $a0, 184
	addi.w	$fp, $a1, 1
	ld.d	$a3, $a0, 200
	sub.d	$a4, $a2, $a4
	srai.d	$a4, $a4, 7
	add.d	$a4, $a4, $fp
	bltz	$a4, .LBB22_7
# %bb.5:
	ori	$a5, $zero, 4
	bgeu	$a4, $a5, .LBB22_8
# %bb.6:                                # %_ZNSt5dequeIN2PP4WordESaIS1_EEixEm.exit.thread
	slli.d	$a3, $fp, 7
	add.d	$a3, $a2, $a3
	ld.wu	$a3, $a3, 32
	bstrpick.d	$a3, $a3, 31, 1
	slli.w	$a3, $a3, 1
	ori	$a4, $zero, 2
	beq	$a3, $a4, .LBB22_12
	b	.LBB22_26
.LBB22_7:
	srai.d	$a5, $a4, 2
	b	.LBB22_9
.LBB22_8:
	srli.d	$a5, $a4, 2
.LBB22_9:                               # %_ZNSt5dequeIN2PP4WordESaIS1_EEixEm.exit
	slli.d	$a6, $a5, 3
	ldx.d	$a6, $a3, $a6
	slli.d	$a5, $a5, 2
	sub.d	$a5, $a4, $a5
	slli.d	$a5, $a5, 7
	add.d	$a5, $a6, $a5
	ld.wu	$a5, $a5, 32
	bstrpick.d	$a5, $a5, 31, 1
	slli.w	$a5, $a5, 1
	ori	$a6, $zero, 2
	bne	$a5, $a6, .LBB22_26
# %bb.10:
	bltz	$a4, .LBB22_13
# %bb.11:
	ori	$a5, $zero, 3
	bltu	$a5, $a4, .LBB22_14
.LBB22_12:
	move	$s1, $a0
	move	$s0, $a1
	slli.d	$a0, $fp, 7
	add.d	$a1, $a2, $a0
	b	.LBB22_16
.LBB22_13:
	srai.d	$a2, $a4, 2
	b	.LBB22_15
.LBB22_14:
	srli.d	$a2, $a4, 2
.LBB22_15:
	move	$s1, $a0
	move	$s0, $a1
	slli.d	$a0, $a2, 3
	ldx.d	$a0, $a3, $a0
	slli.d	$a1, $a2, 2
	sub.d	$a1, $a4, $a1
	slli.d	$a1, $a1, 7
	add.d	$a1, $a0, $a1
.LBB22_16:                              # %_ZNSt5dequeIN2PP4WordESaIS1_EEixEm.exit11
	addi.d	$a0, $sp, 0
	pcaddu18i	$ra, %call36(_ZN2PP4WordC1ERKS0_)
	jirl	$ra, $ra, 0
.Ltmp128:
	addi.d	$a0, $sp, 0
	pcaddu18i	$ra, %call36(_ZN2PP4Word12negate_valueEv)
	jirl	$ra, $ra, 0
.Ltmp129:
# %bb.17:
.Ltmp130:
	move	$a0, $s1
	move	$a1, $s0
	move	$a2, $fp
	pcaddu18i	$ra, %call36(_ZN2PP3Cmd12delete_wordsEii)
	jirl	$ra, $ra, 0
.Ltmp131:
# %bb.18:                               # %.noexc
	ld.d	$a5, $s1, 176
	ld.d	$a2, $s1, 184
	ld.d	$a0, $s1, 200
	sub.d	$a1, $a5, $a2
	srai.d	$a1, $a1, 7
	add.d	$a3, $a1, $s0
	addi.d	$a1, $s1, 160
	bltz	$a3, .LBB22_21
# %bb.19:
	ori	$a4, $zero, 3
	bltu	$a4, $a3, .LBB22_22
# %bb.20:
	ld.d	$a4, $s1, 192
	slli.d	$a3, $s0, 7
	add.d	$a3, $a5, $a3
	b	.LBB22_24
.LBB22_21:
	srai.d	$a5, $a3, 2
	b	.LBB22_23
.LBB22_22:
	srli.d	$a5, $a3, 2
.LBB22_23:
	slli.d	$a2, $a5, 3
	ldx.d	$a2, $a0, $a2
	alsl.d	$a0, $a5, $a0, 3
	addi.d	$a4, $a2, 512
	slli.d	$a5, $a5, 2
	sub.d	$a3, $a3, $a5
	slli.d	$a3, $a3, 7
	add.d	$a3, $a2, $a3
.LBB22_24:                              # %_ZStplRKSt15_Deque_iteratorIN2PP4WordERS1_PS1_El.exit.i
	st.d	$a3, $sp, 160
	st.d	$a2, $sp, 168
	st.d	$a4, $sp, 176
	st.d	$a0, $sp, 184
.Ltmp132:
	addi.d	$a0, $sp, 128
	addi.d	$a2, $sp, 160
	addi.d	$a3, $sp, 0
	pcaddu18i	$ra, %call36(_ZNSt5dequeIN2PP4WordESaIS1_EE6insertESt15_Deque_iteratorIS1_RKS1_PS5_ES6_)
	jirl	$ra, $ra, 0
.Ltmp133:
# %bb.25:
	addi.d	$a0, $sp, 0
	pcaddu18i	$ra, %call36(_ZN2PP4WordD1Ev)
	jirl	$ra, $ra, 0
.LBB22_26:                              # %_ZSteqIcSt11char_traitsIcESaIcEEbRKNSt7__cxx1112basic_stringIT_T0_T1_EEPKS5_.exit9.thread14
	ld.d	$s1, $sp, 192                   # 8-byte Folded Reload
	ld.d	$s0, $sp, 200                   # 8-byte Folded Reload
	ld.d	$fp, $sp, 208                   # 8-byte Folded Reload
	ld.d	$ra, $sp, 216                   # 8-byte Folded Reload
	addi.d	$sp, $sp, 224
	ret
.LBB22_27:
.Ltmp134:
	move	$fp, $a0
	addi.d	$a0, $sp, 0
	pcaddu18i	$ra, %call36(_ZN2PP4WordD1Ev)
	jirl	$ra, $ra, 0
	move	$a0, $fp
	pcaddu18i	$ra, %call36(_Unwind_Resume)
	jirl	$ra, $ra, 0
.Lfunc_end22:
	.size	_ZN2PP3Cmd11do_unary_opEiNSt7__cxx1112basic_stringIcSt11char_traitsIcESaIcEEE, .Lfunc_end22-_ZN2PP3Cmd11do_unary_opEiNSt7__cxx1112basic_stringIcSt11char_traitsIcESaIcEEE
	.cfi_endproc
	.section	.gcc_except_table,"a",@progbits
	.p2align	2, 0x0
GCC_except_table22:
.Lexception8:
	.byte	255                             # @LPStart Encoding = omit
	.byte	255                             # @TType Encoding = omit
	.byte	1                               # Call site Encoding = uleb128
	.uleb128 .Lcst_end8-.Lcst_begin8
.Lcst_begin8:
	.uleb128 .Lfunc_begin8-.Lfunc_begin8    # >> Call Site 1 <<
	.uleb128 .Ltmp128-.Lfunc_begin8         #   Call between .Lfunc_begin8 and .Ltmp128
	.byte	0                               #     has no landing pad
	.byte	0                               #   On action: cleanup
	.uleb128 .Ltmp128-.Lfunc_begin8         # >> Call Site 2 <<
	.uleb128 .Ltmp133-.Ltmp128              #   Call between .Ltmp128 and .Ltmp133
	.uleb128 .Ltmp134-.Lfunc_begin8         #     jumps to .Ltmp134
	.byte	0                               #   On action: cleanup
	.uleb128 .Ltmp133-.Lfunc_begin8         # >> Call Site 3 <<
	.uleb128 .Lfunc_end22-.Ltmp133          #   Call between .Ltmp133 and .Lfunc_end22
	.byte	0                               #     has no landing pad
	.byte	0                               #   On action: cleanup
.Lcst_end8:
	.p2align	2, 0x0
                                        # -- End function
	.text
	.globl	_ZN2PP3Cmd21handle_cmd_unary_plusERNSt7__cxx1118basic_stringstreamIcSt11char_traitsIcESaIcEEERi # -- Begin function _ZN2PP3Cmd21handle_cmd_unary_plusERNSt7__cxx1118basic_stringstreamIcSt11char_traitsIcESaIcEEERi
	.p2align	5
	.type	_ZN2PP3Cmd21handle_cmd_unary_plusERNSt7__cxx1118basic_stringstreamIcSt11char_traitsIcESaIcEEERi,@function
_ZN2PP3Cmd21handle_cmd_unary_plusERNSt7__cxx1118basic_stringstreamIcSt11char_traitsIcESaIcEEERi: # @_ZN2PP3Cmd21handle_cmd_unary_plusERNSt7__cxx1118basic_stringstreamIcSt11char_traitsIcESaIcEEERi
.Lfunc_begin9:
	.cfi_startproc
	.cfi_personality 155, DW.ref.__gxx_personality_v0
	.cfi_lsda 27, .Lexception9
# %bb.0:
	addi.d	$sp, $sp, -176
	.cfi_def_cfa_offset 176
	st.d	$ra, $sp, 168                   # 8-byte Folded Spill
	st.d	$fp, $sp, 160                   # 8-byte Folded Spill
	st.d	$s0, $sp, 152                   # 8-byte Folded Spill
	st.d	$s1, $sp, 144                   # 8-byte Folded Spill
	st.d	$s2, $sp, 136                   # 8-byte Folded Spill
	st.d	$s3, $sp, 128                   # 8-byte Folded Spill
	st.d	$s4, $sp, 120                   # 8-byte Folded Spill
	st.d	$s5, $sp, 112                   # 8-byte Folded Spill
	st.d	$s6, $sp, 104                   # 8-byte Folded Spill
	st.d	$s7, $sp, 96                    # 8-byte Folded Spill
	st.d	$s8, $sp, 88                    # 8-byte Folded Spill
	.cfi_offset 1, -8
	.cfi_offset 22, -16
	.cfi_offset 23, -24
	.cfi_offset 24, -32
	.cfi_offset 25, -40
	.cfi_offset 26, -48
	.cfi_offset 27, -56
	.cfi_offset 28, -64
	.cfi_offset 29, -72
	.cfi_offset 30, -80
	.cfi_offset 31, -88
	st.d	$a2, $sp, 8                     # 8-byte Folded Spill
	move	$s2, $a1
	move	$s0, $a0
	move	$s1, $zero
	addi.d	$s4, $sp, 64
	ori	$s5, $zero, 43
	ori	$s6, $zero, 1
	addi.w	$s7, $zero, -1
	ori	$s8, $zero, 4
	ori	$fp, $zero, 2
	b	.LBB23_3
	.p2align	4, , 16
.LBB23_1:                               # %_ZNSt5dequeIN2PP4WordESaIS1_EEixEm.exit.thread
                                        #   in Loop: Header=BB23_3 Depth=1
	slli.d	$a1, $s1, 7
	add.d	$a1, $a0, $a1
	ld.wu	$a1, $a1, 32
	bstrpick.d	$a1, $a1, 31, 1
	slli.w	$a1, $a1, 1
	bne	$a1, $fp, .LBB23_14
.LBB23_2:                               #   in Loop: Header=BB23_3 Depth=1
	move	$a0, $s0
	move	$a1, $s3
	move	$a2, $s3
	pcaddu18i	$ra, %call36(_ZN2PP3Cmd12delete_wordsEii)
	jirl	$ra, $ra, 0
.LBB23_3:                               # %._crit_edge.i.i
                                        # =>This Inner Loop Header: Depth=1
	ld.d	$a0, $s0, 232
	ld.d	$a1, $s0, 200
	sub.d	$a1, $a0, $a1
	srli.d	$a1, $a1, 3
	sltu	$a0, $zero, $a0
	ld.d	$a2, $s0, 208
	ld.d	$a3, $s0, 216
	sub.d	$a0, $a1, $a0
	ld.d	$a1, $s0, 192
	ld.d	$a4, $s0, 176
	sub.d	$a2, $a2, $a3
	srli.d	$a2, $a2, 7
	alsl.d	$a0, $a0, $a2, 2
	sub.d	$a1, $a1, $a4
	srli.d	$a1, $a1, 7
	add.d	$a0, $a0, $a1
	st.d	$s4, $sp, 48
	st.h	$s5, $sp, 64
	st.d	$s6, $sp, 56
	addi.w	$a2, $a0, -1
.Ltmp135:
	addi.d	$a3, $sp, 48
	move	$a0, $s0
	move	$a1, $s1
	pcaddu18i	$ra, %call36(_ZN2PP3Cmd4findEiiNSt7__cxx1112basic_stringIcSt11char_traitsIcESaIcEEE)
	jirl	$ra, $ra, 0
.Ltmp136:
# %bb.4:                                #   in Loop: Header=BB23_3 Depth=1
	move	$s3, $a0
	ld.d	$a0, $sp, 48
	beq	$a0, $s4, .LBB23_6
# %bb.5:                                # %_ZNKSt7__cxx1112basic_stringIcSt11char_traitsIcESaIcEE11_M_is_localEv.exit.i.i
                                        #   in Loop: Header=BB23_3 Depth=1
	ld.d	$a1, $sp, 64
	addi.d	$a1, $a1, 1
	pcaddu18i	$ra, %call36(_ZdlPvm)
	jirl	$ra, $ra, 0
.LBB23_6:                               # %_ZNSt7__cxx1112basic_stringIcSt11char_traitsIcESaIcEED2Ev.exit
                                        #   in Loop: Header=BB23_3 Depth=1
	beq	$s3, $s7, .LBB23_45
# %bb.7:                                #   in Loop: Header=BB23_3 Depth=1
	ld.d	$a0, $s0, 176
	ld.d	$a2, $s0, 184
	addi.w	$s1, $s3, 1
	ld.d	$a1, $s0, 200
	sub.d	$a2, $a0, $a2
	srai.d	$a2, $a2, 7
	add.d	$a2, $a2, $s1
	bltz	$a2, .LBB23_10
# %bb.8:                                #   in Loop: Header=BB23_3 Depth=1
	bltu	$a2, $s8, .LBB23_1
# %bb.9:                                #   in Loop: Header=BB23_3 Depth=1
	srli.d	$a3, $a2, 2
	b	.LBB23_11
	.p2align	4, , 16
.LBB23_10:                              #   in Loop: Header=BB23_3 Depth=1
	srai.d	$a3, $a2, 2
.LBB23_11:                              # %_ZNSt5dequeIN2PP4WordESaIS1_EEixEm.exit
                                        #   in Loop: Header=BB23_3 Depth=1
	slli.d	$a4, $a3, 3
	ldx.d	$a4, $a1, $a4
	slli.d	$a3, $a3, 2
	sub.d	$a3, $a2, $a3
	slli.d	$a3, $a3, 7
	add.d	$a3, $a4, $a3
	ld.wu	$a3, $a3, 32
	bstrpick.d	$a3, $a3, 31, 1
	slli.w	$a3, $a3, 1
	beq	$a3, $fp, .LBB23_2
# %bb.12:
	bltz	$a2, .LBB23_15
# %bb.13:
	ori	$a3, $zero, 3
	bltu	$a3, $a2, .LBB23_16
.LBB23_14:                              # %.thread52
	slli.d	$a1, $s1, 7
	add.d	$a0, $a0, $a1
	b	.LBB23_18
.LBB23_15:
	srai.d	$a0, $a2, 2
	b	.LBB23_17
.LBB23_16:
	srli.d	$a0, $a2, 2
.LBB23_17:
	slli.d	$a3, $a0, 3
	ldx.d	$a1, $a1, $a3
	slli.d	$a0, $a0, 2
	sub.d	$a0, $a2, $a0
	slli.d	$a0, $a0, 7
	add.d	$a0, $a1, $a0
.LBB23_18:                              # %_ZNSt5dequeIN2PP4WordESaIS1_EEixEm.exit29
	ld.d	$fp, $sp, 8                     # 8-byte Folded Reload
	move	$a1, $s2
	move	$a2, $fp
	pcaddu18i	$ra, %call36(_ZN2PP4Word11fatal_errorERNSt7__cxx1118basic_stringstreamIcSt11char_traitsIcESaIcEEERi)
	jirl	$ra, $ra, 0
	addi.d	$s3, $s2, 16
	pcalau12i	$a0, %pc_hi20(.L.str.27)
	addi.d	$a1, $a0, %pc_lo12(.L.str.27)
	ori	$a2, $zero, 57
	move	$a0, $s3
	pcaddu18i	$ra, %call36(_ZSt16__ostream_insertIcSt11char_traitsIcEERSt13basic_ostreamIT_T0_ES6_PKS3_l)
	jirl	$ra, $ra, 0
	ld.d	$a0, $s2, 16
	ld.d	$a0, $a0, -24
	add.d	$a0, $s3, $a0
	ld.d	$s2, $a0, 240
	beqz	$s2, .LBB23_46
# %bb.19:                               # %_ZSt13__check_facetISt5ctypeIcEERKT_PS3_.exit.i.i
	ld.bu	$a0, $s2, 56
	beqz	$a0, .LBB23_21
# %bb.20:
	ld.bu	$a0, $s2, 67
	b	.LBB23_22
.LBB23_21:
	move	$a0, $s2
	pcaddu18i	$ra, %call36(_ZNKSt5ctypeIcE13_M_widen_initEv)
	jirl	$ra, $ra, 0
	ld.d	$a0, $s2, 0
	ld.d	$a2, $a0, 48
	ori	$a1, $zero, 10
	move	$a0, $s2
	jirl	$ra, $a2, 0
.LBB23_22:                              # %_ZSt4endlIcSt11char_traitsIcEERSt13basic_ostreamIT_T0_ES6_.exit
	ext.w.b	$a1, $a0
	move	$a0, $s3
	pcaddu18i	$ra, %call36(_ZNSo3putEc)
	jirl	$ra, $ra, 0
	pcaddu18i	$ra, %call36(_ZNSo5flushEv)
	jirl	$ra, $ra, 0
	pcalau12i	$a0, %pc_hi20(.L.str.25)
	addi.d	$a1, $a0, %pc_lo12(.L.str.25)
	ori	$a2, $zero, 16
	move	$a0, $s3
	pcaddu18i	$ra, %call36(_ZSt16__ostream_insertIcSt11char_traitsIcEERSt13basic_ostreamIT_T0_ES6_PKS3_l)
	jirl	$ra, $ra, 0
	ld.d	$a2, $s0, 176
	ld.d	$a1, $s0, 184
	ld.d	$a0, $s0, 200
	sub.d	$a1, $a2, $a1
	srai.d	$a1, $a1, 7
	add.d	$a1, $a1, $s1
	bltz	$a1, .LBB23_25
# %bb.23:
	ori	$a3, $zero, 3
	bltu	$a3, $a1, .LBB23_26
# %bb.24:
	slli.d	$a0, $s1, 7
	add.d	$a0, $a2, $a0
	b	.LBB23_28
.LBB23_25:
	srai.d	$a2, $a1, 2
	b	.LBB23_27
.LBB23_26:
	srli.d	$a2, $a1, 2
.LBB23_27:
	slli.d	$a3, $a2, 3
	ldx.d	$a0, $a0, $a3
	slli.d	$a2, $a2, 2
	sub.d	$a1, $a1, $a2
	slli.d	$a1, $a1, 7
	add.d	$a0, $a0, $a1
.LBB23_28:                              # %_ZNSt5dequeIN2PP4WordESaIS1_EEixEm.exit31
	addi.d	$s2, $sp, 32
	ld.d	$s0, $a0, 8
	ld.d	$s1, $a0, 0
	st.d	$s2, $sp, 16
	ori	$a1, $zero, 16
	st.d	$s0, $sp, 80
	move	$a0, $s2
	bltu	$s0, $a1, .LBB23_30
# %bb.29:                               # %.noexc.i.i
	addi.d	$a0, $sp, 16
	addi.d	$a1, $sp, 80
	move	$a2, $zero
	pcaddu18i	$ra, %call36(_ZNSt7__cxx1112basic_stringIcSt11char_traitsIcESaIcEE9_M_createERmm)
	jirl	$ra, $ra, 0
	ld.d	$a1, $sp, 80
	st.d	$a0, $sp, 16
	st.d	$a1, $sp, 32
.LBB23_30:                              # %._crit_edge.i.i.i
	beqz	$s0, .LBB23_34
# %bb.31:                               # %._crit_edge.i.i.i
	ori	$a1, $zero, 1
	bne	$s0, $a1, .LBB23_33
# %bb.32:
	ld.b	$a1, $s1, 0
	st.b	$a1, $a0, 0
	b	.LBB23_34
.LBB23_33:
	move	$a1, $s1
	move	$a2, $s0
	pcaddu18i	$ra, %call36(memcpy)
	jirl	$ra, $ra, 0
.LBB23_34:                              # %_ZN2PP4Word10get_stringB5cxx11Ev.exit
	ld.d	$a0, $sp, 80
	ld.d	$a1, $sp, 16
	st.d	$a0, $sp, 24
	stx.b	$zero, $a1, $a0
	ld.d	$a1, $sp, 16
	ld.d	$a2, $sp, 24
.Ltmp138:
	move	$a0, $s3
	pcaddu18i	$ra, %call36(_ZSt16__ostream_insertIcSt11char_traitsIcEERSt13basic_ostreamIT_T0_ES6_PKS3_l)
	jirl	$ra, $ra, 0
.Ltmp139:
# %bb.35:                               # %_ZStlsIcSt11char_traitsIcESaIcEERSt13basic_ostreamIT_T0_ES7_RKNSt7__cxx1112basic_stringIS4_S5_T1_EE.exit
	move	$s0, $a0
	ld.d	$a0, $a0, 0
	ld.d	$a0, $a0, -24
	add.d	$a0, $s0, $a0
	ld.d	$s1, $a0, 240
	beqz	$s1, .LBB23_47
# %bb.36:                               # %_ZSt13__check_facetISt5ctypeIcEERKT_PS3_.exit.i.i41
	ld.bu	$a0, $s1, 56
	beqz	$a0, .LBB23_38
# %bb.37:
	ld.bu	$a0, $s1, 67
	b	.LBB23_40
.LBB23_38:
.Ltmp140:
	move	$a0, $s1
	pcaddu18i	$ra, %call36(_ZNKSt5ctypeIcE13_M_widen_initEv)
	jirl	$ra, $ra, 0
.Ltmp141:
# %bb.39:                               # %.noexc45
	ld.d	$a0, $s1, 0
	ld.d	$a2, $a0, 48
.Ltmp142:
	ori	$a1, $zero, 10
	move	$a0, $s1
	jirl	$ra, $a2, 0
.Ltmp143:
.LBB23_40:                              # %_ZNKSt9basic_iosIcSt11char_traitsIcEE5widenEc.exit.i
.Ltmp144:
	ext.w.b	$a1, $a0
	move	$a0, $s0
	pcaddu18i	$ra, %call36(_ZNSo3putEc)
	jirl	$ra, $ra, 0
.Ltmp145:
# %bb.41:                               # %.noexc47
.Ltmp146:
	pcaddu18i	$ra, %call36(_ZNSo5flushEv)
	jirl	$ra, $ra, 0
.Ltmp147:
# %bb.42:                               # %_ZNSolsEPFRSoS_E.exit
	ld.d	$a0, $sp, 16
	beq	$a0, $s2, .LBB23_44
# %bb.43:                               # %_ZNKSt7__cxx1112basic_stringIcSt11char_traitsIcESaIcEE11_M_is_localEv.exit.i.i34
	ld.d	$a1, $sp, 32
	addi.d	$a1, $a1, 1
	pcaddu18i	$ra, %call36(_ZdlPvm)
	jirl	$ra, $ra, 0
.LBB23_44:                              # %_ZNSt7__cxx1112basic_stringIcSt11char_traitsIcESaIcEED2Ev.exit36
	ori	$a0, $zero, 2
	st.w	$a0, $fp, 0
.LBB23_45:                              # %.loopexit
	ld.d	$s8, $sp, 88                    # 8-byte Folded Reload
	ld.d	$s7, $sp, 96                    # 8-byte Folded Reload
	ld.d	$s6, $sp, 104                   # 8-byte Folded Reload
	ld.d	$s5, $sp, 112                   # 8-byte Folded Reload
	ld.d	$s4, $sp, 120                   # 8-byte Folded Reload
	ld.d	$s3, $sp, 128                   # 8-byte Folded Reload
	ld.d	$s2, $sp, 136                   # 8-byte Folded Reload
	ld.d	$s1, $sp, 144                   # 8-byte Folded Reload
	ld.d	$s0, $sp, 152                   # 8-byte Folded Reload
	ld.d	$fp, $sp, 160                   # 8-byte Folded Reload
	ld.d	$ra, $sp, 168                   # 8-byte Folded Reload
	addi.d	$sp, $sp, 176
	ret
.LBB23_46:
	pcaddu18i	$ra, %call36(_ZSt16__throw_bad_castv)
	jirl	$ra, $ra, 0
.LBB23_47:
.Ltmp148:
	pcaddu18i	$ra, %call36(_ZSt16__throw_bad_castv)
	jirl	$ra, $ra, 0
.Ltmp149:
# %bb.48:                               # %.noexc44
.LBB23_49:
.Ltmp150:
	ld.d	$a2, $sp, 16
	move	$fp, $a0
	beq	$a2, $s2, .LBB23_54
# %bb.50:                               # %_ZNKSt7__cxx1112basic_stringIcSt11char_traitsIcESaIcEE11_M_is_localEv.exit.i.i37
	ld.d	$a0, $sp, 32
	b	.LBB23_53
.LBB23_51:
.Ltmp137:
	ld.d	$a2, $sp, 48
	move	$fp, $a0
	beq	$a2, $s4, .LBB23_54
# %bb.52:                               # %_ZNKSt7__cxx1112basic_stringIcSt11char_traitsIcESaIcEE11_M_is_localEv.exit.i.i25
	ld.d	$a0, $sp, 64
.LBB23_53:                              # %_ZNSt7__cxx1112basic_stringIcSt11char_traitsIcESaIcEED2Ev.exit27
	addi.d	$a1, $a0, 1
	move	$a0, $a2
	pcaddu18i	$ra, %call36(_ZdlPvm)
	jirl	$ra, $ra, 0
.LBB23_54:                              # %_ZNSt7__cxx1112basic_stringIcSt11char_traitsIcESaIcEED2Ev.exit27
	move	$a0, $fp
	pcaddu18i	$ra, %call36(_Unwind_Resume)
	jirl	$ra, $ra, 0
.Lfunc_end23:
	.size	_ZN2PP3Cmd21handle_cmd_unary_plusERNSt7__cxx1118basic_stringstreamIcSt11char_traitsIcESaIcEEERi, .Lfunc_end23-_ZN2PP3Cmd21handle_cmd_unary_plusERNSt7__cxx1118basic_stringstreamIcSt11char_traitsIcESaIcEEERi
	.cfi_endproc
	.section	.gcc_except_table,"a",@progbits
	.p2align	2, 0x0
GCC_except_table23:
.Lexception9:
	.byte	255                             # @LPStart Encoding = omit
	.byte	255                             # @TType Encoding = omit
	.byte	1                               # Call site Encoding = uleb128
	.uleb128 .Lcst_end9-.Lcst_begin9
.Lcst_begin9:
	.uleb128 .Lfunc_begin9-.Lfunc_begin9    # >> Call Site 1 <<
	.uleb128 .Ltmp135-.Lfunc_begin9         #   Call between .Lfunc_begin9 and .Ltmp135
	.byte	0                               #     has no landing pad
	.byte	0                               #   On action: cleanup
	.uleb128 .Ltmp135-.Lfunc_begin9         # >> Call Site 2 <<
	.uleb128 .Ltmp136-.Ltmp135              #   Call between .Ltmp135 and .Ltmp136
	.uleb128 .Ltmp137-.Lfunc_begin9         #     jumps to .Ltmp137
	.byte	0                               #   On action: cleanup
	.uleb128 .Ltmp136-.Lfunc_begin9         # >> Call Site 3 <<
	.uleb128 .Ltmp138-.Ltmp136              #   Call between .Ltmp136 and .Ltmp138
	.byte	0                               #     has no landing pad
	.byte	0                               #   On action: cleanup
	.uleb128 .Ltmp138-.Lfunc_begin9         # >> Call Site 4 <<
	.uleb128 .Ltmp147-.Ltmp138              #   Call between .Ltmp138 and .Ltmp147
	.uleb128 .Ltmp150-.Lfunc_begin9         #     jumps to .Ltmp150
	.byte	0                               #   On action: cleanup
	.uleb128 .Ltmp147-.Lfunc_begin9         # >> Call Site 5 <<
	.uleb128 .Ltmp148-.Ltmp147              #   Call between .Ltmp147 and .Ltmp148
	.byte	0                               #     has no landing pad
	.byte	0                               #   On action: cleanup
	.uleb128 .Ltmp148-.Lfunc_begin9         # >> Call Site 6 <<
	.uleb128 .Ltmp149-.Ltmp148              #   Call between .Ltmp148 and .Ltmp149
	.uleb128 .Ltmp150-.Lfunc_begin9         #     jumps to .Ltmp150
	.byte	0                               #   On action: cleanup
	.uleb128 .Ltmp149-.Lfunc_begin9         # >> Call Site 7 <<
	.uleb128 .Lfunc_end23-.Ltmp149          #   Call between .Ltmp149 and .Lfunc_end23
	.byte	0                               #     has no landing pad
	.byte	0                               #   On action: cleanup
.Lcst_end9:
	.p2align	2, 0x0
                                        # -- End function
	.text
	.globl	_ZN2PP3Cmd12delete_wordsEii     # -- Begin function _ZN2PP3Cmd12delete_wordsEii
	.p2align	5
	.type	_ZN2PP3Cmd12delete_wordsEii,@function
_ZN2PP3Cmd12delete_wordsEii:            # @_ZN2PP3Cmd12delete_wordsEii
	.cfi_startproc
# %bb.0:
	ld.d	$a6, $a0, 176
	ld.d	$a5, $a0, 184
	ld.d	$a3, $a0, 200
	sub.d	$a4, $a6, $a5
	srai.d	$a7, $a4, 7
	add.d	$t0, $a7, $a1
	bltz	$t0, .LBB24_4
# %bb.1:
	ori	$a4, $zero, 3
	bltu	$a4, $t0, .LBB24_5
# %bb.2:
	slli.d	$a1, $a1, 7
	add.d	$a1, $a6, $a1
	move	$a4, $a3
	add.d	$a7, $a7, $a2
	bgez	$a7, .LBB24_7
.LBB24_3:
	srai.d	$a2, $a7, 2
	b	.LBB24_10
.LBB24_4:
	srai.d	$a1, $t0, 2
	b	.LBB24_6
.LBB24_5:
	srli.d	$a1, $t0, 2
.LBB24_6:
	alsl.d	$a4, $a1, $a3, 3
	slli.d	$t1, $a1, 3
	ldx.d	$t1, $a3, $t1
	slli.d	$a1, $a1, 2
	sub.d	$a1, $t0, $a1
	slli.d	$a1, $a1, 7
	add.d	$a1, $t1, $a1
	add.d	$a7, $a7, $a2
	bltz	$a7, .LBB24_3
.LBB24_7:
	ori	$t0, $zero, 3
	bltu	$t0, $a7, .LBB24_9
# %bb.8:
	slli.d	$a2, $a2, 7
	add.d	$a2, $a6, $a2
	b	.LBB24_11
.LBB24_9:
	srli.d	$a2, $a7, 2
.LBB24_10:
	slli.d	$a5, $a2, 3
	ldx.d	$a5, $a3, $a5
	alsl.d	$a3, $a2, $a3, 3
	slli.d	$a2, $a2, 2
	sub.d	$a2, $a7, $a2
	slli.d	$a2, $a2, 7
	add.d	$a2, $a5, $a2
.LBB24_11:                              # %_ZStplRKSt15_Deque_iteratorIN2PP4WordERS1_PS1_El.exit3
	sub.d	$a5, $a2, $a5
	srai.d	$a6, $a5, 7
	addi.w	$a7, $zero, -1
	addi.d	$a5, $a6, 1
	blt	$a6, $a7, .LBB24_14
# %bb.12:
	ori	$a6, $zero, 3
	bltu	$a6, $a5, .LBB24_15
# %bb.13:
	addi.d	$a2, $a2, 128
	b	.LBB24_17
.LBB24_14:
	srai.d	$a2, $a5, 2
	b	.LBB24_16
.LBB24_15:
	srli.d	$a2, $a5, 2
.LBB24_16:
	slli.d	$a6, $a2, 3
	ldx.d	$a6, $a3, $a6
	alsl.d	$a3, $a2, $a3, 3
	slli.d	$a2, $a2, 2
	sub.d	$a2, $a5, $a2
	slli.d	$a2, $a2, 7
	add.d	$a2, $a6, $a2
.LBB24_17:                              # %_ZStplRKSt15_Deque_iteratorIN2PP4WordERS1_PS1_El.exit5
	addi.d	$sp, $sp, -112
	.cfi_def_cfa_offset 112
	st.d	$ra, $sp, 104                   # 8-byte Folded Spill
	.cfi_offset 1, -8
	ld.d	$a5, $a4, 0
	st.d	$a1, $sp, 72
	st.d	$a5, $sp, 80
	addi.d	$a1, $a5, 512
	st.d	$a1, $sp, 88
	ld.d	$a5, $a3, 0
	addi.d	$a1, $a0, 160
	st.d	$a4, $sp, 96
	st.d	$a2, $sp, 40
	st.d	$a5, $sp, 48
	addi.d	$a0, $a5, 512
	st.d	$a0, $sp, 56
	st.d	$a3, $sp, 64
	addi.d	$a0, $sp, 8
	addi.d	$a2, $sp, 72
	addi.d	$a3, $sp, 40
	pcaddu18i	$ra, %call36(_ZNSt5dequeIN2PP4WordESaIS1_EE8_M_eraseESt15_Deque_iteratorIS1_RS1_PS1_ES7_)
	jirl	$ra, $ra, 0
	ld.d	$ra, $sp, 104                   # 8-byte Folded Reload
	addi.d	$sp, $sp, 112
	ret
.Lfunc_end24:
	.size	_ZN2PP3Cmd12delete_wordsEii, .Lfunc_end24-_ZN2PP3Cmd12delete_wordsEii
	.cfi_endproc
                                        # -- End function
	.globl	_ZN2PP3Cmd23handle_cmd_multiplicityERNSt7__cxx1118basic_stringstreamIcSt11char_traitsIcESaIcEEERi # -- Begin function _ZN2PP3Cmd23handle_cmd_multiplicityERNSt7__cxx1118basic_stringstreamIcSt11char_traitsIcESaIcEEERi
	.p2align	5
	.type	_ZN2PP3Cmd23handle_cmd_multiplicityERNSt7__cxx1118basic_stringstreamIcSt11char_traitsIcESaIcEEERi,@function
_ZN2PP3Cmd23handle_cmd_multiplicityERNSt7__cxx1118basic_stringstreamIcSt11char_traitsIcESaIcEEERi: # @_ZN2PP3Cmd23handle_cmd_multiplicityERNSt7__cxx1118basic_stringstreamIcSt11char_traitsIcESaIcEEERi
.Lfunc_begin10:
	.cfi_startproc
	.cfi_personality 155, DW.ref.__gxx_personality_v0
	.cfi_lsda 27, .Lexception10
# %bb.0:
	addi.d	$sp, $sp, -320
	.cfi_def_cfa_offset 320
	st.d	$ra, $sp, 312                   # 8-byte Folded Spill
	st.d	$fp, $sp, 304                   # 8-byte Folded Spill
	st.d	$s0, $sp, 296                   # 8-byte Folded Spill
	st.d	$s1, $sp, 288                   # 8-byte Folded Spill
	st.d	$s2, $sp, 280                   # 8-byte Folded Spill
	st.d	$s3, $sp, 272                   # 8-byte Folded Spill
	st.d	$s4, $sp, 264                   # 8-byte Folded Spill
	st.d	$s5, $sp, 256                   # 8-byte Folded Spill
	st.d	$s6, $sp, 248                   # 8-byte Folded Spill
	st.d	$s7, $sp, 240                   # 8-byte Folded Spill
	st.d	$s8, $sp, 232                   # 8-byte Folded Spill
	.cfi_offset 1, -8
	.cfi_offset 22, -16
	.cfi_offset 23, -24
	.cfi_offset 24, -32
	.cfi_offset 25, -40
	.cfi_offset 26, -48
	.cfi_offset 27, -56
	.cfi_offset 28, -64
	.cfi_offset 29, -72
	.cfi_offset 30, -80
	.cfi_offset 31, -88
	st.d	$a2, $sp, 0                     # 8-byte Folded Spill
	move	$s0, $a1
	move	$s1, $a0
	move	$s2, $zero
	addi.d	$s3, $a0, 160
	addi.d	$s6, $sp, 152
	ori	$s8, $zero, 1
	addi.w	$fp, $zero, -1
	ori	$s7, $zero, 3
	.p2align	4, , 16
.LBB25_1:                               # %._crit_edge.i.i
                                        # =>This Inner Loop Header: Depth=1
	ld.d	$a0, $s1, 232
	ld.d	$a1, $s1, 200
	sub.d	$a1, $a0, $a1
	srli.d	$a1, $a1, 3
	sltu	$a0, $zero, $a0
	ld.d	$a2, $s1, 208
	ld.d	$a3, $s1, 216
	sub.d	$a0, $a1, $a0
	ld.d	$a1, $s1, 192
	ld.d	$a4, $s1, 176
	sub.d	$a2, $a2, $a3
	srli.d	$a2, $a2, 7
	alsl.d	$a0, $a0, $a2, 2
	sub.d	$a1, $a1, $a4
	srli.d	$a1, $a1, 7
	add.d	$a0, $a0, $a1
	st.d	$s6, $sp, 136
	ori	$a1, $zero, 42
	st.h	$a1, $sp, 152
	st.d	$s8, $sp, 144
	addi.w	$a2, $a0, -1
.Ltmp151:
	addi.d	$a3, $sp, 136
	move	$a0, $s1
	move	$a1, $s2
	pcaddu18i	$ra, %call36(_ZN2PP3Cmd4findEiiNSt7__cxx1112basic_stringIcSt11char_traitsIcESaIcEEE)
	jirl	$ra, $ra, 0
.Ltmp152:
# %bb.2:                                #   in Loop: Header=BB25_1 Depth=1
	move	$s2, $a0
	ld.d	$a0, $sp, 136
	beq	$a0, $s6, .LBB25_4
# %bb.3:                                # %_ZNKSt7__cxx1112basic_stringIcSt11char_traitsIcESaIcEE11_M_is_localEv.exit.i.i
                                        #   in Loop: Header=BB25_1 Depth=1
	ld.d	$a1, $sp, 152
	addi.d	$a1, $a1, 1
	pcaddu18i	$ra, %call36(_ZdlPvm)
	jirl	$ra, $ra, 0
.LBB25_4:                               # %_ZNSt7__cxx1112basic_stringIcSt11char_traitsIcESaIcEED2Ev.exit
                                        #   in Loop: Header=BB25_1 Depth=1
	beq	$s2, $fp, .LBB25_80
# %bb.5:                                # %_ZNSt7__cxx1112basic_stringIcSt11char_traitsIcESaIcEED2Ev.exit
                                        #   in Loop: Header=BB25_1 Depth=1
	beqz	$s2, .LBB25_34
# %bb.6:                                #   in Loop: Header=BB25_1 Depth=1
	ld.d	$a1, $s1, 232
	ld.d	$a0, $s1, 200
	sub.d	$a2, $a1, $a0
	srli.d	$a2, $a2, 3
	sltu	$a1, $zero, $a1
	ld.d	$a3, $s1, 208
	ld.d	$a4, $s1, 216
	sub.d	$a2, $a2, $a1
	ld.d	$a5, $s1, 192
	ld.d	$a1, $s1, 176
	sub.d	$a3, $a3, $a4
	srli.d	$a3, $a3, 7
	alsl.d	$a2, $a2, $a3, 2
	sub.d	$a3, $a5, $a1
	srli.d	$a3, $a3, 7
	add.d	$a2, $a2, $a3
	addi.w	$a2, $a2, -1
	beq	$s2, $a2, .LBB25_37
# %bb.7:                                #   in Loop: Header=BB25_1 Depth=1
	ld.d	$a2, $s1, 184
	addi.w	$s4, $s2, -1
	sub.d	$a2, $a1, $a2
	srai.d	$a2, $a2, 7
	add.d	$a2, $a2, $s4
	bltz	$a2, .LBB25_10
# %bb.8:                                #   in Loop: Header=BB25_1 Depth=1
	ori	$a3, $zero, 4
	bgeu	$a2, $a3, .LBB25_11
# %bb.9:                                # %_ZNSt5dequeIN2PP4WordESaIS1_EEixEm.exit47.thread
                                        #   in Loop: Header=BB25_1 Depth=1
	slli.d	$a0, $s4, 7
	add.d	$a0, $a1, $a0
	ld.wu	$a0, $a0, 32
	bstrpick.d	$a0, $a0, 31, 1
	slli.w	$a0, $a0, 1
	ori	$a2, $zero, 2
	beq	$a0, $a2, .LBB25_15
	b	.LBB25_42
	.p2align	4, , 16
.LBB25_10:                              #   in Loop: Header=BB25_1 Depth=1
	srai.d	$a3, $a2, 2
	b	.LBB25_12
	.p2align	4, , 16
.LBB25_11:                              #   in Loop: Header=BB25_1 Depth=1
	srli.d	$a3, $a2, 2
.LBB25_12:                              # %_ZNSt5dequeIN2PP4WordESaIS1_EEixEm.exit47
                                        #   in Loop: Header=BB25_1 Depth=1
	slli.d	$a4, $a3, 3
	ldx.d	$a4, $a0, $a4
	slli.d	$a3, $a3, 2
	sub.d	$a3, $a2, $a3
	slli.d	$a3, $a3, 7
	add.d	$a3, $a4, $a3
	ld.wu	$a3, $a3, 32
	bstrpick.d	$a3, $a3, 31, 1
	slli.w	$a3, $a3, 1
	ori	$a4, $zero, 2
	bne	$a3, $a4, .LBB25_40
# %bb.13:                               #   in Loop: Header=BB25_1 Depth=1
	bltz	$a2, .LBB25_16
# %bb.14:                               #   in Loop: Header=BB25_1 Depth=1
	bltu	$s7, $a2, .LBB25_17
.LBB25_15:                              # %.thread92
                                        #   in Loop: Header=BB25_1 Depth=1
	slli.d	$a0, $s4, 7
	add.d	$a0, $a1, $a0
	b	.LBB25_19
	.p2align	4, , 16
.LBB25_16:                              #   in Loop: Header=BB25_1 Depth=1
	srai.d	$a1, $a2, 2
	b	.LBB25_18
.LBB25_17:                              #   in Loop: Header=BB25_1 Depth=1
	srli.d	$a1, $a2, 2
.LBB25_18:                              #   in Loop: Header=BB25_1 Depth=1
	slli.d	$a3, $a1, 3
	ldx.d	$a0, $a0, $a3
	slli.d	$a1, $a1, 2
	sub.d	$a1, $a2, $a1
	slli.d	$a1, $a1, 7
	add.d	$a0, $a0, $a1
.LBB25_19:                              # %_ZNSt5dequeIN2PP4WordESaIS1_EEixEm.exit61
                                        #   in Loop: Header=BB25_1 Depth=1
	move	$a1, $s0
	ld.d	$a2, $sp, 0                     # 8-byte Folded Reload
	pcaddu18i	$ra, %call36(_ZN2PP4Word7get_intERNSt7__cxx1118basic_stringstreamIcSt11char_traitsIcESaIcEEERi)
	jirl	$ra, $ra, 0
	ld.d	$a3, $s1, 176
	ld.d	$a2, $s1, 184
	addi.w	$s5, $s2, 1
	ld.d	$a1, $s1, 200
	sub.d	$a2, $a3, $a2
	srai.d	$a2, $a2, 7
	add.d	$a2, $a2, $s5
	bltz	$a2, .LBB25_22
# %bb.20:                               #   in Loop: Header=BB25_1 Depth=1
	bltu	$s7, $a2, .LBB25_23
# %bb.21:                               #   in Loop: Header=BB25_1 Depth=1
	slli.d	$a1, $s5, 7
	add.d	$a1, $a3, $a1
	st.w	$a0, $a1, 40
	b	.LBB25_25
	.p2align	4, , 16
.LBB25_22:                              #   in Loop: Header=BB25_1 Depth=1
	srai.d	$a3, $a2, 2
	b	.LBB25_24
	.p2align	4, , 16
.LBB25_23:                              #   in Loop: Header=BB25_1 Depth=1
	srli.d	$a3, $a2, 2
.LBB25_24:                              #   in Loop: Header=BB25_1 Depth=1
	slli.d	$a4, $a3, 3
	ldx.d	$a5, $a1, $a4
	andi	$a6, $a2, 3
	slli.d	$a6, $a6, 7
	add.d	$a5, $a5, $a6
	st.w	$a0, $a5, 40
	ldx.d	$a0, $a1, $a4
	slli.d	$a1, $a3, 2
	sub.d	$a1, $a2, $a1
	slli.d	$a1, $a1, 7
	add.d	$a1, $a0, $a1
.LBB25_25:                              # %_ZNSt5dequeIN2PP4WordESaIS1_EEixEm.exit65
                                        #   in Loop: Header=BB25_1 Depth=1
	addi.d	$a0, $sp, 8
	pcaddu18i	$ra, %call36(_ZN2PP4WordC1ERKS0_)
	jirl	$ra, $ra, 0
.Ltmp167:
	move	$a0, $s1
	move	$a1, $s4
	move	$a2, $s5
	pcaddu18i	$ra, %call36(_ZN2PP3Cmd12delete_wordsEii)
	jirl	$ra, $ra, 0
.Ltmp168:
# %bb.26:                               # %.noexc66
                                        #   in Loop: Header=BB25_1 Depth=1
	ld.d	$a4, $s1, 176
	ld.d	$a1, $s1, 184
	ld.d	$a0, $s1, 200
	sub.d	$a2, $a4, $a1
	srai.d	$a2, $a2, 7
	add.d	$a3, $a2, $s4
	bltz	$a3, .LBB25_29
# %bb.27:                               #   in Loop: Header=BB25_1 Depth=1
	bltu	$s7, $a3, .LBB25_30
# %bb.28:                               #   in Loop: Header=BB25_1 Depth=1
	ld.d	$a2, $s1, 192
	slli.d	$a3, $s4, 7
	add.d	$a3, $a4, $a3
	b	.LBB25_32
	.p2align	4, , 16
.LBB25_29:                              #   in Loop: Header=BB25_1 Depth=1
	srai.d	$a4, $a3, 2
	b	.LBB25_31
	.p2align	4, , 16
.LBB25_30:                              #   in Loop: Header=BB25_1 Depth=1
	srli.d	$a4, $a3, 2
.LBB25_31:                              #   in Loop: Header=BB25_1 Depth=1
	slli.d	$a1, $a4, 3
	ldx.d	$a1, $a0, $a1
	alsl.d	$a0, $a4, $a0, 3
	addi.d	$a2, $a1, 512
	slli.d	$a4, $a4, 2
	sub.d	$a3, $a3, $a4
	slli.d	$a3, $a3, 7
	add.d	$a3, $a1, $a3
.LBB25_32:                              # %_ZStplRKSt15_Deque_iteratorIN2PP4WordERS1_PS1_El.exit.i
                                        #   in Loop: Header=BB25_1 Depth=1
	st.d	$a3, $sp, 200
	st.d	$a1, $sp, 208
	st.d	$a2, $sp, 216
	st.d	$a0, $sp, 224
.Ltmp169:
	addi.d	$a0, $sp, 168
	addi.d	$a2, $sp, 200
	addi.d	$a3, $sp, 8
	move	$a1, $s3
	pcaddu18i	$ra, %call36(_ZNSt5dequeIN2PP4WordESaIS1_EE6insertESt15_Deque_iteratorIS1_RKS1_PS5_ES6_)
	jirl	$ra, $ra, 0
.Ltmp170:
# %bb.33:                               #   in Loop: Header=BB25_1 Depth=1
	addi.d	$a0, $sp, 8
	pcaddu18i	$ra, %call36(_ZN2PP4WordD1Ev)
	jirl	$ra, $ra, 0
	b	.LBB25_1
.LBB25_34:
	move	$a0, $s1
	move	$a1, $s0
	pcaddu18i	$ra, %call36(_ZN2PP3Cmd12fatal_error2ERNSt7__cxx1118basic_stringstreamIcSt11char_traitsIcESaIcEEERi)
	jirl	$ra, $ra, 0
	addi.d	$s1, $s0, 16
	pcalau12i	$a0, %pc_hi20(.L.str.29)
	addi.d	$a1, $a0, %pc_lo12(.L.str.29)
	ori	$a2, $zero, 42
	move	$a0, $s1
	pcaddu18i	$ra, %call36(_ZSt16__ostream_insertIcSt11char_traitsIcEERSt13basic_ostreamIT_T0_ES6_PKS3_l)
	jirl	$ra, $ra, 0
	ld.d	$a0, $s0, 16
	ld.d	$a0, $a0, -24
	add.d	$a0, $s1, $a0
	ld.d	$s0, $a0, 240
	beqz	$s0, .LBB25_81
# %bb.35:                               # %_ZSt13__check_facetISt5ctypeIcEERKT_PS3_.exit.i.i
	ld.bu	$a0, $s0, 56
	beqz	$a0, .LBB25_48
.LBB25_36:
	ld.bu	$a0, $s0, 67
	b	.LBB25_49
.LBB25_37:
	ld.d	$a2, $s1, 184
	sub.d	$a2, $a1, $a2
	srai.d	$a2, $a2, 7
	add.d	$a2, $a2, $s2
	bltz	$a2, .LBB25_43
# %bb.38:
	ori	$a3, $zero, 3
	bltu	$a3, $a2, .LBB25_44
# %bb.39:
	slli.d	$a0, $s2, 7
	add.d	$a0, $a1, $a0
	b	.LBB25_46
.LBB25_40:
	bltz	$a2, .LBB25_50
# %bb.41:
	ori	$a3, $zero, 3
	bltu	$a3, $a2, .LBB25_51
.LBB25_42:                              # %.thread90
	slli.d	$a0, $s4, 7
	add.d	$a0, $a1, $a0
	b	.LBB25_53
.LBB25_43:
	srai.d	$a1, $a2, 2
	b	.LBB25_45
.LBB25_44:
	srli.d	$a1, $a2, 2
.LBB25_45:
	slli.d	$a3, $a1, 3
	ldx.d	$a0, $a0, $a3
	slli.d	$a1, $a1, 2
	sub.d	$a1, $a2, $a1
	slli.d	$a1, $a1, 7
	add.d	$a0, $a0, $a1
.LBB25_46:                              # %_ZNSt5dequeIN2PP4WordESaIS1_EEixEm.exit
	move	$a1, $s0
	ld.d	$a2, $sp, 0                     # 8-byte Folded Reload
	pcaddu18i	$ra, %call36(_ZN2PP4Word11fatal_errorERNSt7__cxx1118basic_stringstreamIcSt11char_traitsIcESaIcEEERi)
	jirl	$ra, $ra, 0
	addi.d	$s1, $s0, 16
	pcalau12i	$a0, %pc_hi20(.L.str.30)
	addi.d	$a1, $a0, %pc_lo12(.L.str.30)
	ori	$a2, $zero, 40
	move	$a0, $s1
	pcaddu18i	$ra, %call36(_ZSt16__ostream_insertIcSt11char_traitsIcEERSt13basic_ostreamIT_T0_ES6_PKS3_l)
	jirl	$ra, $ra, 0
	ld.d	$a0, $s0, 16
	ld.d	$a0, $a0, -24
	add.d	$a0, $s1, $a0
	ld.d	$s0, $a0, 240
	beqz	$s0, .LBB25_81
# %bb.47:                               # %_ZSt13__check_facetISt5ctypeIcEERKT_PS3_.exit.i.i69
	ld.bu	$a0, $s0, 56
	bnez	$a0, .LBB25_36
.LBB25_48:
	move	$a0, $s0
	pcaddu18i	$ra, %call36(_ZNKSt5ctypeIcE13_M_widen_initEv)
	jirl	$ra, $ra, 0
	ld.d	$a0, $s0, 0
	ld.d	$a2, $a0, 48
	ori	$a1, $zero, 10
	move	$a0, $s0
	jirl	$ra, $a2, 0
.LBB25_49:                              # %_ZSt4endlIcSt11char_traitsIcEERSt13basic_ostreamIT_T0_ES6_.exit
	ext.w.b	$a1, $a0
	move	$a0, $s1
	pcaddu18i	$ra, %call36(_ZNSo3putEc)
	jirl	$ra, $ra, 0
	pcaddu18i	$ra, %call36(_ZNSo5flushEv)
	jirl	$ra, $ra, 0
	b	.LBB25_79
.LBB25_50:
	srai.d	$a1, $a2, 2
	b	.LBB25_52
.LBB25_51:
	srli.d	$a1, $a2, 2
.LBB25_52:
	slli.d	$a3, $a1, 3
	ldx.d	$a0, $a0, $a3
	slli.d	$a1, $a1, 2
	sub.d	$a1, $a2, $a1
	slli.d	$a1, $a1, 7
	add.d	$a0, $a0, $a1
.LBB25_53:                              # %_ZNSt5dequeIN2PP4WordESaIS1_EEixEm.exit49
	move	$a1, $s0
	ld.d	$a2, $sp, 0                     # 8-byte Folded Reload
	pcaddu18i	$ra, %call36(_ZN2PP4Word11fatal_errorERNSt7__cxx1118basic_stringstreamIcSt11char_traitsIcESaIcEEERi)
	jirl	$ra, $ra, 0
	addi.d	$s2, $s0, 16
	pcalau12i	$a0, %pc_hi20(.L.str.31)
	addi.d	$a1, $a0, %pc_lo12(.L.str.31)
	ori	$a2, $zero, 48
	move	$a0, $s2
	pcaddu18i	$ra, %call36(_ZSt16__ostream_insertIcSt11char_traitsIcEERSt13basic_ostreamIT_T0_ES6_PKS3_l)
	jirl	$ra, $ra, 0
	ld.d	$a0, $s0, 16
	ld.d	$a0, $a0, -24
	add.d	$a0, $s2, $a0
	ld.d	$s0, $a0, 240
	beqz	$s0, .LBB25_81
# %bb.54:                               # %_ZSt13__check_facetISt5ctypeIcEERKT_PS3_.exit.i.i74
	ld.bu	$a0, $s0, 56
	beqz	$a0, .LBB25_56
# %bb.55:
	ld.bu	$a0, $s0, 67
	b	.LBB25_57
.LBB25_56:
	move	$a0, $s0
	pcaddu18i	$ra, %call36(_ZNKSt5ctypeIcE13_M_widen_initEv)
	jirl	$ra, $ra, 0
	ld.d	$a0, $s0, 0
	ld.d	$a2, $a0, 48
	ori	$a1, $zero, 10
	move	$a0, $s0
	jirl	$ra, $a2, 0
.LBB25_57:                              # %_ZSt4endlIcSt11char_traitsIcEERSt13basic_ostreamIT_T0_ES6_.exit77
	ext.w.b	$a1, $a0
	move	$a0, $s2
	pcaddu18i	$ra, %call36(_ZNSo3putEc)
	jirl	$ra, $ra, 0
	pcaddu18i	$ra, %call36(_ZNSo5flushEv)
	jirl	$ra, $ra, 0
	pcalau12i	$a0, %pc_hi20(.L.str.25)
	addi.d	$a1, $a0, %pc_lo12(.L.str.25)
	ori	$a2, $zero, 16
	move	$a0, $s2
	pcaddu18i	$ra, %call36(_ZSt16__ostream_insertIcSt11char_traitsIcEERSt13basic_ostreamIT_T0_ES6_PKS3_l)
	jirl	$ra, $ra, 0
	ld.d	$a2, $s1, 176
	ld.d	$a1, $s1, 184
	ld.d	$a0, $s1, 200
	sub.d	$a1, $a2, $a1
	srai.d	$a1, $a1, 7
	add.d	$a1, $a1, $s4
	bltz	$a1, .LBB25_60
# %bb.58:
	ori	$a3, $zero, 3
	bltu	$a3, $a1, .LBB25_61
# %bb.59:
	slli.d	$a0, $s4, 7
	add.d	$a0, $a2, $a0
	b	.LBB25_63
.LBB25_60:
	srai.d	$a2, $a1, 2
	b	.LBB25_62
.LBB25_61:
	srli.d	$a2, $a1, 2
.LBB25_62:
	slli.d	$a3, $a2, 3
	ldx.d	$a0, $a0, $a3
	slli.d	$a2, $a2, 2
	sub.d	$a1, $a1, $a2
	slli.d	$a1, $a1, 7
	add.d	$a0, $a0, $a1
.LBB25_63:                              # %_ZNSt5dequeIN2PP4WordESaIS1_EEixEm.exit51
	addi.d	$s3, $sp, 24
	st.d	$s3, $sp, 8
	ld.d	$s0, $a0, 8
	ld.d	$s1, $a0, 0
	ori	$a1, $zero, 16
	st.d	$s0, $sp, 200
	move	$a0, $s3
	bltu	$s0, $a1, .LBB25_65
# %bb.64:                               # %.noexc.i.i
	addi.d	$a0, $sp, 8
	addi.d	$a1, $sp, 200
	move	$a2, $zero
	pcaddu18i	$ra, %call36(_ZNSt7__cxx1112basic_stringIcSt11char_traitsIcESaIcEE9_M_createERmm)
	jirl	$ra, $ra, 0
	ld.d	$a1, $sp, 200
	st.d	$a0, $sp, 8
	st.d	$a1, $sp, 24
.LBB25_65:                              # %._crit_edge.i.i.i
	beqz	$s0, .LBB25_69
# %bb.66:                               # %._crit_edge.i.i.i
	ori	$a1, $zero, 1
	bne	$s0, $a1, .LBB25_68
# %bb.67:
	ld.b	$a1, $s1, 0
	st.b	$a1, $a0, 0
	b	.LBB25_69
.LBB25_68:
	move	$a1, $s1
	move	$a2, $s0
	pcaddu18i	$ra, %call36(memcpy)
	jirl	$ra, $ra, 0
.LBB25_69:                              # %_ZN2PP4Word10get_stringB5cxx11Ev.exit
	ld.d	$a0, $sp, 200
	ld.d	$a1, $sp, 8
	st.d	$a0, $sp, 16
	stx.b	$zero, $a1, $a0
	ld.d	$a1, $sp, 8
	ld.d	$a2, $sp, 16
.Ltmp154:
	move	$a0, $s2
	pcaddu18i	$ra, %call36(_ZSt16__ostream_insertIcSt11char_traitsIcEERSt13basic_ostreamIT_T0_ES6_PKS3_l)
	jirl	$ra, $ra, 0
.Ltmp155:
# %bb.70:                               # %_ZStlsIcSt11char_traitsIcESaIcEERSt13basic_ostreamIT_T0_ES7_RKNSt7__cxx1112basic_stringIS4_S5_T1_EE.exit
	move	$s0, $a0
	ld.d	$a0, $a0, 0
	ld.d	$a0, $a0, -24
	add.d	$a0, $s0, $a0
	ld.d	$s1, $a0, 240
	beqz	$s1, .LBB25_82
# %bb.71:                               # %_ZSt13__check_facetISt5ctypeIcEERKT_PS3_.exit.i.i79
	ld.bu	$a0, $s1, 56
	beqz	$a0, .LBB25_73
# %bb.72:
	ld.bu	$a0, $s1, 67
	b	.LBB25_75
.LBB25_73:
.Ltmp156:
	move	$a0, $s1
	pcaddu18i	$ra, %call36(_ZNKSt5ctypeIcE13_M_widen_initEv)
	jirl	$ra, $ra, 0
.Ltmp157:
# %bb.74:                               # %.noexc83
	ld.d	$a0, $s1, 0
	ld.d	$a2, $a0, 48
.Ltmp158:
	ori	$a1, $zero, 10
	move	$a0, $s1
	jirl	$ra, $a2, 0
.Ltmp159:
.LBB25_75:                              # %_ZNKSt9basic_iosIcSt11char_traitsIcEE5widenEc.exit.i
.Ltmp160:
	ext.w.b	$a1, $a0
	move	$a0, $s0
	pcaddu18i	$ra, %call36(_ZNSo3putEc)
	jirl	$ra, $ra, 0
.Ltmp161:
# %bb.76:                               # %.noexc85
.Ltmp162:
	pcaddu18i	$ra, %call36(_ZNSo5flushEv)
	jirl	$ra, $ra, 0
.Ltmp163:
# %bb.77:                               # %_ZNSolsEPFRSoS_E.exit
	ld.d	$a0, $sp, 8
	beq	$a0, $s3, .LBB25_79
# %bb.78:                               # %_ZNKSt7__cxx1112basic_stringIcSt11char_traitsIcESaIcEE11_M_is_localEv.exit.i.i54
	ld.d	$a1, $sp, 24
	addi.d	$a1, $a1, 1
	pcaddu18i	$ra, %call36(_ZdlPvm)
	jirl	$ra, $ra, 0
.LBB25_79:                              # %.loopexit.sink.split
	ori	$a0, $zero, 2
	ld.d	$a1, $sp, 0                     # 8-byte Folded Reload
	st.w	$a0, $a1, 0
.LBB25_80:                              # %.loopexit
	ld.d	$s8, $sp, 232                   # 8-byte Folded Reload
	ld.d	$s7, $sp, 240                   # 8-byte Folded Reload
	ld.d	$s6, $sp, 248                   # 8-byte Folded Reload
	ld.d	$s5, $sp, 256                   # 8-byte Folded Reload
	ld.d	$s4, $sp, 264                   # 8-byte Folded Reload
	ld.d	$s3, $sp, 272                   # 8-byte Folded Reload
	ld.d	$s2, $sp, 280                   # 8-byte Folded Reload
	ld.d	$s1, $sp, 288                   # 8-byte Folded Reload
	ld.d	$s0, $sp, 296                   # 8-byte Folded Reload
	ld.d	$fp, $sp, 304                   # 8-byte Folded Reload
	ld.d	$ra, $sp, 312                   # 8-byte Folded Reload
	addi.d	$sp, $sp, 320
	ret
.LBB25_81:
	pcaddu18i	$ra, %call36(_ZSt16__throw_bad_castv)
	jirl	$ra, $ra, 0
.LBB25_82:
.Ltmp164:
	pcaddu18i	$ra, %call36(_ZSt16__throw_bad_castv)
	jirl	$ra, $ra, 0
.Ltmp165:
# %bb.83:                               # %.noexc82
.LBB25_84:
.Ltmp166:
	ld.d	$a2, $sp, 8
	move	$fp, $a0
	beq	$a2, $s3, .LBB25_90
# %bb.85:                               # %_ZNKSt7__cxx1112basic_stringIcSt11char_traitsIcESaIcEE11_M_is_localEv.exit.i.i57
	ld.d	$a0, $sp, 24
	b	.LBB25_88
.LBB25_86:
.Ltmp153:
	ld.d	$a2, $sp, 136
	move	$fp, $a0
	beq	$a2, $s6, .LBB25_90
# %bb.87:                               # %_ZNKSt7__cxx1112basic_stringIcSt11char_traitsIcESaIcEE11_M_is_localEv.exit.i.i42
	ld.d	$a0, $sp, 152
.LBB25_88:                              # %_ZNSt7__cxx1112basic_stringIcSt11char_traitsIcESaIcEED2Ev.exit44
	addi.d	$a1, $a0, 1
	move	$a0, $a2
	pcaddu18i	$ra, %call36(_ZdlPvm)
	jirl	$ra, $ra, 0
	move	$a0, $fp
	pcaddu18i	$ra, %call36(_Unwind_Resume)
	jirl	$ra, $ra, 0
.LBB25_89:
.Ltmp171:
	move	$fp, $a0
	addi.d	$a0, $sp, 8
	pcaddu18i	$ra, %call36(_ZN2PP4WordD1Ev)
	jirl	$ra, $ra, 0
.LBB25_90:                              # %_ZNSt7__cxx1112basic_stringIcSt11char_traitsIcESaIcEED2Ev.exit44
	move	$a0, $fp
	pcaddu18i	$ra, %call36(_Unwind_Resume)
	jirl	$ra, $ra, 0
.Lfunc_end25:
	.size	_ZN2PP3Cmd23handle_cmd_multiplicityERNSt7__cxx1118basic_stringstreamIcSt11char_traitsIcESaIcEEERi, .Lfunc_end25-_ZN2PP3Cmd23handle_cmd_multiplicityERNSt7__cxx1118basic_stringstreamIcSt11char_traitsIcESaIcEEERi
	.cfi_endproc
	.section	.gcc_except_table,"a",@progbits
	.p2align	2, 0x0
GCC_except_table25:
.Lexception10:
	.byte	255                             # @LPStart Encoding = omit
	.byte	255                             # @TType Encoding = omit
	.byte	1                               # Call site Encoding = uleb128
	.uleb128 .Lcst_end10-.Lcst_begin10
.Lcst_begin10:
	.uleb128 .Ltmp151-.Lfunc_begin10        # >> Call Site 1 <<
	.uleb128 .Ltmp152-.Ltmp151              #   Call between .Ltmp151 and .Ltmp152
	.uleb128 .Ltmp153-.Lfunc_begin10        #     jumps to .Ltmp153
	.byte	0                               #   On action: cleanup
	.uleb128 .Ltmp152-.Lfunc_begin10        # >> Call Site 2 <<
	.uleb128 .Ltmp167-.Ltmp152              #   Call between .Ltmp152 and .Ltmp167
	.byte	0                               #     has no landing pad
	.byte	0                               #   On action: cleanup
	.uleb128 .Ltmp167-.Lfunc_begin10        # >> Call Site 3 <<
	.uleb128 .Ltmp170-.Ltmp167              #   Call between .Ltmp167 and .Ltmp170
	.uleb128 .Ltmp171-.Lfunc_begin10        #     jumps to .Ltmp171
	.byte	0                               #   On action: cleanup
	.uleb128 .Ltmp170-.Lfunc_begin10        # >> Call Site 4 <<
	.uleb128 .Ltmp154-.Ltmp170              #   Call between .Ltmp170 and .Ltmp154
	.byte	0                               #     has no landing pad
	.byte	0                               #   On action: cleanup
	.uleb128 .Ltmp154-.Lfunc_begin10        # >> Call Site 5 <<
	.uleb128 .Ltmp163-.Ltmp154              #   Call between .Ltmp154 and .Ltmp163
	.uleb128 .Ltmp166-.Lfunc_begin10        #     jumps to .Ltmp166
	.byte	0                               #   On action: cleanup
	.uleb128 .Ltmp163-.Lfunc_begin10        # >> Call Site 6 <<
	.uleb128 .Ltmp164-.Ltmp163              #   Call between .Ltmp163 and .Ltmp164
	.byte	0                               #     has no landing pad
	.byte	0                               #   On action: cleanup
	.uleb128 .Ltmp164-.Lfunc_begin10        # >> Call Site 7 <<
	.uleb128 .Ltmp165-.Ltmp164              #   Call between .Ltmp164 and .Ltmp165
	.uleb128 .Ltmp166-.Lfunc_begin10        #     jumps to .Ltmp166
	.byte	0                               #   On action: cleanup
	.uleb128 .Ltmp165-.Lfunc_begin10        # >> Call Site 8 <<
	.uleb128 .Lfunc_end25-.Ltmp165          #   Call between .Ltmp165 and .Lfunc_end25
	.byte	0                               #     has no landing pad
	.byte	0                               #   On action: cleanup
.Lcst_end10:
	.p2align	2, 0x0
                                        # -- End function
	.text
	.globl	_ZN2PP3Cmd12fatal_error2ERNSt7__cxx1118basic_stringstreamIcSt11char_traitsIcESaIcEEERi # -- Begin function _ZN2PP3Cmd12fatal_error2ERNSt7__cxx1118basic_stringstreamIcSt11char_traitsIcESaIcEEERi
	.p2align	5
	.type	_ZN2PP3Cmd12fatal_error2ERNSt7__cxx1118basic_stringstreamIcSt11char_traitsIcESaIcEEERi,@function
_ZN2PP3Cmd12fatal_error2ERNSt7__cxx1118basic_stringstreamIcSt11char_traitsIcESaIcEEERi: # @_ZN2PP3Cmd12fatal_error2ERNSt7__cxx1118basic_stringstreamIcSt11char_traitsIcESaIcEEERi
	.cfi_startproc
# %bb.0:
	addi.d	$sp, $sp, -48
	.cfi_def_cfa_offset 48
	st.d	$ra, $sp, 40                    # 8-byte Folded Spill
	st.d	$fp, $sp, 32                    # 8-byte Folded Spill
	st.d	$s0, $sp, 24                    # 8-byte Folded Spill
	st.d	$s1, $sp, 16                    # 8-byte Folded Spill
	st.d	$s2, $sp, 8                     # 8-byte Folded Spill
	.cfi_offset 1, -8
	.cfi_offset 22, -16
	.cfi_offset 23, -24
	.cfi_offset 24, -32
	.cfi_offset 25, -40
	ld.d	$a2, $a1, 16
	ld.d	$a2, $a2, -24
	addi.d	$fp, $a1, 16
	add.d	$a1, $fp, $a2
	ld.d	$s1, $a1, 240
	beqz	$s1, .LBB26_23
# %bb.1:                                # %_ZSt13__check_facetISt5ctypeIcEERKT_PS3_.exit.i.i
	move	$s0, $a0
	ld.bu	$a0, $s1, 56
	beqz	$a0, .LBB26_3
# %bb.2:
	ld.bu	$a0, $s1, 67
	b	.LBB26_4
.LBB26_3:
	move	$a0, $s1
	pcaddu18i	$ra, %call36(_ZNKSt5ctypeIcE13_M_widen_initEv)
	jirl	$ra, $ra, 0
	ld.d	$a0, $s1, 0
	ld.d	$a2, $a0, 48
	ori	$a1, $zero, 10
	move	$a0, $s1
	jirl	$ra, $a2, 0
.LBB26_4:                               # %_ZSt4endlIcSt11char_traitsIcEERSt13basic_ostreamIT_T0_ES6_.exit
	ext.w.b	$a1, $a0
	move	$a0, $fp
	pcaddu18i	$ra, %call36(_ZNSo3putEc)
	jirl	$ra, $ra, 0
	pcaddu18i	$ra, %call36(_ZNSo5flushEv)
	jirl	$ra, $ra, 0
	pcalau12i	$a0, %pc_hi20(.L.str.193)
	addi.d	$a1, $a0, %pc_lo12(.L.str.193)
	ori	$a2, $zero, 24
	move	$a0, $fp
	pcaddu18i	$ra, %call36(_ZSt16__ostream_insertIcSt11char_traitsIcEERSt13basic_ostreamIT_T0_ES6_PKS3_l)
	jirl	$ra, $ra, 0
	ld.w	$a1, $s0, 4
	move	$a0, $fp
	pcaddu18i	$ra, %call36(_ZNSolsEi)
	jirl	$ra, $ra, 0
	move	$s1, $a0
	pcalau12i	$a0, %pc_hi20(.L.str.59)
	addi.d	$a1, $a0, %pc_lo12(.L.str.59)
	ori	$a2, $zero, 1
	move	$a0, $s1
	pcaddu18i	$ra, %call36(_ZSt16__ostream_insertIcSt11char_traitsIcEERSt13basic_ostreamIT_T0_ES6_PKS3_l)
	jirl	$ra, $ra, 0
	ld.d	$a0, $s1, 0
	ld.d	$a0, $a0, -24
	add.d	$a0, $s1, $a0
	ld.d	$s2, $a0, 240
	beqz	$s2, .LBB26_23
# %bb.5:                                # %_ZSt13__check_facetISt5ctypeIcEERKT_PS3_.exit.i.i6
	ld.bu	$a0, $s2, 56
	beqz	$a0, .LBB26_7
# %bb.6:
	ld.bu	$a0, $s2, 67
	b	.LBB26_8
.LBB26_7:
	move	$a0, $s2
	pcaddu18i	$ra, %call36(_ZNKSt5ctypeIcE13_M_widen_initEv)
	jirl	$ra, $ra, 0
	ld.d	$a0, $s2, 0
	ld.d	$a2, $a0, 48
	ori	$a1, $zero, 10
	move	$a0, $s2
	jirl	$ra, $a2, 0
.LBB26_8:                               # %_ZSt4endlIcSt11char_traitsIcEERSt13basic_ostreamIT_T0_ES6_.exit9
	ext.w.b	$a1, $a0
	move	$a0, $s1
	pcaddu18i	$ra, %call36(_ZNSo3putEc)
	jirl	$ra, $ra, 0
	pcaddu18i	$ra, %call36(_ZNSo5flushEv)
	jirl	$ra, $ra, 0
	pcalau12i	$a0, %pc_hi20(.L.str.22)
	addi.d	$a1, $a0, %pc_lo12(.L.str.22)
	ori	$a2, $zero, 4
	move	$a0, $fp
	pcaddu18i	$ra, %call36(_ZSt16__ostream_insertIcSt11char_traitsIcEERSt13basic_ostreamIT_T0_ES6_PKS3_l)
	jirl	$ra, $ra, 0
	ld.d	$a0, $s0, 40
	ld.w	$a1, $s0, 0
	ld.d	$a2, $a0, 16
	ld.d	$a4, $a0, 24
	addi.w	$a3, $a1, -1
	ld.d	$a0, $a0, 40
	sub.d	$a1, $a2, $a4
	srai.d	$a1, $a1, 5
	add.d	$a1, $a1, $a3
	bltz	$a1, .LBB26_11
# %bb.9:
	ori	$a4, $zero, 15
	bltu	$a4, $a1, .LBB26_12
# %bb.10:
	slli.d	$a0, $a3, 5
	add.d	$a0, $a2, $a0
	b	.LBB26_14
.LBB26_11:
	srai.d	$a2, $a1, 4
	b	.LBB26_13
.LBB26_12:
	srli.d	$a2, $a1, 4
.LBB26_13:
	slli.d	$a3, $a2, 3
	ldx.d	$a0, $a0, $a3
	slli.d	$a2, $a2, 4
	sub.d	$a1, $a1, $a2
	slli.d	$a1, $a1, 5
	add.d	$a0, $a0, $a1
.LBB26_14:                              # %_ZNSt5dequeINSt7__cxx1112basic_stringIcSt11char_traitsIcESaIcEEESaIS5_EEixEm.exit
	ld.d	$a1, $a0, 0
	ld.d	$a2, $a0, 8
	move	$a0, $fp
	pcaddu18i	$ra, %call36(_ZSt16__ostream_insertIcSt11char_traitsIcEERSt13basic_ostreamIT_T0_ES6_PKS3_l)
	jirl	$ra, $ra, 0
	ld.d	$a1, $a0, 0
	ld.d	$a1, $a1, -24
	add.d	$a1, $a0, $a1
	ld.d	$s1, $a1, 240
	beqz	$s1, .LBB26_23
# %bb.15:                               # %_ZSt13__check_facetISt5ctypeIcEERKT_PS3_.exit.i.i11
	ld.bu	$a1, $s1, 56
	beqz	$a1, .LBB26_17
# %bb.16:
	ld.bu	$a1, $s1, 67
	b	.LBB26_18
.LBB26_17:
	move	$s2, $a0
	move	$a0, $s1
	pcaddu18i	$ra, %call36(_ZNKSt5ctypeIcE13_M_widen_initEv)
	jirl	$ra, $ra, 0
	ld.d	$a0, $s1, 0
	ld.d	$a2, $a0, 48
	ori	$a1, $zero, 10
	move	$a0, $s1
	jirl	$ra, $a2, 0
	move	$a1, $a0
	move	$a0, $s2
.LBB26_18:                              # %_ZSt4endlIcSt11char_traitsIcEERSt13basic_ostreamIT_T0_ES6_.exit14
	ext.w.b	$a1, $a1
	pcaddu18i	$ra, %call36(_ZNSo3putEc)
	jirl	$ra, $ra, 0
	pcaddu18i	$ra, %call36(_ZNSo5flushEv)
	jirl	$ra, $ra, 0
	pcalau12i	$a0, %pc_hi20(.L.str.194)
	addi.d	$a1, $a0, %pc_lo12(.L.str.194)
	ori	$a2, $zero, 9
	move	$a0, $fp
	pcaddu18i	$ra, %call36(_ZSt16__ostream_insertIcSt11char_traitsIcEERSt13basic_ostreamIT_T0_ES6_PKS3_l)
	jirl	$ra, $ra, 0
	ld.d	$a1, $s0, 8
	ld.d	$a2, $s0, 16
	move	$a0, $fp
	pcaddu18i	$ra, %call36(_ZSt16__ostream_insertIcSt11char_traitsIcEERSt13basic_ostreamIT_T0_ES6_PKS3_l)
	jirl	$ra, $ra, 0
	ld.d	$a1, $a0, 0
	ld.d	$a1, $a1, -24
	add.d	$a1, $a0, $a1
	ld.d	$fp, $a1, 240
	beqz	$fp, .LBB26_23
# %bb.19:                               # %_ZSt13__check_facetISt5ctypeIcEERKT_PS3_.exit.i.i16
	ld.bu	$a1, $fp, 56
	beqz	$a1, .LBB26_21
# %bb.20:
	ld.bu	$a1, $fp, 67
	b	.LBB26_22
.LBB26_21:
	move	$s0, $a0
	move	$a0, $fp
	pcaddu18i	$ra, %call36(_ZNKSt5ctypeIcE13_M_widen_initEv)
	jirl	$ra, $ra, 0
	ld.d	$a0, $fp, 0
	ld.d	$a2, $a0, 48
	ori	$a1, $zero, 10
	move	$a0, $fp
	jirl	$ra, $a2, 0
	move	$a1, $a0
	move	$a0, $s0
.LBB26_22:                              # %_ZSt4endlIcSt11char_traitsIcEERSt13basic_ostreamIT_T0_ES6_.exit19
	ext.w.b	$a1, $a1
	pcaddu18i	$ra, %call36(_ZNSo3putEc)
	jirl	$ra, $ra, 0
	ld.d	$s2, $sp, 8                     # 8-byte Folded Reload
	ld.d	$s1, $sp, 16                    # 8-byte Folded Reload
	ld.d	$s0, $sp, 24                    # 8-byte Folded Reload
	ld.d	$fp, $sp, 32                    # 8-byte Folded Reload
	ld.d	$ra, $sp, 40                    # 8-byte Folded Reload
	addi.d	$sp, $sp, 48
	pcaddu18i	$t8, %call36(_ZNSo5flushEv)
	jr	$t8
.LBB26_23:
	pcaddu18i	$ra, %call36(_ZSt16__throw_bad_castv)
	jirl	$ra, $ra, 0
.Lfunc_end26:
	.size	_ZN2PP3Cmd12fatal_error2ERNSt7__cxx1118basic_stringstreamIcSt11char_traitsIcESaIcEEERi, .Lfunc_end26-_ZN2PP3Cmd12fatal_error2ERNSt7__cxx1118basic_stringstreamIcSt11char_traitsIcESaIcEEERi
	.cfi_endproc
                                        # -- End function
	.globl	_ZN2PP3Cmd13replace_wordsEiiRNS_4WordE # -- Begin function _ZN2PP3Cmd13replace_wordsEiiRNS_4WordE
	.p2align	5
	.type	_ZN2PP3Cmd13replace_wordsEiiRNS_4WordE,@function
_ZN2PP3Cmd13replace_wordsEiiRNS_4WordE: # @_ZN2PP3Cmd13replace_wordsEiiRNS_4WordE
	.cfi_startproc
# %bb.0:
	addi.d	$sp, $sp, -96
	.cfi_def_cfa_offset 96
	st.d	$ra, $sp, 88                    # 8-byte Folded Spill
	st.d	$fp, $sp, 80                    # 8-byte Folded Spill
	st.d	$s0, $sp, 72                    # 8-byte Folded Spill
	st.d	$s1, $sp, 64                    # 8-byte Folded Spill
	.cfi_offset 1, -8
	.cfi_offset 22, -16
	.cfi_offset 23, -24
	.cfi_offset 24, -32
	move	$fp, $a3
	move	$s1, $a1
	move	$s0, $a0
	pcaddu18i	$ra, %call36(_ZN2PP3Cmd12delete_wordsEii)
	jirl	$ra, $ra, 0
	ld.d	$a4, $s0, 176
	ld.d	$a2, $s0, 184
	ld.d	$a0, $s0, 200
	sub.d	$a1, $a4, $a2
	srai.d	$a1, $a1, 7
	add.d	$a1, $a1, $s1
	bltz	$a1, .LBB27_3
# %bb.1:
	ori	$a3, $zero, 3
	bltu	$a3, $a1, .LBB27_4
# %bb.2:
	ld.d	$a3, $s0, 192
	slli.d	$a1, $s1, 7
	add.d	$a4, $a4, $a1
	b	.LBB27_6
.LBB27_3:
	srai.d	$a4, $a1, 2
	b	.LBB27_5
.LBB27_4:
	srli.d	$a4, $a1, 2
.LBB27_5:
	slli.d	$a2, $a4, 3
	ldx.d	$a2, $a0, $a2
	alsl.d	$a0, $a4, $a0, 3
	addi.d	$a3, $a2, 512
	slli.d	$a4, $a4, 2
	sub.d	$a1, $a1, $a4
	slli.d	$a1, $a1, 7
	add.d	$a4, $a2, $a1
.LBB27_6:                               # %_ZStplRKSt15_Deque_iteratorIN2PP4WordERS1_PS1_El.exit
	addi.d	$a1, $s0, 160
	st.d	$a4, $sp, 32
	st.d	$a2, $sp, 40
	st.d	$a3, $sp, 48
	st.d	$a0, $sp, 56
	addi.d	$a0, $sp, 0
	addi.d	$a2, $sp, 32
	move	$a3, $fp
	pcaddu18i	$ra, %call36(_ZNSt5dequeIN2PP4WordESaIS1_EE6insertESt15_Deque_iteratorIS1_RKS1_PS5_ES6_)
	jirl	$ra, $ra, 0
	ld.d	$s1, $sp, 64                    # 8-byte Folded Reload
	ld.d	$s0, $sp, 72                    # 8-byte Folded Reload
	ld.d	$fp, $sp, 80                    # 8-byte Folded Reload
	ld.d	$ra, $sp, 88                    # 8-byte Folded Reload
	addi.d	$sp, $sp, 96
	ret
.Lfunc_end27:
	.size	_ZN2PP3Cmd13replace_wordsEiiRNS_4WordE, .Lfunc_end27-_ZN2PP3Cmd13replace_wordsEiiRNS_4WordE
	.cfi_endproc
                                        # -- End function
	.globl	_ZN2PP3Cmd12get_bool_intERNSt7__cxx1112basic_stringIcSt11char_traitsIcESaIcEEEPiRKSt6vectorIiSaIiEERS9_IPS0_SaISE_EERSB_iSI_bRNS1_18basic_stringstreamIcS4_S5_EERi # -- Begin function _ZN2PP3Cmd12get_bool_intERNSt7__cxx1112basic_stringIcSt11char_traitsIcESaIcEEEPiRKSt6vectorIiSaIiEERS9_IPS0_SaISE_EERSB_iSI_bRNS1_18basic_stringstreamIcS4_S5_EERi
	.p2align	5
	.type	_ZN2PP3Cmd12get_bool_intERNSt7__cxx1112basic_stringIcSt11char_traitsIcESaIcEEEPiRKSt6vectorIiSaIiEERS9_IPS0_SaISE_EERSB_iSI_bRNS1_18basic_stringstreamIcS4_S5_EERi,@function
_ZN2PP3Cmd12get_bool_intERNSt7__cxx1112basic_stringIcSt11char_traitsIcESaIcEEEPiRKSt6vectorIiSaIiEERS9_IPS0_SaISE_EERSB_iSI_bRNS1_18basic_stringstreamIcS4_S5_EERi: # @_ZN2PP3Cmd12get_bool_intERNSt7__cxx1112basic_stringIcSt11char_traitsIcESaIcEEEPiRKSt6vectorIiSaIiEERS9_IPS0_SaISE_EERSB_iSI_bRNS1_18basic_stringstreamIcS4_S5_EERi
.Lfunc_begin11:
	.cfi_startproc
	.cfi_personality 155, DW.ref.__gxx_personality_v0
	.cfi_lsda 27, .Lexception11
# %bb.0:
	addi.d	$sp, $sp, -208
	.cfi_def_cfa_offset 208
	st.d	$ra, $sp, 200                   # 8-byte Folded Spill
	st.d	$fp, $sp, 192                   # 8-byte Folded Spill
	st.d	$s0, $sp, 184                   # 8-byte Folded Spill
	st.d	$s1, $sp, 176                   # 8-byte Folded Spill
	st.d	$s2, $sp, 168                   # 8-byte Folded Spill
	st.d	$s3, $sp, 160                   # 8-byte Folded Spill
	st.d	$s4, $sp, 152                   # 8-byte Folded Spill
	st.d	$s5, $sp, 144                   # 8-byte Folded Spill
	st.d	$s6, $sp, 136                   # 8-byte Folded Spill
	st.d	$s7, $sp, 128                   # 8-byte Folded Spill
	st.d	$s8, $sp, 120                   # 8-byte Folded Spill
	.cfi_offset 1, -8
	.cfi_offset 22, -16
	.cfi_offset 23, -24
	.cfi_offset 24, -32
	.cfi_offset 25, -40
	.cfi_offset 26, -48
	.cfi_offset 27, -56
	.cfi_offset 28, -64
	.cfi_offset 29, -72
	.cfi_offset 30, -80
	.cfi_offset 31, -88
	move	$s3, $a3
	ld.d	$a3, $a3, 8
	ld.d	$t0, $s3, 0
	sub.d	$s4, $a3, $t0
	slli.d	$a3, $s4, 30
	srai.d	$s5, $a3, 32
	srli.d	$t0, $s5, 61
	st.d	$a6, $sp, 80                    # 8-byte Folded Spill
	st.d	$a5, $sp, 72                    # 8-byte Folded Spill
	st.d	$a4, $sp, 64                    # 8-byte Folded Spill
	st.d	$a1, $sp, 56                    # 8-byte Folded Spill
	bnez	$t0, .LBB28_53
# %bb.1:                                # %_ZNSt6vectorIiSaIiEE17_S_check_init_lenEmRKS0_.exit.i
	move	$s7, $a7
	move	$s6, $a2
	move	$s2, $a0
	ld.d	$s0, $sp, 224
	ld.d	$s1, $sp, 216
	beqz	$a3, .LBB28_3
# %bb.2:                                # %.noexc62
	srai.d	$fp, $a3, 30
	move	$a0, $fp
	pcaddu18i	$ra, %call36(_Znwm)
	jirl	$ra, $ra, 0
	st.d	$a0, $sp, 96
	alsl.d	$s5, $s5, $a0, 2
	st.d	$s5, $sp, 112
	bstrins.d	$fp, $zero, 1, 0
	move	$a1, $zero
	move	$a2, $fp
	pcaddu18i	$ra, %call36(memset)
	jirl	$ra, $ra, 0
	b	.LBB28_4
.LBB28_3:                               # %_ZNSt12_Vector_baseIiSaIiEEC2EmRKS0_.exit.thread.i
	move	$s5, $zero
	st.d	$zero, $sp, 112
	vrepli.b	$vr0, 0
	vst	$vr0, $sp, 96
.LBB28_4:                               # %.loopexit69
	st.d	$s5, $sp, 104
.Ltmp172:
	addi.d	$a1, $sp, 96
	move	$a0, $s2
	move	$a2, $s1
	move	$a3, $s0
	pcaddu18i	$ra, %call36(_ZN2PP3Cmd12check_syntaxERSt6vectorIiSaIiEERNSt7__cxx1118basic_stringstreamIcSt11char_traitsIcESaIcEEERi)
	jirl	$ra, $ra, 0
.Ltmp173:
# %bb.5:
	beqz	$a0, .LBB28_50
# %bb.6:
	ld.d	$a0, $sp, 208
	beqz	$a0, .LBB28_15
# %bb.7:
	ld.d	$a1, $s2, 232
	ld.d	$a0, $s2, 200
	sub.d	$a2, $a1, $a0
	srai.d	$a2, $a2, 3
	sltu	$a1, $zero, $a1
	ld.d	$a3, $s2, 208
	ld.d	$a4, $s2, 216
	sub.d	$a2, $a2, $a1
	ld.d	$a5, $s2, 192
	ld.d	$a1, $s2, 176
	sub.d	$a3, $a3, $a4
	srli.d	$a3, $a3, 7
	alsl.d	$a2, $a2, $a3, 2
	sub.d	$a3, $a5, $a1
	srli.d	$a3, $a3, 7
	add.d	$a5, $a2, $a3
	addi.w	$a3, $a5, 0
	ori	$a2, $zero, 1
	blt	$a3, $a2, .LBB28_50
# %bb.8:                                # %.lr.ph.i
	ld.d	$a4, $s2, 184
	move	$a3, $zero
	sub.d	$a4, $a1, $a4
	srai.d	$a4, $a4, 7
	bstrpick.d	$a5, $a5, 30, 0
	sub.d	$a5, $zero, $a5
	ori	$a6, $zero, 4
	move	$a7, $a4
	b	.LBB28_12
	.p2align	4, , 16
.LBB28_9:                               #   in Loop: Header=BB28_12 Depth=1
	srai.d	$t0, $a7, 2
.LBB28_10:                              #   in Loop: Header=BB28_12 Depth=1
	add.d	$t1, $a3, $a4
	slli.d	$t2, $t0, 3
	ldx.d	$t2, $a0, $t2
	slli.d	$t0, $t0, 2
	sub.d	$t0, $t1, $t0
	slli.d	$t0, $t0, 7
	add.d	$t0, $t2, $t0
.LBB28_11:                              # %_ZNSt5dequeIN2PP4WordESaIS1_EEixEm.exit.i
                                        #   in Loop: Header=BB28_12 Depth=1
	st.b	$a2, $t0, 36
	addi.d	$a3, $a3, 1
	addi.d	$a1, $a1, 128
	addi.d	$a5, $a5, 1
	addi.d	$a7, $a7, 1
	beqz	$a5, .LBB28_50
.LBB28_12:                              # =>This Inner Loop Header: Depth=1
	bltz	$a7, .LBB28_9
# %bb.13:                               #   in Loop: Header=BB28_12 Depth=1
	move	$t0, $a1
	bltu	$a7, $a6, .LBB28_11
# %bb.14:                               #   in Loop: Header=BB28_12 Depth=1
	srli.d	$t0, $a7, 2
	b	.LBB28_10
.LBB28_15:
	st.w	$zero, $sp, 92
.Ltmp175:
	addi.d	$a1, $sp, 96
	addi.d	$a3, $sp, 92
	move	$a0, $s2
	move	$a2, $s3
	move	$a4, $s1
	move	$a5, $s0
	pcaddu18i	$ra, %call36(_ZN2PP3Cmd9get_nvalsERSt6vectorIiSaIiEERKS3_RiRNSt7__cxx1118basic_stringstreamIcSt11char_traitsIcESaIcEEES7_)
	jirl	$ra, $ra, 0
.Ltmp176:
# %bb.16:
	beqz	$a0, .LBB28_50
# %bb.17:
	bstrpick.d	$a0, $s4, 33, 2
	slli.d	$a0, $a0, 2
	beqz	$a0, .LBB28_42
# %bb.18:
.Ltmp178:
	move	$a0, $s2
	pcaddu18i	$ra, %call36(_ZN2PP3Cmd11find_equalsEv)
	jirl	$ra, $ra, 0
.Ltmp179:
# %bb.19:
	move	$s4, $a0
	pcalau12i	$a0, %pc_hi20(_ZN2PPL10index_baseE)
	ld.w	$a1, $a0, %pc_lo12(_ZN2PPL10index_baseE)
.Ltmp181:
	addi.d	$a0, $sp, 91
	pcaddu18i	$ra, %call36(_ZN2PP12Parser_utilsC1Ei)
	jirl	$ra, $ra, 0
.Ltmp182:
# %bb.20:
.Ltmp184:
	addi.d	$a0, $sp, 91
	addi.d	$a1, $sp, 96
	move	$a2, $s3
	pcaddu18i	$ra, %call36(_ZN2PP12Parser_utils9start_dexERSt6vectorIiSaIiEERKS3_)
	jirl	$ra, $ra, 0
.Ltmp185:
# %bb.21:                               # %.preheader
	move	$fp, $a0
	st.d	$s7, $sp, 40                    # 8-byte Folded Spill
	st.d	$s6, $sp, 48                    # 8-byte Folded Spill
.LBB28_22:                              # %.loopexit.outer
                                        # =>This Loop Header: Depth=1
                                        #     Child Loop BB28_26 Depth 2
                                        #     Child Loop BB28_39 Depth 2
	addi.d	$s6, $s4, 1
	slli.d	$a0, $s4, 7
	addi.d	$s7, $a0, 128
	b	.LBB28_26
	.p2align	4, , 16
.LBB28_23:                              #   in Loop: Header=BB28_26 Depth=2
	srai.d	$a2, $a3, 2
.LBB28_24:                              #   in Loop: Header=BB28_26 Depth=2
	slli.d	$a3, $a2, 3
	ldx.d	$a0, $a0, $a3
	slli.d	$a2, $a2, 2
	sub.d	$a1, $a1, $a2
	add.d	$a1, $s6, $a1
	slli.d	$a1, $a1, 7
	add.d	$a0, $a0, $a1
.LBB28_25:                              # %_ZNSt5dequeIN2PP4WordESaIS1_EEixEm.exit66
                                        #   in Loop: Header=BB28_26 Depth=2
	ld.w	$s8, $a0, 40
	addi.d	$s6, $s6, 1
	addi.w	$s4, $s4, 1
	addi.d	$s7, $s7, 128
	ori	$a0, $zero, 1
	bge	$s8, $a0, .LBB28_38
.LBB28_26:                              # %.loopexit
                                        #   Parent Loop BB28_22 Depth=1
                                        # =>  This Inner Loop Header: Depth=2
	ld.d	$a1, $s2, 232
	ld.d	$a0, $s2, 200
	sub.d	$a2, $a1, $a0
	srli.d	$a2, $a2, 3
	sltu	$a1, $zero, $a1
	ld.d	$a3, $s2, 208
	ld.d	$a4, $s2, 216
	sub.d	$a2, $a2, $a1
	ld.d	$a5, $s2, 192
	ld.d	$a1, $s2, 176
	sub.d	$a3, $a3, $a4
	srli.d	$a3, $a3, 7
	alsl.d	$a2, $a2, $a3, 2
	sub.d	$a3, $a5, $a1
	srli.d	$a3, $a3, 7
	add.w	$a2, $a2, $a3
	bge	$s6, $a2, .LBB28_50
# %bb.27:                               #   in Loop: Header=BB28_26 Depth=2
	ld.d	$a2, $s2, 184
	sub.d	$a2, $a1, $a2
	srai.d	$a2, $a2, 7
	add.d	$a3, $s6, $a2
	bltz	$a3, .LBB28_30
# %bb.28:                               #   in Loop: Header=BB28_26 Depth=2
	ori	$a4, $zero, 3
	bltu	$a4, $a3, .LBB28_31
# %bb.29:                               #   in Loop: Header=BB28_26 Depth=2
	add.d	$a0, $a1, $s7
	b	.LBB28_33
	.p2align	4, , 16
.LBB28_30:                              #   in Loop: Header=BB28_26 Depth=2
	srai.d	$a1, $a3, 2
	b	.LBB28_32
	.p2align	4, , 16
.LBB28_31:                              #   in Loop: Header=BB28_26 Depth=2
	srli.d	$a1, $a3, 2
.LBB28_32:                              #   in Loop: Header=BB28_26 Depth=2
	slli.d	$a3, $a1, 3
	ldx.d	$a0, $a0, $a3
	slli.d	$a1, $a1, 2
	sub.d	$a1, $a2, $a1
	add.d	$a1, $s6, $a1
	slli.d	$a1, $a1, 7
	add.d	$a0, $a0, $a1
.LBB28_33:                              # %_ZNSt5dequeIN2PP4WordESaIS1_EEixEm.exit64
                                        #   in Loop: Header=BB28_26 Depth=2
.Ltmp187:
	move	$a1, $s1
	move	$a2, $s0
	pcaddu18i	$ra, %call36(_ZN2PP4Word8get_boolERNSt7__cxx1118basic_stringstreamIcSt11char_traitsIcESaIcEEERi)
	jirl	$ra, $ra, 0
.Ltmp188:
# %bb.34:                               #   in Loop: Header=BB28_26 Depth=2
	move	$s5, $a0
	ld.d	$a2, $s2, 176
	ld.d	$a1, $s2, 184
	ld.d	$a0, $s2, 200
	sub.d	$a1, $a2, $a1
	srai.d	$a1, $a1, 7
	add.d	$a3, $s6, $a1
	bltz	$a3, .LBB28_23
# %bb.35:                               #   in Loop: Header=BB28_26 Depth=2
	ori	$a4, $zero, 3
	bltu	$a4, $a3, .LBB28_37
# %bb.36:                               #   in Loop: Header=BB28_26 Depth=2
	add.d	$a0, $a2, $s7
	b	.LBB28_25
	.p2align	4, , 16
.LBB28_37:                              #   in Loop: Header=BB28_26 Depth=2
	srli.d	$a2, $a3, 2
	b	.LBB28_24
.LBB28_38:                              # %.lr.ph.preheader
                                        #   in Loop: Header=BB28_22 Depth=1
	addi.d	$a0, $s6, -1
	st.d	$a0, $sp, 32                    # 8-byte Folded Spill
	ld.d	$a0, $sp, 48                    # 8-byte Folded Reload
	alsl.d	$s6, $fp, $a0, 2
	ld.d	$s7, $sp, 40                    # 8-byte Folded Reload
	.p2align	4, , 16
.LBB28_39:                              # %.lr.ph
                                        #   Parent Loop BB28_22 Depth=1
                                        # =>  This Inner Loop Header: Depth=2
.Ltmp190:
	st.d	$s0, $sp, 16
	st.d	$s1, $sp, 8
	ld.d	$a0, $sp, 80                    # 8-byte Folded Reload
	st.d	$a0, $sp, 0
	move	$a0, $s2
	ld.d	$a1, $sp, 56                    # 8-byte Folded Reload
	move	$a2, $s4
	move	$a3, $fp
	ld.d	$a4, $sp, 72                    # 8-byte Folded Reload
	ld.d	$a5, $sp, 64                    # 8-byte Folded Reload
	move	$a6, $s7
	move	$a7, $s3
	pcaddu18i	$ra, %call36(_ZN2PP3Cmd14error_dup_lineERNSt7__cxx1112basic_stringIcSt11char_traitsIcESaIcEEEiiRSt6vectorIiSaIiEERS8_IPS0_SaISC_EESB_RKSA_iRNS1_18basic_stringstreamIcS4_S5_EERi)
	jirl	$ra, $ra, 0
.Ltmp191:
# %bb.40:                               #   in Loop: Header=BB28_39 Depth=2
	st.w	$s5, $s6, 0
	addi.w	$fp, $fp, 1
	addi.w	$s8, $s8, -1
	addi.d	$s6, $s6, 4
	bnez	$s8, .LBB28_39
# %bb.41:                               #   in Loop: Header=BB28_22 Depth=1
	ld.d	$s4, $sp, 32                    # 8-byte Folded Reload
	b	.LBB28_22
.LBB28_42:
	ld.d	$a2, $s2, 176
	ld.d	$a1, $s2, 184
	ld.d	$a0, $s2, 200
	sub.d	$a1, $a2, $a1
	srai.d	$a3, $a1, 7
	addi.w	$a4, $zero, -2
	addi.d	$a1, $a3, 2
	blt	$a3, $a4, .LBB28_45
# %bb.43:
	ori	$a3, $zero, 3
	bltu	$a3, $a1, .LBB28_46
# %bb.44:
	addi.d	$a0, $a2, 256
	b	.LBB28_48
.LBB28_45:
	srai.d	$a2, $a1, 2
	b	.LBB28_47
.LBB28_46:
	srli.d	$a2, $a1, 2
.LBB28_47:
	slli.d	$a3, $a2, 3
	ldx.d	$a0, $a0, $a3
	slli.d	$a2, $a2, 2
	sub.d	$a1, $a1, $a2
	slli.d	$a1, $a1, 7
	add.d	$a0, $a0, $a1
.LBB28_48:                              # %_ZNSt5dequeIN2PP4WordESaIS1_EEixEm.exit
.Ltmp193:
	move	$a1, $s1
	move	$a2, $s0
	pcaddu18i	$ra, %call36(_ZN2PP4Word8get_boolERNSt7__cxx1118basic_stringstreamIcSt11char_traitsIcESaIcEEERi)
	jirl	$ra, $ra, 0
.Ltmp194:
# %bb.49:
	st.w	$a0, $s6, 0
.LBB28_50:                              # %_ZN2PP3Cmd13set_processedEb.exit
	ld.d	$a0, $sp, 96
	beqz	$a0, .LBB28_52
# %bb.51:
	ld.d	$a1, $sp, 112
	sub.d	$a1, $a1, $a0
	pcaddu18i	$ra, %call36(_ZdlPvm)
	jirl	$ra, $ra, 0
.LBB28_52:                              # %_ZNSt6vectorIiSaIiEED2Ev.exit
	ld.d	$s8, $sp, 120                   # 8-byte Folded Reload
	ld.d	$s7, $sp, 128                   # 8-byte Folded Reload
	ld.d	$s6, $sp, 136                   # 8-byte Folded Reload
	ld.d	$s5, $sp, 144                   # 8-byte Folded Reload
	ld.d	$s4, $sp, 152                   # 8-byte Folded Reload
	ld.d	$s3, $sp, 160                   # 8-byte Folded Reload
	ld.d	$s2, $sp, 168                   # 8-byte Folded Reload
	ld.d	$s1, $sp, 176                   # 8-byte Folded Reload
	ld.d	$s0, $sp, 184                   # 8-byte Folded Reload
	ld.d	$fp, $sp, 192                   # 8-byte Folded Reload
	ld.d	$ra, $sp, 200                   # 8-byte Folded Reload
	addi.d	$sp, $sp, 208
	ret
.LBB28_53:                              # %.noexc
	pcalau12i	$a0, %pc_hi20(.L.str.224)
	addi.d	$a0, $a0, %pc_lo12(.L.str.224)
	pcaddu18i	$ra, %call36(_ZSt20__throw_length_errorPKc)
	jirl	$ra, $ra, 0
.LBB28_54:
.Ltmp195:
	b	.LBB28_62
.LBB28_55:
.Ltmp186:
	b	.LBB28_62
.LBB28_56:
.Ltmp183:
	b	.LBB28_62
.LBB28_57:
.Ltmp180:
	b	.LBB28_62
.LBB28_58:
.Ltmp177:
	b	.LBB28_62
.LBB28_59:
.Ltmp174:
	b	.LBB28_62
.LBB28_60:
.Ltmp192:
	b	.LBB28_62
.LBB28_61:
.Ltmp189:
.LBB28_62:
	move	$fp, $a0
	ld.d	$a0, $sp, 96
	beqz	$a0, .LBB28_64
# %bb.63:
	ld.d	$a1, $sp, 112
	sub.d	$a1, $a1, $a0
	pcaddu18i	$ra, %call36(_ZdlPvm)
	jirl	$ra, $ra, 0
.LBB28_64:                              # %_ZNSt6vectorIiSaIiEED2Ev.exit68
	move	$a0, $fp
	pcaddu18i	$ra, %call36(_Unwind_Resume)
	jirl	$ra, $ra, 0
.Lfunc_end28:
	.size	_ZN2PP3Cmd12get_bool_intERNSt7__cxx1112basic_stringIcSt11char_traitsIcESaIcEEEPiRKSt6vectorIiSaIiEERS9_IPS0_SaISE_EERSB_iSI_bRNS1_18basic_stringstreamIcS4_S5_EERi, .Lfunc_end28-_ZN2PP3Cmd12get_bool_intERNSt7__cxx1112basic_stringIcSt11char_traitsIcESaIcEEEPiRKSt6vectorIiSaIiEERS9_IPS0_SaISE_EERSB_iSI_bRNS1_18basic_stringstreamIcS4_S5_EERi
	.cfi_endproc
	.section	.gcc_except_table,"a",@progbits
	.p2align	2, 0x0
GCC_except_table28:
.Lexception11:
	.byte	255                             # @LPStart Encoding = omit
	.byte	255                             # @TType Encoding = omit
	.byte	1                               # Call site Encoding = uleb128
	.uleb128 .Lcst_end11-.Lcst_begin11
.Lcst_begin11:
	.uleb128 .Lfunc_begin11-.Lfunc_begin11  # >> Call Site 1 <<
	.uleb128 .Ltmp172-.Lfunc_begin11        #   Call between .Lfunc_begin11 and .Ltmp172
	.byte	0                               #     has no landing pad
	.byte	0                               #   On action: cleanup
	.uleb128 .Ltmp172-.Lfunc_begin11        # >> Call Site 2 <<
	.uleb128 .Ltmp173-.Ltmp172              #   Call between .Ltmp172 and .Ltmp173
	.uleb128 .Ltmp174-.Lfunc_begin11        #     jumps to .Ltmp174
	.byte	0                               #   On action: cleanup
	.uleb128 .Ltmp175-.Lfunc_begin11        # >> Call Site 3 <<
	.uleb128 .Ltmp176-.Ltmp175              #   Call between .Ltmp175 and .Ltmp176
	.uleb128 .Ltmp177-.Lfunc_begin11        #     jumps to .Ltmp177
	.byte	0                               #   On action: cleanup
	.uleb128 .Ltmp178-.Lfunc_begin11        # >> Call Site 4 <<
	.uleb128 .Ltmp179-.Ltmp178              #   Call between .Ltmp178 and .Ltmp179
	.uleb128 .Ltmp180-.Lfunc_begin11        #     jumps to .Ltmp180
	.byte	0                               #   On action: cleanup
	.uleb128 .Ltmp181-.Lfunc_begin11        # >> Call Site 5 <<
	.uleb128 .Ltmp182-.Ltmp181              #   Call between .Ltmp181 and .Ltmp182
	.uleb128 .Ltmp183-.Lfunc_begin11        #     jumps to .Ltmp183
	.byte	0                               #   On action: cleanup
	.uleb128 .Ltmp184-.Lfunc_begin11        # >> Call Site 6 <<
	.uleb128 .Ltmp185-.Ltmp184              #   Call between .Ltmp184 and .Ltmp185
	.uleb128 .Ltmp186-.Lfunc_begin11        #     jumps to .Ltmp186
	.byte	0                               #   On action: cleanup
	.uleb128 .Ltmp187-.Lfunc_begin11        # >> Call Site 7 <<
	.uleb128 .Ltmp188-.Ltmp187              #   Call between .Ltmp187 and .Ltmp188
	.uleb128 .Ltmp189-.Lfunc_begin11        #     jumps to .Ltmp189
	.byte	0                               #   On action: cleanup
	.uleb128 .Ltmp190-.Lfunc_begin11        # >> Call Site 8 <<
	.uleb128 .Ltmp191-.Ltmp190              #   Call between .Ltmp190 and .Ltmp191
	.uleb128 .Ltmp192-.Lfunc_begin11        #     jumps to .Ltmp192
	.byte	0                               #   On action: cleanup
	.uleb128 .Ltmp193-.Lfunc_begin11        # >> Call Site 9 <<
	.uleb128 .Ltmp194-.Ltmp193              #   Call between .Ltmp193 and .Ltmp194
	.uleb128 .Ltmp195-.Lfunc_begin11        #     jumps to .Ltmp195
	.byte	0                               #   On action: cleanup
	.uleb128 .Ltmp194-.Lfunc_begin11        # >> Call Site 10 <<
	.uleb128 .Lfunc_end28-.Ltmp194          #   Call between .Ltmp194 and .Lfunc_end28
	.byte	0                               #     has no landing pad
	.byte	0                               #   On action: cleanup
.Lcst_end11:
	.p2align	2, 0x0
                                        # -- End function
	.text
	.globl	_ZN2PP3Cmd12check_syntaxERSt6vectorIiSaIiEERNSt7__cxx1118basic_stringstreamIcSt11char_traitsIcESaIcEEERi # -- Begin function _ZN2PP3Cmd12check_syntaxERSt6vectorIiSaIiEERNSt7__cxx1118basic_stringstreamIcSt11char_traitsIcESaIcEEERi
	.p2align	5
	.type	_ZN2PP3Cmd12check_syntaxERSt6vectorIiSaIiEERNSt7__cxx1118basic_stringstreamIcSt11char_traitsIcESaIcEEERi,@function
_ZN2PP3Cmd12check_syntaxERSt6vectorIiSaIiEERNSt7__cxx1118basic_stringstreamIcSt11char_traitsIcESaIcEEERi: # @_ZN2PP3Cmd12check_syntaxERSt6vectorIiSaIiEERNSt7__cxx1118basic_stringstreamIcSt11char_traitsIcESaIcEEERi
.Lfunc_begin12:
	.cfi_startproc
	.cfi_personality 155, DW.ref.__gxx_personality_v0
	.cfi_lsda 27, .Lexception12
# %bb.0:
	addi.d	$sp, $sp, -176
	.cfi_def_cfa_offset 176
	st.d	$ra, $sp, 168                   # 8-byte Folded Spill
	st.d	$fp, $sp, 160                   # 8-byte Folded Spill
	st.d	$s0, $sp, 152                   # 8-byte Folded Spill
	st.d	$s1, $sp, 144                   # 8-byte Folded Spill
	st.d	$s2, $sp, 136                   # 8-byte Folded Spill
	st.d	$s3, $sp, 128                   # 8-byte Folded Spill
	st.d	$s4, $sp, 120                   # 8-byte Folded Spill
	st.d	$s5, $sp, 112                   # 8-byte Folded Spill
	st.d	$s6, $sp, 104                   # 8-byte Folded Spill
	st.d	$s7, $sp, 96                    # 8-byte Folded Spill
	st.d	$s8, $sp, 88                    # 8-byte Folded Spill
	.cfi_offset 1, -8
	.cfi_offset 22, -16
	.cfi_offset 23, -24
	.cfi_offset 24, -32
	.cfi_offset 25, -40
	.cfi_offset 26, -48
	.cfi_offset 27, -56
	.cfi_offset 28, -64
	.cfi_offset 29, -72
	.cfi_offset 30, -80
	.cfi_offset 31, -88
	ld.d	$a5, $a1, 8
	st.d	$a1, $sp, 40                    # 8-byte Folded Spill
	ld.d	$a4, $a1, 0
	sub.d	$a4, $a5, $a4
	srai.d	$s2, $a4, 2
	addi.w	$s3, $s2, 0
	ori	$a1, $zero, 1
	move	$fp, $a3
	move	$s1, $a2
	move	$s0, $a0
	st.d	$a4, $sp, 24                    # 8-byte Folded Spill
	blt	$s3, $a1, .LBB29_2
# %bb.1:
	move	$a0, $s0
	pcaddu18i	$ra, %call36(_ZN2PP3Cmd11find_equalsEv)
	jirl	$ra, $ra, 0
	addi.d	$a0, $a0, -1
	sltui	$s6, $a0, 1
	b	.LBB29_3
.LBB29_2:
	move	$s6, $zero
.LBB29_3:
	slti	$a0, $s3, 1
	or	$s5, $a0, $s6
	ld.d	$a1, $s0, 232
	ld.d	$a0, $s0, 200
	addi.w	$a2, $s2, 5
	masknez	$a4, $a2, $s5
	ori	$s7, $zero, 3
	sub.d	$a3, $a1, $a0
	ld.d	$a5, $s0, 208
	ld.d	$a6, $s0, 216
	srli.d	$a3, $a3, 3
	sltu	$a1, $zero, $a1
	sub.d	$a3, $a3, $a1
	sub.d	$a1, $a5, $a6
	srli.d	$a5, $a1, 7
	ld.d	$a6, $s0, 192
	ld.d	$a1, $s0, 176
	alsl.d	$a5, $a3, $a5, 2
	maskeqz	$a3, $s7, $s5
	or	$s4, $a3, $a4
	sub.d	$a4, $a6, $a1
	srli.d	$a4, $a4, 7
	add.w	$s8, $a5, $a4
	blt	$s8, $s4, .LBB29_7
# %bb.4:
	st.d	$s8, $sp, 8                     # 8-byte Folded Spill
	st.d	$s3, $sp, 16                    # 8-byte Folded Spill
	addi.d	$a2, $s2, 3
	bstrpick.d	$a2, $a2, 31, 0
	ori	$a3, $zero, 1
	ld.d	$a4, $s0, 184
	maskeqz	$a3, $a3, $s5
	masknez	$a2, $a2, $s5
	or	$s8, $a3, $a2
	sub.d	$a2, $a1, $a4
	srai.d	$a2, $a2, 7
	add.d	$a2, $a2, $s8
	st.d	$s2, $sp, 32                    # 8-byte Folded Spill
	st.d	$s4, $sp, 0                     # 8-byte Folded Spill
	bltz	$a2, .LBB29_10
# %bb.5:
	ori	$a3, $zero, 3
	bltu	$a3, $a2, .LBB29_19
# %bb.6:
	slli.d	$a0, $s8, 7
	add.d	$a0, $a1, $a0
	b	.LBB29_21
.LBB29_7:
	add.d	$a0, $s2, $a2
	addi.w	$a0, $a0, -1
	masknez	$a0, $a0, $s5
	or	$s2, $a3, $a0
	move	$a0, $s0
	move	$a1, $s1
	pcaddu18i	$ra, %call36(_ZN2PP3Cmd12fatal_error2ERNSt7__cxx1118basic_stringstreamIcSt11char_traitsIcESaIcEEERi)
	jirl	$ra, $ra, 0
	addi.d	$s1, $s1, 16
	pcalau12i	$a0, %pc_hi20(.L.str.34)
	addi.d	$a1, $a0, %pc_lo12(.L.str.34)
	ori	$a2, $zero, 38
	move	$a0, $s1
	pcaddu18i	$ra, %call36(_ZSt16__ostream_insertIcSt11char_traitsIcEERSt13basic_ostreamIT_T0_ES6_PKS3_l)
	jirl	$ra, $ra, 0
	move	$a0, $s1
	move	$a1, $s2
	pcaddu18i	$ra, %call36(_ZNSolsEi)
	jirl	$ra, $ra, 0
	ld.d	$a1, $a0, 0
	ld.d	$a1, $a1, -24
	add.d	$a1, $a0, $a1
	ld.d	$s2, $a1, 240
	beqz	$s2, .LBB29_294
# %bb.8:                                # %_ZSt13__check_facetISt5ctypeIcEERKT_PS3_.exit.i.i
	ld.bu	$a1, $s2, 56
	beqz	$a1, .LBB29_11
# %bb.9:
	ld.bu	$a1, $s2, 67
	b	.LBB29_12
.LBB29_10:
	srai.d	$a1, $a2, 2
	b	.LBB29_20
.LBB29_11:
	move	$s3, $a0
	move	$a0, $s2
	pcaddu18i	$ra, %call36(_ZNKSt5ctypeIcE13_M_widen_initEv)
	jirl	$ra, $ra, 0
	ld.d	$a0, $s2, 0
	ld.d	$a2, $a0, 48
	ori	$a1, $zero, 10
	move	$a0, $s2
	jirl	$ra, $a2, 0
	move	$a1, $a0
	move	$a0, $s3
.LBB29_12:                              # %_ZSt4endlIcSt11char_traitsIcEERSt13basic_ostreamIT_T0_ES6_.exit
	ext.w.b	$a1, $a1
	pcaddu18i	$ra, %call36(_ZNSo3putEc)
	jirl	$ra, $ra, 0
	pcaddu18i	$ra, %call36(_ZNSo5flushEv)
	jirl	$ra, $ra, 0
	pcalau12i	$a0, %pc_hi20(.L.str.35)
	addi.d	$a1, $a0, %pc_lo12(.L.str.35)
	ori	$a2, $zero, 22
	move	$a0, $s1
	pcaddu18i	$ra, %call36(_ZSt16__ostream_insertIcSt11char_traitsIcEERSt13basic_ostreamIT_T0_ES6_PKS3_l)
	jirl	$ra, $ra, 0
	ld.d	$a0, $s0, 232
	ld.d	$a1, $s0, 200
	sub.d	$a1, $a0, $a1
	srai.d	$a1, $a1, 3
	sltu	$a0, $zero, $a0
	ld.d	$a2, $s0, 208
	ld.d	$a3, $s0, 216
	sub.d	$a0, $a1, $a0
	ld.d	$a1, $s0, 192
	ld.d	$a4, $s0, 176
	sub.d	$a2, $a2, $a3
	srai.d	$a2, $a2, 7
	alsl.d	$a0, $a0, $a2, 2
	sub.d	$a1, $a1, $a4
	srai.d	$a1, $a1, 7
	add.d	$a1, $a0, $a1
	move	$a0, $s1
	pcaddu18i	$ra, %call36(_ZNSo9_M_insertImEERSoT_)
	jirl	$ra, $ra, 0
	ld.d	$a1, $a0, 0
	ld.d	$a1, $a1, -24
	add.d	$a1, $a0, $a1
	ld.d	$s0, $a1, 240
	beqz	$s0, .LBB29_294
# %bb.13:                               # %_ZSt13__check_facetISt5ctypeIcEERKT_PS3_.exit.i.i219
	ld.bu	$a1, $s0, 56
	beqz	$a1, .LBB29_15
# %bb.14:
	ld.bu	$a1, $s0, 67
	b	.LBB29_16
.LBB29_15:
	move	$s1, $a0
	move	$a0, $s0
	pcaddu18i	$ra, %call36(_ZNKSt5ctypeIcE13_M_widen_initEv)
	jirl	$ra, $ra, 0
	ld.d	$a0, $s0, 0
	ld.d	$a2, $a0, 48
	ori	$a1, $zero, 10
	move	$a0, $s0
	jirl	$ra, $a2, 0
	move	$a1, $a0
	move	$a0, $s1
.LBB29_16:                              # %_ZSt4endlIcSt11char_traitsIcEERSt13basic_ostreamIT_T0_ES6_.exit222
	ext.w.b	$a1, $a1
	pcaddu18i	$ra, %call36(_ZNSo3putEc)
	jirl	$ra, $ra, 0
	pcaddu18i	$ra, %call36(_ZNSo5flushEv)
	jirl	$ra, $ra, 0
	ld.d	$a1, $a0, 0
	ld.d	$a1, $a1, -24
	add.d	$a1, $a0, $a1
	ld.d	$s0, $a1, 240
	beqz	$s0, .LBB29_294
# %bb.17:                               # %_ZSt13__check_facetISt5ctypeIcEERKT_PS3_.exit.i.i224
	ld.bu	$a1, $s0, 56
	beqz	$a1, .LBB29_291
.LBB29_18:
	ld.bu	$a1, $s0, 67
	b	.LBB29_292
.LBB29_19:
	srli.d	$a1, $a2, 2
.LBB29_20:
	slli.d	$a3, $a1, 3
	ldx.d	$a0, $a0, $a3
	slli.d	$a1, $a1, 2
	sub.d	$a1, $a2, $a1
	slli.d	$a1, $a1, 7
	add.d	$a0, $a0, $a1
.LBB29_21:                              # %_ZNSt5dequeIN2PP4WordESaIS1_EEixEm.exit
	addi.d	$s2, $sp, 64
	st.d	$s2, $sp, 48
	ld.d	$s3, $a0, 8
	ld.d	$s4, $a0, 0
	ori	$a1, $zero, 16
	st.d	$s3, $sp, 80
	move	$a0, $s2
	bltu	$s3, $a1, .LBB29_23
# %bb.22:                               # %.noexc.i.i
	addi.d	$a0, $sp, 48
	addi.d	$a1, $sp, 80
	move	$a2, $zero
	pcaddu18i	$ra, %call36(_ZNSt7__cxx1112basic_stringIcSt11char_traitsIcESaIcEE9_M_createERmm)
	jirl	$ra, $ra, 0
	ld.d	$a1, $sp, 80
	st.d	$a0, $sp, 48
	st.d	$a1, $sp, 64
.LBB29_23:                              # %._crit_edge.i.i.i
	beqz	$s3, .LBB29_27
# %bb.24:                               # %._crit_edge.i.i.i
	ori	$a1, $zero, 1
	bne	$s3, $a1, .LBB29_26
# %bb.25:
	ld.b	$a1, $s4, 0
	st.b	$a1, $a0, 0
	b	.LBB29_27
.LBB29_26:
	move	$a1, $s4
	move	$a2, $s3
	pcaddu18i	$ra, %call36(memcpy)
	jirl	$ra, $ra, 0
.LBB29_27:                              # %_ZN2PP4Word10get_stringB5cxx11Ev.exit
	ld.d	$a0, $sp, 80
	ld.d	$a1, $sp, 48
	st.d	$a0, $sp, 56
	stx.b	$zero, $a1, $a0
	ld.d	$a1, $sp, 56
	ld.d	$a0, $sp, 48
	ori	$s3, $zero, 1
	bne	$a1, $s3, .LBB29_29
# %bb.28:
	ld.bu	$a1, $a0, 0
	addi.d	$a1, $a1, -61
	sltu	$s3, $zero, $a1
.LBB29_29:                              # %_ZStneIcSt11char_traitsIcESaIcEEbRKNSt7__cxx1112basic_stringIT_T0_T1_EEPKS5_.exit
	beq	$a0, $s2, .LBB29_31
# %bb.30:                               # %_ZNKSt7__cxx1112basic_stringIcSt11char_traitsIcESaIcEE11_M_is_localEv.exit.i.i
	ld.d	$a1, $sp, 64
	addi.d	$a1, $a1, 1
	pcaddu18i	$ra, %call36(_ZdlPvm)
	jirl	$ra, $ra, 0
.LBB29_31:                              # %_ZNSt7__cxx1112basic_stringIcSt11char_traitsIcESaIcEED2Ev.exit
	beqz	$s3, .LBB29_72
# %bb.32:
	ld.d	$a0, $sp, 32                    # 8-byte Folded Reload
	alsl.w	$a0, $a0, $s7, 1
	ori	$a1, $zero, 2
	ld.d	$a2, $s0, 176
	ld.d	$a3, $s0, 184
	maskeqz	$a4, $a1, $s5
	masknez	$a5, $a0, $s5
	ld.d	$a0, $s0, 200
	sub.d	$a1, $a2, $a3
	srai.d	$a1, $a1, 7
	add.d	$a1, $a1, $s8
	or	$s3, $a4, $a5
	bltz	$a1, .LBB29_35
# %bb.33:
	ori	$a3, $zero, 3
	bltu	$a3, $a1, .LBB29_36
# %bb.34:
	slli.d	$a0, $s8, 7
	add.d	$a0, $a2, $a0
	b	.LBB29_38
.LBB29_35:
	srai.d	$a2, $a1, 2
	b	.LBB29_37
.LBB29_36:
	srli.d	$a2, $a1, 2
.LBB29_37:
	slli.d	$a3, $a2, 3
	ldx.d	$a0, $a0, $a3
	slli.d	$a2, $a2, 2
	sub.d	$a1, $a1, $a2
	slli.d	$a1, $a1, 7
	add.d	$a0, $a0, $a1
.LBB29_38:                              # %_ZNSt5dequeIN2PP4WordESaIS1_EEixEm.exit121
	move	$a1, $s1
	move	$a2, $fp
	pcaddu18i	$ra, %call36(_ZN2PP4Word11fatal_errorERNSt7__cxx1118basic_stringstreamIcSt11char_traitsIcESaIcEEERi)
	jirl	$ra, $ra, 0
	addi.d	$s4, $s1, 16
	pcalau12i	$a0, %pc_hi20(.L.str.37)
	addi.d	$a1, $a0, %pc_lo12(.L.str.37)
	ori	$a2, $zero, 35
	move	$a0, $s4
	pcaddu18i	$ra, %call36(_ZSt16__ostream_insertIcSt11char_traitsIcEERSt13basic_ostreamIT_T0_ES6_PKS3_l)
	jirl	$ra, $ra, 0
	move	$a0, $s4
	move	$a1, $s3
	pcaddu18i	$ra, %call36(_ZNSolsEi)
	jirl	$ra, $ra, 0
	ld.d	$a1, $a0, 0
	ld.d	$a1, $a1, -24
	add.d	$a1, $a0, $a1
	ld.d	$s5, $a1, 240
	beqz	$s5, .LBB29_294
# %bb.39:                               # %_ZSt13__check_facetISt5ctypeIcEERKT_PS3_.exit.i.i229
	ld.bu	$a1, $s5, 56
	beqz	$a1, .LBB29_41
# %bb.40:
	ld.bu	$a1, $s5, 67
	b	.LBB29_42
.LBB29_41:
	move	$s2, $a0
	move	$a0, $s5
	pcaddu18i	$ra, %call36(_ZNKSt5ctypeIcE13_M_widen_initEv)
	jirl	$ra, $ra, 0
	ld.d	$a0, $s5, 0
	ld.d	$a2, $a0, 48
	ori	$a1, $zero, 10
	move	$a0, $s5
	jirl	$ra, $a2, 0
	move	$a1, $a0
	move	$a0, $s2
.LBB29_42:                              # %_ZSt4endlIcSt11char_traitsIcEERSt13basic_ostreamIT_T0_ES6_.exit232
	ext.w.b	$a1, $a1
	pcaddu18i	$ra, %call36(_ZNSo3putEc)
	jirl	$ra, $ra, 0
	pcaddu18i	$ra, %call36(_ZNSo5flushEv)
	jirl	$ra, $ra, 0
	pcalau12i	$a0, %pc_hi20(.L.str.38)
	addi.d	$a1, $a0, %pc_lo12(.L.str.38)
	ori	$a2, $zero, 15
	move	$a0, $s4
	pcaddu18i	$ra, %call36(_ZSt16__ostream_insertIcSt11char_traitsIcEERSt13basic_ostreamIT_T0_ES6_PKS3_l)
	jirl	$ra, $ra, 0
	move	$a0, $s4
	move	$a1, $s3
	pcaddu18i	$ra, %call36(_ZNSolsEi)
	jirl	$ra, $ra, 0
	move	$s3, $a0
	pcalau12i	$a0, %pc_hi20(.L.str.39)
	addi.d	$a1, $a0, %pc_lo12(.L.str.39)
	ori	$a2, $zero, 5
	move	$a0, $s3
	pcaddu18i	$ra, %call36(_ZSt16__ostream_insertIcSt11char_traitsIcEERSt13basic_ostreamIT_T0_ES6_PKS3_l)
	jirl	$ra, $ra, 0
	ld.d	$a2, $s0, 176
	ld.d	$a1, $s0, 184
	ld.d	$a0, $s0, 200
	sub.d	$a1, $a2, $a1
	srai.d	$a1, $a1, 7
	add.d	$a1, $a1, $s8
	bltz	$a1, .LBB29_45
# %bb.43:
	ori	$a3, $zero, 3
	bltu	$a3, $a1, .LBB29_46
# %bb.44:
	slli.d	$a0, $s8, 7
	add.d	$a0, $a2, $a0
	b	.LBB29_48
.LBB29_45:
	srai.d	$a2, $a1, 2
	b	.LBB29_47
.LBB29_46:
	srli.d	$a2, $a1, 2
.LBB29_47:
	slli.d	$a3, $a2, 3
	ldx.d	$a0, $a0, $a3
	slli.d	$a2, $a2, 2
	sub.d	$a1, $a1, $a2
	slli.d	$a1, $a1, 7
	add.d	$a0, $a0, $a1
.LBB29_48:                              # %_ZNSt5dequeIN2PP4WordESaIS1_EEixEm.exit123
	addi.d	$s8, $sp, 64
	st.d	$s8, $sp, 48
	ld.d	$s4, $a0, 8
	ld.d	$s5, $a0, 0
	ori	$a1, $zero, 16
	st.d	$s4, $sp, 80
	move	$a0, $s8
	bltu	$s4, $a1, .LBB29_50
# %bb.49:                               # %.noexc.i.i125
	addi.d	$a0, $sp, 48
	addi.d	$a1, $sp, 80
	move	$a2, $zero
	pcaddu18i	$ra, %call36(_ZNSt7__cxx1112basic_stringIcSt11char_traitsIcESaIcEE9_M_createERmm)
	jirl	$ra, $ra, 0
	ld.d	$a1, $sp, 80
	st.d	$a0, $sp, 48
	st.d	$a1, $sp, 64
.LBB29_50:                              # %._crit_edge.i.i.i124
	beqz	$s4, .LBB29_54
# %bb.51:                               # %._crit_edge.i.i.i124
	ori	$a1, $zero, 1
	bne	$s4, $a1, .LBB29_53
# %bb.52:
	ld.b	$a1, $s5, 0
	st.b	$a1, $a0, 0
	b	.LBB29_54
.LBB29_53:
	move	$a1, $s5
	move	$a2, $s4
	pcaddu18i	$ra, %call36(memcpy)
	jirl	$ra, $ra, 0
.LBB29_54:                              # %_ZN2PP4Word10get_stringB5cxx11Ev.exit126
	ld.d	$a0, $sp, 80
	ld.d	$a1, $sp, 48
	st.d	$a0, $sp, 56
	stx.b	$zero, $a1, $a0
	ld.d	$a1, $sp, 48
	ld.d	$a2, $sp, 56
.Ltmp196:
	move	$a0, $s3
	pcaddu18i	$ra, %call36(_ZSt16__ostream_insertIcSt11char_traitsIcEERSt13basic_ostreamIT_T0_ES6_PKS3_l)
	jirl	$ra, $ra, 0
.Ltmp197:
# %bb.55:                               # %_ZStlsIcSt11char_traitsIcESaIcEERSt13basic_ostreamIT_T0_ES7_RKNSt7__cxx1112basic_stringIS4_S5_T1_EE.exit
	move	$s3, $a0
	ld.d	$a0, $a0, 0
	ld.d	$a0, $a0, -24
	add.d	$a0, $s3, $a0
	ld.d	$s4, $a0, 240
	beqz	$s4, .LBB29_295
# %bb.56:                               # %_ZSt13__check_facetISt5ctypeIcEERKT_PS3_.exit.i.i234
	ld.bu	$a0, $s4, 56
	beqz	$a0, .LBB29_58
# %bb.57:
	ld.bu	$a0, $s4, 67
	b	.LBB29_60
.LBB29_58:
.Ltmp198:
	move	$a0, $s4
	pcaddu18i	$ra, %call36(_ZNKSt5ctypeIcE13_M_widen_initEv)
	jirl	$ra, $ra, 0
.Ltmp199:
# %bb.59:                               # %.noexc237
	ld.d	$a0, $s4, 0
	ld.d	$a2, $a0, 48
.Ltmp200:
	ori	$a1, $zero, 10
	move	$a0, $s4
	jirl	$ra, $a2, 0
.Ltmp201:
.LBB29_60:                              # %_ZNKSt9basic_iosIcSt11char_traitsIcEE5widenEc.exit.i
.Ltmp202:
	ext.w.b	$a1, $a0
	move	$a0, $s3
	pcaddu18i	$ra, %call36(_ZNSo3putEc)
	jirl	$ra, $ra, 0
.Ltmp203:
# %bb.61:                               # %.noexc239
.Ltmp204:
	pcaddu18i	$ra, %call36(_ZNSo5flushEv)
	jirl	$ra, $ra, 0
.Ltmp205:
# %bb.62:                               # %_ZNSolsEPFRSoS_E.exit
	move	$s3, $a0
	ld.d	$a0, $a0, 0
	ld.d	$a0, $a0, -24
	add.d	$a0, $s3, $a0
	ld.d	$s4, $a0, 240
	beqz	$s4, .LBB29_295
# %bb.63:                               # %_ZSt13__check_facetISt5ctypeIcEERKT_PS3_.exit.i.i243
	ld.bu	$a0, $s4, 56
	beqz	$a0, .LBB29_65
# %bb.64:
	ld.bu	$a0, $s4, 67
	b	.LBB29_67
.LBB29_65:
.Ltmp206:
	move	$a0, $s4
	pcaddu18i	$ra, %call36(_ZNKSt5ctypeIcE13_M_widen_initEv)
	jirl	$ra, $ra, 0
.Ltmp207:
# %bb.66:                               # %.noexc248
	ld.d	$a0, $s4, 0
	ld.d	$a2, $a0, 48
.Ltmp208:
	ori	$a1, $zero, 10
	move	$a0, $s4
	jirl	$ra, $a2, 0
.Ltmp209:
.LBB29_67:                              # %_ZNKSt9basic_iosIcSt11char_traitsIcEE5widenEc.exit.i245
.Ltmp210:
	ext.w.b	$a1, $a0
	move	$a0, $s3
	pcaddu18i	$ra, %call36(_ZNSo3putEc)
	jirl	$ra, $ra, 0
.Ltmp211:
# %bb.68:                               # %.noexc250
.Ltmp212:
	pcaddu18i	$ra, %call36(_ZNSo5flushEv)
	jirl	$ra, $ra, 0
.Ltmp213:
# %bb.69:                               # %_ZNSolsEPFRSoS_E.exit127
	ld.d	$a0, $sp, 48
	beq	$a0, $s8, .LBB29_71
# %bb.70:                               # %_ZNKSt7__cxx1112basic_stringIcSt11char_traitsIcESaIcEE11_M_is_localEv.exit.i.i128
	ld.d	$a1, $sp, 64
	addi.d	$a1, $a1, 1
	pcaddu18i	$ra, %call36(_ZdlPvm)
	jirl	$ra, $ra, 0
.LBB29_71:                              # %_ZNSt7__cxx1112basic_stringIcSt11char_traitsIcESaIcEED2Ev.exit130
	ori	$a0, $zero, 2
	st.w	$a0, $fp, 0
.LBB29_72:
	ld.d	$s7, $sp, 16                    # 8-byte Folded Reload
	beqz	$s7, .LBB29_77
# %bb.73:                               # %.critedge
	beqz	$s6, .LBB29_80
# %bb.74:                               # %.critedge117.preheader
	ori	$a0, $zero, 1
	ld.d	$a6, $sp, 32                    # 8-byte Folded Reload
	blt	$s7, $a0, .LBB29_293
# %bb.75:                               # %.lr.ph382
	pcalau12i	$a0, %pc_hi20(_ZN2PPL10index_baseE)
	ld.w	$a0, $a0, %pc_lo12(_ZN2PPL10index_baseE)
	ld.d	$a1, $sp, 40                    # 8-byte Folded Reload
	ld.d	$a1, $a1, 0
	bstrpick.d	$a2, $a6, 30, 0
	ori	$a3, $zero, 8
	bgeu	$a2, $a3, .LBB29_85
# %bb.76:
	move	$a3, $zero
	b	.LBB29_88
.LBB29_77:
	ld.d	$a2, $s0, 176
	ld.d	$a0, $s0, 184
	ld.d	$a1, $s0, 200
	sub.d	$a0, $a2, $a0
	srai.d	$a4, $a0, 7
	addi.w	$s4, $zero, -2
	addi.d	$a3, $a4, 2
	blt	$a4, $s4, .LBB29_83
# %bb.78:
	ori	$a0, $zero, 4
	ld.d	$s8, $sp, 8                     # 8-byte Folded Reload
	bgeu	$a3, $a0, .LBB29_90
# %bb.79:                               # %_ZNSt5dequeIN2PP4WordESaIS1_EEixEm.exit138.thread
	ld.w	$a1, $a2, 296
	ori	$a0, $zero, 1
	bne	$a1, $a0, .LBB29_94
	b	.LBB29_293
.LBB29_80:
	ld.d	$a2, $s0, 176
	ld.d	$a1, $s0, 184
	ld.d	$a0, $s0, 200
	sub.d	$a1, $a2, $a1
	srai.d	$a3, $a1, 7
	addi.w	$s6, $zero, -1
	addi.d	$a1, $a3, 1
	blt	$a3, $s6, .LBB29_84
# %bb.81:
	ori	$a3, $zero, 3
	bltu	$a3, $a1, .LBB29_95
# %bb.82:
	addi.d	$a0, $a2, 128
	b	.LBB29_97
.LBB29_83:
	srai.d	$a0, $a3, 2
	ld.d	$s8, $sp, 8                     # 8-byte Folded Reload
	b	.LBB29_91
.LBB29_84:
	srai.d	$a2, $a1, 2
	b	.LBB29_96
.LBB29_85:                              # %vector.ph
	bstrpick.d	$a3, $a6, 30, 3
	slli.d	$a3, $a3, 3
	vreplgr2vr.w	$vr0, $a0
	addi.d	$a4, $a1, 16
	move	$a5, $a3
	.p2align	4, , 16
.LBB29_86:                              # %vector.body
                                        # =>This Inner Loop Header: Depth=1
	vst	$vr0, $a4, -16
	vst	$vr0, $a4, 0
	addi.d	$a5, $a5, -8
	addi.d	$a4, $a4, 32
	bnez	$a5, .LBB29_86
# %bb.87:                               # %middle.block
	beq	$a2, $a3, .LBB29_252
.LBB29_88:                              # %.critedge117.preheader431
	alsl.d	$a1, $a3, $a1, 2
	sub.d	$a2, $a2, $a3
	.p2align	4, , 16
.LBB29_89:                              # %.critedge117
                                        # =>This Inner Loop Header: Depth=1
	st.w	$a0, $a1, 0
	addi.d	$a2, $a2, -1
	addi.d	$a1, $a1, 4
	bnez	$a2, .LBB29_89
	b	.LBB29_252
.LBB29_90:
	srli.d	$a0, $a3, 2
.LBB29_91:                              # %_ZNSt5dequeIN2PP4WordESaIS1_EEixEm.exit138
	slli.d	$a5, $a0, 3
	ldx.d	$a5, $a1, $a5
	slli.d	$a0, $a0, 2
	sub.d	$a0, $a3, $a0
	slli.d	$a0, $a0, 7
	add.d	$a0, $a5, $a0
	ld.w	$a5, $a0, 40
	ori	$a0, $zero, 1
	beq	$a5, $a0, .LBB29_293
# %bb.92:
	blt	$a4, $s4, .LBB29_112
# %bb.93:
	ori	$a0, $zero, 3
	bltu	$a0, $a3, .LBB29_255
.LBB29_94:                              # %.thread370
	addi.d	$a0, $a2, 256
	b	.LBB29_257
.LBB29_95:
	srli.d	$a2, $a1, 2
.LBB29_96:
	slli.d	$a3, $a2, 3
	ldx.d	$a0, $a0, $a3
	slli.d	$a2, $a2, 2
	sub.d	$a1, $a1, $a2
	slli.d	$a1, $a1, 7
	add.d	$a0, $a0, $a1
.LBB29_97:                              # %_ZNSt5dequeIN2PP4WordESaIS1_EEixEm.exit157
	addi.d	$s2, $sp, 64
	st.d	$s2, $sp, 48
	ld.d	$s3, $a0, 8
	ld.d	$s4, $a0, 0
	ori	$a1, $zero, 16
	st.d	$s3, $sp, 80
	move	$a0, $s2
	bltu	$s3, $a1, .LBB29_99
# %bb.98:                               # %.noexc.i.i159
	addi.d	$a0, $sp, 48
	addi.d	$a1, $sp, 80
	move	$a2, $zero
	pcaddu18i	$ra, %call36(_ZNSt7__cxx1112basic_stringIcSt11char_traitsIcESaIcEE9_M_createERmm)
	jirl	$ra, $ra, 0
	ld.d	$a1, $sp, 80
	st.d	$a0, $sp, 48
	st.d	$a1, $sp, 64
.LBB29_99:                              # %._crit_edge.i.i.i158
	beqz	$s3, .LBB29_103
# %bb.100:                              # %._crit_edge.i.i.i158
	ori	$a1, $zero, 1
	bne	$s3, $a1, .LBB29_102
# %bb.101:
	ld.b	$a1, $s4, 0
	st.b	$a1, $a0, 0
	b	.LBB29_103
.LBB29_102:
	move	$a1, $s4
	move	$a2, $s3
	pcaddu18i	$ra, %call36(memcpy)
	jirl	$ra, $ra, 0
.LBB29_103:                             # %_ZN2PP4Word10get_stringB5cxx11Ev.exit160
	ld.d	$a0, $sp, 80
	ld.d	$a1, $sp, 48
	st.d	$a0, $sp, 56
	stx.b	$zero, $a1, $a0
	ld.d	$a1, $sp, 56
	ld.d	$a0, $sp, 48
	ori	$s3, $zero, 1
	bne	$a1, $s3, .LBB29_105
# %bb.104:
	ld.bu	$a1, $a0, 0
	addi.d	$a1, $a1, -40
	sltu	$s3, $zero, $a1
.LBB29_105:                             # %_ZStneIcSt11char_traitsIcESaIcEEbRKNSt7__cxx1112basic_stringIT_T0_T1_EEPKS5_.exit162
	beq	$a0, $s2, .LBB29_107
# %bb.106:                              # %_ZNKSt7__cxx1112basic_stringIcSt11char_traitsIcESaIcEE11_M_is_localEv.exit.i.i163
	ld.d	$a1, $sp, 64
	addi.d	$a1, $a1, 1
	pcaddu18i	$ra, %call36(_ZdlPvm)
	jirl	$ra, $ra, 0
.LBB29_107:                             # %_ZNSt7__cxx1112basic_stringIcSt11char_traitsIcESaIcEED2Ev.exit165
	beqz	$s3, .LBB29_153
# %bb.108:
	ld.d	$a2, $s0, 176
	ld.d	$a1, $s0, 184
	ld.d	$a0, $s0, 200
	sub.d	$a1, $a2, $a1
	srai.d	$a3, $a1, 7
	addi.d	$a1, $a3, 1
	blt	$a3, $s6, .LBB29_111
# %bb.109:
	ori	$a3, $zero, 3
	bltu	$a3, $a1, .LBB29_113
# %bb.110:
	addi.d	$a0, $a2, 128
	b	.LBB29_115
.LBB29_111:
	srai.d	$a2, $a1, 2
	b	.LBB29_114
.LBB29_112:
	srai.d	$a0, $a3, 2
	b	.LBB29_256
.LBB29_113:
	srli.d	$a2, $a1, 2
.LBB29_114:
	slli.d	$a3, $a2, 3
	ldx.d	$a0, $a0, $a3
	slli.d	$a2, $a2, 2
	sub.d	$a1, $a1, $a2
	slli.d	$a1, $a1, 7
	add.d	$a0, $a0, $a1
.LBB29_115:                             # %_ZNSt5dequeIN2PP4WordESaIS1_EEixEm.exit167
	move	$a1, $s1
	move	$a2, $fp
	pcaddu18i	$ra, %call36(_ZN2PP4Word11fatal_errorERNSt7__cxx1118basic_stringstreamIcSt11char_traitsIcESaIcEEERi)
	jirl	$ra, $ra, 0
	addi.d	$s3, $s1, 16
	pcalau12i	$a0, %pc_hi20(.L.str.43)
	addi.d	$a1, $a0, %pc_lo12(.L.str.43)
	ori	$a2, $zero, 73
	move	$a0, $s3
	pcaddu18i	$ra, %call36(_ZSt16__ostream_insertIcSt11char_traitsIcEERSt13basic_ostreamIT_T0_ES6_PKS3_l)
	jirl	$ra, $ra, 0
	ld.d	$a0, $s1, 16
	ld.d	$a0, $a0, -24
	add.d	$a0, $s3, $a0
	ld.d	$s4, $a0, 240
	beqz	$s4, .LBB29_294
# %bb.116:                              # %_ZSt13__check_facetISt5ctypeIcEERKT_PS3_.exit.i.i277
	ld.bu	$a0, $s4, 56
	beqz	$a0, .LBB29_118
# %bb.117:
	ld.bu	$a0, $s4, 67
	b	.LBB29_119
.LBB29_118:
	move	$a0, $s4
	pcaddu18i	$ra, %call36(_ZNKSt5ctypeIcE13_M_widen_initEv)
	jirl	$ra, $ra, 0
	ld.d	$a0, $s4, 0
	ld.d	$a2, $a0, 48
	ori	$a1, $zero, 10
	move	$a0, $s4
	jirl	$ra, $a2, 0
.LBB29_119:                             # %_ZSt4endlIcSt11char_traitsIcEERSt13basic_ostreamIT_T0_ES6_.exit281
	ext.w.b	$a1, $a0
	move	$a0, $s3
	pcaddu18i	$ra, %call36(_ZNSo3putEc)
	jirl	$ra, $ra, 0
	pcaddu18i	$ra, %call36(_ZNSo5flushEv)
	jirl	$ra, $ra, 0
	pcalau12i	$a0, %pc_hi20(.L.str.44)
	addi.d	$a1, $a0, %pc_lo12(.L.str.44)
	ori	$a2, $zero, 13
	move	$a0, $s3
	pcaddu18i	$ra, %call36(_ZSt16__ostream_insertIcSt11char_traitsIcEERSt13basic_ostreamIT_T0_ES6_PKS3_l)
	jirl	$ra, $ra, 0
	ld.d	$a1, $s0, 240
	ld.d	$a2, $s0, 248
	move	$a0, $s3
	pcaddu18i	$ra, %call36(_ZSt16__ostream_insertIcSt11char_traitsIcEERSt13basic_ostreamIT_T0_ES6_PKS3_l)
	jirl	$ra, $ra, 0
	move	$s4, $a0
	pcalau12i	$a0, %pc_hi20(.L.str.45)
	addi.d	$a1, $a0, %pc_lo12(.L.str.45)
	ori	$a2, $zero, 11
	move	$a0, $s4
	pcaddu18i	$ra, %call36(_ZSt16__ostream_insertIcSt11char_traitsIcEERSt13basic_ostreamIT_T0_ES6_PKS3_l)
	jirl	$ra, $ra, 0
	ld.d	$a0, $s4, 0
	ld.d	$a0, $a0, -24
	add.d	$a0, $s4, $a0
	ld.d	$s5, $a0, 240
	beqz	$s5, .LBB29_294
# %bb.120:                              # %_ZSt13__check_facetISt5ctypeIcEERKT_PS3_.exit.i.i283
	ld.bu	$a0, $s5, 56
	beqz	$a0, .LBB29_122
# %bb.121:
	ld.bu	$a0, $s5, 67
	b	.LBB29_123
.LBB29_122:
	move	$a0, $s5
	pcaddu18i	$ra, %call36(_ZNKSt5ctypeIcE13_M_widen_initEv)
	jirl	$ra, $ra, 0
	ld.d	$a0, $s5, 0
	ld.d	$a2, $a0, 48
	ori	$a1, $zero, 10
	move	$a0, $s5
	jirl	$ra, $a2, 0
.LBB29_123:                             # %_ZSt4endlIcSt11char_traitsIcEERSt13basic_ostreamIT_T0_ES6_.exit287
	ext.w.b	$a1, $a0
	move	$a0, $s4
	pcaddu18i	$ra, %call36(_ZNSo3putEc)
	jirl	$ra, $ra, 0
	pcaddu18i	$ra, %call36(_ZNSo5flushEv)
	jirl	$ra, $ra, 0
	pcalau12i	$a0, %pc_hi20(.L.str.46)
	addi.d	$a1, $a0, %pc_lo12(.L.str.46)
	ori	$a2, $zero, 15
	move	$a0, $s3
	pcaddu18i	$ra, %call36(_ZSt16__ostream_insertIcSt11char_traitsIcEERSt13basic_ostreamIT_T0_ES6_PKS3_l)
	jirl	$ra, $ra, 0
	ld.d	$a2, $s0, 176
	ld.d	$a1, $s0, 184
	ld.d	$a0, $s0, 200
	sub.d	$a1, $a2, $a1
	srai.d	$a3, $a1, 7
	addi.d	$a1, $a3, 1
	blt	$a3, $s6, .LBB29_126
# %bb.124:
	ori	$a3, $zero, 3
	bltu	$a3, $a1, .LBB29_127
# %bb.125:
	addi.d	$a0, $a2, 128
	b	.LBB29_129
.LBB29_126:
	srai.d	$a2, $a1, 2
	b	.LBB29_128
.LBB29_127:
	srli.d	$a2, $a1, 2
.LBB29_128:
	slli.d	$a3, $a2, 3
	ldx.d	$a0, $a0, $a3
	slli.d	$a2, $a2, 2
	sub.d	$a1, $a1, $a2
	slli.d	$a1, $a1, 7
	add.d	$a0, $a0, $a1
.LBB29_129:                             # %_ZNSt5dequeIN2PP4WordESaIS1_EEixEm.exit169
	addi.d	$s6, $sp, 64
	st.d	$s6, $sp, 48
	ld.d	$s4, $a0, 8
	ld.d	$s5, $a0, 0
	ori	$a1, $zero, 16
	st.d	$s4, $sp, 80
	move	$a0, $s6
	bltu	$s4, $a1, .LBB29_131
# %bb.130:                              # %.noexc.i.i171
	addi.d	$a0, $sp, 48
	addi.d	$a1, $sp, 80
	move	$a2, $zero
	pcaddu18i	$ra, %call36(_ZNSt7__cxx1112basic_stringIcSt11char_traitsIcESaIcEE9_M_createERmm)
	jirl	$ra, $ra, 0
	ld.d	$a1, $sp, 80
	st.d	$a0, $sp, 48
	st.d	$a1, $sp, 64
.LBB29_131:                             # %._crit_edge.i.i.i170
	beqz	$s4, .LBB29_135
# %bb.132:                              # %._crit_edge.i.i.i170
	ori	$a1, $zero, 1
	bne	$s4, $a1, .LBB29_134
# %bb.133:
	ld.b	$a1, $s5, 0
	st.b	$a1, $a0, 0
	b	.LBB29_135
.LBB29_134:
	move	$a1, $s5
	move	$a2, $s4
	pcaddu18i	$ra, %call36(memcpy)
	jirl	$ra, $ra, 0
.LBB29_135:                             # %_ZN2PP4Word10get_stringB5cxx11Ev.exit172
	ld.d	$a0, $sp, 80
	ld.d	$a1, $sp, 48
	st.d	$a0, $sp, 56
	stx.b	$zero, $a1, $a0
	ld.d	$a1, $sp, 48
	ld.d	$a2, $sp, 56
.Ltmp214:
	move	$a0, $s3
	pcaddu18i	$ra, %call36(_ZSt16__ostream_insertIcSt11char_traitsIcEERSt13basic_ostreamIT_T0_ES6_PKS3_l)
	jirl	$ra, $ra, 0
.Ltmp215:
# %bb.136:                              # %_ZStlsIcSt11char_traitsIcESaIcEERSt13basic_ostreamIT_T0_ES7_RKNSt7__cxx1112basic_stringIS4_S5_T1_EE.exit173
	move	$s3, $a0
	ld.d	$a0, $a0, 0
	ld.d	$a0, $a0, -24
	add.d	$a0, $s3, $a0
	ld.d	$s4, $a0, 240
	beqz	$s4, .LBB29_297
# %bb.137:                              # %_ZSt13__check_facetISt5ctypeIcEERKT_PS3_.exit.i.i289
	ld.bu	$a0, $s4, 56
	beqz	$a0, .LBB29_139
# %bb.138:
	ld.bu	$a0, $s4, 67
	b	.LBB29_141
.LBB29_139:
.Ltmp216:
	move	$a0, $s4
	pcaddu18i	$ra, %call36(_ZNKSt5ctypeIcE13_M_widen_initEv)
	jirl	$ra, $ra, 0
.Ltmp217:
# %bb.140:                              # %.noexc294
	ld.d	$a0, $s4, 0
	ld.d	$a2, $a0, 48
.Ltmp218:
	ori	$a1, $zero, 10
	move	$a0, $s4
	jirl	$ra, $a2, 0
.Ltmp219:
.LBB29_141:                             # %_ZNKSt9basic_iosIcSt11char_traitsIcEE5widenEc.exit.i291
.Ltmp220:
	ext.w.b	$a1, $a0
	move	$a0, $s3
	pcaddu18i	$ra, %call36(_ZNSo3putEc)
	jirl	$ra, $ra, 0
.Ltmp221:
# %bb.142:                              # %.noexc296
.Ltmp222:
	pcaddu18i	$ra, %call36(_ZNSo5flushEv)
	jirl	$ra, $ra, 0
.Ltmp223:
# %bb.143:                              # %_ZNSolsEPFRSoS_E.exit174
	move	$s3, $a0
	ld.d	$a0, $a0, 0
	ld.d	$a0, $a0, -24
	add.d	$a0, $s3, $a0
	ld.d	$s4, $a0, 240
	beqz	$s4, .LBB29_297
# %bb.144:                              # %_ZSt13__check_facetISt5ctypeIcEERKT_PS3_.exit.i.i300
	ld.bu	$a0, $s4, 56
	beqz	$a0, .LBB29_146
# %bb.145:
	ld.bu	$a0, $s4, 67
	b	.LBB29_148
.LBB29_146:
.Ltmp224:
	move	$a0, $s4
	pcaddu18i	$ra, %call36(_ZNKSt5ctypeIcE13_M_widen_initEv)
	jirl	$ra, $ra, 0
.Ltmp225:
# %bb.147:                              # %.noexc305
	ld.d	$a0, $s4, 0
	ld.d	$a2, $a0, 48
.Ltmp226:
	ori	$a1, $zero, 10
	move	$a0, $s4
	jirl	$ra, $a2, 0
.Ltmp227:
.LBB29_148:                             # %_ZNKSt9basic_iosIcSt11char_traitsIcEE5widenEc.exit.i302
.Ltmp228:
	ext.w.b	$a1, $a0
	move	$a0, $s3
	pcaddu18i	$ra, %call36(_ZNSo3putEc)
	jirl	$ra, $ra, 0
.Ltmp229:
# %bb.149:                              # %.noexc307
.Ltmp230:
	pcaddu18i	$ra, %call36(_ZNSo5flushEv)
	jirl	$ra, $ra, 0
.Ltmp231:
# %bb.150:                              # %_ZNSolsEPFRSoS_E.exit175
	ld.d	$a0, $sp, 48
	beq	$a0, $s6, .LBB29_152
# %bb.151:                              # %_ZNKSt7__cxx1112basic_stringIcSt11char_traitsIcESaIcEE11_M_is_localEv.exit.i.i176
	ld.d	$a1, $sp, 64
	addi.d	$a1, $a1, 1
	pcaddu18i	$ra, %call36(_ZdlPvm)
	jirl	$ra, $ra, 0
.LBB29_152:                             # %_ZNSt7__cxx1112basic_stringIcSt11char_traitsIcESaIcEED2Ev.exit178
	ori	$a0, $zero, 2
	st.w	$a0, $fp, 0
.LBB29_153:
	ld.d	$a0, $sp, 24                    # 8-byte Folded Reload
	slli.d	$a0, $a0, 30
	ori	$a1, $zero, 0
	lu32i.d	$a1, 2
	ld.d	$a2, $s0, 176
	ld.d	$a3, $s0, 184
	add.d	$a0, $a0, $a1
	srai.d	$s6, $a0, 32
	ld.d	$a0, $s0, 200
	sub.d	$a1, $a2, $a3
	srai.d	$a1, $a1, 7
	add.d	$a1, $a1, $s6
	bltz	$a1, .LBB29_156
# %bb.154:
	ori	$a3, $zero, 3
	bltu	$a3, $a1, .LBB29_157
# %bb.155:
	slli.d	$a0, $s6, 7
	add.d	$a0, $a2, $a0
	b	.LBB29_159
.LBB29_156:
	srai.d	$a2, $a1, 2
	b	.LBB29_158
.LBB29_157:
	srli.d	$a2, $a1, 2
.LBB29_158:
	slli.d	$a3, $a2, 3
	ldx.d	$a0, $a0, $a3
	slli.d	$a2, $a2, 2
	sub.d	$a1, $a1, $a2
	slli.d	$a1, $a1, 7
	add.d	$a0, $a0, $a1
.LBB29_159:                             # %_ZNSt5dequeIN2PP4WordESaIS1_EEixEm.exit186
	addi.d	$s2, $sp, 64
	st.d	$s2, $sp, 48
	ld.d	$s3, $a0, 8
	ld.d	$s4, $a0, 0
	ori	$a1, $zero, 16
	st.d	$s3, $sp, 80
	move	$a0, $s2
	bltu	$s3, $a1, .LBB29_161
# %bb.160:                              # %.noexc.i.i188
	addi.d	$a0, $sp, 48
	addi.d	$a1, $sp, 80
	move	$a2, $zero
	pcaddu18i	$ra, %call36(_ZNSt7__cxx1112basic_stringIcSt11char_traitsIcESaIcEE9_M_createERmm)
	jirl	$ra, $ra, 0
	ld.d	$a1, $sp, 80
	st.d	$a0, $sp, 48
	st.d	$a1, $sp, 64
.LBB29_161:                             # %._crit_edge.i.i.i187
	beqz	$s3, .LBB29_165
# %bb.162:                              # %._crit_edge.i.i.i187
	ori	$a1, $zero, 1
	bne	$s3, $a1, .LBB29_164
# %bb.163:
	ld.b	$a1, $s4, 0
	st.b	$a1, $a0, 0
	b	.LBB29_165
.LBB29_164:
	move	$a1, $s4
	move	$a2, $s3
	pcaddu18i	$ra, %call36(memcpy)
	jirl	$ra, $ra, 0
.LBB29_165:                             # %_ZN2PP4Word10get_stringB5cxx11Ev.exit189
	ld.d	$a0, $sp, 80
	ld.d	$a1, $sp, 48
	st.d	$a0, $sp, 56
	stx.b	$zero, $a1, $a0
	ld.d	$a1, $sp, 56
	ld.d	$a0, $sp, 48
	ori	$s3, $zero, 1
	bne	$a1, $s3, .LBB29_167
# %bb.166:
	ld.bu	$a1, $a0, 0
	addi.d	$a1, $a1, -41
	sltu	$s3, $zero, $a1
.LBB29_167:                             # %_ZStneIcSt11char_traitsIcESaIcEEbRKNSt7__cxx1112basic_stringIT_T0_T1_EEPKS5_.exit191
	beq	$a0, $s2, .LBB29_169
# %bb.168:                              # %_ZNKSt7__cxx1112basic_stringIcSt11char_traitsIcESaIcEE11_M_is_localEv.exit.i.i192
	ld.d	$a1, $sp, 64
	addi.d	$a1, $a1, 1
	pcaddu18i	$ra, %call36(_ZdlPvm)
	jirl	$ra, $ra, 0
.LBB29_169:                             # %_ZNSt7__cxx1112basic_stringIcSt11char_traitsIcESaIcEED2Ev.exit194
	beqz	$s3, .LBB29_214
# %bb.170:
	ld.d	$a2, $s0, 176
	ld.d	$a1, $s0, 184
	ld.d	$a0, $s0, 200
	sub.d	$a1, $a2, $a1
	srai.d	$a1, $a1, 7
	add.d	$a1, $a1, $s6
	bltz	$a1, .LBB29_173
# %bb.171:
	ori	$a3, $zero, 3
	bltu	$a3, $a1, .LBB29_174
# %bb.172:
