	.file	"mesh.cpp"
	.text
	.globl	_ZN4Mesh10write_gridEi          # -- Begin function _ZN4Mesh10write_gridEi
	.p2align	5
	.type	_ZN4Mesh10write_gridEi,@function
_ZN4Mesh10write_gridEi:                 # @_ZN4Mesh10write_gridEi
# %bb.0:
	addi.d	$sp, $sp, -64
	st.d	$ra, $sp, 56                    # 8-byte Folded Spill
	st.d	$fp, $sp, 48                    # 8-byte Folded Spill
	st.d	$s0, $sp, 40                    # 8-byte Folded Spill
	st.d	$s1, $sp, 32                    # 8-byte Folded Spill
	st.d	$s2, $sp, 24                    # 8-byte Folded Spill
	move	$fp, $a0
	srai.d	$a0, $a1, 63
	andn	$a2, $a1, $a0
	pcalau12i	$a0, %pc_hi20(.L.str)
	addi.d	$a1, $a0, %pc_lo12(.L.str)
	addi.d	$a0, $sp, 4
	pcaddu18i	$ra, %call36(sprintf)
	jirl	$ra, $ra, 0
	pcalau12i	$a0, %pc_hi20(.L.str.1)
	addi.d	$a1, $a0, %pc_lo12(.L.str.1)
	addi.d	$a0, $sp, 4
	pcaddu18i	$ra, %call36(fopen)
	jirl	$ra, $ra, 0
	ld.d	$a5, $fp, 1208
	ld.d	$a4, $fp, 1192
	ld.d	$a3, $fp, 1200
	ld.d	$a2, $fp, 1184
	move	$s0, $a0
	pcalau12i	$a0, %pc_hi20(.L.str.2)
	addi.d	$a1, $a0, %pc_lo12(.L.str.2)
	move	$a0, $s0
	pcaddu18i	$ra, %call36(fprintf)
	jirl	$ra, $ra, 0
	ld.d	$a0, $fp, 1160
	beqz	$a0, .LBB0_3
# %bb.1:                                # %.lr.ph
	move	$a0, $zero
	ori	$s2, $zero, 1
	pcalau12i	$a1, %pc_hi20(.L.str.3)
	addi.d	$s1, $a1, %pc_lo12(.L.str.3)
	.p2align	4, , 16
.LBB0_2:                                # =>This Inner Loop Header: Depth=1
	ld.d	$a1, $fp, 1416
	slli.d	$a0, $a0, 3
	ld.d	$a2, $fp, 1464
	ld.d	$a3, $fp, 1440
	ld.d	$a4, $fp, 1488
	fldx.d	$fa0, $a1, $a0
	fldx.d	$fa1, $a2, $a0
	fldx.d	$fa2, $a3, $a0
	fldx.d	$fa3, $a4, $a0
	fadd.d	$fa2, $fa0, $fa2
	fadd.d	$fa3, $fa1, $fa3
	movfr2gr.d	$a4, $fa2
	movfr2gr.d	$a5, $fa3
	movfr2gr.d	$a2, $fa0
	movfr2gr.d	$a3, $fa1
	move	$a0, $s0
	move	$a1, $s1
	pcaddu18i	$ra, %call36(fprintf)
	jirl	$ra, $ra, 0
	ld.d	$a1, $fp, 1160
	bstrpick.d	$a0, $s2, 31, 0
	addi.w	$s2, $s2, 1
	bltu	$a0, $a1, .LBB0_2
.LBB0_3:                                # %._crit_edge
	ld.d	$a0, $fp, 1416
	ld.d	$a1, $fp, 1440
	fld.d	$fa0, $a0, 0
	ld.d	$a0, $fp, 1488
	ld.d	$a2, $fp, 1464
	fld.d	$fa1, $a1, 0
	vldi	$vr2, -928
	fld.d	$fa3, $a0, 0
	fld.d	$fa4, $a2, 0
	fmul.d	$fa1, $fa1, $fa2
	fadd.d	$fa0, $fa0, $fa1
	fmul.d	$fa1, $fa3, $fa2
	fadd.d	$fa1, $fa4, $fa1
	movfr2gr.d	$a2, $fa0
	movfr2gr.d	$a3, $fa1
	pcalau12i	$a0, %pc_hi20(.L.str.4)
	addi.d	$a1, $a0, %pc_lo12(.L.str.4)
	move	$a0, $s0
	pcaddu18i	$ra, %call36(fprintf)
	jirl	$ra, $ra, 0
	ld.d	$a1, $fp, 1160
	ori	$s2, $zero, 2
	bltu	$a1, $s2, .LBB0_6
# %bb.4:                                # %.lr.ph37.preheader
	ori	$a0, $zero, 1
	pcalau12i	$a1, %pc_hi20(.L.str.5)
	addi.d	$s1, $a1, %pc_lo12(.L.str.5)
	.p2align	4, , 16
.LBB0_5:                                # %.lr.ph37
                                        # =>This Inner Loop Header: Depth=1
	ld.d	$a1, $fp, 1416
	ld.d	$a2, $fp, 1440
	slli.d	$a0, $a0, 3
	ld.d	$a3, $fp, 1488
	ld.d	$a4, $fp, 1464
	fldx.d	$fa0, $a2, $a0
	fldx.d	$fa1, $a1, $a0
	fldx.d	$fa2, $a3, $a0
	fldx.d	$fa3, $a4, $a0
	vldi	$vr4, -928
	fmul.d	$fa0, $fa0, $fa4
	fadd.d	$fa0, $fa1, $fa0
	fmul.d	$fa1, $fa2, $fa4
	fadd.d	$fa1, $fa3, $fa1
	movfr2gr.d	$a2, $fa0
	movfr2gr.d	$a3, $fa1
	move	$a0, $s0
	move	$a1, $s1
	pcaddu18i	$ra, %call36(fprintf)
	jirl	$ra, $ra, 0
	ld.d	$a1, $fp, 1160
	bstrpick.d	$a0, $s2, 31, 0
	addi.w	$s2, $s2, 1
	bltu	$a0, $a1, .LBB0_5
.LBB0_6:                                # %.preheader
	beqz	$a1, .LBB0_9
# %bb.7:                                # %.lr.ph39.preheader
	move	$a0, $zero
	move	$s1, $zero
	pcalau12i	$a1, %pc_hi20(.L.str.6)
	addi.d	$s2, $a1, %pc_lo12(.L.str.6)
	.p2align	4, , 16
.LBB0_8:                                # %.lr.ph39
                                        # =>This Inner Loop Header: Depth=1
	ld.d	$a1, $fp, 1416
	ld.d	$a2, $fp, 1440
	slli.d	$a0, $a0, 3
	ld.d	$a3, $fp, 1488
	ld.d	$a4, $fp, 1464
	fldx.d	$fa0, $a2, $a0
	fldx.d	$fa1, $a1, $a0
	fldx.d	$fa2, $a3, $a0
	fldx.d	$fa3, $a4, $a0
	vldi	$vr4, -928
	fmul.d	$fa0, $fa0, $fa4
	fadd.d	$fa0, $fa1, $fa0
	fmul.d	$fa1, $fa2, $fa4
	fadd.d	$fa1, $fa3, $fa1
	movfr2gr.d	$a2, $fa0
	movfr2gr.d	$a3, $fa1
	move	$a0, $s0
	move	$a1, $s2
	move	$a4, $s1
	pcaddu18i	$ra, %call36(fprintf)
	jirl	$ra, $ra, 0
	ld.d	$a1, $fp, 1160
	addi.w	$s1, $s1, 1
	bstrpick.d	$a0, $s1, 31, 0
	bltu	$a0, $a1, .LBB0_8
.LBB0_9:                                # %._crit_edge40
	move	$a0, $s0
	ld.d	$s2, $sp, 24                    # 8-byte Folded Reload
	ld.d	$s1, $sp, 32                    # 8-byte Folded Reload
	ld.d	$s0, $sp, 40                    # 8-byte Folded Reload
	ld.d	$fp, $sp, 48                    # 8-byte Folded Reload
	ld.d	$ra, $sp, 56                    # 8-byte Folded Reload
	addi.d	$sp, $sp, 64
	pcaddu18i	$t8, %call36(fclose)
	jr	$t8
.Lfunc_end0:
	.size	_ZN4Mesh10write_gridEi, .Lfunc_end0-_ZN4Mesh10write_gridEi
                                        # -- End function
	.globl	_ZN4MeshC2EP8_IO_FILEPi         # -- Begin function _ZN4MeshC2EP8_IO_FILEPi
	.p2align	5
	.type	_ZN4MeshC2EP8_IO_FILEPi,@function
_ZN4MeshC2EP8_IO_FILEPi:                # @_ZN4MeshC2EP8_IO_FILEPi
.Lfunc_begin0:
	.cfi_startproc
	.cfi_personality 155, DW.ref.__gxx_personality_v0
	.cfi_lsda 27, .Lexception0
# %bb.0:
	addi.d	$sp, $sp, -176
	.cfi_def_cfa_offset 176
	st.d	$ra, $sp, 168                   # 8-byte Folded Spill
	st.d	$fp, $sp, 160                   # 8-byte Folded Spill
	st.d	$s0, $sp, 152                   # 8-byte Folded Spill
	st.d	$s1, $sp, 144                   # 8-byte Folded Spill
	st.d	$s2, $sp, 136                   # 8-byte Folded Spill
	st.d	$s3, $sp, 128                   # 8-byte Folded Spill
	st.d	$s4, $sp, 120                   # 8-byte Folded Spill
	st.d	$s5, $sp, 112                   # 8-byte Folded Spill
	st.d	$s6, $sp, 104                   # 8-byte Folded Spill
	st.d	$s7, $sp, 96                    # 8-byte Folded Spill
	st.d	$s8, $sp, 88                    # 8-byte Folded Spill
	.cfi_offset 1, -8
	.cfi_offset 22, -16
	.cfi_offset 23, -24
	.cfi_offset 24, -32
	.cfi_offset 25, -40
	.cfi_offset 26, -48
	.cfi_offset 27, -56
	.cfi_offset 28, -64
	.cfi_offset 29, -72
	.cfi_offset 30, -80
	.cfi_offset 31, -88
	move	$s3, $a2
	move	$s5, $a1
	move	$fp, $a0
	addi.d	$a0, $a0, 16
	st.w	$zero, $fp, 16
	st.d	$zero, $fp, 24
	st.d	$a0, $fp, 32
	st.d	$a0, $fp, 40
	st.d	$zero, $fp, 48
	addi.d	$a0, $fp, 64
	st.w	$zero, $fp, 64
	st.d	$zero, $fp, 72
	st.d	$a0, $fp, 80
	st.d	$a0, $fp, 88
	st.d	$zero, $fp, 96
	addi.d	$a0, $fp, 112
	st.w	$zero, $fp, 112
	st.d	$zero, $fp, 120
	st.d	$a0, $fp, 128
	st.d	$a0, $fp, 136
	st.d	$zero, $fp, 144
	addi.d	$a0, $fp, 160
	st.w	$zero, $fp, 160
	st.d	$zero, $fp, 168
	st.d	$a0, $fp, 176
	st.d	$a0, $fp, 184
	st.d	$zero, $fp, 192
	addi.d	$s0, $fp, 680
	addi.d	$s1, $fp, 856
	st.d	$zero, $fp, 1320
	vrepli.b	$vr0, 0
	vst	$vr0, $fp, 1304
	addi.d	$s2, $fp, 1416
	addi.d	$s4, $fp, 1568
	ori	$a2, $zero, 96
	move	$a0, $s0
	move	$a1, $zero
	pcaddu18i	$ra, %call36(memset)
	jirl	$ra, $ra, 0
	ori	$a2, $zero, 264
	move	$a0, $s1
	move	$a1, $zero
	pcaddu18i	$ra, %call36(memset)
	jirl	$ra, $ra, 0
	ori	$a2, $zero, 144
	move	$a0, $s2
	move	$a1, $zero
	pcaddu18i	$ra, %call36(memset)
	jirl	$ra, $ra, 0
	ori	$a2, $zero, 720
	move	$a0, $s4
	move	$a1, $zero
	pcaddu18i	$ra, %call36(memset)
	jirl	$ra, $ra, 0
	ori	$a0, $zero, 1
	st.w	$a0, $fp, 1128
	addi.d	$a0, $sp, 0
	pcaddu18i	$ra, %call36(time)
	jirl	$ra, $ra, 0
	ld.d	$a0, $sp, 0
	pcaddu18i	$ra, %call36(srand48)
	jirl	$ra, $ra, 0
	addi.d	$a0, $sp, 8
	ori	$a1, $zero, 80
	move	$a2, $s5
	pcaddu18i	$ra, %call36(fgets)
	jirl	$ra, $ra, 0
	beqz	$a0, .LBB1_29
# %bb.1:
	addi.d	$a2, $fp, 1120
	pcalau12i	$a0, %pc_hi20(.L.str.7)
	addi.d	$a1, $a0, %pc_lo12(.L.str.7)
	addi.d	$a0, $sp, 8
	pcaddu18i	$ra, %call36(__isoc23_sscanf)
	jirl	$ra, $ra, 0
	addi.d	$a0, $sp, 8
	ori	$a1, $zero, 80
	move	$a2, $s5
	pcaddu18i	$ra, %call36(fgets)
	jirl	$ra, $ra, 0
	beqz	$a0, .LBB1_29
# %bb.2:
	addi.d	$s7, $fp, 1160
	pcalau12i	$a0, %pc_hi20(.L.str.8)
	addi.d	$a1, $a0, %pc_lo12(.L.str.8)
	addi.d	$a0, $sp, 8
	move	$a2, $s7
	pcaddu18i	$ra, %call36(__isoc23_sscanf)
	jirl	$ra, $ra, 0
	addi.d	$a0, $sp, 8
	ori	$a1, $zero, 80
	move	$a2, $s5
	pcaddu18i	$ra, %call36(fgets)
	jirl	$ra, $ra, 0
	beqz	$a0, .LBB1_29
# %bb.3:
	pcalau12i	$a0, %pc_hi20(.L.str.9)
	addi.d	$a1, $a0, %pc_lo12(.L.str.9)
	addi.d	$a0, $sp, 8
	move	$a2, $s3
	pcaddu18i	$ra, %call36(__isoc23_sscanf)
	jirl	$ra, $ra, 0
	addi.d	$a0, $sp, 8
	ori	$a1, $zero, 80
	move	$a2, $s5
	pcaddu18i	$ra, %call36(fgets)
	jirl	$ra, $ra, 0
	beqz	$a0, .LBB1_29
# %bb.4:
	pcalau12i	$a0, %pc_hi20(.L.str.10)
	addi.d	$a1, $a0, %pc_lo12(.L.str.10)
	addi.d	$a0, $sp, 8
	move	$a2, $fp
	pcaddu18i	$ra, %call36(__isoc23_sscanf)
	jirl	$ra, $ra, 0
	addi.d	$a0, $sp, 8
	ori	$a1, $zero, 80
	move	$a2, $s5
	pcaddu18i	$ra, %call36(fgets)
	jirl	$ra, $ra, 0
	beqz	$a0, .LBB1_29
# %bb.5:
	addi.d	$a2, $fp, 1184
	addi.d	$a3, $fp, 1280
	pcalau12i	$a0, %pc_hi20(.L.str.11)
	addi.d	$a1, $a0, %pc_lo12(.L.str.11)
	addi.d	$a0, $sp, 8
	pcaddu18i	$ra, %call36(__isoc23_sscanf)
	jirl	$ra, $ra, 0
	addi.d	$a0, $sp, 8
	ori	$a1, $zero, 80
	move	$a2, $s5
	pcaddu18i	$ra, %call36(fgets)
	jirl	$ra, $ra, 0
	beqz	$a0, .LBB1_29
# %bb.6:
	addi.d	$a2, $fp, 1200
	addi.d	$a3, $fp, 1288
	pcalau12i	$a0, %pc_hi20(.L.str.12)
	addi.d	$a1, $a0, %pc_lo12(.L.str.12)
	addi.d	$a0, $sp, 8
	pcaddu18i	$ra, %call36(__isoc23_sscanf)
	jirl	$ra, $ra, 0
	ld.w	$a0, $fp, 0
	ori	$a1, $zero, 3
	bne	$a0, $a1, .LBB1_9
# %bb.7:
	addi.d	$a0, $sp, 8
	ori	$a1, $zero, 80
	move	$a2, $s5
	pcaddu18i	$ra, %call36(fgets)
	jirl	$ra, $ra, 0
	beqz	$a0, .LBB1_29
# %bb.8:
	addi.d	$a2, $fp, 1216
	addi.d	$a3, $fp, 1296
	pcalau12i	$a0, %pc_hi20(.L.str.13)
	addi.d	$a1, $a0, %pc_lo12(.L.str.13)
	addi.d	$a0, $sp, 8
	pcaddu18i	$ra, %call36(__isoc23_sscanf)
	jirl	$ra, $ra, 0
.LBB1_9:
	addi.d	$a0, $sp, 8
	ori	$a1, $zero, 80
	move	$a2, $s5
	pcaddu18i	$ra, %call36(fgets)
	jirl	$ra, $ra, 0
	beqz	$a0, .LBB1_29
# %bb.10:
	ld.d	$a0, $fp, 1312
	ld.d	$a1, $fp, 1304
	ld.d	$s8, $fp, 1160
	addi.d	$s3, $fp, 8
	sub.d	$a2, $a0, $a1
	srai.d	$a2, $a2, 2
	addi.d	$s6, $fp, 1304
	bgeu	$a2, $s8, .LBB1_13
# %bb.11:
	sub.d	$a1, $s8, $a2
.Ltmp0:
	move	$a0, $s6
	pcaddu18i	$ra, %call36(_ZNSt6vectorIiSaIiEE17_M_default_appendEm)
	jirl	$ra, $ra, 0
.Ltmp1:
# %bb.12:                               # %._ZNSt6vectorIiSaIiEE6resizeEm.exit_crit_edge
	ld.d	$s8, $s7, 0
	b	.LBB1_16
.LBB1_13:
	bgeu	$s8, $a2, .LBB1_16
# %bb.14:
	alsl.d	$a1, $s8, $a1, 2
	beq	$a0, $a1, .LBB1_16
# %bb.15:                               # %_ZSt8_DestroyIPiiEvT_S1_RSaIT0_E.exit.i.i
	st.d	$a1, $fp, 1312
.LBB1_16:                               # %_ZNSt6vectorIiSaIiEE6resizeEm.exit
.Ltmp2:
	pcalau12i	$a0, %pc_hi20(.L.str.50)
	addi.d	$a3, $a0, %pc_lo12(.L.str.50)
	ori	$a2, $zero, 4
	ori	$a4, $zero, 16
	move	$a0, $s3
	move	$a1, $s8
	pcaddu18i	$ra, %call36(_ZN10MallocPlus13memory_mallocEmmPKci)
	jirl	$ra, $ra, 0
.Ltmp3:
# %bb.17:                               # %.noexc22
	st.d	$a0, $fp, 1328
.Ltmp4:
	pcalau12i	$a0, %pc_hi20(.L.str.51)
	addi.d	$a3, $a0, %pc_lo12(.L.str.51)
	ori	$a2, $zero, 4
	ori	$a4, $zero, 16
	move	$a0, $s3
	move	$a1, $s8
	pcaddu18i	$ra, %call36(_ZN10MallocPlus13memory_mallocEmmPKci)
	jirl	$ra, $ra, 0
.Ltmp5:
# %bb.18:                               # %.noexc23
	st.d	$a0, $fp, 1336
.Ltmp6:
	pcalau12i	$a0, %pc_hi20(.L.str.52)
	addi.d	$a3, $a0, %pc_lo12(.L.str.52)
	ori	$a2, $zero, 4
	ori	$a4, $zero, 16
	move	$a0, $s3
	move	$a1, $s8
	pcaddu18i	$ra, %call36(_ZN10MallocPlus13memory_mallocEmmPKci)
	jirl	$ra, $ra, 0
.Ltmp7:
# %bb.19:                               # %_ZN4Mesh8allocateEm.exit
	st.d	$a0, $fp, 1352
	addi.d	$a0, $sp, 8
	ori	$a1, $zero, 80
	move	$a2, $s5
	pcaddu18i	$ra, %call36(fgets)
	jirl	$ra, $ra, 0
	beqz	$a0, .LBB1_23
# %bb.20:                               # %.lr.ph.preheader
	move	$s8, $zero
	pcalau12i	$a0, %pc_hi20(.L.str.14)
	addi.d	$s7, $a0, %pc_lo12(.L.str.14)
	.p2align	4, , 16
.LBB1_21:                               # %.lr.ph
                                        # =>This Inner Loop Header: Depth=1
	ld.d	$a0, $fp, 1304
	slli.d	$a1, $s8, 2
	bstrpick.d	$a1, $a1, 33, 2
	ld.d	$a3, $fp, 1328
	ld.d	$a4, $fp, 1336
	ld.d	$a5, $fp, 1352
	alsl.d	$a2, $a1, $a0, 2
	alsl.d	$a3, $a1, $a3, 2
	alsl.d	$a4, $a1, $a4, 2
	alsl.d	$a5, $a1, $a5, 2
	addi.d	$a0, $sp, 8
	move	$a1, $s7
	pcaddu18i	$ra, %call36(__isoc23_sscanf)
	jirl	$ra, $ra, 0
	addi.w	$s8, $s8, 1
	addi.d	$a0, $sp, 8
	ori	$a1, $zero, 80
	move	$a2, $s5
	pcaddu18i	$ra, %call36(fgets)
	jirl	$ra, $ra, 0
	bnez	$a0, .LBB1_21
# %bb.22:                               # %._crit_edge.loopexit
	bstrpick.d	$s5, $s8, 31, 0
	b	.LBB1_24
.LBB1_23:
	move	$s5, $zero
.LBB1_24:                               # %._crit_edge
	st.w	$zero, $fp, 1128
.Ltmp9:
	move	$a0, $fp
	move	$a1, $zero
	pcaddu18i	$ra, %call36(_ZN4Mesh24calc_spatial_coordinatesEi)
	jirl	$ra, $ra, 0
.Ltmp10:
# %bb.25:
	addi.d	$a0, $fp, 784
.Ltmp11:
	pcaddu18i	$ra, %call36(KDTree_Initialize)
	jirl	$ra, $ra, 0
.Ltmp12:
# %bb.26:
	move	$a0, $fp
	pcaddu18i	$ra, %call36(_ZN4Mesh5printEv)
	jirl	$ra, $ra, 0
	ld.d	$a0, $fp, 1160
	beq	$a0, $s5, .LBB1_28
# %bb.27:
	pcalau12i	$a0, %pc_hi20(.Lstr)
	addi.d	$a0, $a0, %pc_lo12(.Lstr)
	pcaddu18i	$ra, %call36(puts)
	jirl	$ra, $ra, 0
.LBB1_28:
	ld.d	$s8, $sp, 88                    # 8-byte Folded Reload
	ld.d	$s7, $sp, 96                    # 8-byte Folded Reload
	ld.d	$s6, $sp, 104                   # 8-byte Folded Reload
	ld.d	$s5, $sp, 112                   # 8-byte Folded Reload
	ld.d	$s4, $sp, 120                   # 8-byte Folded Reload
	ld.d	$s3, $sp, 128                   # 8-byte Folded Reload
	ld.d	$s2, $sp, 136                   # 8-byte Folded Reload
	ld.d	$s1, $sp, 144                   # 8-byte Folded Reload
	ld.d	$s0, $sp, 152                   # 8-byte Folded Reload
	ld.d	$fp, $sp, 160                   # 8-byte Folded Reload
	ld.d	$ra, $sp, 168                   # 8-byte Folded Reload
	addi.d	$sp, $sp, 176
	ret
.LBB1_29:
	addi.w	$a0, $zero, -1
	pcaddu18i	$ra, %call36(exit)
	jirl	$ra, $ra, 0
.LBB1_30:
.Ltmp13:
	b	.LBB1_32
.LBB1_31:
.Ltmp8:
.LBB1_32:
	move	$s5, $a0
	ldptr.d	$a0, $fp, 2264
	bnez	$a0, .LBB1_86
# %bb.33:                               # %_ZNSt6vectorIiSaIiEED2Ev.exit
	ldptr.d	$a0, $fp, 2240
	bnez	$a0, .LBB1_87
.LBB1_34:                               # %_ZNSt6vectorIiSaIiEED2Ev.exit26
	ldptr.d	$a0, $fp, 2216
	bnez	$a0, .LBB1_88
.LBB1_35:                               # %_ZNSt6vectorIiSaIiEED2Ev.exit28
	ldptr.d	$a0, $fp, 2192
	bnez	$a0, .LBB1_89
.LBB1_36:                               # %_ZNSt6vectorIiSaIiEED2Ev.exit30
	ldptr.d	$a0, $fp, 2168
	bnez	$a0, .LBB1_90
.LBB1_37:                               # %_ZNSt6vectorIiSaIiEED2Ev.exit32
	ldptr.d	$a0, $fp, 2144
	bnez	$a0, .LBB1_91
.LBB1_38:                               # %_ZNSt6vectorIiSaIiEED2Ev.exit34
	ldptr.d	$a0, $fp, 2120
	bnez	$a0, .LBB1_92
.LBB1_39:                               # %_ZNSt6vectorIiSaIiEED2Ev.exit36
	ldptr.d	$a0, $fp, 2096
	bnez	$a0, .LBB1_93
.LBB1_40:                               # %_ZNSt6vectorIiSaIiEED2Ev.exit38
	ldptr.d	$a0, $fp, 2072
	bnez	$a0, .LBB1_94
.LBB1_41:                               # %_ZNSt6vectorIiSaIiEED2Ev.exit40
	ldptr.d	$a0, $fp, 2048
	bnez	$a0, .LBB1_95
.LBB1_42:                               # %_ZNSt6vectorIiSaIiEED2Ev.exit42
	ld.d	$a0, $fp, 2024
	bnez	$a0, .LBB1_96
.LBB1_43:                               # %_ZNSt6vectorIiSaIiEED2Ev.exit44
	ld.d	$a0, $fp, 2000
	bnez	$a0, .LBB1_97
.LBB1_44:                               # %_ZNSt6vectorIiSaIiEED2Ev.exit46
	ld.d	$a0, $fp, 1976
	bnez	$a0, .LBB1_98
.LBB1_45:                               # %_ZNSt6vectorIiSaIiEED2Ev.exit48
	ld.d	$a0, $fp, 1952
	bnez	$a0, .LBB1_99
.LBB1_46:                               # %_ZNSt6vectorIiSaIiEED2Ev.exit50
	ld.d	$a0, $fp, 1928
	bnez	$a0, .LBB1_100
.LBB1_47:                               # %_ZNSt6vectorIiSaIiEED2Ev.exit52
	ld.d	$a0, $fp, 1904
	bnez	$a0, .LBB1_101
.LBB1_48:                               # %_ZNSt6vectorIiSaIiEED2Ev.exit54
	ld.d	$a0, $fp, 1880
	bnez	$a0, .LBB1_102
.LBB1_49:                               # %_ZNSt6vectorIiSaIiEED2Ev.exit56
	ld.d	$a0, $fp, 1856
	bnez	$a0, .LBB1_103
.LBB1_50:                               # %_ZNSt6vectorIiSaIiEED2Ev.exit58
	ld.d	$a0, $fp, 1832
	bnez	$a0, .LBB1_104
.LBB1_51:                               # %_ZNSt6vectorIiSaIiEED2Ev.exit60
	ld.d	$a0, $fp, 1808
	bnez	$a0, .LBB1_105
.LBB1_52:                               # %_ZNSt6vectorIiSaIiEED2Ev.exit62
	ld.d	$a0, $fp, 1784
	bnez	$a0, .LBB1_106
.LBB1_53:                               # %_ZNSt6vectorIiSaIiEED2Ev.exit64
	ld.d	$a0, $fp, 1760
	bnez	$a0, .LBB1_107
.LBB1_54:                               # %_ZNSt6vectorIiSaIiEED2Ev.exit66
	ld.d	$a0, $fp, 1736
	bnez	$a0, .LBB1_108
.LBB1_55:                               # %_ZNSt6vectorIiSaIiEED2Ev.exit68
	ld.d	$a0, $fp, 1712
	bnez	$a0, .LBB1_109
.LBB1_56:                               # %_ZNSt6vectorIiSaIiEED2Ev.exit70
	ld.d	$a0, $fp, 1688
	bnez	$a0, .LBB1_110
.LBB1_57:                               # %_ZNSt6vectorIiSaIiEED2Ev.exit72
	ld.d	$a0, $fp, 1664
	bnez	$a0, .LBB1_111
.LBB1_58:                               # %_ZNSt6vectorIiSaIiEED2Ev.exit74
	ld.d	$a0, $fp, 1640
	bnez	$a0, .LBB1_112
.LBB1_59:                               # %_ZNSt6vectorIiSaIiEED2Ev.exit76
	ld.d	$a0, $fp, 1616
	bnez	$a0, .LBB1_113
.LBB1_60:                               # %_ZNSt6vectorIiSaIiEED2Ev.exit78
	ld.d	$a0, $fp, 1592
	bnez	$a0, .LBB1_114
.LBB1_61:                               # %_ZNSt6vectorIiSaIiEED2Ev.exit80
	ld.d	$a0, $s4, 0
	bnez	$a0, .LBB1_115
.LBB1_62:                               # %_ZNSt6vectorIiSaIiEED2Ev.exit82
	ld.d	$a0, $fp, 1536
	bnez	$a0, .LBB1_116
.LBB1_63:                               # %_ZNSt6vectorIdSaIdEED2Ev.exit
	ld.d	$a0, $fp, 1512
	bnez	$a0, .LBB1_117
.LBB1_64:                               # %_ZNSt6vectorIdSaIdEED2Ev.exit85
	ld.d	$a0, $fp, 1488
	bnez	$a0, .LBB1_118
.LBB1_65:                               # %_ZNSt6vectorIdSaIdEED2Ev.exit87
	ld.d	$a0, $fp, 1464
	bnez	$a0, .LBB1_119
.LBB1_66:                               # %_ZNSt6vectorIdSaIdEED2Ev.exit89
	ld.d	$a0, $fp, 1440
	bnez	$a0, .LBB1_120
.LBB1_67:                               # %_ZNSt6vectorIdSaIdEED2Ev.exit91
	ld.d	$a0, $s2, 0
	bnez	$a0, .LBB1_121
.LBB1_68:                               # %_ZNSt6vectorIdSaIdEED2Ev.exit93
	ld.d	$a0, $s6, 0
	bnez	$a0, .LBB1_122
.LBB1_69:                               # %_ZNSt6vectorIiSaIiEED2Ev.exit95
	ld.d	$a0, $fp, 1096
	bnez	$a0, .LBB1_123
.LBB1_70:                               # %_ZNSt6vectorIdSaIdEED2Ev.exit97
	ld.d	$a0, $fp, 1072
	bnez	$a0, .LBB1_124
.LBB1_71:                               # %_ZNSt6vectorIdSaIdEED2Ev.exit99
	ld.d	$a0, $fp, 1048
	bnez	$a0, .LBB1_125
.LBB1_72:                               # %_ZNSt6vectorIdSaIdEED2Ev.exit101
	ld.d	$a0, $fp, 1024
	bnez	$a0, .LBB1_126
.LBB1_73:                               # %_ZNSt6vectorIiSaIiEED2Ev.exit103
	ld.d	$a0, $fp, 1000
	bnez	$a0, .LBB1_127
.LBB1_74:                               # %_ZNSt6vectorIiSaIiEED2Ev.exit105
	ld.d	$a0, $fp, 976
	bnez	$a0, .LBB1_128
.LBB1_75:                               # %_ZNSt6vectorIiSaIiEED2Ev.exit107
	ld.d	$a0, $fp, 952
	bnez	$a0, .LBB1_129
.LBB1_76:                               # %_ZNSt6vectorIiSaIiEED2Ev.exit109
	ld.d	$a0, $fp, 928
	bnez	$a0, .LBB1_130
.LBB1_77:                               # %_ZNSt6vectorIiSaIiEED2Ev.exit111
	ld.d	$a0, $fp, 904
	bnez	$a0, .LBB1_131
.LBB1_78:                               # %_ZNSt6vectorIiSaIiEED2Ev.exit113
	ld.d	$a0, $fp, 880
	bnez	$a0, .LBB1_132
.LBB1_79:                               # %_ZNSt6vectorIiSaIiEED2Ev.exit115
	ld.d	$a0, $s1, 0
	bnez	$a0, .LBB1_133
.LBB1_80:                               # %_ZNSt6vectorIiSaIiEED2Ev.exit117
	ld.d	$a0, $fp, 752
	bnez	$a0, .LBB1_134
.LBB1_81:                               # %_ZNSt6vectorIiSaIiEED2Ev.exit119
	ld.d	$a0, $fp, 728
	bnez	$a0, .LBB1_135
.LBB1_82:                               # %_ZNSt6vectorIiSaIiEED2Ev.exit121
	ld.d	$a0, $fp, 704
	bnez	$a0, .LBB1_136
.LBB1_83:                               # %_ZNSt6vectorIiSaIiEED2Ev.exit123
	ld.d	$a0, $s0, 0
	beqz	$a0, .LBB1_85
.LBB1_84:
	ld.d	$a1, $fp, 696
	sub.d	$a1, $a1, $a0
	pcaddu18i	$ra, %call36(_ZdlPvm)
	jirl	$ra, $ra, 0
.LBB1_85:                               # %_ZNSt6vectorIiSaIiEED2Ev.exit125
	addi.d	$a0, $fp, 104
	pcaddu18i	$ra, %call36(_ZN10MallocPlusD2Ev)
	jirl	$ra, $ra, 0
	move	$a0, $s3
	pcaddu18i	$ra, %call36(_ZN10MallocPlusD2Ev)
	jirl	$ra, $ra, 0
	move	$a0, $s5
	pcaddu18i	$ra, %call36(_Unwind_Resume)
	jirl	$ra, $ra, 0
.LBB1_86:
	ldptr.d	$a1, $fp, 2280
	sub.d	$a1, $a1, $a0
	pcaddu18i	$ra, %call36(_ZdlPvm)
	jirl	$ra, $ra, 0
	ldptr.d	$a0, $fp, 2240
	beqz	$a0, .LBB1_34
.LBB1_87:
	ldptr.d	$a1, $fp, 2256
	sub.d	$a1, $a1, $a0
	pcaddu18i	$ra, %call36(_ZdlPvm)
	jirl	$ra, $ra, 0
	ldptr.d	$a0, $fp, 2216
	beqz	$a0, .LBB1_35
.LBB1_88:
	ldptr.d	$a1, $fp, 2232
	sub.d	$a1, $a1, $a0
	pcaddu18i	$ra, %call36(_ZdlPvm)
	jirl	$ra, $ra, 0
	ldptr.d	$a0, $fp, 2192
	beqz	$a0, .LBB1_36
.LBB1_89:
	ldptr.d	$a1, $fp, 2208
	sub.d	$a1, $a1, $a0
	pcaddu18i	$ra, %call36(_ZdlPvm)
	jirl	$ra, $ra, 0
	ldptr.d	$a0, $fp, 2168
	beqz	$a0, .LBB1_37
.LBB1_90:
	ldptr.d	$a1, $fp, 2184
	sub.d	$a1, $a1, $a0
	pcaddu18i	$ra, %call36(_ZdlPvm)
	jirl	$ra, $ra, 0
	ldptr.d	$a0, $fp, 2144
	beqz	$a0, .LBB1_38
.LBB1_91:
	ldptr.d	$a1, $fp, 2160
	sub.d	$a1, $a1, $a0
	pcaddu18i	$ra, %call36(_ZdlPvm)
	jirl	$ra, $ra, 0
	ldptr.d	$a0, $fp, 2120
	beqz	$a0, .LBB1_39
.LBB1_92:
	ldptr.d	$a1, $fp, 2136
	sub.d	$a1, $a1, $a0
	pcaddu18i	$ra, %call36(_ZdlPvm)
	jirl	$ra, $ra, 0
	ldptr.d	$a0, $fp, 2096
	beqz	$a0, .LBB1_40
.LBB1_93:
	ldptr.d	$a1, $fp, 2112
	sub.d	$a1, $a1, $a0
	pcaddu18i	$ra, %call36(_ZdlPvm)
	jirl	$ra, $ra, 0
	ldptr.d	$a0, $fp, 2072
	beqz	$a0, .LBB1_41
.LBB1_94:
	ldptr.d	$a1, $fp, 2088
	sub.d	$a1, $a1, $a0
	pcaddu18i	$ra, %call36(_ZdlPvm)
	jirl	$ra, $ra, 0
	ldptr.d	$a0, $fp, 2048
	beqz	$a0, .LBB1_42
.LBB1_95:
	ldptr.d	$a1, $fp, 2064
	sub.d	$a1, $a1, $a0
	pcaddu18i	$ra, %call36(_ZdlPvm)
	jirl	$ra, $ra, 0
	ld.d	$a0, $fp, 2024
	beqz	$a0, .LBB1_43
.LBB1_96:
	ld.d	$a1, $fp, 2040
	sub.d	$a1, $a1, $a0
	pcaddu18i	$ra, %call36(_ZdlPvm)
	jirl	$ra, $ra, 0
	ld.d	$a0, $fp, 2000
	beqz	$a0, .LBB1_44
.LBB1_97:
	ld.d	$a1, $fp, 2016
	sub.d	$a1, $a1, $a0
	pcaddu18i	$ra, %call36(_ZdlPvm)
	jirl	$ra, $ra, 0
	ld.d	$a0, $fp, 1976
	beqz	$a0, .LBB1_45
.LBB1_98:
	ld.d	$a1, $fp, 1992
	sub.d	$a1, $a1, $a0
	pcaddu18i	$ra, %call36(_ZdlPvm)
	jirl	$ra, $ra, 0
	ld.d	$a0, $fp, 1952
	beqz	$a0, .LBB1_46
.LBB1_99:
	ld.d	$a1, $fp, 1968
	sub.d	$a1, $a1, $a0
	pcaddu18i	$ra, %call36(_ZdlPvm)
	jirl	$ra, $ra, 0
	ld.d	$a0, $fp, 1928
	beqz	$a0, .LBB1_47
.LBB1_100:
	ld.d	$a1, $fp, 1944
	sub.d	$a1, $a1, $a0
	pcaddu18i	$ra, %call36(_ZdlPvm)
	jirl	$ra, $ra, 0
	ld.d	$a0, $fp, 1904
	beqz	$a0, .LBB1_48
.LBB1_101:
	ld.d	$a1, $fp, 1920
	sub.d	$a1, $a1, $a0
	pcaddu18i	$ra, %call36(_ZdlPvm)
	jirl	$ra, $ra, 0
	ld.d	$a0, $fp, 1880
	beqz	$a0, .LBB1_49
.LBB1_102:
	ld.d	$a1, $fp, 1896
	sub.d	$a1, $a1, $a0
	pcaddu18i	$ra, %call36(_ZdlPvm)
	jirl	$ra, $ra, 0
	ld.d	$a0, $fp, 1856
	beqz	$a0, .LBB1_50
.LBB1_103:
	ld.d	$a1, $fp, 1872
	sub.d	$a1, $a1, $a0
	pcaddu18i	$ra, %call36(_ZdlPvm)
	jirl	$ra, $ra, 0
	ld.d	$a0, $fp, 1832
	beqz	$a0, .LBB1_51
.LBB1_104:
	ld.d	$a1, $fp, 1848
	sub.d	$a1, $a1, $a0
	pcaddu18i	$ra, %call36(_ZdlPvm)
	jirl	$ra, $ra, 0
	ld.d	$a0, $fp, 1808
	beqz	$a0, .LBB1_52
.LBB1_105:
	ld.d	$a1, $fp, 1824
	sub.d	$a1, $a1, $a0
	pcaddu18i	$ra, %call36(_ZdlPvm)
	jirl	$ra, $ra, 0
	ld.d	$a0, $fp, 1784
	beqz	$a0, .LBB1_53
.LBB1_106:
	ld.d	$a1, $fp, 1800
	sub.d	$a1, $a1, $a0
	pcaddu18i	$ra, %call36(_ZdlPvm)
	jirl	$ra, $ra, 0
	ld.d	$a0, $fp, 1760
	beqz	$a0, .LBB1_54
.LBB1_107:
	ld.d	$a1, $fp, 1776
	sub.d	$a1, $a1, $a0
	pcaddu18i	$ra, %call36(_ZdlPvm)
	jirl	$ra, $ra, 0
	ld.d	$a0, $fp, 1736
	beqz	$a0, .LBB1_55
.LBB1_108:
	ld.d	$a1, $fp, 1752
	sub.d	$a1, $a1, $a0
	pcaddu18i	$ra, %call36(_ZdlPvm)
	jirl	$ra, $ra, 0
	ld.d	$a0, $fp, 1712
	beqz	$a0, .LBB1_56
.LBB1_109:
	ld.d	$a1, $fp, 1728
	sub.d	$a1, $a1, $a0
	pcaddu18i	$ra, %call36(_ZdlPvm)
	jirl	$ra, $ra, 0
	ld.d	$a0, $fp, 1688
	beqz	$a0, .LBB1_57
.LBB1_110:
	ld.d	$a1, $fp, 1704
	sub.d	$a1, $a1, $a0
	pcaddu18i	$ra, %call36(_ZdlPvm)
	jirl	$ra, $ra, 0
	ld.d	$a0, $fp, 1664
	beqz	$a0, .LBB1_58
.LBB1_111:
	ld.d	$a1, $fp, 1680
	sub.d	$a1, $a1, $a0
	pcaddu18i	$ra, %call36(_ZdlPvm)
	jirl	$ra, $ra, 0
	ld.d	$a0, $fp, 1640
	beqz	$a0, .LBB1_59
.LBB1_112:
	ld.d	$a1, $fp, 1656
	sub.d	$a1, $a1, $a0
	pcaddu18i	$ra, %call36(_ZdlPvm)
	jirl	$ra, $ra, 0
	ld.d	$a0, $fp, 1616
	beqz	$a0, .LBB1_60
.LBB1_113:
	ld.d	$a1, $fp, 1632
	sub.d	$a1, $a1, $a0
	pcaddu18i	$ra, %call36(_ZdlPvm)
	jirl	$ra, $ra, 0
	ld.d	$a0, $fp, 1592
	beqz	$a0, .LBB1_61
.LBB1_114:
	ld.d	$a1, $fp, 1608
	sub.d	$a1, $a1, $a0
	pcaddu18i	$ra, %call36(_ZdlPvm)
	jirl	$ra, $ra, 0
	ld.d	$a0, $s4, 0
	beqz	$a0, .LBB1_62
.LBB1_115:
	ld.d	$a1, $fp, 1584
	sub.d	$a1, $a1, $a0
	pcaddu18i	$ra, %call36(_ZdlPvm)
	jirl	$ra, $ra, 0
	ld.d	$a0, $fp, 1536
	beqz	$a0, .LBB1_63
.LBB1_116:
	ld.d	$a1, $fp, 1552
	sub.d	$a1, $a1, $a0
	pcaddu18i	$ra, %call36(_ZdlPvm)
	jirl	$ra, $ra, 0
	ld.d	$a0, $fp, 1512
	beqz	$a0, .LBB1_64
.LBB1_117:
	ld.d	$a1, $fp, 1528
	sub.d	$a1, $a1, $a0
	pcaddu18i	$ra, %call36(_ZdlPvm)
	jirl	$ra, $ra, 0
	ld.d	$a0, $fp, 1488
	beqz	$a0, .LBB1_65
.LBB1_118:
	ld.d	$a1, $fp, 1504
	sub.d	$a1, $a1, $a0
	pcaddu18i	$ra, %call36(_ZdlPvm)
	jirl	$ra, $ra, 0
	ld.d	$a0, $fp, 1464
	beqz	$a0, .LBB1_66
.LBB1_119:
	ld.d	$a1, $fp, 1480
	sub.d	$a1, $a1, $a0
	pcaddu18i	$ra, %call36(_ZdlPvm)
	jirl	$ra, $ra, 0
	ld.d	$a0, $fp, 1440
	beqz	$a0, .LBB1_67
.LBB1_120:
	ld.d	$a1, $fp, 1456
	sub.d	$a1, $a1, $a0
	pcaddu18i	$ra, %call36(_ZdlPvm)
	jirl	$ra, $ra, 0
	ld.d	$a0, $s2, 0
	beqz	$a0, .LBB1_68
.LBB1_121:
	ld.d	$a1, $fp, 1432
	sub.d	$a1, $a1, $a0
	pcaddu18i	$ra, %call36(_ZdlPvm)
	jirl	$ra, $ra, 0
	ld.d	$a0, $s6, 0
	beqz	$a0, .LBB1_69
.LBB1_122:
	ld.d	$a1, $fp, 1320
	sub.d	$a1, $a1, $a0
	pcaddu18i	$ra, %call36(_ZdlPvm)
	jirl	$ra, $ra, 0
	ld.d	$a0, $fp, 1096
	beqz	$a0, .LBB1_70
.LBB1_123:
	ld.d	$a1, $fp, 1112
	sub.d	$a1, $a1, $a0
	pcaddu18i	$ra, %call36(_ZdlPvm)
	jirl	$ra, $ra, 0
	ld.d	$a0, $fp, 1072
	beqz	$a0, .LBB1_71
.LBB1_124:
	ld.d	$a1, $fp, 1088
	sub.d	$a1, $a1, $a0
	pcaddu18i	$ra, %call36(_ZdlPvm)
	jirl	$ra, $ra, 0
	ld.d	$a0, $fp, 1048
	beqz	$a0, .LBB1_72
.LBB1_125:
	ld.d	$a1, $fp, 1064
	sub.d	$a1, $a1, $a0
	pcaddu18i	$ra, %call36(_ZdlPvm)
	jirl	$ra, $ra, 0
	ld.d	$a0, $fp, 1024
	beqz	$a0, .LBB1_73
.LBB1_126:
	ld.d	$a1, $fp, 1040
	sub.d	$a1, $a1, $a0
	pcaddu18i	$ra, %call36(_ZdlPvm)
	jirl	$ra, $ra, 0
	ld.d	$a0, $fp, 1000
	beqz	$a0, .LBB1_74
.LBB1_127:
	ld.d	$a1, $fp, 1016
	sub.d	$a1, $a1, $a0
	pcaddu18i	$ra, %call36(_ZdlPvm)
	jirl	$ra, $ra, 0
	ld.d	$a0, $fp, 976
	beqz	$a0, .LBB1_75
.LBB1_128:
	ld.d	$a1, $fp, 992
	sub.d	$a1, $a1, $a0
	pcaddu18i	$ra, %call36(_ZdlPvm)
	jirl	$ra, $ra, 0
	ld.d	$a0, $fp, 952
	beqz	$a0, .LBB1_76
.LBB1_129:
	ld.d	$a1, $fp, 968
	sub.d	$a1, $a1, $a0
	pcaddu18i	$ra, %call36(_ZdlPvm)
	jirl	$ra, $ra, 0
	ld.d	$a0, $fp, 928
	beqz	$a0, .LBB1_77
.LBB1_130:
	ld.d	$a1, $fp, 944
	sub.d	$a1, $a1, $a0
	pcaddu18i	$ra, %call36(_ZdlPvm)
	jirl	$ra, $ra, 0
	ld.d	$a0, $fp, 904
	beqz	$a0, .LBB1_78
.LBB1_131:
	ld.d	$a1, $fp, 920
	sub.d	$a1, $a1, $a0
	pcaddu18i	$ra, %call36(_ZdlPvm)
	jirl	$ra, $ra, 0
	ld.d	$a0, $fp, 880
	beqz	$a0, .LBB1_79
.LBB1_132:
	ld.d	$a1, $fp, 896
	sub.d	$a1, $a1, $a0
	pcaddu18i	$ra, %call36(_ZdlPvm)
	jirl	$ra, $ra, 0
	ld.d	$a0, $s1, 0
	beqz	$a0, .LBB1_80
.LBB1_133:
	ld.d	$a1, $fp, 872
	sub.d	$a1, $a1, $a0
	pcaddu18i	$ra, %call36(_ZdlPvm)
	jirl	$ra, $ra, 0
	ld.d	$a0, $fp, 752
	beqz	$a0, .LBB1_81
.LBB1_134:
	ld.d	$a1, $fp, 768
	sub.d	$a1, $a1, $a0
	pcaddu18i	$ra, %call36(_ZdlPvm)
	jirl	$ra, $ra, 0
	ld.d	$a0, $fp, 728
	beqz	$a0, .LBB1_82
.LBB1_135:
	ld.d	$a1, $fp, 744
	sub.d	$a1, $a1, $a0
	pcaddu18i	$ra, %call36(_ZdlPvm)
	jirl	$ra, $ra, 0
	ld.d	$a0, $fp, 704
	beqz	$a0, .LBB1_83
.LBB1_136:
	ld.d	$a1, $fp, 720
	sub.d	$a1, $a1, $a0
	pcaddu18i	$ra, %call36(_ZdlPvm)
	jirl	$ra, $ra, 0
	ld.d	$a0, $s0, 0
	bnez	$a0, .LBB1_84
	b	.LBB1_85
.Lfunc_end1:
	.size	_ZN4MeshC2EP8_IO_FILEPi, .Lfunc_end1-_ZN4MeshC2EP8_IO_FILEPi
	.cfi_endproc
	.section	.gcc_except_table,"a",@progbits
	.p2align	2, 0x0
GCC_except_table1:
.Lexception0:
	.byte	255                             # @LPStart Encoding = omit
	.byte	255                             # @TType Encoding = omit
	.byte	1                               # Call site Encoding = uleb128
	.uleb128 .Lcst_end0-.Lcst_begin0
.Lcst_begin0:
	.uleb128 .Lfunc_begin0-.Lfunc_begin0    # >> Call Site 1 <<
	.uleb128 .Ltmp0-.Lfunc_begin0           #   Call between .Lfunc_begin0 and .Ltmp0
	.byte	0                               #     has no landing pad
	.byte	0                               #   On action: cleanup
	.uleb128 .Ltmp0-.Lfunc_begin0           # >> Call Site 2 <<
	.uleb128 .Ltmp7-.Ltmp0                  #   Call between .Ltmp0 and .Ltmp7
	.uleb128 .Ltmp8-.Lfunc_begin0           #     jumps to .Ltmp8
	.byte	0                               #   On action: cleanup
	.uleb128 .Ltmp7-.Lfunc_begin0           # >> Call Site 3 <<
	.uleb128 .Ltmp9-.Ltmp7                  #   Call between .Ltmp7 and .Ltmp9
	.byte	0                               #     has no landing pad
	.byte	0                               #   On action: cleanup
	.uleb128 .Ltmp9-.Lfunc_begin0           # >> Call Site 4 <<
	.uleb128 .Ltmp12-.Ltmp9                 #   Call between .Ltmp9 and .Ltmp12
	.uleb128 .Ltmp13-.Lfunc_begin0          #     jumps to .Ltmp13
	.byte	0                               #   On action: cleanup
	.uleb128 .Ltmp12-.Lfunc_begin0          # >> Call Site 5 <<
	.uleb128 .Lfunc_end1-.Ltmp12            #   Call between .Ltmp12 and .Lfunc_end1
	.byte	0                               #     has no landing pad
	.byte	0                               #   On action: cleanup
.Lcst_end0:
	.p2align	2, 0x0
                                        # -- End function
	.text
	.globl	_ZN4Mesh8allocateEm             # -- Begin function _ZN4Mesh8allocateEm
	.p2align	5
	.type	_ZN4Mesh8allocateEm,@function
_ZN4Mesh8allocateEm:                    # @_ZN4Mesh8allocateEm
	.cfi_startproc
# %bb.0:
	addi.d	$sp, $sp, -32
	.cfi_def_cfa_offset 32
	st.d	$ra, $sp, 24                    # 8-byte Folded Spill
	st.d	$fp, $sp, 16                    # 8-byte Folded Spill
	st.d	$s0, $sp, 8                     # 8-byte Folded Spill
	st.d	$s1, $sp, 0                     # 8-byte Folded Spill
	.cfi_offset 1, -8
	.cfi_offset 22, -16
	.cfi_offset 23, -24
	.cfi_offset 24, -32
	move	$fp, $a1
	move	$s0, $a0
	addi.d	$s1, $a0, 8
	pcalau12i	$a0, %pc_hi20(.L.str.50)
	addi.d	$a3, $a0, %pc_lo12(.L.str.50)
	ori	$a2, $zero, 4
	ori	$a4, $zero, 16
	move	$a0, $s1
	pcaddu18i	$ra, %call36(_ZN10MallocPlus13memory_mallocEmmPKci)
	jirl	$ra, $ra, 0
	st.d	$a0, $s0, 1328
	pcalau12i	$a0, %pc_hi20(.L.str.51)
	addi.d	$a3, $a0, %pc_lo12(.L.str.51)
	ori	$a2, $zero, 4
	ori	$a4, $zero, 16
	move	$a0, $s1
	move	$a1, $fp
	pcaddu18i	$ra, %call36(_ZN10MallocPlus13memory_mallocEmmPKci)
	jirl	$ra, $ra, 0
	st.d	$a0, $s0, 1336
	pcalau12i	$a0, %pc_hi20(.L.str.52)
	addi.d	$a3, $a0, %pc_lo12(.L.str.52)
	ori	$a2, $zero, 4
	ori	$a4, $zero, 16
	move	$a0, $s1
	move	$a1, $fp
	pcaddu18i	$ra, %call36(_ZN10MallocPlus13memory_mallocEmmPKci)
	jirl	$ra, $ra, 0
	st.d	$a0, $s0, 1352
	ld.d	$s1, $sp, 0                     # 8-byte Folded Reload
	ld.d	$s0, $sp, 8                     # 8-byte Folded Reload
	ld.d	$fp, $sp, 16                    # 8-byte Folded Reload
	ld.d	$ra, $sp, 24                    # 8-byte Folded Reload
	addi.d	$sp, $sp, 32
	ret
.Lfunc_end2:
	.size	_ZN4Mesh8allocateEm, .Lfunc_end2-_ZN4Mesh8allocateEm
	.cfi_endproc
                                        # -- End function
	.globl	_ZN4Mesh24calc_spatial_coordinatesEi # -- Begin function _ZN4Mesh24calc_spatial_coordinatesEi
	.p2align	5
	.type	_ZN4Mesh24calc_spatial_coordinatesEi,@function
_ZN4Mesh24calc_spatial_coordinatesEi:   # @_ZN4Mesh24calc_spatial_coordinatesEi
	.cfi_startproc
# %bb.0:
	addi.d	$sp, $sp, -64
	.cfi_def_cfa_offset 64
	st.d	$ra, $sp, 56                    # 8-byte Folded Spill
	st.d	$fp, $sp, 48                    # 8-byte Folded Spill
	st.d	$s0, $sp, 40                    # 8-byte Folded Spill
	st.d	$s1, $sp, 32                    # 8-byte Folded Spill
	st.d	$s2, $sp, 24                    # 8-byte Folded Spill
	.cfi_offset 1, -8
	.cfi_offset 22, -16
	.cfi_offset 23, -24
	.cfi_offset 24, -32
	.cfi_offset 25, -40
	move	$s0, $a1
	move	$fp, $a0
	addi.d	$a0, $sp, 8
	pcaddu18i	$ra, %call36(cpu_timer_start)
	jirl	$ra, $ra, 0
	ld.d	$a0, $fp, 1424
	ld.d	$a1, $fp, 1416
	ld.d	$s2, $fp, 1160
	sub.d	$a2, $a0, $a1
	srai.d	$a2, $a2, 3
	bgeu	$a2, $s2, .LBB3_2
# %bb.1:
	addi.d	$a0, $fp, 1416
	sub.d	$a1, $s2, $a2
	pcaddu18i	$ra, %call36(_ZNSt6vectorIdSaIdEE17_M_default_appendEm)
	jirl	$ra, $ra, 0
	ld.d	$s2, $fp, 1160
	b	.LBB3_5
.LBB3_2:
	bgeu	$s2, $a2, .LBB3_5
# %bb.3:
	alsl.d	$a1, $s2, $a1, 3
	beq	$a0, $a1, .LBB3_5
# %bb.4:                                # %_ZSt8_DestroyIPddEvT_S1_RSaIT0_E.exit.i.i
	st.d	$a1, $fp, 1424
.LBB3_5:                                # %_ZNSt6vectorIdSaIdEE6resizeEm.exit
	ld.d	$a0, $fp, 1448
	ld.d	$a1, $fp, 1440
	sub.d	$a2, $a0, $a1
	srai.d	$a2, $a2, 3
	bgeu	$a2, $s2, .LBB3_7
# %bb.6:
	addi.d	$a0, $fp, 1440
	sub.d	$a1, $s2, $a2
	pcaddu18i	$ra, %call36(_ZNSt6vectorIdSaIdEE17_M_default_appendEm)
	jirl	$ra, $ra, 0
	ld.d	$s2, $fp, 1160
	b	.LBB3_10
.LBB3_7:
	bgeu	$s2, $a2, .LBB3_10
# %bb.8:
	alsl.d	$a1, $s2, $a1, 3
	beq	$a0, $a1, .LBB3_10
# %bb.9:                                # %_ZSt8_DestroyIPddEvT_S1_RSaIT0_E.exit.i.i32
	st.d	$a1, $fp, 1448
.LBB3_10:                               # %_ZNSt6vectorIdSaIdEE6resizeEm.exit33
	ld.d	$a0, $fp, 1472
	ld.d	$a1, $fp, 1464
	sub.d	$a2, $a0, $a1
	srai.d	$a2, $a2, 3
	bgeu	$a2, $s2, .LBB3_12
# %bb.11:
	addi.d	$a0, $fp, 1464
	sub.d	$a1, $s2, $a2
	pcaddu18i	$ra, %call36(_ZNSt6vectorIdSaIdEE17_M_default_appendEm)
	jirl	$ra, $ra, 0
	ld.d	$s2, $fp, 1160
	b	.LBB3_15
.LBB3_12:
	bgeu	$s2, $a2, .LBB3_15
# %bb.13:
	alsl.d	$a1, $s2, $a1, 3
	beq	$a0, $a1, .LBB3_15
# %bb.14:                               # %_ZSt8_DestroyIPddEvT_S1_RSaIT0_E.exit.i.i35
	st.d	$a1, $fp, 1472
.LBB3_15:                               # %_ZNSt6vectorIdSaIdEE6resizeEm.exit36
	ld.d	$a0, $fp, 1496
	ld.d	$a1, $fp, 1488
	sub.d	$a2, $a0, $a1
	srai.d	$a2, $a2, 3
	bgeu	$a2, $s2, .LBB3_17
# %bb.16:
	addi.d	$a0, $fp, 1488
	sub.d	$a1, $s2, $a2
	pcaddu18i	$ra, %call36(_ZNSt6vectorIdSaIdEE17_M_default_appendEm)
	jirl	$ra, $ra, 0
	ld.wu	$s2, $fp, 1160
	b	.LBB3_20
.LBB3_17:
	bgeu	$s2, $a2, .LBB3_20
# %bb.18:
	alsl.d	$a1, $s2, $a1, 3
	beq	$a0, $a1, .LBB3_20
# %bb.19:                               # %_ZSt8_DestroyIPddEvT_S1_RSaIT0_E.exit.i.i38
	st.d	$a1, $fp, 1496
.LBB3_20:                               # %_ZNSt6vectorIdSaIdEE6resizeEm.exit39
	ld.d	$s1, $fp, 640
	beqz	$s1, .LBB3_26
# %bb.21:
	ld.d	$a0, $fp, 648
	beqz	$a0, .LBB3_27
.LBB3_22:                               # %_ZN4Mesh10set_boundsEi.exit
	st.w	$zero, $s1, 0
	st.w	$s2, $a0, 0
	ld.w	$a0, $fp, 1124
	beqz	$a0, .LBB3_28
.LBB3_23:                               # %.preheader43
	addi.w	$a0, $s2, 0
	beqz	$a0, .LBB3_31
# %bb.24:                               # %.lr.ph
	ld.d	$a0, $fp, 1352
	ld.d	$a1, $fp, 1048
	ld.d	$a2, $fp, 1328
	ld.d	$a3, $fp, 1416
	ld.d	$a4, $fp, 1440
	ld.d	$a5, $fp, 1072
	ld.d	$a6, $fp, 1336
	ld.d	$a7, $fp, 1464
	ld.d	$t0, $fp, 1488
	bstrpick.d	$t1, $s2, 31, 0
	.p2align	4, , 16
.LBB3_25:                               # =>This Inner Loop Header: Depth=1
	ld.w	$t2, $a0, 0
	ld.w	$t3, $a2, 0
	fld.d	$fa0, $fp, 1184
	slli.d	$t2, $t2, 3
	fldx.d	$fa1, $a1, $t2
	sub.d	$t3, $t3, $s0
	movgr2fr.w	$fa2, $t3
	ffint.d.w	$fa2, $fa2
	fmul.d	$fa1, $fa1, $fa2
	fadd.d	$fa0, $fa0, $fa1
	fst.d	$fa0, $a3, 0
	fldx.d	$fa0, $a1, $t2
	ld.w	$t3, $a6, 0
	fst.d	$fa0, $a4, 0
	fld.d	$fa0, $fp, 1200
	fldx.d	$fa1, $a5, $t2
	sub.d	$t3, $t3, $s0
	movgr2fr.w	$fa2, $t3
	ffint.d.w	$fa2, $fa2
	fmul.d	$fa1, $fa1, $fa2
	fadd.d	$fa0, $fa0, $fa1
	fst.d	$fa0, $a7, 0
	fldx.d	$fa0, $a5, $t2
	fst.d	$fa0, $t0, 0
	addi.d	$a0, $a0, 4
	addi.d	$a2, $a2, 4
	addi.d	$a6, $a6, 4
	addi.d	$a3, $a3, 8
	addi.d	$a4, $a4, 8
	addi.d	$a7, $a7, 8
	addi.d	$t1, $t1, -1
	addi.d	$t0, $t0, 8
	bnez	$t1, .LBB3_25
	b	.LBB3_31
.LBB3_26:
	ori	$a0, $zero, 4
	pcaddu18i	$ra, %call36(malloc)
	jirl	$ra, $ra, 0
	move	$s1, $a0
	st.d	$a0, $fp, 640
	ld.d	$a0, $fp, 648
	bnez	$a0, .LBB3_22
.LBB3_27:
	ori	$a0, $zero, 4
	pcaddu18i	$ra, %call36(malloc)
	jirl	$ra, $ra, 0
	st.d	$a0, $fp, 648
	st.w	$zero, $s1, 0
	st.w	$s2, $a0, 0
	ld.w	$a0, $fp, 1124
	bnez	$a0, .LBB3_23
.LBB3_28:                               # %.preheader
	addi.w	$a0, $s2, 0
	beqz	$a0, .LBB3_31
# %bb.29:                               # %.lr.ph47
	ld.d	$a0, $fp, 1352
	ld.d	$a1, $fp, 1048
	ld.d	$a2, $fp, 1328
	ld.d	$a3, $fp, 880
	ld.d	$a4, $fp, 1416
	ld.d	$a5, $fp, 1440
	ld.d	$a6, $fp, 1072
	ld.d	$a7, $fp, 1336
	ld.d	$t0, $fp, 928
	ld.d	$t1, $fp, 1464
	ld.d	$t2, $fp, 1488
	bstrpick.d	$t3, $s2, 31, 0
	.p2align	4, , 16
.LBB3_30:                               # =>This Inner Loop Header: Depth=1
	ld.w	$t4, $a0, 0
	ld.w	$t5, $a2, 0
	slli.d	$t6, $t4, 2
	ldx.w	$t7, $a3, $t6
	fld.d	$fa0, $fp, 1184
	slli.d	$t4, $t4, 3
	fldx.d	$fa1, $a1, $t4
	sub.d	$t5, $t5, $t7
	movgr2fr.w	$fa2, $t5
	ffint.d.w	$fa2, $fa2
	fmul.d	$fa1, $fa1, $fa2
	fadd.d	$fa0, $fa0, $fa1
	fst.d	$fa0, $a4, 0
	fldx.d	$fa0, $a1, $t4
	ld.w	$t5, $a7, 0
	ldx.w	$t6, $t0, $t6
	fst.d	$fa0, $a5, 0
	fld.d	$fa0, $fp, 1200
	fldx.d	$fa1, $a6, $t4
	sub.d	$t5, $t5, $t6
	movgr2fr.w	$fa2, $t5
	ffint.d.w	$fa2, $fa2
	fmul.d	$fa1, $fa1, $fa2
	fadd.d	$fa0, $fa0, $fa1
	fst.d	$fa0, $t1, 0
	fldx.d	$fa0, $a6, $t4
	fst.d	$fa0, $t2, 0
	addi.d	$a0, $a0, 4
	addi.d	$a2, $a2, 4
	addi.d	$a7, $a7, 4
	addi.d	$a4, $a4, 8
	addi.d	$a5, $a5, 8
	addi.d	$t1, $t1, 8
	addi.d	$t3, $t3, -1
	addi.d	$t2, $t2, 8
	bnez	$t3, .LBB3_30
.LBB3_31:                               # %.loopexit
	ld.d	$a0, $sp, 8
	ld.d	$a1, $sp, 16
	pcaddu18i	$ra, %call36(cpu_timer_stop)
	jirl	$ra, $ra, 0
	fld.d	$fa1, $fp, 376
	fadd.d	$fa0, $fa0, $fa1
	fst.d	$fa0, $fp, 376
	ld.d	$s2, $sp, 24                    # 8-byte Folded Reload
	ld.d	$s1, $sp, 32                    # 8-byte Folded Reload
	ld.d	$s0, $sp, 40                    # 8-byte Folded Reload
	ld.d	$fp, $sp, 48                    # 8-byte Folded Reload
	ld.d	$ra, $sp, 56                    # 8-byte Folded Reload
	addi.d	$sp, $sp, 64
	ret
.Lfunc_end3:
	.size	_ZN4Mesh24calc_spatial_coordinatesEi, .Lfunc_end3-_ZN4Mesh24calc_spatial_coordinatesEi
	.cfi_endproc
                                        # -- End function
	.globl	_ZN4Mesh5printEv                # -- Begin function _ZN4Mesh5printEv
	.p2align	5
	.type	_ZN4Mesh5printEv,@function
_ZN4Mesh5printEv:                       # @_ZN4Mesh5printEv
# %bb.0:
	addi.d	$sp, $sp, -64
	st.d	$ra, $sp, 56                    # 8-byte Folded Spill
	st.d	$fp, $sp, 48                    # 8-byte Folded Spill
	st.d	$s0, $sp, 40                    # 8-byte Folded Spill
	st.d	$s1, $sp, 32                    # 8-byte Folded Spill
	st.d	$s2, $sp, 24                    # 8-byte Folded Spill
	st.d	$s3, $sp, 16                    # 8-byte Folded Spill
	move	$fp, $a0
	pcalau12i	$a0, %pc_hi20(.Lstr.1)
	addi.d	$a0, $a0, %pc_lo12(.Lstr.1)
	pcaddu18i	$ra, %call36(puts)
	jirl	$ra, $ra, 0
	ld.d	$a0, $fp, 1160
	beqz	$a0, .LBB4_3
# %bb.1:                                # %.lr.ph
	move	$s3, $zero
	move	$s0, $zero
	pcalau12i	$a0, %pc_hi20(.L.str.17)
	addi.d	$s1, $a0, %pc_lo12(.L.str.17)
	pcalau12i	$a0, %pc_hi20(.L.str.18)
	addi.d	$s2, $a0, %pc_lo12(.L.str.18)
	.p2align	4, , 16
.LBB4_2:                                # =>This Inner Loop Header: Depth=1
	ld.d	$a0, $fp, 1304
	slli.d	$a1, $s3, 2
	ld.d	$a3, $fp, 1328
	ld.d	$a4, $fp, 1336
	ld.d	$a5, $fp, 1352
	ldx.w	$a2, $a0, $a1
	ldx.w	$a3, $a3, $a1
	ldx.w	$a4, $a4, $a1
	ldx.w	$a5, $a5, $a1
	ld.d	$a0, $fp, 1368
	ld.d	$a7, $fp, 1376
	ld.d	$t0, $fp, 1384
	ld.d	$t1, $fp, 1392
	ldx.w	$a6, $a0, $a1
	ldx.w	$a7, $a7, $a1
	ldx.w	$a0, $t0, $a1
	ldx.w	$a1, $t1, $a1
	st.d	$a1, $sp, 8
	st.d	$a0, $sp, 0
	move	$a0, $s1
	move	$a1, $s0
	pcaddu18i	$ra, %call36(printf)
	jirl	$ra, $ra, 0
	ld.d	$a0, $fp, 1416
	slli.d	$a1, $s3, 3
	ld.d	$a2, $fp, 1440
	ld.d	$a3, $fp, 1464
	ld.d	$a4, $fp, 1488
	fldx.d	$fa0, $a0, $a1
	fldx.d	$fa1, $a2, $a1
	fldx.d	$fa2, $a3, $a1
	fldx.d	$fa3, $a4, $a1
	fadd.d	$fa1, $fa0, $fa1
	fadd.d	$fa3, $fa2, $fa3
	movfr2gr.d	$a2, $fa1
	movfr2gr.d	$a4, $fa3
	movfr2gr.d	$a1, $fa0
	movfr2gr.d	$a3, $fa2
	move	$a0, $s2
	pcaddu18i	$ra, %call36(printf)
	jirl	$ra, $ra, 0
	ld.d	$a0, $fp, 1160
	addi.w	$s0, $s0, 1
	bstrpick.d	$s3, $s0, 31, 0
	bltu	$s3, $a0, .LBB4_2
.LBB4_3:                                # %._crit_edge
	ld.d	$s3, $sp, 16                    # 8-byte Folded Reload
	ld.d	$s2, $sp, 24                    # 8-byte Folded Reload
	ld.d	$s1, $sp, 32                    # 8-byte Folded Reload
	ld.d	$s0, $sp, 40                    # 8-byte Folded Reload
	ld.d	$fp, $sp, 48                    # 8-byte Folded Reload
	ld.d	$ra, $sp, 56                    # 8-byte Folded Reload
	addi.d	$sp, $sp, 64
	ret
.Lfunc_end4:
	.size	_ZN4Mesh5printEv, .Lfunc_end4-_ZN4Mesh5printEv
                                        # -- End function
	.section	.text._ZNSt6vectorIiSaIiEED2Ev,"axG",@progbits,_ZNSt6vectorIiSaIiEED2Ev,comdat
	.weak	_ZNSt6vectorIiSaIiEED2Ev        # -- Begin function _ZNSt6vectorIiSaIiEED2Ev
	.p2align	5
	.type	_ZNSt6vectorIiSaIiEED2Ev,@function
_ZNSt6vectorIiSaIiEED2Ev:               # @_ZNSt6vectorIiSaIiEED2Ev
	.cfi_startproc
# %bb.0:
	move	$a1, $a0
	ld.d	$a0, $a0, 0
	beqz	$a0, .LBB5_2
# %bb.1:
	ld.d	$a1, $a1, 16
	sub.d	$a1, $a1, $a0
	pcaddu18i	$t8, %call36(_ZdlPvm)
	jr	$t8
.LBB5_2:                                # %_ZNSt12_Vector_baseIiSaIiEED2Ev.exit
	ret
.Lfunc_end5:
	.size	_ZNSt6vectorIiSaIiEED2Ev, .Lfunc_end5-_ZNSt6vectorIiSaIiEED2Ev
	.cfi_endproc
                                        # -- End function
	.section	.text._ZN10MallocPlusD2Ev,"axG",@progbits,_ZN10MallocPlusD2Ev,comdat
	.weak	_ZN10MallocPlusD2Ev             # -- Begin function _ZN10MallocPlusD2Ev
	.p2align	5
	.type	_ZN10MallocPlusD2Ev,@function
_ZN10MallocPlusD2Ev:                    # @_ZN10MallocPlusD2Ev
.Lfunc_begin1:
	.cfi_startproc
	.cfi_personality 155, DW.ref.__gxx_personality_v0
	.cfi_lsda 27, .Lexception1
# %bb.0:
	addi.d	$sp, $sp, -16
	.cfi_def_cfa_offset 16
	st.d	$ra, $sp, 8                     # 8-byte Folded Spill
	st.d	$fp, $sp, 0                     # 8-byte Folded Spill
	.cfi_offset 1, -8
	.cfi_offset 22, -16
	move	$fp, $a0
	ld.d	$a1, $a0, 64
	addi.d	$a0, $a0, 48
.Ltmp14:
	pcaddu18i	$ra, %call36(_ZNSt8_Rb_treeIPvSt4pairIKS0_P24malloc_plus_memory_entryESt10_Select1stIS5_ESt4lessIS0_ESaIS5_EE8_M_eraseEPSt13_Rb_tree_nodeIS5_E)
	jirl	$ra, $ra, 0
.Ltmp15:
# %bb.1:                                # %_ZNSt3mapIPvP24malloc_plus_memory_entrySt4lessIS0_ESaISt4pairIKS0_S2_EEED2Ev.exit
	ld.d	$a1, $fp, 16
.Ltmp17:
	move	$a0, $fp
	pcaddu18i	$ra, %call36(_ZNSt8_Rb_treeINSt7__cxx1112basic_stringIcSt11char_traitsIcESaIcEEESt4pairIKS5_P24malloc_plus_memory_entryESt10_Select1stISA_ESt4lessIS5_ESaISA_EE8_M_eraseEPSt13_Rb_tree_nodeISA_E)
	jirl	$ra, $ra, 0
.Ltmp18:
# %bb.2:                                # %_ZNSt3mapINSt7__cxx1112basic_stringIcSt11char_traitsIcESaIcEEEP24malloc_plus_memory_entrySt4lessIS5_ESaISt4pairIKS5_S7_EEED2Ev.exit
	ld.d	$fp, $sp, 0                     # 8-byte Folded Reload
	ld.d	$ra, $sp, 8                     # 8-byte Folded Reload
	addi.d	$sp, $sp, 16
	ret
.LBB6_3:
.Ltmp19:
	pcaddu18i	$ra, %call36(__clang_call_terminate)
	jirl	$ra, $ra, 0
.LBB6_4:
.Ltmp16:
	pcaddu18i	$ra, %call36(__clang_call_terminate)
	jirl	$ra, $ra, 0
.Lfunc_end6:
	.size	_ZN10MallocPlusD2Ev, .Lfunc_end6-_ZN10MallocPlusD2Ev
	.cfi_endproc
	.section	.gcc_except_table._ZN10MallocPlusD2Ev,"aG",@progbits,_ZN10MallocPlusD2Ev,comdat
	.p2align	2, 0x0
GCC_except_table6:
.Lexception1:
	.byte	255                             # @LPStart Encoding = omit
	.byte	155                             # @TType Encoding = indirect pcrel sdata4
	.uleb128 .Lttbase0-.Lttbaseref0
.Lttbaseref0:
	.byte	1                               # Call site Encoding = uleb128
	.uleb128 .Lcst_end1-.Lcst_begin1
.Lcst_begin1:
	.uleb128 .Ltmp14-.Lfunc_begin1          # >> Call Site 1 <<
	.uleb128 .Ltmp15-.Ltmp14                #   Call between .Ltmp14 and .Ltmp15
	.uleb128 .Ltmp16-.Lfunc_begin1          #     jumps to .Ltmp16
	.byte	1                               #   On action: 1
	.uleb128 .Ltmp17-.Lfunc_begin1          # >> Call Site 2 <<
	.uleb128 .Ltmp18-.Ltmp17                #   Call between .Ltmp17 and .Ltmp18
	.uleb128 .Ltmp19-.Lfunc_begin1          #     jumps to .Ltmp19
	.byte	1                               #   On action: 1
	.uleb128 .Ltmp18-.Lfunc_begin1          # >> Call Site 3 <<
	.uleb128 .Lfunc_end6-.Ltmp18            #   Call between .Ltmp18 and .Lfunc_end6
	.byte	0                               #     has no landing pad
	.byte	0                               #   On action: cleanup
.Lcst_end1:
	.byte	1                               # >> Action Record 1 <<
                                        #   Catch TypeInfo 1
	.byte	0                               #   No further actions
	.p2align	2, 0x0
                                        # >> Catch TypeInfos <<
	.word	0                               # TypeInfo 1
.Lttbase0:
	.p2align	2, 0x0
                                        # -- End function
	.text
	.globl	_ZN4Mesh11print_localEv         # -- Begin function _ZN4Mesh11print_localEv
	.p2align	5
	.type	_ZN4Mesh11print_localEv,@function
_ZN4Mesh11print_localEv:                # @_ZN4Mesh11print_localEv
	.cfi_startproc
# %bb.0:
	addi.d	$sp, $sp, -64
	.cfi_def_cfa_offset 64
	st.d	$ra, $sp, 56                    # 8-byte Folded Spill
	st.d	$fp, $sp, 48                    # 8-byte Folded Spill
	st.d	$s0, $sp, 40                    # 8-byte Folded Spill
	st.d	$s1, $sp, 32                    # 8-byte Folded Spill
	.cfi_offset 1, -8
	.cfi_offset 22, -16
	.cfi_offset 23, -24
	.cfi_offset 24, -32
	move	$fp, $a0
	ld.d	$a1, $a0, 1368
	addi.d	$a0, $a0, 8
	pcaddu18i	$ra, %call36(_ZN10MallocPlus15get_memory_sizeEPv)
	jirl	$ra, $ra, 0
	ld.d	$a1, $fp, 1176
	ld.d	$a3, $fp, 776
	ld.w	$a2, $fp, 620
	bgeu	$a0, $a1, .LBB7_4
# %bb.1:
	pcalau12i	$a0, %pc_hi20(.L.str.21)
	addi.d	$a1, $a0, %pc_lo12(.L.str.21)
	move	$a0, $a3
	pcaddu18i	$ra, %call36(fprintf)
	jirl	$ra, $ra, 0
	ld.d	$a0, $fp, 1176
	beqz	$a0, .LBB7_11
# %bb.2:                                # %.lr.ph41
	move	$a1, $zero
	move	$s0, $zero
	pcalau12i	$a0, %pc_hi20(.L.str.22)
	addi.d	$s1, $a0, %pc_lo12(.L.str.22)
	.p2align	4, , 16
.LBB7_3:                                # =>This Inner Loop Header: Depth=1
	ld.d	$a0, $fp, 776
	ld.w	$a2, $fp, 620
	ld.d	$a3, $fp, 1328
	ld.d	$a5, $fp, 1336
	ld.d	$a6, $fp, 1352
	slli.d	$a1, $a1, 2
	ldx.w	$a4, $a3, $a1
	ldx.w	$a5, $a5, $a1
	ldx.w	$a6, $a6, $a1
	move	$a1, $s1
	move	$a3, $s0
	pcaddu18i	$ra, %call36(fprintf)
	jirl	$ra, $ra, 0
	ld.d	$a0, $fp, 1176
	addi.w	$s0, $s0, 1
	bstrpick.d	$a1, $s0, 31, 0
	bltu	$a1, $a0, .LBB7_3
	b	.LBB7_11
.LBB7_4:
	pcalau12i	$a0, %pc_hi20(.L.str.19)
	addi.d	$a1, $a0, %pc_lo12(.L.str.19)
	move	$a0, $a3
	pcaddu18i	$ra, %call36(fprintf)
	jirl	$ra, $ra, 0
	ld.d	$a0, $fp, 1160
	beqz	$a0, .LBB7_8
# %bb.5:                                # %.lr.ph
	move	$a3, $zero
	move	$s0, $zero
	pcalau12i	$a0, %pc_hi20(.L.str.20)
	addi.d	$s1, $a0, %pc_lo12(.L.str.20)
	.p2align	4, , 16
.LBB7_6:                                # =>This Inner Loop Header: Depth=1
	ld.d	$a0, $fp, 776
	ld.w	$a2, $fp, 620
	ld.w	$a1, $fp, 636
	ld.d	$a4, $fp, 1328
	ld.d	$a6, $fp, 1336
	ld.d	$a7, $fp, 1352
	slli.d	$a3, $a3, 2
	ldx.w	$a5, $a4, $a3
	ldx.w	$a6, $a6, $a3
	ldx.w	$a7, $a7, $a3
	ld.d	$a4, $fp, 1368
	ld.d	$t0, $fp, 1376
	ld.d	$t1, $fp, 1384
	ld.d	$t2, $fp, 1392
	ldx.w	$t3, $a4, $a3
	ldx.w	$t0, $t0, $a3
	ldx.w	$t1, $t1, $a3
	ldx.w	$a3, $t2, $a3
	add.w	$a4, $s0, $a1
	st.d	$a3, $sp, 24
	st.d	$t1, $sp, 16
	st.d	$t0, $sp, 8
	st.d	$t3, $sp, 0
	move	$a1, $s1
	move	$a3, $s0
	pcaddu18i	$ra, %call36(fprintf)
	jirl	$ra, $ra, 0
	ld.d	$a1, $fp, 1160
	addi.w	$s0, $s0, 1
	bstrpick.d	$a3, $s0, 31, 0
	bltu	$a3, $a1, .LBB7_6
# %bb.7:                                # %._crit_edge
	ld.d	$a0, $fp, 1176
	bltu	$a1, $a0, .LBB7_9
	b	.LBB7_11
.LBB7_8:
	move	$a1, $zero
	ld.d	$a0, $fp, 1176
	bgeu	$a1, $a0, .LBB7_11
.LBB7_9:                                # %.lr.ph38
	pcalau12i	$a0, %pc_hi20(.L.str.20)
	addi.d	$s0, $a0, %pc_lo12(.L.str.20)
	move	$s1, $a1
	.p2align	4, , 16
.LBB7_10:                               # =>This Inner Loop Header: Depth=1
	ld.d	$a0, $fp, 776
	ld.w	$a2, $fp, 620
	ld.w	$a3, $fp, 636
	ld.d	$a4, $fp, 1328
	ld.d	$a6, $fp, 1336
	ld.d	$a7, $fp, 1352
	slli.d	$a1, $a1, 2
	ldx.w	$a5, $a4, $a1
	ldx.w	$a6, $a6, $a1
	ldx.w	$a7, $a7, $a1
	ld.d	$a4, $fp, 1368
	ld.d	$t0, $fp, 1376
	ld.d	$t1, $fp, 1384
	ld.d	$t2, $fp, 1392
	ldx.w	$t3, $a4, $a1
	ldx.w	$t0, $t0, $a1
	ldx.w	$t1, $t1, $a1
	ldx.w	$a1, $t2, $a1
	add.w	$a4, $s1, $a3
	st.d	$a1, $sp, 24
	st.d	$t1, $sp, 16
	st.d	$t0, $sp, 8
	addi.w	$a3, $s1, 0
	st.d	$t3, $sp, 0
	move	$a1, $s0
	pcaddu18i	$ra, %call36(fprintf)
	jirl	$ra, $ra, 0
	ld.d	$a0, $fp, 1176
	addi.w	$s1, $s1, 1
	bstrpick.d	$a1, $s1, 31, 0
	bltu	$a1, $a0, .LBB7_10
.LBB7_11:                               # %.loopexit
	ld.d	$s1, $sp, 32                    # 8-byte Folded Reload
	ld.d	$s0, $sp, 40                    # 8-byte Folded Reload
	ld.d	$fp, $sp, 48                    # 8-byte Folded Reload
	ld.d	$ra, $sp, 56                    # 8-byte Folded Reload
	addi.d	$sp, $sp, 64
	ret
.Lfunc_end7:
	.size	_ZN4Mesh11print_localEv, .Lfunc_end7-_ZN4Mesh11print_localEv
	.cfi_endproc
                                        # -- End function
	.globl	_ZN4Mesh41compare_neighbors_cpu_local_to_cpu_globalEjjPS_PiS1_ # -- Begin function _ZN4Mesh41compare_neighbors_cpu_local_to_cpu_globalEjjPS_PiS1_
	.p2align	5
	.type	_ZN4Mesh41compare_neighbors_cpu_local_to_cpu_globalEjjPS_PiS1_,@function
_ZN4Mesh41compare_neighbors_cpu_local_to_cpu_globalEjjPS_PiS1_: # @_ZN4Mesh41compare_neighbors_cpu_local_to_cpu_globalEjjPS_PiS1_
# %bb.0:
	ret
.Lfunc_end8:
	.size	_ZN4Mesh41compare_neighbors_cpu_local_to_cpu_globalEjjPS_PiS1_, .Lfunc_end8-_ZN4Mesh41compare_neighbors_cpu_local_to_cpu_globalEjjPS_PiS1_
                                        # -- End function
	.globl	_ZN4Mesh39compare_indices_cpu_local_to_cpu_globalEjPS_PiS1_i # -- Begin function _ZN4Mesh39compare_indices_cpu_local_to_cpu_globalEjPS_PiS1_i
	.p2align	5
	.type	_ZN4Mesh39compare_indices_cpu_local_to_cpu_globalEjPS_PiS1_i,@function
_ZN4Mesh39compare_indices_cpu_local_to_cpu_globalEjPS_PiS1_i: # @_ZN4Mesh39compare_indices_cpu_local_to_cpu_globalEjPS_PiS1_i
.Lfunc_begin2:
	.cfi_startproc
	.cfi_personality 155, DW.ref.__gxx_personality_v0
	.cfi_lsda 27, .Lexception2
# %bb.0:
	addi.d	$sp, $sp, -144
	.cfi_def_cfa_offset 144
	st.d	$ra, $sp, 136                   # 8-byte Folded Spill
	st.d	$fp, $sp, 128                   # 8-byte Folded Spill
	st.d	$s0, $sp, 120                   # 8-byte Folded Spill
	st.d	$s1, $sp, 112                   # 8-byte Folded Spill
	st.d	$s2, $sp, 104                   # 8-byte Folded Spill
	st.d	$s3, $sp, 96                    # 8-byte Folded Spill
	st.d	$s4, $sp, 88                    # 8-byte Folded Spill
	st.d	$s5, $sp, 80                    # 8-byte Folded Spill
	st.d	$s6, $sp, 72                    # 8-byte Folded Spill
	st.d	$s7, $sp, 64                    # 8-byte Folded Spill
	st.d	$s8, $sp, 56                    # 8-byte Folded Spill
	.cfi_offset 1, -8
	.cfi_offset 22, -16
	.cfi_offset 23, -24
	.cfi_offset 24, -32
	.cfi_offset 25, -40
	.cfi_offset 26, -48
	.cfi_offset 27, -56
	.cfi_offset 28, -64
	.cfi_offset 29, -72
	.cfi_offset 30, -80
	.cfi_offset 31, -88
	beqz	$a1, .LBB9_23
# %bb.1:                                # %.noexc
	move	$s1, $a5
	move	$s5, $a1
	ld.d	$a0, $a2, 1360
	st.d	$a0, $sp, 40                    # 8-byte Folded Spill
	ld.d	$a0, $a2, 1328
	st.d	$a0, $sp, 32                    # 8-byte Folded Spill
	ld.d	$a0, $a2, 1336
	st.d	$a0, $sp, 24                    # 8-byte Folded Spill
	ld.d	$a0, $a2, 1352
	st.d	$a0, $sp, 16                    # 8-byte Folded Spill
	bstrpick.d	$s0, $a1, 31, 0
	slli.d	$s2, $s0, 2
	move	$a0, $s2
	pcaddu18i	$ra, %call36(_Znwm)
	jirl	$ra, $ra, 0
	ori	$a1, $zero, 1
	st.d	$a0, $sp, 48                    # 8-byte Folded Spill
	st.w	$zero, $a0, 0
	beq	$s5, $a1, .LBB9_3
# %bb.2:                                # %_ZSt6fill_nIPimiET_S1_T0_RKT1_.exit.loopexit.i.i.i.i.i
	ld.d	$a0, $sp, 48                    # 8-byte Folded Reload
	addi.d	$a0, $a0, 4
	addi.d	$a2, $s2, -4
	move	$a1, $zero
	pcaddu18i	$ra, %call36(memset)
	jirl	$ra, $ra, 0
.LBB9_3:
.Ltmp20:
	move	$a0, $s2
	pcaddu18i	$ra, %call36(_Znwm)
	jirl	$ra, $ra, 0
.Ltmp21:
# %bb.4:                                # %.noexc59
	move	$s6, $a0
	ori	$a0, $zero, 1
	st.w	$zero, $s6, 0
	beq	$s5, $a0, .LBB9_6
# %bb.5:                                # %_ZSt6fill_nIPimiET_S1_T0_RKT1_.exit.loopexit.i.i.i.i.i56
	addi.d	$a0, $s6, 4
	addi.d	$a2, $s2, -4
	move	$a1, $zero
	pcaddu18i	$ra, %call36(memset)
	jirl	$ra, $ra, 0
.LBB9_6:
.Ltmp23:
	move	$a0, $s2
	pcaddu18i	$ra, %call36(_Znwm)
	jirl	$ra, $ra, 0
.Ltmp24:
# %bb.7:                                # %.noexc65
	move	$s3, $a0
	ori	$a0, $zero, 1
	st.w	$zero, $s3, 0
	beq	$s5, $a0, .LBB9_9
# %bb.8:                                # %_ZSt6fill_nIPimiET_S1_T0_RKT1_.exit.loopexit.i.i.i.i.i62
	addi.d	$a0, $s3, 4
	addi.d	$a2, $s2, -4
	move	$a1, $zero
	pcaddu18i	$ra, %call36(memset)
	jirl	$ra, $ra, 0
.LBB9_9:
.Ltmp26:
	move	$a0, $s2
	pcaddu18i	$ra, %call36(_Znwm)
	jirl	$ra, $ra, 0
.Ltmp27:
# %bb.10:                               # %.noexc71
	move	$s4, $a0
	ori	$a0, $zero, 1
	st.w	$zero, $s4, 0
	beq	$s5, $a0, .LBB9_12
# %bb.11:                               # %_ZSt6fill_nIPimiET_S1_T0_RKT1_.exit.loopexit.i.i.i.i.i68
	addi.d	$a0, $s4, 4
	addi.d	$a2, $s2, -4
	move	$a1, $zero
	pcaddu18i	$ra, %call36(memset)
	jirl	$ra, $ra, 0
.LBB9_12:                               # %.lr.ph.preheader
	st.d	$s2, $sp, 0                     # 8-byte Folded Spill
	move	$s2, $zero
	move	$s5, $zero
	pcalau12i	$a0, %pc_hi20(.L.str.26)
	addi.d	$a0, $a0, %pc_lo12(.L.str.26)
	st.d	$a0, $sp, 8                     # 8-byte Folded Spill
	pcalau12i	$a0, %pc_hi20(.L.str.25)
	addi.d	$s7, $a0, %pc_lo12(.L.str.25)
	pcalau12i	$a0, %pc_hi20(.L.str.24)
	addi.d	$s8, $a0, %pc_lo12(.L.str.24)
	pcalau12i	$a0, %pc_hi20(.L.str.23)
	addi.d	$fp, $a0, %pc_lo12(.L.str.23)
	b	.LBB9_14
	.p2align	4, , 16
.LBB9_13:                               #   in Loop: Header=BB9_14 Depth=1
	addi.w	$s5, $s5, 1
	addi.d	$s0, $s0, -1
	addi.d	$s2, $s2, 4
	beqz	$s0, .LBB9_22
.LBB9_14:                               # %.lr.ph
                                        # =>This Inner Loop Header: Depth=1
	ld.d	$a0, $sp, 40                    # 8-byte Folded Reload
	ldx.w	$a3, $a0, $s2
	ldx.w	$a4, $s4, $s2
	beq	$a3, $a4, .LBB9_16
# %bb.15:                               #   in Loop: Header=BB9_14 Depth=1
	move	$a0, $fp
	move	$a1, $s1
	move	$a2, $s5
	pcaddu18i	$ra, %call36(printf)
	jirl	$ra, $ra, 0
.LBB9_16:                               #   in Loop: Header=BB9_14 Depth=1
	ld.d	$a0, $sp, 32                    # 8-byte Folded Reload
	ldx.w	$a3, $a0, $s2
	ld.d	$a0, $sp, 48                    # 8-byte Folded Reload
	ldx.w	$a4, $a0, $s2
	bne	$a3, $a4, .LBB9_19
# %bb.17:                               #   in Loop: Header=BB9_14 Depth=1
	ld.d	$a0, $sp, 24                    # 8-byte Folded Reload
	ldx.w	$a3, $a0, $s2
	ldx.w	$a4, $s6, $s2
	bne	$a3, $a4, .LBB9_20
.LBB9_18:                               #   in Loop: Header=BB9_14 Depth=1
	ld.d	$a0, $sp, 16                    # 8-byte Folded Reload
	ldx.w	$a3, $a0, $s2
	ldx.w	$a4, $s3, $s2
	beq	$a3, $a4, .LBB9_13
	b	.LBB9_21
	.p2align	4, , 16
.LBB9_19:                               #   in Loop: Header=BB9_14 Depth=1
	move	$a0, $s8
	move	$a1, $s1
	move	$a2, $s5
	pcaddu18i	$ra, %call36(printf)
	jirl	$ra, $ra, 0
	ld.d	$a0, $sp, 24                    # 8-byte Folded Reload
	ldx.w	$a3, $a0, $s2
	ldx.w	$a4, $s6, $s2
	beq	$a3, $a4, .LBB9_18
.LBB9_20:                               #   in Loop: Header=BB9_14 Depth=1
	move	$a0, $s7
	move	$a1, $s1
	move	$a2, $s5
	pcaddu18i	$ra, %call36(printf)
	jirl	$ra, $ra, 0
	ld.d	$a0, $sp, 16                    # 8-byte Folded Reload
	ldx.w	$a3, $a0, $s2
	ldx.w	$a4, $s3, $s2
	beq	$a3, $a4, .LBB9_13
.LBB9_21:                               #   in Loop: Header=BB9_14 Depth=1
	ld.d	$a0, $sp, 8                     # 8-byte Folded Reload
	move	$a1, $s1
	move	$a2, $s5
	pcaddu18i	$ra, %call36(printf)
	jirl	$ra, $ra, 0
	b	.LBB9_13
.LBB9_22:
	move	$a0, $s4
	ld.d	$fp, $sp, 0                     # 8-byte Folded Reload
	move	$a1, $fp
	pcaddu18i	$ra, %call36(_ZdlPvm)
	jirl	$ra, $ra, 0
	move	$a0, $s3
	move	$a1, $fp
	pcaddu18i	$ra, %call36(_ZdlPvm)
	jirl	$ra, $ra, 0
	move	$a0, $s6
	move	$a1, $fp
	pcaddu18i	$ra, %call36(_ZdlPvm)
	jirl	$ra, $ra, 0
	ld.d	$a0, $sp, 48                    # 8-byte Folded Reload
	move	$a1, $fp
	ld.d	$s8, $sp, 56                    # 8-byte Folded Reload
	ld.d	$s7, $sp, 64                    # 8-byte Folded Reload
	ld.d	$s6, $sp, 72                    # 8-byte Folded Reload
	ld.d	$s5, $sp, 80                    # 8-byte Folded Reload
	ld.d	$s4, $sp, 88                    # 8-byte Folded Reload
	ld.d	$s3, $sp, 96                    # 8-byte Folded Reload
	ld.d	$s2, $sp, 104                   # 8-byte Folded Reload
	ld.d	$s1, $sp, 112                   # 8-byte Folded Reload
	ld.d	$s0, $sp, 120                   # 8-byte Folded Reload
	ld.d	$fp, $sp, 128                   # 8-byte Folded Reload
	ld.d	$ra, $sp, 136                   # 8-byte Folded Reload
	addi.d	$sp, $sp, 144
	pcaddu18i	$t8, %call36(_ZdlPvm)
	jr	$t8
.LBB9_23:                               # %_ZNSt6vectorIiSaIiEED2Ev.exit78
	ld.d	$s8, $sp, 56                    # 8-byte Folded Reload
	ld.d	$s7, $sp, 64                    # 8-byte Folded Reload
	ld.d	$s6, $sp, 72                    # 8-byte Folded Reload
	ld.d	$s5, $sp, 80                    # 8-byte Folded Reload
	ld.d	$s4, $sp, 88                    # 8-byte Folded Reload
	ld.d	$s3, $sp, 96                    # 8-byte Folded Reload
	ld.d	$s2, $sp, 104                   # 8-byte Folded Reload
	ld.d	$s1, $sp, 112                   # 8-byte Folded Reload
	ld.d	$s0, $sp, 120                   # 8-byte Folded Reload
	ld.d	$fp, $sp, 128                   # 8-byte Folded Reload
	ld.d	$ra, $sp, 136                   # 8-byte Folded Reload
	addi.d	$sp, $sp, 144
	ret
.LBB9_24:                               # %_ZNSt6vectorIiSaIiEED2Ev.exit80
.Ltmp28:
	move	$fp, $a0
	move	$a0, $s3
	move	$s0, $s2
	move	$a1, $s2
	pcaddu18i	$ra, %call36(_ZdlPvm)
	jirl	$ra, $ra, 0
	b	.LBB9_26
.LBB9_25:
.Ltmp25:
	move	$s0, $s2
	move	$fp, $a0
.LBB9_26:                               # %_ZNSt6vectorIiSaIiEED2Ev.exit82
	move	$a0, $s6
	move	$a1, $s0
	pcaddu18i	$ra, %call36(_ZdlPvm)
	jirl	$ra, $ra, 0
	b	.LBB9_28
.LBB9_27:
.Ltmp22:
	move	$s0, $s2
	move	$fp, $a0
.LBB9_28:                               # %_ZNSt6vectorIiSaIiEED2Ev.exit84
	ld.d	$a0, $sp, 48                    # 8-byte Folded Reload
	move	$a1, $s0
	pcaddu18i	$ra, %call36(_ZdlPvm)
	jirl	$ra, $ra, 0
	move	$a0, $fp
	pcaddu18i	$ra, %call36(_Unwind_Resume)
	jirl	$ra, $ra, 0
.Lfunc_end9:
	.size	_ZN4Mesh39compare_indices_cpu_local_to_cpu_globalEjPS_PiS1_i, .Lfunc_end9-_ZN4Mesh39compare_indices_cpu_local_to_cpu_globalEjPS_PiS1_i
	.cfi_endproc
	.section	.gcc_except_table,"a",@progbits
	.p2align	2, 0x0
GCC_except_table9:
.Lexception2:
	.byte	255                             # @LPStart Encoding = omit
	.byte	255                             # @TType Encoding = omit
	.byte	1                               # Call site Encoding = uleb128
	.uleb128 .Lcst_end2-.Lcst_begin2
.Lcst_begin2:
	.uleb128 .Lfunc_begin2-.Lfunc_begin2    # >> Call Site 1 <<
	.uleb128 .Ltmp20-.Lfunc_begin2          #   Call between .Lfunc_begin2 and .Ltmp20
	.byte	0                               #     has no landing pad
	.byte	0                               #   On action: cleanup
	.uleb128 .Ltmp20-.Lfunc_begin2          # >> Call Site 2 <<
	.uleb128 .Ltmp21-.Ltmp20                #   Call between .Ltmp20 and .Ltmp21
	.uleb128 .Ltmp22-.Lfunc_begin2          #     jumps to .Ltmp22
	.byte	0                               #   On action: cleanup
	.uleb128 .Ltmp21-.Lfunc_begin2          # >> Call Site 3 <<
	.uleb128 .Ltmp23-.Ltmp21                #   Call between .Ltmp21 and .Ltmp23
	.byte	0                               #     has no landing pad
	.byte	0                               #   On action: cleanup
	.uleb128 .Ltmp23-.Lfunc_begin2          # >> Call Site 4 <<
	.uleb128 .Ltmp24-.Ltmp23                #   Call between .Ltmp23 and .Ltmp24
	.uleb128 .Ltmp25-.Lfunc_begin2          #     jumps to .Ltmp25
	.byte	0                               #   On action: cleanup
	.uleb128 .Ltmp24-.Lfunc_begin2          # >> Call Site 5 <<
	.uleb128 .Ltmp26-.Ltmp24                #   Call between .Ltmp24 and .Ltmp26
	.byte	0                               #     has no landing pad
	.byte	0                               #   On action: cleanup
	.uleb128 .Ltmp26-.Lfunc_begin2          # >> Call Site 6 <<
	.uleb128 .Ltmp27-.Ltmp26                #   Call between .Ltmp26 and .Ltmp27
	.uleb128 .Ltmp28-.Lfunc_begin2          #     jumps to .Ltmp28
	.byte	0                               #   On action: cleanup
	.uleb128 .Ltmp27-.Lfunc_begin2          # >> Call Site 7 <<
	.uleb128 .Lfunc_end9-.Ltmp27            #   Call between .Ltmp27 and .Lfunc_end9
	.byte	0                               #     has no landing pad
	.byte	0                               #   On action: cleanup
.Lcst_end2:
	.p2align	2, 0x0
                                        # -- End function
	.section	.rodata.cst8,"aM",@progbits,8
	.p2align	3, 0x0                          # -- Begin function _ZN4Mesh50compare_coordinates_cpu_local_to_cpu_global_doubleEjPiS0_PdS1_S1_S1_S1_S1_S1_S1_S1_S1_i
.LCPI10_0:
	.dword	0x3f9999999999999a              # double 0.025000000000000001
	.text
	.globl	_ZN4Mesh50compare_coordinates_cpu_local_to_cpu_global_doubleEjPiS0_PdS1_S1_S1_S1_S1_S1_S1_S1_S1_i
	.p2align	5
	.type	_ZN4Mesh50compare_coordinates_cpu_local_to_cpu_global_doubleEjPiS0_PdS1_S1_S1_S1_S1_S1_S1_S1_S1_i,@function
_ZN4Mesh50compare_coordinates_cpu_local_to_cpu_global_doubleEjPiS0_PdS1_S1_S1_S1_S1_S1_S1_S1_S1_i: # @_ZN4Mesh50compare_coordinates_cpu_local_to_cpu_global_doubleEjPiS0_PdS1_S1_S1_S1_S1_S1_S1_S1_S1_i
.Lfunc_begin3:
	.cfi_startproc
	.cfi_personality 155, DW.ref.__gxx_personality_v0
	.cfi_lsda 27, .Lexception3
# %bb.0:
	addi.d	$sp, $sp, -176
	.cfi_def_cfa_offset 176
	st.d	$ra, $sp, 168                   # 8-byte Folded Spill
	st.d	$fp, $sp, 160                   # 8-byte Folded Spill
	st.d	$s0, $sp, 152                   # 8-byte Folded Spill
	st.d	$s1, $sp, 144                   # 8-byte Folded Spill
	st.d	$s2, $sp, 136                   # 8-byte Folded Spill
	st.d	$s3, $sp, 128                   # 8-byte Folded Spill
	st.d	$s4, $sp, 120                   # 8-byte Folded Spill
	st.d	$s5, $sp, 112                   # 8-byte Folded Spill
	st.d	$s6, $sp, 104                   # 8-byte Folded Spill
	st.d	$s7, $sp, 96                    # 8-byte Folded Spill
	st.d	$s8, $sp, 88                    # 8-byte Folded Spill
	fst.d	$fs0, $sp, 80                   # 8-byte Folded Spill
	.cfi_offset 1, -8
	.cfi_offset 22, -16
	.cfi_offset 23, -24
	.cfi_offset 24, -32
	.cfi_offset 25, -40
	.cfi_offset 26, -48
	.cfi_offset 27, -56
	.cfi_offset 28, -64
	.cfi_offset 29, -72
	.cfi_offset 30, -80
	.cfi_offset 31, -88
	.cfi_offset 56, -96
	beqz	$a1, .LBB10_28
# %bb.1:                                # %.noexc
	move	$s6, $a1
	ld.d	$s2, $sp, 224
	ld.d	$a0, $sp, 216
	st.d	$a0, $sp, 64                    # 8-byte Folded Spill
	ld.d	$a0, $sp, 208
	st.d	$a0, $sp, 56                    # 8-byte Folded Spill
	ld.d	$a0, $sp, 200
	st.d	$a0, $sp, 48                    # 8-byte Folded Spill
	ld.d	$a0, $sp, 192
	st.d	$a0, $sp, 40                    # 8-byte Folded Spill
	ld.d	$a0, $sp, 184
	st.d	$a0, $sp, 32                    # 8-byte Folded Spill
	bstrpick.d	$s7, $a1, 31, 0
	slli.d	$s8, $s7, 3
	move	$a0, $s8
	pcaddu18i	$ra, %call36(_Znwm)
	jirl	$ra, $ra, 0
	ori	$a1, $zero, 1
	st.d	$a0, $sp, 72                    # 8-byte Folded Spill
	st.d	$zero, $a0, 0
	beq	$s6, $a1, .LBB10_3
# %bb.2:                                # %_ZSt6fill_nIPdmdET_S1_T0_RKT1_.exit.loopexit.i.i.i.i.i
	ld.d	$a0, $sp, 72                    # 8-byte Folded Reload
	addi.d	$a0, $a0, 8
	addi.d	$a2, $s8, -8
	move	$a1, $zero
	pcaddu18i	$ra, %call36(memset)
	jirl	$ra, $ra, 0
.LBB10_3:
.Ltmp29:
	move	$a0, $s8
	pcaddu18i	$ra, %call36(_Znwm)
	jirl	$ra, $ra, 0
.Ltmp30:
# %bb.4:                                # %.noexc63
	move	$s0, $a0
	ori	$a0, $zero, 1
	st.d	$zero, $s0, 0
	beq	$s6, $a0, .LBB10_6
# %bb.5:                                # %_ZSt6fill_nIPdmdET_S1_T0_RKT1_.exit.loopexit.i.i.i.i.i60
	addi.d	$a0, $s0, 8
	addi.d	$a2, $s8, -8
	move	$a1, $zero
	pcaddu18i	$ra, %call36(memset)
	jirl	$ra, $ra, 0
.LBB10_6:
.Ltmp32:
	move	$a0, $s8
	pcaddu18i	$ra, %call36(_Znwm)
	jirl	$ra, $ra, 0
.Ltmp33:
# %bb.7:                                # %.noexc69
	move	$s3, $a0
	ori	$a0, $zero, 1
	st.d	$zero, $s3, 0
	beq	$s6, $a0, .LBB10_9
# %bb.8:                                # %_ZSt6fill_nIPdmdET_S1_T0_RKT1_.exit.loopexit.i.i.i.i.i66
	addi.d	$a0, $s3, 8
	addi.d	$a2, $s8, -8
	move	$a1, $zero
	pcaddu18i	$ra, %call36(memset)
	jirl	$ra, $ra, 0
.LBB10_9:
.Ltmp35:
	move	$a0, $s8
	pcaddu18i	$ra, %call36(_Znwm)
	jirl	$ra, $ra, 0
.Ltmp36:
# %bb.10:                               # %.noexc75
	move	$s4, $a0
	ori	$a0, $zero, 1
	st.d	$zero, $s4, 0
	beq	$s6, $a0, .LBB10_12
# %bb.11:                               # %_ZSt6fill_nIPdmdET_S1_T0_RKT1_.exit.loopexit.i.i.i.i.i72
	addi.d	$a0, $s4, 8
	addi.d	$a2, $s8, -8
	move	$a1, $zero
	pcaddu18i	$ra, %call36(memset)
	jirl	$ra, $ra, 0
.LBB10_12:
.Ltmp38:
	move	$a0, $s8
	pcaddu18i	$ra, %call36(_Znwm)
	jirl	$ra, $ra, 0
.Ltmp39:
# %bb.13:                               # %.noexc81
	move	$s5, $a0
	ori	$a0, $zero, 1
	st.d	$zero, $s5, 0
	beq	$s6, $a0, .LBB10_15
# %bb.14:                               # %_ZSt6fill_nIPdmdET_S1_T0_RKT1_.exit.loopexit.i.i.i.i.i78
	addi.d	$a0, $s5, 8
	addi.d	$a2, $s8, -8
	move	$a1, $zero
	pcaddu18i	$ra, %call36(memset)
	jirl	$ra, $ra, 0
.LBB10_15:                              # %.lr.ph.preheader
	st.d	$s8, $sp, 0                     # 8-byte Folded Spill
	move	$s8, $zero
	move	$s6, $zero
	pcalau12i	$a0, %pc_hi20(.LCPI10_0)
	fld.d	$fs0, $a0, %pc_lo12(.LCPI10_0)
	pcalau12i	$a0, %pc_hi20(.L.str.27)
	addi.d	$a0, $a0, %pc_lo12(.L.str.27)
	st.d	$a0, $sp, 24                    # 8-byte Folded Spill
	pcalau12i	$a0, %pc_hi20(.L.str.28)
	addi.d	$a0, $a0, %pc_lo12(.L.str.28)
	st.d	$a0, $sp, 16                    # 8-byte Folded Spill
	pcalau12i	$a0, %pc_hi20(.L.str.29)
	addi.d	$a0, $a0, %pc_lo12(.L.str.29)
	st.d	$a0, $sp, 8                     # 8-byte Folded Spill
	pcalau12i	$a0, %pc_hi20(.L.str.30)
	addi.d	$fp, $a0, %pc_lo12(.L.str.30)
	pcalau12i	$a0, %pc_hi20(.L.str.31)
	addi.d	$s1, $a0, %pc_lo12(.L.str.31)
	b	.LBB10_17
	.p2align	4, , 16
.LBB10_16:                              #   in Loop: Header=BB10_17 Depth=1
	addi.w	$s6, $s6, 1
	addi.d	$s7, $s7, -1
	addi.d	$s8, $s8, 8
	beqz	$s7, .LBB10_27
.LBB10_17:                              # %.lr.ph
                                        # =>This Inner Loop Header: Depth=1
	ld.d	$a0, $sp, 32                    # 8-byte Folded Reload
	fldx.d	$fa0, $a0, $s8
	ld.d	$a0, $sp, 72                    # 8-byte Folded Reload
	fldx.d	$fa1, $a0, $s8
	fsub.d	$fa2, $fa0, $fa1
	fabs.d	$fa2, $fa2
	fcmp.cule.d	$fcc0, $fa2, $fs0
	bcnez	$fcc0, .LBB10_19
# %bb.18:                               #   in Loop: Header=BB10_17 Depth=1
	movfr2gr.d	$a3, $fa0
	movfr2gr.d	$a4, $fa1
	ld.d	$a0, $sp, 24                    # 8-byte Folded Reload
	move	$a1, $s2
	move	$a2, $s6
	pcaddu18i	$ra, %call36(printf)
	jirl	$ra, $ra, 0
.LBB10_19:                              #   in Loop: Header=BB10_17 Depth=1
	ld.d	$a0, $sp, 40                    # 8-byte Folded Reload
	fldx.d	$fa0, $a0, $s8
	fldx.d	$fa1, $s0, $s8
	fsub.d	$fa2, $fa0, $fa1
	fabs.d	$fa2, $fa2
	fcmp.cule.d	$fcc0, $fa2, $fs0
	bcnez	$fcc0, .LBB10_21
# %bb.20:                               #   in Loop: Header=BB10_17 Depth=1
	movfr2gr.d	$a3, $fa0
	movfr2gr.d	$a4, $fa1
	ld.d	$a0, $sp, 16                    # 8-byte Folded Reload
	move	$a1, $s2
	move	$a2, $s6
	pcaddu18i	$ra, %call36(printf)
	jirl	$ra, $ra, 0
.LBB10_21:                              #   in Loop: Header=BB10_17 Depth=1
	ld.d	$a0, $sp, 48                    # 8-byte Folded Reload
	fldx.d	$fa0, $a0, $s8
	fldx.d	$fa1, $s3, $s8
	fsub.d	$fa2, $fa0, $fa1
	fabs.d	$fa2, $fa2
	fcmp.cule.d	$fcc0, $fa2, $fs0
	bcnez	$fcc0, .LBB10_23
# %bb.22:                               #   in Loop: Header=BB10_17 Depth=1
	movfr2gr.d	$a3, $fa0
	movfr2gr.d	$a4, $fa1
	ld.d	$a0, $sp, 8                     # 8-byte Folded Reload
	move	$a1, $s2
	move	$a2, $s6
	pcaddu18i	$ra, %call36(printf)
	jirl	$ra, $ra, 0
.LBB10_23:                              #   in Loop: Header=BB10_17 Depth=1
	ld.d	$a0, $sp, 56                    # 8-byte Folded Reload
	fldx.d	$fa0, $a0, $s8
	fldx.d	$fa1, $s4, $s8
	fsub.d	$fa2, $fa0, $fa1
	fabs.d	$fa2, $fa2
	fcmp.cule.d	$fcc0, $fa2, $fs0
	bcnez	$fcc0, .LBB10_25
# %bb.24:                               #   in Loop: Header=BB10_17 Depth=1
	movfr2gr.d	$a3, $fa0
	movfr2gr.d	$a4, $fa1
	move	$a0, $fp
	move	$a1, $s2
	move	$a2, $s6
	pcaddu18i	$ra, %call36(printf)
	jirl	$ra, $ra, 0
.LBB10_25:                              #   in Loop: Header=BB10_17 Depth=1
	ld.d	$a0, $sp, 64                    # 8-byte Folded Reload
	fldx.d	$fa0, $a0, $s8
	fldx.d	$fa1, $s5, $s8
	fsub.d	$fa2, $fa0, $fa1
	fabs.d	$fa2, $fa2
	fcmp.cule.d	$fcc0, $fa2, $fs0
	bcnez	$fcc0, .LBB10_16
# %bb.26:                               #   in Loop: Header=BB10_17 Depth=1
	movfr2gr.d	$a3, $fa0
	movfr2gr.d	$a4, $fa1
	move	$a0, $s1
	move	$a1, $s2
	move	$a2, $s6
	pcaddu18i	$ra, %call36(printf)
	jirl	$ra, $ra, 0
	b	.LBB10_16
.LBB10_27:
	move	$a0, $s5
	ld.d	$fp, $sp, 0                     # 8-byte Folded Reload
	move	$a1, $fp
	pcaddu18i	$ra, %call36(_ZdlPvm)
	jirl	$ra, $ra, 0
	move	$a0, $s4
	move	$a1, $fp
	pcaddu18i	$ra, %call36(_ZdlPvm)
	jirl	$ra, $ra, 0
	move	$a0, $s3
	move	$a1, $fp
	pcaddu18i	$ra, %call36(_ZdlPvm)
	jirl	$ra, $ra, 0
	move	$a0, $s0
	move	$a1, $fp
	pcaddu18i	$ra, %call36(_ZdlPvm)
	jirl	$ra, $ra, 0
	ld.d	$a0, $sp, 72                    # 8-byte Folded Reload
	move	$a1, $fp
	fld.d	$fs0, $sp, 80                   # 8-byte Folded Reload
	ld.d	$s8, $sp, 88                    # 8-byte Folded Reload
	ld.d	$s7, $sp, 96                    # 8-byte Folded Reload
	ld.d	$s6, $sp, 104                   # 8-byte Folded Reload
	ld.d	$s5, $sp, 112                   # 8-byte Folded Reload
	ld.d	$s4, $sp, 120                   # 8-byte Folded Reload
	ld.d	$s3, $sp, 128                   # 8-byte Folded Reload
	ld.d	$s2, $sp, 136                   # 8-byte Folded Reload
	ld.d	$s1, $sp, 144                   # 8-byte Folded Reload
	ld.d	$s0, $sp, 152                   # 8-byte Folded Reload
	ld.d	$fp, $sp, 160                   # 8-byte Folded Reload
	ld.d	$ra, $sp, 168                   # 8-byte Folded Reload
	addi.d	$sp, $sp, 176
	pcaddu18i	$t8, %call36(_ZdlPvm)
	jr	$t8
.LBB10_28:                              # %_ZNSt6vectorIdSaIdEED2Ev.exit90
	fld.d	$fs0, $sp, 80                   # 8-byte Folded Reload
	ld.d	$s8, $sp, 88                    # 8-byte Folded Reload
	ld.d	$s7, $sp, 96                    # 8-byte Folded Reload
	ld.d	$s6, $sp, 104                   # 8-byte Folded Reload
	ld.d	$s5, $sp, 112                   # 8-byte Folded Reload
	ld.d	$s4, $sp, 120                   # 8-byte Folded Reload
	ld.d	$s3, $sp, 128                   # 8-byte Folded Reload
	ld.d	$s2, $sp, 136                   # 8-byte Folded Reload
	ld.d	$s1, $sp, 144                   # 8-byte Folded Reload
	ld.d	$s0, $sp, 152                   # 8-byte Folded Reload
	ld.d	$fp, $sp, 160                   # 8-byte Folded Reload
	ld.d	$ra, $sp, 168                   # 8-byte Folded Reload
	addi.d	$sp, $sp, 176
	ret
.LBB10_29:                              # %_ZNSt6vectorIdSaIdEED2Ev.exit92
.Ltmp40:
	move	$fp, $a0
	move	$a0, $s4
	move	$s1, $s8
	move	$a1, $s8
	pcaddu18i	$ra, %call36(_ZdlPvm)
	jirl	$ra, $ra, 0
	b	.LBB10_31
.LBB10_30:
.Ltmp37:
	move	$s1, $s8
	move	$fp, $a0
.LBB10_31:                              # %_ZNSt6vectorIdSaIdEED2Ev.exit94
	move	$a0, $s3
	move	$a1, $s1
	pcaddu18i	$ra, %call36(_ZdlPvm)
	jirl	$ra, $ra, 0
	b	.LBB10_33
.LBB10_32:
.Ltmp34:
	move	$s1, $s8
	move	$fp, $a0
.LBB10_33:                              # %_ZNSt6vectorIdSaIdEED2Ev.exit96
	move	$a0, $s0
	move	$a1, $s1
	pcaddu18i	$ra, %call36(_ZdlPvm)
	jirl	$ra, $ra, 0
	b	.LBB10_35
.LBB10_34:
.Ltmp31:
	move	$s1, $s8
	move	$fp, $a0
.LBB10_35:                              # %_ZNSt6vectorIdSaIdEED2Ev.exit98
	ld.d	$a0, $sp, 72                    # 8-byte Folded Reload
	move	$a1, $s1
	pcaddu18i	$ra, %call36(_ZdlPvm)
	jirl	$ra, $ra, 0
	move	$a0, $fp
	pcaddu18i	$ra, %call36(_Unwind_Resume)
	jirl	$ra, $ra, 0
.Lfunc_end10:
	.size	_ZN4Mesh50compare_coordinates_cpu_local_to_cpu_global_doubleEjPiS0_PdS1_S1_S1_S1_S1_S1_S1_S1_S1_i, .Lfunc_end10-_ZN4Mesh50compare_coordinates_cpu_local_to_cpu_global_doubleEjPiS0_PdS1_S1_S1_S1_S1_S1_S1_S1_S1_i
	.cfi_endproc
	.section	.gcc_except_table,"a",@progbits
	.p2align	2, 0x0
GCC_except_table10:
.Lexception3:
	.byte	255                             # @LPStart Encoding = omit
	.byte	255                             # @TType Encoding = omit
	.byte	1                               # Call site Encoding = uleb128
	.uleb128 .Lcst_end3-.Lcst_begin3
.Lcst_begin3:
	.uleb128 .Lfunc_begin3-.Lfunc_begin3    # >> Call Site 1 <<
	.uleb128 .Ltmp29-.Lfunc_begin3          #   Call between .Lfunc_begin3 and .Ltmp29
	.byte	0                               #     has no landing pad
	.byte	0                               #   On action: cleanup
	.uleb128 .Ltmp29-.Lfunc_begin3          # >> Call Site 2 <<
	.uleb128 .Ltmp30-.Ltmp29                #   Call between .Ltmp29 and .Ltmp30
	.uleb128 .Ltmp31-.Lfunc_begin3          #     jumps to .Ltmp31
	.byte	0                               #   On action: cleanup
	.uleb128 .Ltmp30-.Lfunc_begin3          # >> Call Site 3 <<
	.uleb128 .Ltmp32-.Ltmp30                #   Call between .Ltmp30 and .Ltmp32
	.byte	0                               #     has no landing pad
	.byte	0                               #   On action: cleanup
	.uleb128 .Ltmp32-.Lfunc_begin3          # >> Call Site 4 <<
	.uleb128 .Ltmp33-.Ltmp32                #   Call between .Ltmp32 and .Ltmp33
	.uleb128 .Ltmp34-.Lfunc_begin3          #     jumps to .Ltmp34
	.byte	0                               #   On action: cleanup
	.uleb128 .Ltmp33-.Lfunc_begin3          # >> Call Site 5 <<
	.uleb128 .Ltmp35-.Ltmp33                #   Call between .Ltmp33 and .Ltmp35
	.byte	0                               #     has no landing pad
	.byte	0                               #   On action: cleanup
	.uleb128 .Ltmp35-.Lfunc_begin3          # >> Call Site 6 <<
	.uleb128 .Ltmp36-.Ltmp35                #   Call between .Ltmp35 and .Ltmp36
	.uleb128 .Ltmp37-.Lfunc_begin3          #     jumps to .Ltmp37
	.byte	0                               #   On action: cleanup
	.uleb128 .Ltmp36-.Lfunc_begin3          # >> Call Site 7 <<
	.uleb128 .Ltmp38-.Ltmp36                #   Call between .Ltmp36 and .Ltmp38
	.byte	0                               #     has no landing pad
	.byte	0                               #   On action: cleanup
	.uleb128 .Ltmp38-.Lfunc_begin3          # >> Call Site 8 <<
	.uleb128 .Ltmp39-.Ltmp38                #   Call between .Ltmp38 and .Ltmp39
	.uleb128 .Ltmp40-.Lfunc_begin3          #     jumps to .Ltmp40
	.byte	0                               #   On action: cleanup
	.uleb128 .Ltmp39-.Lfunc_begin3          # >> Call Site 9 <<
	.uleb128 .Lfunc_end10-.Ltmp39           #   Call between .Ltmp39 and .Lfunc_end10
	.byte	0                               #     has no landing pad
	.byte	0                               #   On action: cleanup
.Lcst_end3:
	.p2align	2, 0x0
                                        # -- End function
	.section	.rodata.cst8,"aM",@progbits,8
	.p2align	3, 0x0                          # -- Begin function _ZN4Mesh49compare_coordinates_cpu_local_to_cpu_global_floatEjPiS0_PdS1_S1_S1_PfS1_S1_S1_S1_S2_i
.LCPI11_0:
	.dword	0x3f9999999999999a              # double 0.025000000000000001
	.text
	.globl	_ZN4Mesh49compare_coordinates_cpu_local_to_cpu_global_floatEjPiS0_PdS1_S1_S1_PfS1_S1_S1_S1_S2_i
	.p2align	5
	.type	_ZN4Mesh49compare_coordinates_cpu_local_to_cpu_global_floatEjPiS0_PdS1_S1_S1_PfS1_S1_S1_S1_S2_i,@function
_ZN4Mesh49compare_coordinates_cpu_local_to_cpu_global_floatEjPiS0_PdS1_S1_S1_PfS1_S1_S1_S1_S2_i: # @_ZN4Mesh49compare_coordinates_cpu_local_to_cpu_global_floatEjPiS0_PdS1_S1_S1_PfS1_S1_S1_S1_S2_i
.Lfunc_begin4:
	.cfi_startproc
	.cfi_personality 155, DW.ref.__gxx_personality_v0
	.cfi_lsda 27, .Lexception4
# %bb.0:
	addi.d	$sp, $sp, -192
	.cfi_def_cfa_offset 192
	st.d	$ra, $sp, 184                   # 8-byte Folded Spill
	st.d	$fp, $sp, 176                   # 8-byte Folded Spill
	st.d	$s0, $sp, 168                   # 8-byte Folded Spill
	st.d	$s1, $sp, 160                   # 8-byte Folded Spill
	st.d	$s2, $sp, 152                   # 8-byte Folded Spill
	st.d	$s3, $sp, 144                   # 8-byte Folded Spill
	st.d	$s4, $sp, 136                   # 8-byte Folded Spill
	st.d	$s5, $sp, 128                   # 8-byte Folded Spill
	st.d	$s6, $sp, 120                   # 8-byte Folded Spill
	st.d	$s7, $sp, 112                   # 8-byte Folded Spill
	st.d	$s8, $sp, 104                   # 8-byte Folded Spill
	fst.d	$fs0, $sp, 96                   # 8-byte Folded Spill
	.cfi_offset 1, -8
	.cfi_offset 22, -16
	.cfi_offset 23, -24
	.cfi_offset 24, -32
	.cfi_offset 25, -40
	.cfi_offset 26, -48
	.cfi_offset 27, -56
	.cfi_offset 28, -64
	.cfi_offset 29, -72
	.cfi_offset 30, -80
	.cfi_offset 31, -88
	.cfi_offset 56, -96
	beqz	$a1, .LBB11_28
# %bb.1:                                # %.noexc
	move	$s7, $a1
	ld.d	$s2, $sp, 240
	ld.d	$a0, $sp, 232
	st.d	$a0, $sp, 80                    # 8-byte Folded Spill
	ld.d	$a0, $sp, 224
	st.d	$a0, $sp, 72                    # 8-byte Folded Spill
	ld.d	$a0, $sp, 216
	st.d	$a0, $sp, 64                    # 8-byte Folded Spill
	ld.d	$a0, $sp, 208
	st.d	$a0, $sp, 56                    # 8-byte Folded Spill
	ld.d	$a0, $sp, 200
	st.d	$a0, $sp, 48                    # 8-byte Folded Spill
	bstrpick.d	$s8, $a1, 31, 0
	slli.d	$s5, $s8, 3
	move	$a0, $s5
	pcaddu18i	$ra, %call36(_Znwm)
	jirl	$ra, $ra, 0
	ori	$a1, $zero, 1
	st.d	$a0, $sp, 88                    # 8-byte Folded Spill
	st.d	$zero, $a0, 0
	beq	$s7, $a1, .LBB11_3
# %bb.2:                                # %_ZSt6fill_nIPdmdET_S1_T0_RKT1_.exit.loopexit.i.i.i.i.i
	ld.d	$a0, $sp, 88                    # 8-byte Folded Reload
	addi.d	$a0, $a0, 8
	addi.d	$a2, $s5, -8
	move	$a1, $zero
	pcaddu18i	$ra, %call36(memset)
	jirl	$ra, $ra, 0
.LBB11_3:
.Ltmp41:
	move	$a0, $s5
	pcaddu18i	$ra, %call36(_Znwm)
	jirl	$ra, $ra, 0
.Ltmp42:
# %bb.4:                                # %.noexc63
	move	$s0, $a0
	ori	$a0, $zero, 1
	st.d	$zero, $s0, 0
	beq	$s7, $a0, .LBB11_6
# %bb.5:                                # %_ZSt6fill_nIPdmdET_S1_T0_RKT1_.exit.loopexit.i.i.i.i.i60
	addi.d	$a0, $s0, 8
	addi.d	$a2, $s5, -8
	move	$a1, $zero
	pcaddu18i	$ra, %call36(memset)
	jirl	$ra, $ra, 0
.LBB11_6:
.Ltmp44:
	move	$a0, $s5
	pcaddu18i	$ra, %call36(_Znwm)
	jirl	$ra, $ra, 0
.Ltmp45:
# %bb.7:                                # %.noexc69
	move	$s3, $a0
	ori	$a0, $zero, 1
	st.d	$zero, $s3, 0
	beq	$s7, $a0, .LBB11_9
# %bb.8:                                # %_ZSt6fill_nIPdmdET_S1_T0_RKT1_.exit.loopexit.i.i.i.i.i66
	addi.d	$a0, $s3, 8
	addi.d	$a2, $s5, -8
	move	$a1, $zero
	pcaddu18i	$ra, %call36(memset)
	jirl	$ra, $ra, 0
.LBB11_9:
.Ltmp47:
	move	$a0, $s5
	pcaddu18i	$ra, %call36(_Znwm)
	jirl	$ra, $ra, 0
.Ltmp48:
# %bb.10:                               # %.noexc75
	move	$s4, $a0
	ori	$a0, $zero, 1
	st.d	$zero, $s4, 0
	beq	$s7, $a0, .LBB11_12
# %bb.11:                               # %_ZSt6fill_nIPdmdET_S1_T0_RKT1_.exit.loopexit.i.i.i.i.i72
	addi.d	$a0, $s4, 8
	addi.d	$a2, $s5, -8
	move	$a1, $zero
	pcaddu18i	$ra, %call36(memset)
	jirl	$ra, $ra, 0
.LBB11_12:
	slli.d	$fp, $s8, 2
.Ltmp50:
	move	$a0, $fp
	pcaddu18i	$ra, %call36(_Znwm)
	jirl	$ra, $ra, 0
.Ltmp51:
# %bb.13:                               # %.noexc79
	move	$s6, $a0
	st.d	$s5, $sp, 8                     # 8-byte Folded Spill
	ori	$a0, $zero, 1
	st.w	$zero, $s6, 0
	beq	$s7, $a0, .LBB11_15
# %bb.14:                               # %_ZSt6fill_nIPfmfET_S1_T0_RKT1_.exit.loopexit.i.i.i.i.i
	addi.d	$a0, $s6, 4
	addi.d	$a2, $fp, -4
	move	$a1, $zero
	pcaddu18i	$ra, %call36(memset)
	jirl	$ra, $ra, 0
.LBB11_15:                              # %.lr.ph.preheader
	st.d	$fp, $sp, 0                     # 8-byte Folded Spill
	move	$s5, $zero
	move	$fp, $zero
	move	$s7, $zero
	pcalau12i	$a0, %pc_hi20(.LCPI11_0)
	fld.d	$fs0, $a0, %pc_lo12(.LCPI11_0)
	pcalau12i	$a0, %pc_hi20(.L.str.27)
	addi.d	$a0, $a0, %pc_lo12(.L.str.27)
	st.d	$a0, $sp, 40                    # 8-byte Folded Spill
	pcalau12i	$a0, %pc_hi20(.L.str.28)
	addi.d	$a0, $a0, %pc_lo12(.L.str.28)
	st.d	$a0, $sp, 32                    # 8-byte Folded Spill
	pcalau12i	$a0, %pc_hi20(.L.str.29)
	addi.d	$a0, $a0, %pc_lo12(.L.str.29)
	st.d	$a0, $sp, 24                    # 8-byte Folded Spill
	pcalau12i	$a0, %pc_hi20(.L.str.30)
	addi.d	$a0, $a0, %pc_lo12(.L.str.30)
	st.d	$a0, $sp, 16                    # 8-byte Folded Spill
	pcalau12i	$a0, %pc_hi20(.L.str.31)
	addi.d	$s1, $a0, %pc_lo12(.L.str.31)
	b	.LBB11_17
	.p2align	4, , 16
.LBB11_16:                              #   in Loop: Header=BB11_17 Depth=1
	addi.w	$s7, $s7, 1
	addi.d	$fp, $fp, 8
	addi.d	$s8, $s8, -1
	addi.d	$s5, $s5, 4
	beqz	$s8, .LBB11_27
.LBB11_17:                              # %.lr.ph
                                        # =>This Inner Loop Header: Depth=1
	ld.d	$a0, $sp, 48                    # 8-byte Folded Reload
	fldx.d	$fa0, $a0, $fp
	ld.d	$a0, $sp, 88                    # 8-byte Folded Reload
	fldx.d	$fa1, $a0, $fp
	fsub.d	$fa2, $fa0, $fa1
	fabs.d	$fa2, $fa2
	fcmp.cule.d	$fcc0, $fa2, $fs0
	bcnez	$fcc0, .LBB11_19
# %bb.18:                               #   in Loop: Header=BB11_17 Depth=1
	movfr2gr.d	$a3, $fa0
	movfr2gr.d	$a4, $fa1
	ld.d	$a0, $sp, 40                    # 8-byte Folded Reload
	move	$a1, $s2
	move	$a2, $s7
	pcaddu18i	$ra, %call36(printf)
	jirl	$ra, $ra, 0
.LBB11_19:                              #   in Loop: Header=BB11_17 Depth=1
	ld.d	$a0, $sp, 56                    # 8-byte Folded Reload
	fldx.d	$fa0, $a0, $fp
	fldx.d	$fa1, $s0, $fp
	fsub.d	$fa2, $fa0, $fa1
	fabs.d	$fa2, $fa2
	fcmp.cule.d	$fcc0, $fa2, $fs0
	bcnez	$fcc0, .LBB11_21
# %bb.20:                               #   in Loop: Header=BB11_17 Depth=1
	movfr2gr.d	$a3, $fa0
	movfr2gr.d	$a4, $fa1
	ld.d	$a0, $sp, 32                    # 8-byte Folded Reload
	move	$a1, $s2
	move	$a2, $s7
	pcaddu18i	$ra, %call36(printf)
	jirl	$ra, $ra, 0
.LBB11_21:                              #   in Loop: Header=BB11_17 Depth=1
	ld.d	$a0, $sp, 64                    # 8-byte Folded Reload
	fldx.d	$fa0, $a0, $fp
	fldx.d	$fa1, $s3, $fp
	fsub.d	$fa2, $fa0, $fa1
	fabs.d	$fa2, $fa2
	fcmp.cule.d	$fcc0, $fa2, $fs0
	bcnez	$fcc0, .LBB11_23
# %bb.22:                               #   in Loop: Header=BB11_17 Depth=1
	movfr2gr.d	$a3, $fa0
	movfr2gr.d	$a4, $fa1
	ld.d	$a0, $sp, 24                    # 8-byte Folded Reload
	move	$a1, $s2
	move	$a2, $s7
	pcaddu18i	$ra, %call36(printf)
	jirl	$ra, $ra, 0
.LBB11_23:                              #   in Loop: Header=BB11_17 Depth=1
	ld.d	$a0, $sp, 72                    # 8-byte Folded Reload
	fldx.d	$fa0, $a0, $fp
	fldx.d	$fa1, $s4, $fp
	fsub.d	$fa2, $fa0, $fa1
	fabs.d	$fa2, $fa2
	fcmp.cule.d	$fcc0, $fa2, $fs0
	bcnez	$fcc0, .LBB11_25
# %bb.24:                               #   in Loop: Header=BB11_17 Depth=1
	movfr2gr.d	$a3, $fa0
	movfr2gr.d	$a4, $fa1
	ld.d	$a0, $sp, 16                    # 8-byte Folded Reload
	move	$a1, $s2
	move	$a2, $s7
	pcaddu18i	$ra, %call36(printf)
	jirl	$ra, $ra, 0
.LBB11_25:                              #   in Loop: Header=BB11_17 Depth=1
	ld.d	$a0, $sp, 80                    # 8-byte Folded Reload
	fldx.s	$fa0, $a0, $s5
	fldx.s	$fa1, $s6, $s5
	fsub.s	$fa2, $fa0, $fa1
	fabs.s	$fa2, $fa2
	fcvt.d.s	$fa2, $fa2
	fcmp.cule.d	$fcc0, $fa2, $fs0
	bcnez	$fcc0, .LBB11_16
# %bb.26:                               #   in Loop: Header=BB11_17 Depth=1
	fcvt.d.s	$fa0, $fa0
	fcvt.d.s	$fa1, $fa1
	movfr2gr.d	$a3, $fa0
	movfr2gr.d	$a4, $fa1
	move	$a0, $s1
	move	$a1, $s2
	move	$a2, $s7
	pcaddu18i	$ra, %call36(printf)
	jirl	$ra, $ra, 0
	b	.LBB11_16
.LBB11_27:
	move	$a0, $s6
	ld.d	$a1, $sp, 0                     # 8-byte Folded Reload
	pcaddu18i	$ra, %call36(_ZdlPvm)
	jirl	$ra, $ra, 0
	move	$a0, $s4
	ld.d	$fp, $sp, 8                     # 8-byte Folded Reload
	move	$a1, $fp
	pcaddu18i	$ra, %call36(_ZdlPvm)
	jirl	$ra, $ra, 0
	move	$a0, $s3
	move	$a1, $fp
	pcaddu18i	$ra, %call36(_ZdlPvm)
	jirl	$ra, $ra, 0
	move	$a0, $s0
	move	$a1, $fp
	pcaddu18i	$ra, %call36(_ZdlPvm)
	jirl	$ra, $ra, 0
	ld.d	$a0, $sp, 88                    # 8-byte Folded Reload
	move	$a1, $fp
	fld.d	$fs0, $sp, 96                   # 8-byte Folded Reload
	ld.d	$s8, $sp, 104                   # 8-byte Folded Reload
	ld.d	$s7, $sp, 112                   # 8-byte Folded Reload
	ld.d	$s6, $sp, 120                   # 8-byte Folded Reload
	ld.d	$s5, $sp, 128                   # 8-byte Folded Reload
	ld.d	$s4, $sp, 136                   # 8-byte Folded Reload
	ld.d	$s3, $sp, 144                   # 8-byte Folded Reload
	ld.d	$s2, $sp, 152                   # 8-byte Folded Reload
	ld.d	$s1, $sp, 160                   # 8-byte Folded Reload
	ld.d	$s0, $sp, 168                   # 8-byte Folded Reload
	ld.d	$fp, $sp, 176                   # 8-byte Folded Reload
	ld.d	$ra, $sp, 184                   # 8-byte Folded Reload
	addi.d	$sp, $sp, 192
	pcaddu18i	$t8, %call36(_ZdlPvm)
	jr	$t8
.LBB11_28:                              # %_ZNSt6vectorIdSaIdEED2Ev.exit86
	fld.d	$fs0, $sp, 96                   # 8-byte Folded Reload
	ld.d	$s8, $sp, 104                   # 8-byte Folded Reload
	ld.d	$s7, $sp, 112                   # 8-byte Folded Reload
	ld.d	$s6, $sp, 120                   # 8-byte Folded Reload
	ld.d	$s5, $sp, 128                   # 8-byte Folded Reload
	ld.d	$s4, $sp, 136                   # 8-byte Folded Reload
	ld.d	$s3, $sp, 144                   # 8-byte Folded Reload
	ld.d	$s2, $sp, 152                   # 8-byte Folded Reload
	ld.d	$s1, $sp, 160                   # 8-byte Folded Reload
	ld.d	$s0, $sp, 168                   # 8-byte Folded Reload
	ld.d	$fp, $sp, 176                   # 8-byte Folded Reload
	ld.d	$ra, $sp, 184                   # 8-byte Folded Reload
	addi.d	$sp, $sp, 192
	ret
.LBB11_29:                              # %_ZNSt6vectorIdSaIdEED2Ev.exit88
.Ltmp52:
	move	$fp, $a0
	move	$a0, $s4
	move	$s1, $s5
	move	$a1, $s5
	pcaddu18i	$ra, %call36(_ZdlPvm)
	jirl	$ra, $ra, 0
	b	.LBB11_31
.LBB11_30:
.Ltmp49:
	move	$s1, $s5
	move	$fp, $a0
.LBB11_31:                              # %_ZNSt6vectorIdSaIdEED2Ev.exit90
	move	$a0, $s3
	move	$a1, $s1
	pcaddu18i	$ra, %call36(_ZdlPvm)
	jirl	$ra, $ra, 0
	b	.LBB11_33
.LBB11_32:
.Ltmp46:
	move	$s1, $s5
	move	$fp, $a0
.LBB11_33:                              # %_ZNSt6vectorIdSaIdEED2Ev.exit92
	move	$a0, $s0
	move	$a1, $s1
	pcaddu18i	$ra, %call36(_ZdlPvm)
	jirl	$ra, $ra, 0
	b	.LBB11_35
.LBB11_34:
.Ltmp43:
	move	$s1, $s5
	move	$fp, $a0
.LBB11_35:                              # %_ZNSt6vectorIdSaIdEED2Ev.exit94
	ld.d	$a0, $sp, 88                    # 8-byte Folded Reload
	move	$a1, $s1
	pcaddu18i	$ra, %call36(_ZdlPvm)
	jirl	$ra, $ra, 0
	move	$a0, $fp
	pcaddu18i	$ra, %call36(_Unwind_Resume)
	jirl	$ra, $ra, 0
.Lfunc_end11:
	.size	_ZN4Mesh49compare_coordinates_cpu_local_to_cpu_global_floatEjPiS0_PdS1_S1_S1_PfS1_S1_S1_S1_S2_i, .Lfunc_end11-_ZN4Mesh49compare_coordinates_cpu_local_to_cpu_global_floatEjPiS0_PdS1_S1_S1_PfS1_S1_S1_S1_S2_i
	.cfi_endproc
	.section	.gcc_except_table,"a",@progbits
	.p2align	2, 0x0
GCC_except_table11:
.Lexception4:
	.byte	255                             # @LPStart Encoding = omit
	.byte	255                             # @TType Encoding = omit
	.byte	1                               # Call site Encoding = uleb128
	.uleb128 .Lcst_end4-.Lcst_begin4
.Lcst_begin4:
	.uleb128 .Lfunc_begin4-.Lfunc_begin4    # >> Call Site 1 <<
	.uleb128 .Ltmp41-.Lfunc_begin4          #   Call between .Lfunc_begin4 and .Ltmp41
	.byte	0                               #     has no landing pad
	.byte	0                               #   On action: cleanup
	.uleb128 .Ltmp41-.Lfunc_begin4          # >> Call Site 2 <<
	.uleb128 .Ltmp42-.Ltmp41                #   Call between .Ltmp41 and .Ltmp42
	.uleb128 .Ltmp43-.Lfunc_begin4          #     jumps to .Ltmp43
	.byte	0                               #   On action: cleanup
	.uleb128 .Ltmp42-.Lfunc_begin4          # >> Call Site 3 <<
	.uleb128 .Ltmp44-.Ltmp42                #   Call between .Ltmp42 and .Ltmp44
	.byte	0                               #     has no landing pad
	.byte	0                               #   On action: cleanup
	.uleb128 .Ltmp44-.Lfunc_begin4          # >> Call Site 4 <<
	.uleb128 .Ltmp45-.Ltmp44                #   Call between .Ltmp44 and .Ltmp45
	.uleb128 .Ltmp46-.Lfunc_begin4          #     jumps to .Ltmp46
	.byte	0                               #   On action: cleanup
	.uleb128 .Ltmp45-.Lfunc_begin4          # >> Call Site 5 <<
	.uleb128 .Ltmp47-.Ltmp45                #   Call between .Ltmp45 and .Ltmp47
	.byte	0                               #     has no landing pad
	.byte	0                               #   On action: cleanup
	.uleb128 .Ltmp47-.Lfunc_begin4          # >> Call Site 6 <<
	.uleb128 .Ltmp48-.Ltmp47                #   Call between .Ltmp47 and .Ltmp48
	.uleb128 .Ltmp49-.Lfunc_begin4          #     jumps to .Ltmp49
	.byte	0                               #   On action: cleanup
	.uleb128 .Ltmp48-.Lfunc_begin4          # >> Call Site 7 <<
	.uleb128 .Ltmp50-.Ltmp48                #   Call between .Ltmp48 and .Ltmp50
	.byte	0                               #     has no landing pad
	.byte	0                               #   On action: cleanup
	.uleb128 .Ltmp50-.Lfunc_begin4          # >> Call Site 8 <<
	.uleb128 .Ltmp51-.Ltmp50                #   Call between .Ltmp50 and .Ltmp51
	.uleb128 .Ltmp52-.Lfunc_begin4          #     jumps to .Ltmp52
	.byte	0                               #   On action: cleanup
	.uleb128 .Ltmp51-.Lfunc_begin4          # >> Call Site 9 <<
	.uleb128 .Lfunc_end11-.Ltmp51           #   Call between .Ltmp51 and .Lfunc_end11
	.byte	0                               #     has no landing pad
	.byte	0                               #   On action: cleanup
.Lcst_end4:
	.p2align	2, 0x0
                                        # -- End function
	.text
	.globl	_ZN4Mesh36compare_mpot_cpu_local_to_cpu_globalEjPiS0_S0_S0_i # -- Begin function _ZN4Mesh36compare_mpot_cpu_local_to_cpu_globalEjPiS0_S0_S0_i
	.p2align	5
	.type	_ZN4Mesh36compare_mpot_cpu_local_to_cpu_globalEjPiS0_S0_S0_i,@function
_ZN4Mesh36compare_mpot_cpu_local_to_cpu_globalEjPiS0_S0_S0_i: # @_ZN4Mesh36compare_mpot_cpu_local_to_cpu_globalEjPiS0_S0_S0_i
	.cfi_startproc
# %bb.0:
	beqz	$a1, .LBB12_9
# %bb.1:                                # %.noexc
	addi.d	$sp, $sp, -80
	.cfi_def_cfa_offset 80
	st.d	$ra, $sp, 72                    # 8-byte Folded Spill
	st.d	$fp, $sp, 64                    # 8-byte Folded Spill
	st.d	$s0, $sp, 56                    # 8-byte Folded Spill
	st.d	$s1, $sp, 48                    # 8-byte Folded Spill
	st.d	$s2, $sp, 40                    # 8-byte Folded Spill
	st.d	$s3, $sp, 32                    # 8-byte Folded Spill
	st.d	$s4, $sp, 24                    # 8-byte Folded Spill
	st.d	$s5, $sp, 16                    # 8-byte Folded Spill
	st.d	$s6, $sp, 8                     # 8-byte Folded Spill
	st.d	$s7, $sp, 0                     # 8-byte Folded Spill
	.cfi_offset 1, -8
	.cfi_offset 22, -16
	.cfi_offset 23, -24
	.cfi_offset 24, -32
	.cfi_offset 25, -40
	.cfi_offset 26, -48
	.cfi_offset 27, -56
	.cfi_offset 28, -64
	.cfi_offset 29, -72
	.cfi_offset 30, -80
	move	$fp, $a6
	move	$s0, $a5
	move	$s1, $a0
	bstrpick.d	$s6, $a1, 31, 0
	slli.d	$s2, $s6, 2
	move	$a0, $s2
	move	$s4, $a1
	pcaddu18i	$ra, %call36(_Znwm)
	jirl	$ra, $ra, 0
	move	$s3, $a0
	ori	$a0, $zero, 1
	st.w	$zero, $s3, 0
	beq	$s4, $a0, .LBB12_3
# %bb.2:                                # %_ZSt6fill_nIPimiET_S1_T0_RKT1_.exit.loopexit.i.i.i.i.i
	addi.d	$a0, $s3, 4
	addi.d	$a2, $s2, -4
	move	$a1, $zero
	pcaddu18i	$ra, %call36(memset)
	jirl	$ra, $ra, 0
.LBB12_3:                               # %.lr.ph
	move	$s7, $zero
	move	$s4, $zero
	pcalau12i	$a0, %pc_hi20(.L.str.32)
	addi.d	$s5, $a0, %pc_lo12(.L.str.32)
	b	.LBB12_5
	.p2align	4, , 16
.LBB12_4:                               #   in Loop: Header=BB12_5 Depth=1
	addi.w	$s4, $s4, 1
	addi.d	$s6, $s6, -1
	addi.d	$s7, $s7, 4
	beqz	$s6, .LBB12_8
.LBB12_5:                               # =>This Inner Loop Header: Depth=1
	ldx.w	$a4, $s0, $s7
	ldx.w	$a5, $s3, $s7
	beq	$a4, $a5, .LBB12_4
# %bb.6:                                #   in Loop: Header=BB12_5 Depth=1
	ld.w	$a0, $s1, 620
	bnez	$a0, .LBB12_4
# %bb.7:                                #   in Loop: Header=BB12_5 Depth=1
	move	$a0, $s5
	move	$a1, $zero
	move	$a2, $fp
	move	$a3, $s4
	pcaddu18i	$ra, %call36(printf)
	jirl	$ra, $ra, 0
	b	.LBB12_4
.LBB12_8:                               # %._crit_edge
	move	$a0, $s3
	move	$a1, $s2
	ld.d	$s7, $sp, 0                     # 8-byte Folded Reload
	ld.d	$s6, $sp, 8                     # 8-byte Folded Reload
	ld.d	$s5, $sp, 16                    # 8-byte Folded Reload
	ld.d	$s4, $sp, 24                    # 8-byte Folded Reload
	ld.d	$s3, $sp, 32                    # 8-byte Folded Reload
	ld.d	$s2, $sp, 40                    # 8-byte Folded Reload
	ld.d	$s1, $sp, 48                    # 8-byte Folded Reload
	ld.d	$s0, $sp, 56                    # 8-byte Folded Reload
	ld.d	$fp, $sp, 64                    # 8-byte Folded Reload
	ld.d	$ra, $sp, 72                    # 8-byte Folded Reload
	addi.d	$sp, $sp, 80
	pcaddu18i	$t8, %call36(_ZdlPvm)
	jr	$t8
.LBB12_9:                               # %_ZNSt6vectorIiSaIiEED2Ev.exit
	ret
.Lfunc_end12:
	.size	_ZN4Mesh36compare_mpot_cpu_local_to_cpu_globalEjPiS0_S0_S0_i, .Lfunc_end12-_ZN4Mesh36compare_mpot_cpu_local_to_cpu_globalEjPiS0_S0_S0_i
	.cfi_endproc
                                        # -- End function
	.section	.rodata.cst16,"aM",@progbits,16
	.p2align	4, 0x0                          # -- Begin function _ZN4MeshC2Eiiiiddiii
.LCPI13_0:
	.word	0                               # 0x0
	.word	1                               # 0x1
	.word	2                               # 0x2
	.word	3                               # 0x3
	.text
	.globl	_ZN4MeshC2Eiiiiddiii
	.p2align	5
	.type	_ZN4MeshC2Eiiiiddiii,@function
_ZN4MeshC2Eiiiiddiii:                   # @_ZN4MeshC2Eiiiiddiii
.Lfunc_begin5:
	.cfi_startproc
	.cfi_personality 155, DW.ref.__gxx_personality_v0
	.cfi_lsda 27, .Lexception5
# %bb.0:                                # %.preheader215
	addi.d	$sp, $sp, -272
	.cfi_def_cfa_offset 272
	st.d	$ra, $sp, 264                   # 8-byte Folded Spill
	st.d	$fp, $sp, 256                   # 8-byte Folded Spill
	st.d	$s0, $sp, 248                   # 8-byte Folded Spill
	st.d	$s1, $sp, 240                   # 8-byte Folded Spill
	st.d	$s2, $sp, 232                   # 8-byte Folded Spill
	st.d	$s3, $sp, 224                   # 8-byte Folded Spill
	st.d	$s4, $sp, 216                   # 8-byte Folded Spill
	st.d	$s5, $sp, 208                   # 8-byte Folded Spill
	st.d	$s6, $sp, 200                   # 8-byte Folded Spill
	st.d	$s7, $sp, 192                   # 8-byte Folded Spill
	st.d	$s8, $sp, 184                   # 8-byte Folded Spill
	fst.d	$fs0, $sp, 176                  # 8-byte Folded Spill
	fst.d	$fs1, $sp, 168                  # 8-byte Folded Spill
	.cfi_offset 1, -8
	.cfi_offset 22, -16
	.cfi_offset 23, -24
	.cfi_offset 24, -32
	.cfi_offset 25, -40
	.cfi_offset 26, -48
	.cfi_offset 27, -56
	.cfi_offset 28, -64
	.cfi_offset 29, -72
	.cfi_offset 30, -80
	.cfi_offset 31, -88
	.cfi_offset 56, -96
	.cfi_offset 57, -104
	st.d	$a6, $sp, 128                   # 8-byte Folded Spill
	move	$s2, $a5
	fmov.d	$fs0, $fa1
	fmov.d	$fs1, $fa0
	move	$s1, $a4
	move	$s4, $a3
	move	$s5, $a2
	move	$s8, $a1
	move	$fp, $a0
	addi.d	$a0, $a0, 16
	st.w	$zero, $fp, 16
	st.d	$zero, $fp, 24
	st.d	$a0, $fp, 32
	st.d	$a0, $fp, 40
	st.d	$zero, $fp, 48
	addi.d	$a0, $fp, 64
	st.w	$zero, $fp, 64
	st.d	$zero, $fp, 72
	st.d	$a0, $fp, 80
	st.d	$a0, $fp, 88
	st.d	$zero, $fp, 96
	addi.d	$a0, $fp, 112
	st.w	$zero, $fp, 112
	st.d	$zero, $fp, 120
	st.d	$a0, $fp, 128
	st.d	$a0, $fp, 136
	st.d	$zero, $fp, 144
	addi.d	$a0, $fp, 160
	st.w	$zero, $fp, 160
	st.d	$zero, $fp, 168
	st.d	$a0, $fp, 176
	st.d	$a0, $fp, 184
	addi.d	$a0, $fp, 192
	addi.d	$s0, $fp, 680
	addi.d	$s7, $fp, 856
	st.d	$zero, $fp, 1320
	vrepli.b	$vr0, 0
	vst	$vr0, $sp, 80                   # 16-byte Folded Spill
	vst	$vr0, $fp, 1304
	addi.d	$s6, $fp, 1416
	addi.d	$s3, $fp, 1568
	ori	$a2, $zero, 424
	move	$a1, $zero
	pcaddu18i	$ra, %call36(memset)
	jirl	$ra, $ra, 0
	vld	$vr0, $sp, 80                   # 16-byte Folded Reload
	vst	$vr0, $fp, 640
	ori	$a2, $zero, 96
	st.d	$s0, $sp, 120                   # 8-byte Folded Spill
	move	$a0, $s0
	move	$a1, $zero
	pcaddu18i	$ra, %call36(memset)
	jirl	$ra, $ra, 0
	ori	$a2, $zero, 264
	st.d	$s7, $sp, 56                    # 8-byte Folded Spill
	move	$a0, $s7
	move	$a1, $zero
	pcaddu18i	$ra, %call36(memset)
	jirl	$ra, $ra, 0
	ori	$a2, $zero, 144
	move	$a0, $s6
	move	$a1, $zero
	pcaddu18i	$ra, %call36(memset)
	jirl	$ra, $ra, 0
	ori	$a2, $zero, 720
	st.d	$s3, $sp, 32                    # 8-byte Folded Spill
	move	$a0, $s3
	move	$a1, $zero
	pcaddu18i	$ra, %call36(memset)
	jirl	$ra, $ra, 0
	st.w	$s1, $fp, 0
	st.w	$s4, $fp, 1120
	st.d	$zero, $fp, 664
	ori	$a0, $zero, 1
	st.w	$a0, $fp, 672
	ori	$a0, $zero, 0
	lu32i.d	$a0, 1
	st.d	$a0, $fp, 620
	st.d	$zero, $fp, 1160
	st.d	$zero, $fp, 1176
	ld.d	$a0, $sp, 128                   # 8-byte Folded Reload
	st.w	$a0, $fp, 628
	st.d	$zero, $fp, 632
	lu12i.w	$a0, 260096
	st.w	$a0, $fp, 656
	fst.d	$fs1, $fp, 1280
	fst.d	$fs0, $fp, 1288
	st.w	$s2, $fp, 1124
	st.w	$zero, $fp, 1132
	st.w	$zero, $fp, 1140
	addi.d	$a0, $s8, 1
	st.w	$a0, $fp, 1136
	addi.d	$a1, $s5, 1
	st.w	$a1, $fp, 1144
	st.d	$s6, $sp, 40                    # 8-byte Folded Spill
	beqz	$s2, .LBB13_2
# %bb.1:
	addi.w	$s8, $s8, 2
	addi.w	$s5, $s5, 2
	st.w	$zero, $fp, 1132
	st.w	$zero, $fp, 1140
	st.w	$a0, $fp, 1136
	st.w	$a1, $fp, 1144
.LBB13_2:
	addi.d	$s2, $fp, 880
	addi.d	$s6, $fp, 904
	addi.d	$s7, $fp, 928
	addi.d	$s0, $fp, 952
	addi.d	$a0, $fp, 1024
	addi.d	$a1, $fp, 1048
	st.d	$a1, $sp, 64                    # 8-byte Folded Spill
	addi.d	$a1, $fp, 1072
	st.d	$a1, $sp, 72                    # 8-byte Folded Spill
	vldi	$vr0, -800
	fmul.d	$fa1, $fs1, $fa0
	movgr2fr.w	$fa2, $s8
	ffint.d.w	$fa2, $fa2
	fmul.d	$fa1, $fa1, $fa2
	fst.d	$fa1, $fp, 1184
	fmul.d	$fa0, $fs0, $fa0
	movgr2fr.w	$fa1, $s5
	ffint.d.w	$fa1, $fa1
	fmul.d	$fa0, $fa0, $fa1
	fst.d	$fa0, $fp, 1200
	vldi	$vr0, -928
	fmul.d	$fa3, $fs1, $fa0
	fmul.d	$fa2, $fa3, $fa2
	fst.d	$fa2, $fp, 1192
	ld.d	$a3, $fp, 1032
	ld.d	$a1, $fp, 1024
	fmul.d	$fa0, $fs0, $fa0
	fmul.d	$fa0, $fa0, $fa1
	addi.w	$s1, $s4, 1
	sub.d	$a2, $a3, $a1
	srai.d	$a2, $a2, 2
	fst.d	$fa0, $fp, 1208
	st.d	$s0, $sp, 48                    # 8-byte Folded Spill
	bgeu	$a2, $s1, .LBB13_4
# %bb.3:
	sub.d	$a1, $s1, $a2
.Ltmp53:
	move	$s4, $a0
	pcaddu18i	$ra, %call36(_ZNSt6vectorIiSaIiEE17_M_default_appendEm)
	jirl	$ra, $ra, 0
.Ltmp54:
	b	.LBB13_7
.LBB13_4:
	move	$s4, $a0
	bgeu	$s1, $a2, .LBB13_7
# %bb.5:
	alsl.d	$a1, $s1, $a1, 2
	beq	$a3, $a1, .LBB13_7
# %bb.6:                                # %_ZSt8_DestroyIPiiEvT_S1_RSaIT0_E.exit.i.i
	st.d	$a1, $fp, 1032
.LBB13_7:                               # %_ZNSt6vectorIiSaIiEE6resizeEm.exit
	ld.d	$a0, $fp, 888
	ld.d	$a1, $fp, 880
	sub.d	$a2, $a0, $a1
	srai.d	$a2, $a2, 2
	bgeu	$a2, $s1, .LBB13_9
# %bb.8:
	sub.d	$a1, $s1, $a2
.Ltmp55:
	move	$a0, $s2
	pcaddu18i	$ra, %call36(_ZNSt6vectorIiSaIiEE17_M_default_appendEm)
	jirl	$ra, $ra, 0
.Ltmp56:
	b	.LBB13_12
.LBB13_9:
	bgeu	$s1, $a2, .LBB13_12
# %bb.10:
	alsl.d	$a1, $s1, $a1, 2
	beq	$a0, $a1, .LBB13_12
# %bb.11:                               # %_ZSt8_DestroyIPiiEvT_S1_RSaIT0_E.exit.i.i75
	st.d	$a1, $fp, 888
.LBB13_12:                              # %_ZNSt6vectorIiSaIiEE6resizeEm.exit77
	ld.d	$a0, $fp, 936
	ld.d	$a1, $fp, 928
	sub.d	$a2, $a0, $a1
	srai.d	$a2, $a2, 2
	bgeu	$a2, $s1, .LBB13_14
# %bb.13:
	sub.d	$a1, $s1, $a2
.Ltmp57:
	move	$a0, $s7
	pcaddu18i	$ra, %call36(_ZNSt6vectorIiSaIiEE17_M_default_appendEm)
	jirl	$ra, $ra, 0
.Ltmp58:
	b	.LBB13_17
.LBB13_14:
	bgeu	$s1, $a2, .LBB13_17
# %bb.15:
	alsl.d	$a1, $s1, $a1, 2
	beq	$a0, $a1, .LBB13_17
# %bb.16:                               # %_ZSt8_DestroyIPiiEvT_S1_RSaIT0_E.exit.i.i79
	st.d	$a1, $fp, 936
.LBB13_17:                              # %_ZNSt6vectorIiSaIiEE6resizeEm.exit81
	ld.d	$a0, $fp, 912
	ld.d	$a1, $fp, 904
	sub.d	$a2, $a0, $a1
	srai.d	$a2, $a2, 2
	bgeu	$a2, $s1, .LBB13_19
# %bb.18:
	sub.d	$a1, $s1, $a2
.Ltmp59:
	move	$a0, $s6
	pcaddu18i	$ra, %call36(_ZNSt6vectorIiSaIiEE17_M_default_appendEm)
	jirl	$ra, $ra, 0
.Ltmp60:
	b	.LBB13_22
.LBB13_19:
	bgeu	$s1, $a2, .LBB13_22
# %bb.20:
	alsl.d	$a1, $s1, $a1, 2
	beq	$a0, $a1, .LBB13_22
# %bb.21:                               # %_ZSt8_DestroyIPiiEvT_S1_RSaIT0_E.exit.i.i83
	st.d	$a1, $fp, 912
.LBB13_22:                              # %_ZNSt6vectorIiSaIiEE6resizeEm.exit85
	ld.d	$a0, $fp, 960
	ld.d	$a1, $fp, 952
	sub.d	$a2, $a0, $a1
	srai.d	$a2, $a2, 2
	bgeu	$a2, $s1, .LBB13_24
# %bb.23:
	sub.d	$a1, $s1, $a2
.Ltmp61:
	move	$a0, $s0
	pcaddu18i	$ra, %call36(_ZNSt6vectorIiSaIiEE17_M_default_appendEm)
	jirl	$ra, $ra, 0
.Ltmp62:
	b	.LBB13_27
.LBB13_24:
	bgeu	$s1, $a2, .LBB13_27
# %bb.25:
	alsl.d	$a1, $s1, $a1, 2
	beq	$a0, $a1, .LBB13_27
# %bb.26:                               # %_ZSt8_DestroyIPiiEvT_S1_RSaIT0_E.exit.i.i87
	st.d	$a1, $fp, 960
.LBB13_27:                              # %_ZNSt6vectorIiSaIiEE6resizeEm.exit89
	ld.d	$a0, $fp, 1056
	ld.d	$a1, $fp, 1048
	sub.d	$a2, $a0, $a1
	srai.d	$a2, $a2, 3
	bgeu	$a2, $s1, .LBB13_29
# %bb.28:
	sub.d	$a1, $s1, $a2
.Ltmp63:
	ld.d	$a0, $sp, 64                    # 8-byte Folded Reload
	pcaddu18i	$ra, %call36(_ZNSt6vectorIdSaIdEE17_M_default_appendEm)
	jirl	$ra, $ra, 0
.Ltmp64:
	b	.LBB13_32
.LBB13_29:
	bgeu	$s1, $a2, .LBB13_32
# %bb.30:
	alsl.d	$a1, $s1, $a1, 3
	beq	$a0, $a1, .LBB13_32
# %bb.31:                               # %_ZSt8_DestroyIPddEvT_S1_RSaIT0_E.exit.i.i
	st.d	$a1, $fp, 1056
.LBB13_32:                              # %_ZNSt6vectorIdSaIdEE6resizeEm.exit
	ld.d	$a0, $fp, 1080
	ld.d	$a1, $fp, 1072
	sub.d	$a2, $a0, $a1
	srai.d	$a2, $a2, 3
	bgeu	$a2, $s1, .LBB13_35
# %bb.33:
	sub.d	$a1, $s1, $a2
.Ltmp65:
	ld.d	$a0, $sp, 72                    # 8-byte Folded Reload
	pcaddu18i	$ra, %call36(_ZNSt6vectorIdSaIdEE17_M_default_appendEm)
	jirl	$ra, $ra, 0
.Ltmp66:
# %bb.34:                               # %._ZNSt6vectorIdSaIdEE6resizeEm.exit95_crit_edge
	ld.d	$a0, $sp, 72                    # 8-byte Folded Reload
	ld.d	$a1, $a0, 0
	b	.LBB13_38
.LBB13_35:
	bgeu	$s1, $a2, .LBB13_38
# %bb.36:
	alsl.d	$a2, $s1, $a1, 3
	beq	$a0, $a2, .LBB13_38
# %bb.37:                               # %_ZSt8_DestroyIPddEvT_S1_RSaIT0_E.exit.i.i93
	st.d	$a2, $fp, 1080
.LBB13_38:                              # %_ZNSt6vectorIdSaIdEE6resizeEm.exit95
	ld.w	$a0, $fp, 1132
	ld.d	$a3, $fp, 880
	addi.d	$a0, $a0, 1
	st.w	$a0, $a3, 0
	ld.w	$a0, $fp, 1136
	ld.d	$a4, $fp, 904
	addi.d	$a0, $a0, -1
	st.w	$a0, $a4, 0
	ld.w	$a0, $fp, 1140
	ld.d	$a5, $fp, 928
	addi.d	$a0, $a0, 1
	st.w	$a0, $a5, 0
	ld.w	$a0, $fp, 1144
	ld.d	$a6, $fp, 952
	fld.d	$fa0, $fp, 1280
	ld.d	$a7, $fp, 1048
	addi.d	$a0, $a0, -1
	st.w	$a0, $a6, 0
	fst.d	$fa0, $a7, 0
	fld.d	$fa0, $fp, 1288
	ld.w	$a0, $fp, 1120
	ori	$a2, $zero, 1
	fst.d	$fa0, $a1, 0
	blt	$a0, $a2, .LBB13_41
# %bb.39:                               # %.lr.ph.preheader
	move	$a2, $zero
	addi.d	$a3, $a3, 4
	addi.d	$a4, $a4, 4
	addi.d	$a5, $a5, 4
	addi.d	$a6, $a6, 4
	addi.d	$a7, $a7, 8
	addi.d	$a1, $a1, 8
	vldi	$vr0, -928
	.p2align	4, , 16
.LBB13_40:                              # %.lr.ph
                                        # =>This Inner Loop Header: Depth=1
	ld.w	$a0, $a3, -4
	slli.d	$a0, $a0, 1
	st.w	$a0, $a3, 0
	ld.w	$a0, $a4, -4
	slli.d	$a0, $a0, 1
	addi.d	$a0, $a0, 1
	st.w	$a0, $a4, 0
	ld.w	$a0, $a5, -4
	fld.d	$fa1, $a7, -8
	slli.d	$a0, $a0, 1
	st.w	$a0, $a5, 0
	ld.w	$a0, $a6, -4
	fmul.d	$fa1, $fa1, $fa0
	fst.d	$fa1, $a7, 0
	fld.d	$fa1, $a1, -8
	slli.d	$a0, $a0, 1
	addi.d	$a0, $a0, 1
	st.w	$a0, $a6, 0
	fmul.d	$fa1, $fa1, $fa0
	fst.d	$fa1, $a1, 0
	ld.w	$a0, $fp, 1120
	addi.d	$a2, $a2, 1
	addi.d	$a3, $a3, 4
	addi.d	$a4, $a4, 4
	addi.d	$a5, $a5, 4
	addi.d	$a6, $a6, 4
	addi.d	$a7, $a7, 8
	addi.d	$a1, $a1, 8
	blt	$a2, $a0, .LBB13_40
.LBB13_41:                              # %.preheader
	beqz	$s1, .LBB13_47
# %bb.42:                               # %.lr.ph221
	ld.d	$a0, $s4, 0
	ori	$a1, $zero, 8
	bgeu	$s1, $a1, .LBB13_73
# %bb.43:
	move	$a1, $zero
.LBB13_44:                              # %scalar.ph.preheader
	ori	$a2, $zero, 2
	move	$a3, $a1
	.p2align	4, , 16
.LBB13_45:                              # %scalar.ph
                                        # =>This Inner Loop Header: Depth=1
	sll.w	$a4, $a2, $a3
	slli.d	$a5, $a1, 2
	addi.w	$a3, $a3, 1
	bstrpick.d	$a1, $a3, 31, 0
	stx.w	$a4, $a0, $a5
	bltu	$a1, $s1, .LBB13_45
.LBB13_46:                              # %._crit_edge.loopexit
	ld.w	$a0, $fp, 1120
.LBB13_47:                              # %._crit_edge
	st.d	$s4, $sp, 0                     # 8-byte Folded Spill
	st.d	$s7, $sp, 8                     # 8-byte Folded Spill
	st.d	$s6, $sp, 16                    # 8-byte Folded Spill
	st.d	$s2, $sp, 24                    # 8-byte Folded Spill
	move	$a3, $zero
	ld.w	$a1, $fp, 1136
	st.w	$zero, $fp, 1128
	st.d	$zero, $sp, 152
	ld.w	$a2, $fp, 1144
	st.w	$a1, $sp, 160
	st.w	$a1, $sp, 164
	st.w	$zero, $sp, 136
	st.w	$a2, $sp, 140
	st.w	$zero, $sp, 144
	st.w	$a2, $sp, 148
	ori	$s3, $zero, 1
	addi.w	$a1, $zero, -4
	lu52i.d	$a1, $a1, 2047
	st.d	$a1, $sp, 128                   # 8-byte Folded Spill
	addi.w	$a1, $zero, -1
	lu52i.d	$s7, $a1, 511
	b	.LBB13_49
	.p2align	4, , 16
.LBB13_48:                              # %._crit_edge229
                                        #   in Loop: Header=BB13_49 Depth=1
	ld.d	$a3, $sp, 96                    # 8-byte Folded Reload
	addi.d	$a3, $a3, 1
	ori	$a1, $zero, 4
	beq	$a3, $a1, .LBB13_72
.LBB13_49:                              # =>This Loop Header: Depth=1
                                        #     Child Loop BB13_52 Depth 2
                                        #       Child Loop BB13_56 Depth 3
	ori	$a1, $zero, 2
	sll.w	$a1, $a1, $a0
	st.d	$a3, $sp, 96                    # 8-byte Folded Spill
	blt	$a1, $s3, .LBB13_48
# %bb.50:                               # %.lr.ph228
                                        #   in Loop: Header=BB13_49 Depth=1
	slli.d	$a2, $a3, 2
	addi.d	$a3, $sp, 136
	ldx.w	$a3, $a2, $a3
	addi.d	$a4, $sp, 152
	ldx.w	$a2, $a2, $a4
	addi.d	$a4, $a3, 1
	st.d	$a4, $sp, 104                   # 8-byte Folded Spill
	mul.d	$s0, $a1, $a3
	st.d	$a2, $sp, 112                   # 8-byte Folded Spill
	addi.d	$s8, $a2, 1
	b	.LBB13_52
	.p2align	4, , 16
.LBB13_51:                              # %._crit_edge225
                                        #   in Loop: Header=BB13_52 Depth=2
	addi.w	$s0, $s0, 1
	ld.d	$a2, $sp, 104                   # 8-byte Folded Reload
	mul.w	$a2, $a1, $a2
	bge	$s0, $a2, .LBB13_48
.LBB13_52:                              #   Parent Loop BB13_49 Depth=1
                                        # =>  This Loop Header: Depth=2
                                        #       Child Loop BB13_56 Depth 3
	ld.d	$a2, $sp, 112                   # 8-byte Folded Reload
	mul.w	$s2, $a2, $a1
	ori	$a1, $zero, 2
	sll.w	$a1, $a1, $a0
	mul.w	$a1, $a1, $s8
	blt	$s2, $a1, .LBB13_56
# %bb.53:                               # %.._crit_edge225_crit_edge
                                        #   in Loop: Header=BB13_52 Depth=2
	ori	$a1, $zero, 2
	sll.w	$a1, $a1, $a0
	b	.LBB13_51
	.p2align	4, , 16
.LBB13_54:                              #   in Loop: Header=BB13_56 Depth=3
	st.w	$s0, $a0, 0
	addi.d	$a0, $a0, 4
	st.d	$a0, $fp, 712
.LBB13_55:                              # %_ZNSt6vectorIiSaIiEE9push_backERKi.exit106
                                        #   in Loop: Header=BB13_56 Depth=3
	ld.wu	$a0, $fp, 1120
	addi.w	$s2, $s2, 1
	ori	$a1, $zero, 2
	sll.w	$a1, $a1, $a0
	mul.w	$a2, $a1, $s8
	bge	$s2, $a2, .LBB13_51
.LBB13_56:                              # %.lr.ph224
                                        #   Parent Loop BB13_49 Depth=1
                                        #     Parent Loop BB13_52 Depth=2
                                        # =>    This Inner Loop Header: Depth=3
	ld.d	$a0, $fp, 688
	ld.d	$a1, $fp, 696
	beq	$a0, $a1, .LBB13_58
# %bb.57:                               #   in Loop: Header=BB13_56 Depth=3
	st.w	$s2, $a0, 0
	addi.d	$a0, $a0, 4
	st.d	$a0, $fp, 688
	ld.d	$a0, $fp, 712
	ld.d	$a1, $fp, 720
	bne	$a0, $a1, .LBB13_54
	b	.LBB13_65
	.p2align	4, , 16
.LBB13_58:                              #   in Loop: Header=BB13_56 Depth=3
	ld.d	$a1, $sp, 120                   # 8-byte Folded Reload
	ld.d	$s4, $a1, 0
	sub.d	$s1, $a0, $s4
	ld.d	$a0, $sp, 128                   # 8-byte Folded Reload
	beq	$s1, $a0, .LBB13_78
# %bb.59:                               # %_ZNSt12_Vector_baseIiSaIiEE11_M_allocateEm.exit.i.i
                                        #   in Loop: Header=BB13_56 Depth=3
	srai.d	$a0, $s1, 2
	sltu	$a1, $s3, $a0
	masknez	$a2, $s3, $a1
	maskeqz	$a1, $a0, $a1
	or	$a1, $a1, $a2
	add.d	$a0, $a1, $a0
	sltu	$a1, $a0, $a1
	sltu	$a2, $a0, $s7
	maskeqz	$a0, $a0, $a2
	masknez	$a2, $s7, $a2
	or	$a0, $a0, $a2
	masknez	$a0, $a0, $a1
	maskeqz	$a1, $s7, $a1
	or	$s6, $a1, $a0
	slli.d	$a0, $s6, 2
.Ltmp68:
	pcaddu18i	$ra, %call36(_Znwm)
	jirl	$ra, $ra, 0
.Ltmp69:
# %bb.60:                               # %.noexc97
                                        #   in Loop: Header=BB13_56 Depth=3
	move	$s5, $a0
	stx.w	$s2, $a0, $s1
	blt	$s1, $s3, .LBB13_62
# %bb.61:                               #   in Loop: Header=BB13_56 Depth=3
	move	$a0, $s5
	move	$a1, $s4
	move	$a2, $s1
	pcaddu18i	$ra, %call36(memcpy)
	jirl	$ra, $ra, 0
.LBB13_62:                              # %_ZNSt6vectorIiSaIiEE11_S_relocateEPiS2_S2_RS0_.exit.i.i
                                        #   in Loop: Header=BB13_56 Depth=3
	beqz	$s4, .LBB13_64
# %bb.63:                               #   in Loop: Header=BB13_56 Depth=3
	move	$a0, $s4
	move	$a1, $s1
	pcaddu18i	$ra, %call36(_ZdlPvm)
	jirl	$ra, $ra, 0
.LBB13_64:                              # %_ZNSt6vectorIiSaIiEE17_M_realloc_appendIJRKiEEEvDpOT_.exit.i
                                        #   in Loop: Header=BB13_56 Depth=3
	add.d	$a0, $s5, $s1
	addi.d	$a0, $a0, 4
	st.d	$s5, $fp, 680
	st.d	$a0, $fp, 688
	alsl.d	$a0, $s6, $s5, 2
	st.d	$a0, $fp, 696
	ld.d	$a0, $fp, 712
	ld.d	$a1, $fp, 720
	bne	$a0, $a1, .LBB13_54
.LBB13_65:                              #   in Loop: Header=BB13_56 Depth=3
	ld.d	$s4, $fp, 704
	sub.d	$s1, $a0, $s4
	ld.d	$a0, $sp, 128                   # 8-byte Folded Reload
	beq	$s1, $a0, .LBB13_78
# %bb.66:                               # %_ZNSt12_Vector_baseIiSaIiEE11_M_allocateEm.exit.i.i99
                                        #   in Loop: Header=BB13_56 Depth=3
	srai.d	$a0, $s1, 2
	sltu	$a1, $s3, $a0
	masknez	$a2, $s3, $a1
	maskeqz	$a1, $a0, $a1
	or	$a1, $a1, $a2
	add.d	$a0, $a1, $a0
	sltu	$a1, $a0, $a1
	sltu	$a2, $a0, $s7
	maskeqz	$a0, $a0, $a2
	masknez	$a2, $s7, $a2
	or	$a0, $a0, $a2
	masknez	$a0, $a0, $a1
	maskeqz	$a1, $s7, $a1
	or	$s6, $a1, $a0
	slli.d	$a0, $s6, 2
.Ltmp70:
	pcaddu18i	$ra, %call36(_Znwm)
	jirl	$ra, $ra, 0
.Ltmp71:
# %bb.67:                               # %.noexc105
                                        #   in Loop: Header=BB13_56 Depth=3
	move	$s5, $a0
	stx.w	$s0, $a0, $s1
	blt	$s1, $s3, .LBB13_69
# %bb.68:                               #   in Loop: Header=BB13_56 Depth=3
	move	$a0, $s5
	move	$a1, $s4
	move	$a2, $s1
	pcaddu18i	$ra, %call36(memcpy)
	jirl	$ra, $ra, 0
.LBB13_69:                              # %_ZNSt6vectorIiSaIiEE11_S_relocateEPiS2_S2_RS0_.exit.i.i101
                                        #   in Loop: Header=BB13_56 Depth=3
	beqz	$s4, .LBB13_71
# %bb.70:                               #   in Loop: Header=BB13_56 Depth=3
	move	$a0, $s4
	move	$a1, $s1
	pcaddu18i	$ra, %call36(_ZdlPvm)
	jirl	$ra, $ra, 0
.LBB13_71:                              # %_ZNSt6vectorIiSaIiEE17_M_realloc_appendIJRKiEEEvDpOT_.exit.i103
                                        #   in Loop: Header=BB13_56 Depth=3
	add.d	$a0, $s5, $s1
	addi.d	$a0, $a0, 4
	st.d	$s5, $fp, 704
	st.d	$a0, $fp, 712
	alsl.d	$a0, $s6, $s5, 2
	st.d	$a0, $fp, 720
	b	.LBB13_55
.LBB13_72:
	ori	$a0, $zero, 257
	st.h	$a0, $fp, 616
	st.d	$zero, $fp, 1360
	vld	$vr0, $sp, 80                   # 16-byte Folded Reload
	vst	$vr0, $fp, 1368
	vst	$vr0, $fp, 1384
	fld.d	$fs1, $sp, 168                  # 8-byte Folded Reload
	fld.d	$fs0, $sp, 176                  # 8-byte Folded Reload
	ld.d	$s8, $sp, 184                   # 8-byte Folded Reload
	ld.d	$s7, $sp, 192                   # 8-byte Folded Reload
	ld.d	$s6, $sp, 200                   # 8-byte Folded Reload
	ld.d	$s5, $sp, 208                   # 8-byte Folded Reload
	ld.d	$s4, $sp, 216                   # 8-byte Folded Reload
	ld.d	$s3, $sp, 224                   # 8-byte Folded Reload
	ld.d	$s2, $sp, 232                   # 8-byte Folded Reload
	ld.d	$s1, $sp, 240                   # 8-byte Folded Reload
	ld.d	$s0, $sp, 248                   # 8-byte Folded Reload
	ld.d	$fp, $sp, 256                   # 8-byte Folded Reload
	ld.d	$ra, $sp, 264                   # 8-byte Folded Reload
	addi.d	$sp, $sp, 272
	ret
.LBB13_73:                              # %vector.scevcheck
	addi.d	$a2, $s1, -1
	bstrpick.d	$a3, $a2, 31, 0
	addi.w	$a4, $zero, -1
	lu32i.d	$a4, 0
	move	$a1, $zero
	beq	$a3, $a4, .LBB13_44
# %bb.74:                               # %vector.scevcheck
	srli.d	$a2, $a2, 32
	bnez	$a2, .LBB13_44
# %bb.75:                               # %vector.ph
	bstrpick.d	$a1, $s1, 32, 3
	pcalau12i	$a2, %pc_hi20(.LCPI13_0)
	vld	$vr0, $a2, %pc_lo12(.LCPI13_0)
	slli.d	$a1, $a1, 3
	addi.d	$a2, $a0, 16
	vrepli.w	$vr1, 2
	move	$a3, $a1
	.p2align	4, , 16
.LBB13_76:                              # %vector.body
                                        # =>This Inner Loop Header: Depth=1
	vaddi.wu	$vr2, $vr0, 4
	vsll.w	$vr3, $vr1, $vr0
	vsll.w	$vr2, $vr1, $vr2
	vst	$vr3, $a2, -16
	vst	$vr2, $a2, 0
	vaddi.wu	$vr0, $vr0, 8
	addi.d	$a3, $a3, -8
	addi.d	$a2, $a2, 32
	bnez	$a3, .LBB13_76
# %bb.77:                               # %middle.block
	bne	$a1, $s1, .LBB13_44
	b	.LBB13_46
.LBB13_78:                              # %.invoke
.Ltmp73:
	pcalau12i	$a0, %pc_hi20(.L.str.143)
	addi.d	$a0, $a0, %pc_lo12(.L.str.143)
	ld.d	$s1, $sp, 56                    # 8-byte Folded Reload
	ld.d	$s2, $sp, 24                    # 8-byte Folded Reload
	ld.d	$s6, $sp, 16                    # 8-byte Folded Reload
	ld.d	$s7, $sp, 8                     # 8-byte Folded Reload
	ld.d	$s4, $sp, 0                     # 8-byte Folded Reload
	pcaddu18i	$ra, %call36(_ZSt20__throw_length_errorPKc)
	jirl	$ra, $ra, 0
.Ltmp74:
# %bb.79:                               # %.cont
.LBB13_80:
.Ltmp67:
	move	$s3, $a0
	ld.d	$s1, $sp, 56                    # 8-byte Folded Reload
	b	.LBB13_83
.LBB13_81:                              # %.loopexit.split-lp
.Ltmp75:
	move	$s3, $a0
	b	.LBB13_83
.LBB13_82:                              # %.loopexit
.Ltmp72:
	move	$s3, $a0
	ld.d	$s1, $sp, 56                    # 8-byte Folded Reload
	ld.d	$s2, $sp, 24                    # 8-byte Folded Reload
	ld.d	$s6, $sp, 16                    # 8-byte Folded Reload
	ld.d	$s7, $sp, 8                     # 8-byte Folded Reload
	ld.d	$s4, $sp, 0                     # 8-byte Folded Reload
.LBB13_83:
	ldptr.d	$a0, $fp, 2264
	bnez	$a0, .LBB13_141
# %bb.84:                               # %_ZNSt6vectorIiSaIiEED2Ev.exit
	ldptr.d	$a0, $fp, 2240
	bnez	$a0, .LBB13_142
.LBB13_85:                              # %_ZNSt6vectorIiSaIiEED2Ev.exit108
	ldptr.d	$a0, $fp, 2216
	bnez	$a0, .LBB13_143
.LBB13_86:                              # %_ZNSt6vectorIiSaIiEED2Ev.exit110
	ldptr.d	$a0, $fp, 2192
	bnez	$a0, .LBB13_144
.LBB13_87:                              # %_ZNSt6vectorIiSaIiEED2Ev.exit112
	ldptr.d	$a0, $fp, 2168
	bnez	$a0, .LBB13_145
.LBB13_88:                              # %_ZNSt6vectorIiSaIiEED2Ev.exit114
	ldptr.d	$a0, $fp, 2144
	bnez	$a0, .LBB13_146
.LBB13_89:                              # %_ZNSt6vectorIiSaIiEED2Ev.exit116
	ldptr.d	$a0, $fp, 2120
	bnez	$a0, .LBB13_147
.LBB13_90:                              # %_ZNSt6vectorIiSaIiEED2Ev.exit118
	ldptr.d	$a0, $fp, 2096
	bnez	$a0, .LBB13_148
.LBB13_91:                              # %_ZNSt6vectorIiSaIiEED2Ev.exit120
	ldptr.d	$a0, $fp, 2072
	bnez	$a0, .LBB13_149
.LBB13_92:                              # %_ZNSt6vectorIiSaIiEED2Ev.exit122
	ldptr.d	$a0, $fp, 2048
	bnez	$a0, .LBB13_150
.LBB13_93:                              # %_ZNSt6vectorIiSaIiEED2Ev.exit124
	ld.d	$a0, $fp, 2024
	bnez	$a0, .LBB13_151
.LBB13_94:                              # %_ZNSt6vectorIiSaIiEED2Ev.exit126
	ld.d	$a0, $fp, 2000
	bnez	$a0, .LBB13_152
.LBB13_95:                              # %_ZNSt6vectorIiSaIiEED2Ev.exit128
	ld.d	$a0, $fp, 1976
	bnez	$a0, .LBB13_153
.LBB13_96:                              # %_ZNSt6vectorIiSaIiEED2Ev.exit130
	ld.d	$a0, $fp, 1952
	bnez	$a0, .LBB13_154
.LBB13_97:                              # %_ZNSt6vectorIiSaIiEED2Ev.exit132
	ld.d	$a0, $fp, 1928
	bnez	$a0, .LBB13_155
.LBB13_98:                              # %_ZNSt6vectorIiSaIiEED2Ev.exit134
	ld.d	$a0, $fp, 1904
	bnez	$a0, .LBB13_156
.LBB13_99:                              # %_ZNSt6vectorIiSaIiEED2Ev.exit136
	ld.d	$a0, $fp, 1880
	bnez	$a0, .LBB13_157
.LBB13_100:                             # %_ZNSt6vectorIiSaIiEED2Ev.exit138
	ld.d	$a0, $fp, 1856
	bnez	$a0, .LBB13_158
.LBB13_101:                             # %_ZNSt6vectorIiSaIiEED2Ev.exit140
	ld.d	$a0, $fp, 1832
	bnez	$a0, .LBB13_159
.LBB13_102:                             # %_ZNSt6vectorIiSaIiEED2Ev.exit142
	ld.d	$a0, $fp, 1808
	bnez	$a0, .LBB13_160
.LBB13_103:                             # %_ZNSt6vectorIiSaIiEED2Ev.exit144
	ld.d	$a0, $fp, 1784
	bnez	$a0, .LBB13_161
.LBB13_104:                             # %_ZNSt6vectorIiSaIiEED2Ev.exit146
	ld.d	$a0, $fp, 1760
	bnez	$a0, .LBB13_162
.LBB13_105:                             # %_ZNSt6vectorIiSaIiEED2Ev.exit148
	ld.d	$a0, $fp, 1736
	bnez	$a0, .LBB13_163
.LBB13_106:                             # %_ZNSt6vectorIiSaIiEED2Ev.exit150
	ld.d	$a0, $fp, 1712
	bnez	$a0, .LBB13_164
.LBB13_107:                             # %_ZNSt6vectorIiSaIiEED2Ev.exit152
	ld.d	$a0, $fp, 1688
	bnez	$a0, .LBB13_165
.LBB13_108:                             # %_ZNSt6vectorIiSaIiEED2Ev.exit154
	ld.d	$a0, $fp, 1664
	bnez	$a0, .LBB13_166
.LBB13_109:                             # %_ZNSt6vectorIiSaIiEED2Ev.exit156
	ld.d	$a0, $fp, 1640
	bnez	$a0, .LBB13_167
.LBB13_110:                             # %_ZNSt6vectorIiSaIiEED2Ev.exit158
	ld.d	$a0, $fp, 1616
	bnez	$a0, .LBB13_168
.LBB13_111:                             # %_ZNSt6vectorIiSaIiEED2Ev.exit160
	ld.d	$a0, $fp, 1592
	bnez	$a0, .LBB13_169
.LBB13_112:                             # %_ZNSt6vectorIiSaIiEED2Ev.exit162
	ld.d	$a0, $sp, 32                    # 8-byte Folded Reload
	ld.d	$a0, $a0, 0
	bnez	$a0, .LBB13_170
.LBB13_113:                             # %_ZNSt6vectorIiSaIiEED2Ev.exit164
	ld.d	$a0, $fp, 1536
	bnez	$a0, .LBB13_171
.LBB13_114:                             # %_ZNSt6vectorIdSaIdEED2Ev.exit
	ld.d	$a0, $fp, 1512
	bnez	$a0, .LBB13_172
.LBB13_115:                             # %_ZNSt6vectorIdSaIdEED2Ev.exit167
	ld.d	$a0, $fp, 1488
	bnez	$a0, .LBB13_173
.LBB13_116:                             # %_ZNSt6vectorIdSaIdEED2Ev.exit169
	ld.d	$a0, $fp, 1464
	bnez	$a0, .LBB13_174
.LBB13_117:                             # %_ZNSt6vectorIdSaIdEED2Ev.exit171
	ld.d	$a0, $fp, 1440
	bnez	$a0, .LBB13_175
.LBB13_118:                             # %_ZNSt6vectorIdSaIdEED2Ev.exit173
	ld.d	$a0, $sp, 40                    # 8-byte Folded Reload
	ld.d	$a0, $a0, 0
	addi.d	$s0, $fp, 1304
	bnez	$a0, .LBB13_176
.LBB13_119:                             # %_ZNSt6vectorIdSaIdEED2Ev.exit175
	ld.d	$a0, $s0, 0
	bnez	$a0, .LBB13_177
.LBB13_120:                             # %_ZNSt6vectorIiSaIiEED2Ev.exit177
	ld.d	$a0, $fp, 1096
	ld.d	$s0, $sp, 48                    # 8-byte Folded Reload
	bnez	$a0, .LBB13_178
.LBB13_121:                             # %_ZNSt6vectorIdSaIdEED2Ev.exit179
	ld.d	$a0, $sp, 72                    # 8-byte Folded Reload
	ld.d	$a0, $a0, 0
	bnez	$a0, .LBB13_179
.LBB13_122:                             # %_ZNSt6vectorIdSaIdEED2Ev.exit181
	ld.d	$a0, $sp, 64                    # 8-byte Folded Reload
	ld.d	$a0, $a0, 0
	bnez	$a0, .LBB13_180
.LBB13_123:                             # %_ZNSt6vectorIdSaIdEED2Ev.exit183
	ld.d	$a0, $s4, 0
	bnez	$a0, .LBB13_181
.LBB13_124:                             # %_ZNSt6vectorIiSaIiEED2Ev.exit185
	ld.d	$a0, $fp, 1000
	bnez	$a0, .LBB13_182
.LBB13_125:                             # %_ZNSt6vectorIiSaIiEED2Ev.exit187
	ld.d	$a0, $fp, 976
	bnez	$a0, .LBB13_183
.LBB13_126:                             # %_ZNSt6vectorIiSaIiEED2Ev.exit189
	ld.d	$a0, $s0, 0
	bnez	$a0, .LBB13_184
.LBB13_127:                             # %_ZNSt6vectorIiSaIiEED2Ev.exit191
	ld.d	$a0, $s7, 0
	bnez	$a0, .LBB13_185
.LBB13_128:                             # %_ZNSt6vectorIiSaIiEED2Ev.exit193
	ld.d	$a0, $s6, 0
	bnez	$a0, .LBB13_186
.LBB13_129:                             # %_ZNSt6vectorIiSaIiEED2Ev.exit195
	ld.d	$a0, $s2, 0
	bnez	$a0, .LBB13_187
.LBB13_130:                             # %_ZNSt6vectorIiSaIiEED2Ev.exit197
	ld.d	$a0, $s1, 0
	bnez	$a0, .LBB13_188
.LBB13_131:                             # %_ZNSt6vectorIiSaIiEED2Ev.exit199
	ld.d	$a0, $fp, 752
	bnez	$a0, .LBB13_189
.LBB13_132:                             # %_ZNSt6vectorIiSaIiEED2Ev.exit201
	ld.d	$a0, $fp, 728
	bnez	$a0, .LBB13_190
.LBB13_133:                             # %_ZNSt6vectorIiSaIiEED2Ev.exit203
	ld.d	$a0, $fp, 704
	bnez	$a0, .LBB13_191
.LBB13_134:                             # %_ZNSt6vectorIiSaIiEED2Ev.exit205
	ld.d	$a0, $sp, 120                   # 8-byte Folded Reload
	ld.d	$a0, $a0, 0
	beqz	$a0, .LBB13_136
.LBB13_135:
	ld.d	$a1, $fp, 696
	sub.d	$a1, $a1, $a0
	pcaddu18i	$ra, %call36(_ZdlPvm)
	jirl	$ra, $ra, 0
.LBB13_136:                             # %_ZNSt6vectorIiSaIiEED2Ev.exit207
	ld.d	$a1, $fp, 168
	addi.d	$a0, $fp, 152
.Ltmp76:
	pcaddu18i	$ra, %call36(_ZNSt8_Rb_treeIPvSt4pairIKS0_P24malloc_plus_memory_entryESt10_Select1stIS5_ESt4lessIS0_ESaIS5_EE8_M_eraseEPSt13_Rb_tree_nodeIS5_E)
	jirl	$ra, $ra, 0
.Ltmp77:
# %bb.137:                              # %_ZNSt3mapIPvP24malloc_plus_memory_entrySt4lessIS0_ESaISt4pairIKS0_S2_EEED2Ev.exit.i
	ld.d	$a1, $fp, 120
	addi.d	$a0, $fp, 104
.Ltmp79:
	pcaddu18i	$ra, %call36(_ZNSt8_Rb_treeINSt7__cxx1112basic_stringIcSt11char_traitsIcESaIcEEESt4pairIKS5_P24malloc_plus_memory_entryESt10_Select1stISA_ESt4lessIS5_ESaISA_EE8_M_eraseEPSt13_Rb_tree_nodeISA_E)
	jirl	$ra, $ra, 0
.Ltmp80:
# %bb.138:                              # %_ZN10MallocPlusD2Ev.exit
	ld.d	$a1, $fp, 72
	addi.d	$a0, $fp, 56
.Ltmp82:
	pcaddu18i	$ra, %call36(_ZNSt8_Rb_treeIPvSt4pairIKS0_P24malloc_plus_memory_entryESt10_Select1stIS5_ESt4lessIS0_ESaIS5_EE8_M_eraseEPSt13_Rb_tree_nodeIS5_E)
	jirl	$ra, $ra, 0
.Ltmp83:
# %bb.139:                              # %_ZNSt3mapIPvP24malloc_plus_memory_entrySt4lessIS0_ESaISt4pairIKS0_S2_EEED2Ev.exit.i208
	ld.d	$a1, $fp, 24
	addi.d	$a0, $fp, 8
.Ltmp85:
	pcaddu18i	$ra, %call36(_ZNSt8_Rb_treeINSt7__cxx1112basic_stringIcSt11char_traitsIcESaIcEEESt4pairIKS5_P24malloc_plus_memory_entryESt10_Select1stISA_ESt4lessIS5_ESaISA_EE8_M_eraseEPSt13_Rb_tree_nodeISA_E)
	jirl	$ra, $ra, 0
.Ltmp86:
# %bb.140:                              # %_ZN10MallocPlusD2Ev.exit209
	move	$a0, $s3
	pcaddu18i	$ra, %call36(_Unwind_Resume)
	jirl	$ra, $ra, 0
.LBB13_141:
	ldptr.d	$a1, $fp, 2280
	sub.d	$a1, $a1, $a0
	pcaddu18i	$ra, %call36(_ZdlPvm)
	jirl	$ra, $ra, 0
	ldptr.d	$a0, $fp, 2240
	beqz	$a0, .LBB13_85
.LBB13_142:
	ldptr.d	$a1, $fp, 2256
	sub.d	$a1, $a1, $a0
	pcaddu18i	$ra, %call36(_ZdlPvm)
	jirl	$ra, $ra, 0
	ldptr.d	$a0, $fp, 2216
	beqz	$a0, .LBB13_86
.LBB13_143:
	ldptr.d	$a1, $fp, 2232
	sub.d	$a1, $a1, $a0
	pcaddu18i	$ra, %call36(_ZdlPvm)
	jirl	$ra, $ra, 0
	ldptr.d	$a0, $fp, 2192
	beqz	$a0, .LBB13_87
.LBB13_144:
	ldptr.d	$a1, $fp, 2208
	sub.d	$a1, $a1, $a0
	pcaddu18i	$ra, %call36(_ZdlPvm)
	jirl	$ra, $ra, 0
	ldptr.d	$a0, $fp, 2168
	beqz	$a0, .LBB13_88
.LBB13_145:
	ldptr.d	$a1, $fp, 2184
	sub.d	$a1, $a1, $a0
	pcaddu18i	$ra, %call36(_ZdlPvm)
	jirl	$ra, $ra, 0
	ldptr.d	$a0, $fp, 2144
	beqz	$a0, .LBB13_89
.LBB13_146:
	ldptr.d	$a1, $fp, 2160
	sub.d	$a1, $a1, $a0
	pcaddu18i	$ra, %call36(_ZdlPvm)
	jirl	$ra, $ra, 0
	ldptr.d	$a0, $fp, 2120
	beqz	$a0, .LBB13_90
.LBB13_147:
	ldptr.d	$a1, $fp, 2136
	sub.d	$a1, $a1, $a0
	pcaddu18i	$ra, %call36(_ZdlPvm)
	jirl	$ra, $ra, 0
	ldptr.d	$a0, $fp, 2096
	beqz	$a0, .LBB13_91
.LBB13_148:
	ldptr.d	$a1, $fp, 2112
	sub.d	$a1, $a1, $a0
	pcaddu18i	$ra, %call36(_ZdlPvm)
	jirl	$ra, $ra, 0
	ldptr.d	$a0, $fp, 2072
	beqz	$a0, .LBB13_92
.LBB13_149:
	ldptr.d	$a1, $fp, 2088
	sub.d	$a1, $a1, $a0
	pcaddu18i	$ra, %call36(_ZdlPvm)
	jirl	$ra, $ra, 0
	ldptr.d	$a0, $fp, 2048
	beqz	$a0, .LBB13_93
.LBB13_150:
	ldptr.d	$a1, $fp, 2064
	sub.d	$a1, $a1, $a0
	pcaddu18i	$ra, %call36(_ZdlPvm)
	jirl	$ra, $ra, 0
	ld.d	$a0, $fp, 2024
	beqz	$a0, .LBB13_94
.LBB13_151:
	ld.d	$a1, $fp, 2040
	sub.d	$a1, $a1, $a0
	pcaddu18i	$ra, %call36(_ZdlPvm)
	jirl	$ra, $ra, 0
	ld.d	$a0, $fp, 2000
	beqz	$a0, .LBB13_95
.LBB13_152:
	ld.d	$a1, $fp, 2016
	sub.d	$a1, $a1, $a0
	pcaddu18i	$ra, %call36(_ZdlPvm)
	jirl	$ra, $ra, 0
	ld.d	$a0, $fp, 1976
	beqz	$a0, .LBB13_96
.LBB13_153:
	ld.d	$a1, $fp, 1992
	sub.d	$a1, $a1, $a0
	pcaddu18i	$ra, %call36(_ZdlPvm)
	jirl	$ra, $ra, 0
	ld.d	$a0, $fp, 1952
	beqz	$a0, .LBB13_97
.LBB13_154:
	ld.d	$a1, $fp, 1968
	sub.d	$a1, $a1, $a0
	pcaddu18i	$ra, %call36(_ZdlPvm)
	jirl	$ra, $ra, 0
	ld.d	$a0, $fp, 1928
	beqz	$a0, .LBB13_98
.LBB13_155:
	ld.d	$a1, $fp, 1944
	sub.d	$a1, $a1, $a0
	pcaddu18i	$ra, %call36(_ZdlPvm)
	jirl	$ra, $ra, 0
	ld.d	$a0, $fp, 1904
	beqz	$a0, .LBB13_99
.LBB13_156:
	ld.d	$a1, $fp, 1920
	sub.d	$a1, $a1, $a0
	pcaddu18i	$ra, %call36(_ZdlPvm)
	jirl	$ra, $ra, 0
	ld.d	$a0, $fp, 1880
	beqz	$a0, .LBB13_100
.LBB13_157:
	ld.d	$a1, $fp, 1896
	sub.d	$a1, $a1, $a0
	pcaddu18i	$ra, %call36(_ZdlPvm)
	jirl	$ra, $ra, 0
	ld.d	$a0, $fp, 1856
	beqz	$a0, .LBB13_101
.LBB13_158:
	ld.d	$a1, $fp, 1872
	sub.d	$a1, $a1, $a0
	pcaddu18i	$ra, %call36(_ZdlPvm)
	jirl	$ra, $ra, 0
	ld.d	$a0, $fp, 1832
	beqz	$a0, .LBB13_102
.LBB13_159:
	ld.d	$a1, $fp, 1848
	sub.d	$a1, $a1, $a0
	pcaddu18i	$ra, %call36(_ZdlPvm)
	jirl	$ra, $ra, 0
	ld.d	$a0, $fp, 1808
	beqz	$a0, .LBB13_103
.LBB13_160:
	ld.d	$a1, $fp, 1824
	sub.d	$a1, $a1, $a0
	pcaddu18i	$ra, %call36(_ZdlPvm)
	jirl	$ra, $ra, 0
	ld.d	$a0, $fp, 1784
	beqz	$a0, .LBB13_104
.LBB13_161:
	ld.d	$a1, $fp, 1800
	sub.d	$a1, $a1, $a0
	pcaddu18i	$ra, %call36(_ZdlPvm)
	jirl	$ra, $ra, 0
	ld.d	$a0, $fp, 1760
	beqz	$a0, .LBB13_105
.LBB13_162:
	ld.d	$a1, $fp, 1776
	sub.d	$a1, $a1, $a0
	pcaddu18i	$ra, %call36(_ZdlPvm)
	jirl	$ra, $ra, 0
	ld.d	$a0, $fp, 1736
	beqz	$a0, .LBB13_106
.LBB13_163:
	ld.d	$a1, $fp, 1752
	sub.d	$a1, $a1, $a0
	pcaddu18i	$ra, %call36(_ZdlPvm)
	jirl	$ra, $ra, 0
	ld.d	$a0, $fp, 1712
	beqz	$a0, .LBB13_107
.LBB13_164:
	ld.d	$a1, $fp, 1728
	sub.d	$a1, $a1, $a0
	pcaddu18i	$ra, %call36(_ZdlPvm)
	jirl	$ra, $ra, 0
	ld.d	$a0, $fp, 1688
	beqz	$a0, .LBB13_108
.LBB13_165:
	ld.d	$a1, $fp, 1704
	sub.d	$a1, $a1, $a0
	pcaddu18i	$ra, %call36(_ZdlPvm)
	jirl	$ra, $ra, 0
	ld.d	$a0, $fp, 1664
	beqz	$a0, .LBB13_109
.LBB13_166:
	ld.d	$a1, $fp, 1680
	sub.d	$a1, $a1, $a0
	pcaddu18i	$ra, %call36(_ZdlPvm)
	jirl	$ra, $ra, 0
	ld.d	$a0, $fp, 1640
	beqz	$a0, .LBB13_110
.LBB13_167:
	ld.d	$a1, $fp, 1656
	sub.d	$a1, $a1, $a0
	pcaddu18i	$ra, %call36(_ZdlPvm)
	jirl	$ra, $ra, 0
	ld.d	$a0, $fp, 1616
	beqz	$a0, .LBB13_111
.LBB13_168:
	ld.d	$a1, $fp, 1632
	sub.d	$a1, $a1, $a0
	pcaddu18i	$ra, %call36(_ZdlPvm)
	jirl	$ra, $ra, 0
	ld.d	$a0, $fp, 1592
	beqz	$a0, .LBB13_112
.LBB13_169:
	ld.d	$a1, $fp, 1608
	sub.d	$a1, $a1, $a0
	pcaddu18i	$ra, %call36(_ZdlPvm)
	jirl	$ra, $ra, 0
	ld.d	$a0, $sp, 32                    # 8-byte Folded Reload
	ld.d	$a0, $a0, 0
	beqz	$a0, .LBB13_113
.LBB13_170:
	ld.d	$a1, $fp, 1584
	sub.d	$a1, $a1, $a0
	pcaddu18i	$ra, %call36(_ZdlPvm)
	jirl	$ra, $ra, 0
	ld.d	$a0, $fp, 1536
	beqz	$a0, .LBB13_114
.LBB13_171:
	ld.d	$a1, $fp, 1552
	sub.d	$a1, $a1, $a0
	pcaddu18i	$ra, %call36(_ZdlPvm)
	jirl	$ra, $ra, 0
	ld.d	$a0, $fp, 1512
	beqz	$a0, .LBB13_115
.LBB13_172:
	ld.d	$a1, $fp, 1528
	sub.d	$a1, $a1, $a0
	pcaddu18i	$ra, %call36(_ZdlPvm)
	jirl	$ra, $ra, 0
	ld.d	$a0, $fp, 1488
	beqz	$a0, .LBB13_116
.LBB13_173:
	ld.d	$a1, $fp, 1504
	sub.d	$a1, $a1, $a0
	pcaddu18i	$ra, %call36(_ZdlPvm)
	jirl	$ra, $ra, 0
	ld.d	$a0, $fp, 1464
	beqz	$a0, .LBB13_117
.LBB13_174:
	ld.d	$a1, $fp, 1480
	sub.d	$a1, $a1, $a0
	pcaddu18i	$ra, %call36(_ZdlPvm)
	jirl	$ra, $ra, 0
	ld.d	$a0, $fp, 1440
	beqz	$a0, .LBB13_118
.LBB13_175:
	ld.d	$a1, $fp, 1456
	sub.d	$a1, $a1, $a0
	pcaddu18i	$ra, %call36(_ZdlPvm)
	jirl	$ra, $ra, 0
	ld.d	$a0, $sp, 40                    # 8-byte Folded Reload
	ld.d	$a0, $a0, 0
	addi.d	$s0, $fp, 1304
	beqz	$a0, .LBB13_119
.LBB13_176:
	ld.d	$a1, $fp, 1432
	sub.d	$a1, $a1, $a0
	pcaddu18i	$ra, %call36(_ZdlPvm)
	jirl	$ra, $ra, 0
	ld.d	$a0, $s0, 0
	beqz	$a0, .LBB13_120
.LBB13_177:
	ld.d	$a1, $fp, 1320
	sub.d	$a1, $a1, $a0
	pcaddu18i	$ra, %call36(_ZdlPvm)
	jirl	$ra, $ra, 0
	ld.d	$a0, $fp, 1096
	ld.d	$s0, $sp, 48                    # 8-byte Folded Reload
	beqz	$a0, .LBB13_121
.LBB13_178:
	ld.d	$a1, $fp, 1112
	sub.d	$a1, $a1, $a0
	pcaddu18i	$ra, %call36(_ZdlPvm)
	jirl	$ra, $ra, 0
	ld.d	$a0, $sp, 72                    # 8-byte Folded Reload
	ld.d	$a0, $a0, 0
	beqz	$a0, .LBB13_122
.LBB13_179:
	ld.d	$a1, $fp, 1088
	sub.d	$a1, $a1, $a0
	pcaddu18i	$ra, %call36(_ZdlPvm)
	jirl	$ra, $ra, 0
	ld.d	$a0, $sp, 64                    # 8-byte Folded Reload
	ld.d	$a0, $a0, 0
	beqz	$a0, .LBB13_123
.LBB13_180:
	ld.d	$a1, $fp, 1064
	sub.d	$a1, $a1, $a0
	pcaddu18i	$ra, %call36(_ZdlPvm)
	jirl	$ra, $ra, 0
	ld.d	$a0, $s4, 0
	beqz	$a0, .LBB13_124
.LBB13_181:
	ld.d	$a1, $fp, 1040
	sub.d	$a1, $a1, $a0
	pcaddu18i	$ra, %call36(_ZdlPvm)
	jirl	$ra, $ra, 0
	ld.d	$a0, $fp, 1000
	beqz	$a0, .LBB13_125
.LBB13_182:
	ld.d	$a1, $fp, 1016
	sub.d	$a1, $a1, $a0
	pcaddu18i	$ra, %call36(_ZdlPvm)
	jirl	$ra, $ra, 0
	ld.d	$a0, $fp, 976
	beqz	$a0, .LBB13_126
.LBB13_183:
	ld.d	$a1, $fp, 992
	sub.d	$a1, $a1, $a0
	pcaddu18i	$ra, %call36(_ZdlPvm)
	jirl	$ra, $ra, 0
	ld.d	$a0, $s0, 0
	beqz	$a0, .LBB13_127
.LBB13_184:
	ld.d	$a1, $fp, 968
	sub.d	$a1, $a1, $a0
	pcaddu18i	$ra, %call36(_ZdlPvm)
	jirl	$ra, $ra, 0
	ld.d	$a0, $s7, 0
	beqz	$a0, .LBB13_128
.LBB13_185:
	ld.d	$a1, $fp, 944
	sub.d	$a1, $a1, $a0
	pcaddu18i	$ra, %call36(_ZdlPvm)
	jirl	$ra, $ra, 0
	ld.d	$a0, $s6, 0
	beqz	$a0, .LBB13_129
.LBB13_186:
	ld.d	$a1, $fp, 920
	sub.d	$a1, $a1, $a0
	pcaddu18i	$ra, %call36(_ZdlPvm)
	jirl	$ra, $ra, 0
	ld.d	$a0, $s2, 0
	beqz	$a0, .LBB13_130
.LBB13_187:
	ld.d	$a1, $fp, 896
	sub.d	$a1, $a1, $a0
	pcaddu18i	$ra, %call36(_ZdlPvm)
	jirl	$ra, $ra, 0
	ld.d	$a0, $s1, 0
	beqz	$a0, .LBB13_131
.LBB13_188:
	ld.d	$a1, $fp, 872
	sub.d	$a1, $a1, $a0
	pcaddu18i	$ra, %call36(_ZdlPvm)
	jirl	$ra, $ra, 0
	ld.d	$a0, $fp, 752
	beqz	$a0, .LBB13_132
.LBB13_189:
	ld.d	$a1, $fp, 768
	sub.d	$a1, $a1, $a0
	pcaddu18i	$ra, %call36(_ZdlPvm)
	jirl	$ra, $ra, 0
	ld.d	$a0, $fp, 728
	beqz	$a0, .LBB13_133
.LBB13_190:
	ld.d	$a1, $fp, 744
	sub.d	$a1, $a1, $a0
	pcaddu18i	$ra, %call36(_ZdlPvm)
	jirl	$ra, $ra, 0
	ld.d	$a0, $fp, 704
	beqz	$a0, .LBB13_134
.LBB13_191:
	ld.d	$a1, $fp, 720
	sub.d	$a1, $a1, $a0
	pcaddu18i	$ra, %call36(_ZdlPvm)
	jirl	$ra, $ra, 0
	ld.d	$a0, $sp, 120                   # 8-byte Folded Reload
	ld.d	$a0, $a0, 0
	bnez	$a0, .LBB13_135
	b	.LBB13_136
.LBB13_192:
.Ltmp87:
	pcaddu18i	$ra, %call36(__clang_call_terminate)
	jirl	$ra, $ra, 0
.LBB13_193:
.Ltmp84:
	pcaddu18i	$ra, %call36(__clang_call_terminate)
	jirl	$ra, $ra, 0
.LBB13_194:
.Ltmp81:
	pcaddu18i	$ra, %call36(__clang_call_terminate)
	jirl	$ra, $ra, 0
.LBB13_195:
.Ltmp78:
	pcaddu18i	$ra, %call36(__clang_call_terminate)
	jirl	$ra, $ra, 0
.Lfunc_end13:
	.size	_ZN4MeshC2Eiiiiddiii, .Lfunc_end13-_ZN4MeshC2Eiiiiddiii
	.cfi_endproc
	.section	.gcc_except_table,"a",@progbits
	.p2align	2, 0x0
GCC_except_table13:
.Lexception5:
	.byte	255                             # @LPStart Encoding = omit
	.byte	155                             # @TType Encoding = indirect pcrel sdata4
	.uleb128 .Lttbase1-.Lttbaseref1
.Lttbaseref1:
	.byte	1                               # Call site Encoding = uleb128
	.uleb128 .Lcst_end5-.Lcst_begin5
.Lcst_begin5:
	.uleb128 .Lfunc_begin5-.Lfunc_begin5    # >> Call Site 1 <<
	.uleb128 .Ltmp53-.Lfunc_begin5          #   Call between .Lfunc_begin5 and .Ltmp53
	.byte	0                               #     has no landing pad
	.byte	0                               #   On action: cleanup
	.uleb128 .Ltmp53-.Lfunc_begin5          # >> Call Site 2 <<
	.uleb128 .Ltmp66-.Ltmp53                #   Call between .Ltmp53 and .Ltmp66
	.uleb128 .Ltmp67-.Lfunc_begin5          #     jumps to .Ltmp67
	.byte	0                               #   On action: cleanup
	.uleb128 .Ltmp68-.Lfunc_begin5          # >> Call Site 3 <<
	.uleb128 .Ltmp69-.Ltmp68                #   Call between .Ltmp68 and .Ltmp69
	.uleb128 .Ltmp72-.Lfunc_begin5          #     jumps to .Ltmp72
	.byte	0                               #   On action: cleanup
	.uleb128 .Ltmp69-.Lfunc_begin5          # >> Call Site 4 <<
	.uleb128 .Ltmp70-.Ltmp69                #   Call between .Ltmp69 and .Ltmp70
	.byte	0                               #     has no landing pad
	.byte	0                               #   On action: cleanup
	.uleb128 .Ltmp70-.Lfunc_begin5          # >> Call Site 5 <<
	.uleb128 .Ltmp71-.Ltmp70                #   Call between .Ltmp70 and .Ltmp71
	.uleb128 .Ltmp72-.Lfunc_begin5          #     jumps to .Ltmp72
	.byte	0                               #   On action: cleanup
	.uleb128 .Ltmp71-.Lfunc_begin5          # >> Call Site 6 <<
	.uleb128 .Ltmp73-.Ltmp71                #   Call between .Ltmp71 and .Ltmp73
	.byte	0                               #     has no landing pad
	.byte	0                               #   On action: cleanup
	.uleb128 .Ltmp73-.Lfunc_begin5          # >> Call Site 7 <<
	.uleb128 .Ltmp74-.Ltmp73                #   Call between .Ltmp73 and .Ltmp74
	.uleb128 .Ltmp75-.Lfunc_begin5          #     jumps to .Ltmp75
	.byte	0                               #   On action: cleanup
	.uleb128 .Ltmp74-.Lfunc_begin5          # >> Call Site 8 <<
	.uleb128 .Ltmp76-.Ltmp74                #   Call between .Ltmp74 and .Ltmp76
	.byte	0                               #     has no landing pad
	.byte	0                               #   On action: cleanup
	.uleb128 .Ltmp76-.Lfunc_begin5          # >> Call Site 9 <<
	.uleb128 .Ltmp77-.Ltmp76                #   Call between .Ltmp76 and .Ltmp77
	.uleb128 .Ltmp78-.Lfunc_begin5          #     jumps to .Ltmp78
	.byte	1                               #   On action: 1
	.uleb128 .Ltmp79-.Lfunc_begin5          # >> Call Site 10 <<
	.uleb128 .Ltmp80-.Ltmp79                #   Call between .Ltmp79 and .Ltmp80
	.uleb128 .Ltmp81-.Lfunc_begin5          #     jumps to .Ltmp81
	.byte	1                               #   On action: 1
	.uleb128 .Ltmp82-.Lfunc_begin5          # >> Call Site 11 <<
	.uleb128 .Ltmp83-.Ltmp82                #   Call between .Ltmp82 and .Ltmp83
	.uleb128 .Ltmp84-.Lfunc_begin5          #     jumps to .Ltmp84
	.byte	1                               #   On action: 1
	.uleb128 .Ltmp85-.Lfunc_begin5          # >> Call Site 12 <<
	.uleb128 .Ltmp86-.Ltmp85                #   Call between .Ltmp85 and .Ltmp86
	.uleb128 .Ltmp87-.Lfunc_begin5          #     jumps to .Ltmp87
	.byte	1                               #   On action: 1
	.uleb128 .Ltmp86-.Lfunc_begin5          # >> Call Site 13 <<
	.uleb128 .Lfunc_end13-.Ltmp86           #   Call between .Ltmp86 and .Lfunc_end13
	.byte	0                               #     has no landing pad
	.byte	0                               #   On action: cleanup
.Lcst_end5:
	.byte	1                               # >> Action Record 1 <<
                                        #   Catch TypeInfo 1
	.byte	0                               #   No further actions
	.p2align	2, 0x0
                                        # >> Catch TypeInfos <<
	.word	0                               # TypeInfo 1
.Lttbase1:
	.p2align	2, 0x0
                                        # -- End function
	.text
	.globl	_ZN4Mesh4initEiid16partition_methodi # -- Begin function _ZN4Mesh4initEiid16partition_methodi
	.p2align	5
	.type	_ZN4Mesh4initEiid16partition_methodi,@function
_ZN4Mesh4initEiid16partition_methodi:   # @_ZN4Mesh4initEiid16partition_methodi
.Lfunc_begin6:
	.cfi_startproc
	.cfi_personality 155, DW.ref.__gxx_personality_v0
	.cfi_lsda 27, .Lexception6
# %bb.0:
	addi.d	$sp, $sp, -304
	.cfi_def_cfa_offset 304
	st.d	$ra, $sp, 296                   # 8-byte Folded Spill
	st.d	$fp, $sp, 288                   # 8-byte Folded Spill
	st.d	$s0, $sp, 280                   # 8-byte Folded Spill
	st.d	$s1, $sp, 272                   # 8-byte Folded Spill
	st.d	$s2, $sp, 264                   # 8-byte Folded Spill
	st.d	$s3, $sp, 256                   # 8-byte Folded Spill
	st.d	$s4, $sp, 248                   # 8-byte Folded Spill
	st.d	$s5, $sp, 240                   # 8-byte Folded Spill
	st.d	$s6, $sp, 232                   # 8-byte Folded Spill
	st.d	$s7, $sp, 224                   # 8-byte Folded Spill
	st.d	$s8, $sp, 216                   # 8-byte Folded Spill
	fst.d	$fs0, $sp, 208                  # 8-byte Folded Spill
	.cfi_offset 1, -8
	.cfi_offset 22, -16
	.cfi_offset 23, -24
	.cfi_offset 24, -32
	.cfi_offset 25, -40
	.cfi_offset 26, -48
	.cfi_offset 27, -56
	.cfi_offset 28, -64
	.cfi_offset 29, -72
	.cfi_offset 30, -80
	.cfi_offset 31, -88
	.cfi_offset 56, -96
	move	$fp, $a0
	ld.d	$a0, $a0, 1160
	beqz	$a0, .LBB14_3
# %bb.1:
	ld.d	$a0, $fp, 736
	ld.d	$a2, $fp, 728
	ld.w	$a1, $fp, 624
	sub.d	$a3, $a0, $a2
	srai.d	$a3, $a3, 2
	bgeu	$a3, $a1, .LBB14_5
# %bb.2:
	addi.d	$a0, $fp, 728
	sub.d	$a1, $a1, $a3
	pcaddu18i	$ra, %call36(_ZNSt6vectorIiSaIiEE17_M_default_appendEm)
	jirl	$ra, $ra, 0
	ld.w	$a1, $fp, 624
	b	.LBB14_8
.LBB14_3:
	fmov.d	$fs0, $fa0
	ld.w	$a0, $fp, 1124
	beqz	$a0, .LBB14_22
# %bb.4:
	move	$s2, $zero
	addi.w	$s3, $a1, 1
	addi.d	$a4, $a2, 2
	addi.w	$a2, $a2, 1
	addi.d	$a1, $a1, 2
	b	.LBB14_23
.LBB14_5:
	bgeu	$a1, $a3, .LBB14_8
# %bb.6:
	alsl.d	$a2, $a1, $a2, 2
	beq	$a0, $a2, .LBB14_8
# %bb.7:                                # %_ZSt8_DestroyIPiiEvT_S1_RSaIT0_E.exit.i.i
	st.d	$a2, $fp, 736
.LBB14_8:                               # %_ZNSt6vectorIiSaIiEE6resizeEm.exit
	ld.d	$a0, $fp, 760
	ld.d	$a2, $fp, 752
	sub.d	$a3, $a0, $a2
	srai.d	$a3, $a3, 2
	bgeu	$a3, $a1, .LBB14_10
# %bb.9:
	addi.d	$a0, $fp, 752
	sub.d	$a1, $a1, $a3
	pcaddu18i	$ra, %call36(_ZNSt6vectorIiSaIiEE17_M_default_appendEm)
	jirl	$ra, $ra, 0
	ld.w	$a1, $fp, 624
	b	.LBB14_13
.LBB14_10:
	bgeu	$a1, $a3, .LBB14_13
# %bb.11:
	alsl.d	$a2, $a1, $a2, 2
	beq	$a0, $a2, .LBB14_13
# %bb.12:                               # %_ZSt8_DestroyIPiiEvT_S1_RSaIT0_E.exit.i.i128
	st.d	$a2, $fp, 760
.LBB14_13:                              # %_ZNSt6vectorIiSaIiEE6resizeEm.exit129
	ld.w	$a0, $fp, 628
	ld.d	$a2, $fp, 1160
	beqz	$a0, .LBB14_15
# %bb.14:                               # %_ZNSt6vectorIiSaIiEE6resizeEm.exit129
	ori	$a0, $zero, 1
	blt	$a0, $a1, .LBB14_21
.LBB14_15:
	ld.d	$a0, $fp, 864
	ld.d	$a3, $fp, 856
	st.w	$zero, $fp, 636
	sub.d	$a4, $a0, $a3
	srai.d	$a4, $a4, 2
	st.d	$a2, $fp, 1168
	bgeu	$a4, $a2, .LBB14_17
# %bb.16:
	addi.d	$a0, $fp, 856
	sub.d	$a1, $a2, $a4
	pcaddu18i	$ra, %call36(_ZNSt6vectorIiSaIiEE17_M_default_appendEm)
	jirl	$ra, $ra, 0
	ld.w	$a1, $fp, 624
	b	.LBB14_20
.LBB14_17:
	bgeu	$a2, $a4, .LBB14_20
# %bb.18:
	alsl.d	$a2, $a2, $a3, 2
	beq	$a0, $a2, .LBB14_20
# %bb.19:                               # %_ZSt8_DestroyIPiiEvT_S1_RSaIT0_E.exit.i.i131
	st.d	$a2, $fp, 864
.LBB14_20:                              # %_ZNSt6vectorIiSaIiEE6resizeEm.exit132
	move	$a0, $fp
	pcaddu18i	$ra, %call36(_ZN4Mesh17calc_distributionEi)
	jirl	$ra, $ra, 0
	ld.d	$a2, $fp, 1160
.LBB14_21:
	move	$a0, $fp
	move	$a1, $a2
	pcaddu18i	$ra, %call36(_ZN4Mesh13calc_celltypeEm)
	jirl	$ra, $ra, 0
	ld.w	$a0, $fp, 1120
	b	.LBB14_112
.LBB14_22:
	ori	$s2, $zero, 1
	move	$a4, $a2
	move	$s3, $a1
.LBB14_23:
	ld.w	$a5, $fp, 0
	addi.d	$a5, $a5, -2
	sltui	$a5, $a5, 1
	mul.d	$a1, $a4, $a1
	slli.d	$a0, $a0, 2
	ld.w	$a4, $fp, 628
	maskeqz	$a0, $a0, $a5
	sub.w	$s0, $a1, $a0
	st.d	$s0, $fp, 1160
	st.w	$zero, $fp, 636
	beqz	$a4, .LBB14_26
# %bb.24:
	ld.d	$a0, $fp, 736
	ld.d	$a4, $fp, 728
	ld.w	$a1, $fp, 624
	st.d	$s0, $fp, 1168
	sub.d	$a5, $a0, $a4
	srai.d	$a5, $a5, 2
	addi.d	$s0, $fp, 728
	bgeu	$a5, $a1, .LBB14_27
# %bb.25:
	move	$s4, $a2
	move	$s5, $a3
	sub.d	$a1, $a1, $a5
	move	$a0, $s0
	pcaddu18i	$ra, %call36(_ZNSt6vectorIiSaIiEE17_M_default_appendEm)
	jirl	$ra, $ra, 0
	ld.w	$a1, $fp, 624
	b	.LBB14_31
.LBB14_26:
	move	$s4, $a2
	move	$s5, $a3
	b	.LBB14_45
.LBB14_27:
	bgeu	$a1, $a5, .LBB14_30
# %bb.28:
	alsl.d	$a4, $a1, $a4, 2
	beq	$a0, $a4, .LBB14_30
# %bb.29:                               # %_ZSt8_DestroyIPiiEvT_S1_RSaIT0_E.exit.i.i134
	move	$s4, $a2
	move	$s5, $a3
	st.d	$a4, $fp, 736
	b	.LBB14_31
.LBB14_30:
	move	$s4, $a2
	move	$s5, $a3
.LBB14_31:                              # %_ZNSt6vectorIiSaIiEE6resizeEm.exit135
	ld.d	$a0, $fp, 760
	ld.d	$a2, $fp, 752
	sub.d	$a3, $a0, $a2
	srai.d	$a3, $a3, 2
	bgeu	$a3, $a1, .LBB14_33
# %bb.32:
	addi.d	$a0, $fp, 752
	sub.d	$a1, $a1, $a3
	pcaddu18i	$ra, %call36(_ZNSt6vectorIiSaIiEE17_M_default_appendEm)
	jirl	$ra, $ra, 0
	ld.w	$a1, $fp, 624
	b	.LBB14_36
.LBB14_33:
	bgeu	$a1, $a3, .LBB14_36
# %bb.34:
	alsl.d	$a2, $a1, $a2, 2
	beq	$a0, $a2, .LBB14_36
# %bb.35:                               # %_ZSt8_DestroyIPiiEvT_S1_RSaIT0_E.exit.i.i137
	st.d	$a2, $fp, 760
.LBB14_36:                              # %_ZNSt6vectorIiSaIiEE6resizeEm.exit138
	ld.d	$a0, $s0, 0
	ori	$a2, $zero, 1
	blt	$a1, $a2, .LBB14_41
# %bb.37:                               # %.lr.ph
	ld.d	$a2, $fp, 1168
	move	$a3, $zero
	move	$a4, $a0
	b	.LBB14_39
	.p2align	4, , 16
.LBB14_38:                              #   in Loop: Header=BB14_39 Depth=1
	addi.d	$a3, $a3, 1
	addi.d	$a4, $a4, 4
	bge	$a3, $a1, .LBB14_41
.LBB14_39:                              # =>This Inner Loop Header: Depth=1
	div.du	$a5, $a2, $a1
	st.w	$a5, $a4, 0
	ld.w	$a1, $fp, 624
	mod.du	$a6, $a2, $a1
	addi.w	$a6, $a6, 0
	bge	$a3, $a6, .LBB14_38
# %bb.40:                               #   in Loop: Header=BB14_39 Depth=1
	addi.d	$a1, $a5, 1
	st.w	$a1, $a4, 0
	ld.w	$a1, $fp, 624
	b	.LBB14_38
.LBB14_41:                              # %._crit_edge
	ld.d	$a1, $fp, 752
	st.w	$zero, $a1, 0
	ld.w	$a2, $fp, 624
	ori	$a3, $zero, 2
	blt	$a2, $a3, .LBB14_44
# %bb.42:                               # %.lr.ph236
	move	$a2, $zero
	addi.d	$a3, $a1, 4
	ori	$a4, $zero, 1
	move	$a5, $a0
	.p2align	4, , 16
.LBB14_43:                              # =>This Inner Loop Header: Depth=1
	ld.w	$a6, $a5, 0
	add.d	$a2, $a6, $a2
	st.w	$a2, $a3, 0
	ld.w	$a6, $fp, 624
	addi.d	$a4, $a4, 1
	addi.d	$a5, $a5, 4
	addi.d	$a3, $a3, 4
	blt	$a4, $a6, .LBB14_43
.LBB14_44:                              # %._crit_edge237
	ld.w	$a2, $fp, 620
	slli.d	$a2, $a2, 2
	ldx.w	$s0, $a0, $a2
	st.d	$s0, $fp, 1160
	ldx.w	$a0, $a1, $a2
	st.w	$a0, $fp, 636
.LBB14_45:
	addi.d	$s1, $fp, 8
	pcalau12i	$a0, %pc_hi20(.L.str.50)
	addi.d	$a3, $a0, %pc_lo12(.L.str.50)
	ori	$a2, $zero, 4
	ori	$a4, $zero, 16
	move	$a0, $s1
	move	$a1, $s0
	pcaddu18i	$ra, %call36(_ZN10MallocPlus13memory_mallocEmmPKci)
	jirl	$ra, $ra, 0
	st.d	$a0, $fp, 1328
	pcalau12i	$a0, %pc_hi20(.L.str.51)
	addi.d	$a3, $a0, %pc_lo12(.L.str.51)
	ori	$a2, $zero, 4
	ori	$a4, $zero, 16
	move	$a0, $s1
	move	$a1, $s0
	pcaddu18i	$ra, %call36(_ZN10MallocPlus13memory_mallocEmmPKci)
	jirl	$ra, $ra, 0
	st.d	$a0, $fp, 1336
	pcalau12i	$a0, %pc_hi20(.L.str.52)
	addi.d	$a3, $a0, %pc_lo12(.L.str.52)
	ori	$a2, $zero, 4
	ori	$a4, $zero, 16
	move	$a0, $s1
	move	$a1, $s0
	pcaddu18i	$ra, %call36(_ZN10MallocPlus13memory_mallocEmmPKci)
	jirl	$ra, $ra, 0
	ld.d	$a1, $fp, 1312
	ld.d	$a2, $fp, 1304
	ld.d	$a4, $fp, 1160
	st.d	$a0, $fp, 1352
	sub.d	$a0, $a1, $a2
	srai.d	$a0, $a0, 2
	addi.d	$s0, $fp, 1304
	bgeu	$a0, $a4, .LBB14_47
# %bb.46:
	sub.d	$a1, $a4, $a0
	move	$a0, $s0
	pcaddu18i	$ra, %call36(_ZNSt6vectorIiSaIiEE17_M_default_appendEm)
	jirl	$ra, $ra, 0
	move	$a3, $s5
	b	.LBB14_50
.LBB14_47:
	move	$a3, $s5
	bgeu	$a4, $a0, .LBB14_50
# %bb.48:
	alsl.d	$a0, $a4, $a2, 2
	beq	$a1, $a0, .LBB14_50
# %bb.49:                               # %_ZSt8_DestroyIPiiEvT_S1_RSaIT0_E.exit.i.i140
	st.d	$a0, $fp, 1312
.LBB14_50:                              # %_ZNSt6vectorIiSaIiEE6resizeEm.exit141
	blt	$s4, $s2, .LBB14_71
# %bb.51:                               # %_ZNSt6vectorIiSaIiEE6resizeEm.exit141
	blt	$s3, $s2, .LBB14_71
# %bb.52:                               # %.preheader.preheader
	move	$a0, $zero
	addi.w	$a1, $s3, 1
	move	$a4, $s2
	b	.LBB14_54
	.p2align	4, , 16
.LBB14_53:                              # %._crit_edge242
                                        #   in Loop: Header=BB14_54 Depth=1
	addi.w	$a4, $a2, 1
	beq	$a2, $s4, .LBB14_71
.LBB14_54:                              # %.preheader
                                        # =>This Loop Header: Depth=1
                                        #     Child Loop BB14_57 Depth 2
                                        #     Child Loop BB14_64 Depth 2
	move	$a2, $a4
	sltui	$a4, $a4, 1
	xor	$t2, $a2, $s4
	ld.d	$a5, $fp, 1160
	ld.d	$a6, $fp, 1304
	ld.d	$a7, $fp, 1328
	ld.d	$t0, $fp, 1336
	ld.d	$t1, $fp, 1352
	sltui	$t2, $t2, 1
	or	$t5, $a4, $t2
	move	$t4, $s2
	move	$t3, $s2
	bnez	$t5, .LBB14_64
	b	.LBB14_57
	.p2align	4, , 16
.LBB14_55:                              #   in Loop: Header=BB14_57 Depth=2
	addi.w	$a0, $a0, 1
.LBB14_56:                              #   in Loop: Header=BB14_57 Depth=2
	addi.w	$t4, $t4, 1
	beq	$a1, $t4, .LBB14_53
.LBB14_57:                              # %.lr.ph241.split.us
                                        #   Parent Loop BB14_54 Depth=1
                                        # =>  This Inner Loop Header: Depth=2
	ld.w	$t3, $fp, 1124
	sltu	$t3, $zero, $t3
	xor	$t5, $s3, $t4
	sltui	$t5, $t5, 1
	and	$t6, $a4, $t5
	and	$t6, $t3, $t6
	bnez	$t6, .LBB14_56
# %bb.58:                               # %.lr.ph241.split.us
                                        #   in Loop: Header=BB14_57 Depth=2
	and	$t5, $t5, $t2
	and	$t3, $t5, $t3
	bnez	$t3, .LBB14_56
# %bb.59:                               #   in Loop: Header=BB14_57 Depth=2
	ld.w	$t3, $fp, 636
	blt	$a0, $t3, .LBB14_55
# %bb.60:                               #   in Loop: Header=BB14_57 Depth=2
	add.w	$t5, $t3, $a5
	bge	$a0, $t5, .LBB14_55
# %bb.61:                               #   in Loop: Header=BB14_57 Depth=2
	sub.w	$t3, $a0, $t3
	slli.d	$t3, $t3, 2
	stx.w	$a0, $a6, $t3
	stx.w	$t4, $a7, $t3
	stx.w	$a2, $t0, $t3
	stx.w	$zero, $t1, $t3
	b	.LBB14_55
	.p2align	4, , 16
.LBB14_62:                              #   in Loop: Header=BB14_64 Depth=2
	addi.w	$a0, $a0, 1
.LBB14_63:                              #   in Loop: Header=BB14_64 Depth=2
	addi.w	$t3, $t3, 1
	beq	$a1, $t3, .LBB14_53
.LBB14_64:                              # %.lr.ph241.split
                                        #   Parent Loop BB14_54 Depth=1
                                        # =>  This Inner Loop Header: Depth=2
	ld.w	$t4, $fp, 1124
	bnez	$t3, .LBB14_66
# %bb.65:                               # %.lr.ph241.split
                                        #   in Loop: Header=BB14_64 Depth=2
	bnez	$t4, .LBB14_63
.LBB14_66:                              #   in Loop: Header=BB14_64 Depth=2
	sltu	$t4, $zero, $t4
	xor	$t5, $s3, $t3
	sltui	$t5, $t5, 1
	and	$t6, $a4, $t5
	and	$t6, $t4, $t6
	bnez	$t6, .LBB14_63
# %bb.67:                               #   in Loop: Header=BB14_64 Depth=2
	and	$t5, $t5, $t2
	and	$t4, $t5, $t4
	bnez	$t4, .LBB14_63
# %bb.68:                               #   in Loop: Header=BB14_64 Depth=2
	ld.w	$t4, $fp, 636
	blt	$a0, $t4, .LBB14_62
# %bb.69:                               #   in Loop: Header=BB14_64 Depth=2
	add.w	$t5, $t4, $a5
	bge	$a0, $t5, .LBB14_62
# %bb.70:                               #   in Loop: Header=BB14_64 Depth=2
	sub.w	$t4, $a0, $t4
	slli.d	$t4, $t4, 2
	stx.w	$a0, $a6, $t4
	stx.w	$t3, $a7, $t4
	stx.w	$a2, $t0, $t4
	stx.w	$zero, $t1, $t4
	b	.LBB14_62
.LBB14_71:                              # %._crit_edge247
	ld.w	$a1, $fp, 624
	move	$a0, $fp
	move	$a2, $s0
	pcaddu18i	$ra, %call36(_ZN4Mesh15partition_cellsEiRSt6vectorIiSaIiEE16partition_method)
	jirl	$ra, $ra, 0
	ld.d	$a1, $fp, 1160
	move	$a0, $fp
	pcaddu18i	$ra, %call36(_ZN4Mesh13calc_celltypeEm)
	jirl	$ra, $ra, 0
	move	$a0, $fp
	move	$a1, $zero
	pcaddu18i	$ra, %call36(_ZN4Mesh24calc_spatial_coordinatesEi)
	jirl	$ra, $ra, 0
	ld.w	$a0, $fp, 1120
	ori	$a1, $zero, 1
	blt	$a0, $a1, .LBB14_109
# %bb.72:                               # %.lr.ph255
	addi.d	$s1, $fp, 784
	vrepli.b	$vr0, 0
	vst	$vr0, $sp, 16                   # 16-byte Folded Spill
	ori	$a1, $zero, 1
	b	.LBB14_74
	.p2align	4, , 16
.LBB14_73:                              # %_ZNSt6vectorIiSaIiEED2Ev.exit156
                                        #   in Loop: Header=BB14_74 Depth=1
	ld.d	$a0, $sp, 40                    # 8-byte Folded Reload
	sub.d	$a1, $a0, $s0
	move	$a0, $s0
	pcaddu18i	$ra, %call36(_ZdlPvm)
	jirl	$ra, $ra, 0
	ld.w	$a0, $fp, 1120
	ld.d	$a2, $sp, 32                    # 8-byte Folded Reload
	addi.w	$a1, $a2, 1
	bge	$a2, $a0, .LBB14_109
.LBB14_74:                              # =>This Loop Header: Depth=1
                                        #     Child Loop BB14_76 Depth 2
                                        #     Child Loop BB14_89 Depth 2
	ld.d	$a0, $fp, 1160
	st.d	$a1, $sp, 32                    # 8-byte Folded Spill
	st.d	$a0, $fp, 1176
	move	$a0, $fp
	pcaddu18i	$ra, %call36(_ZN4Mesh20calc_neighbors_localEv)
	jirl	$ra, $ra, 0
	move	$a0, $s1
	pcaddu18i	$ra, %call36(KDTree_Initialize)
	jirl	$ra, $ra, 0
	ld.d	$a0, $fp, 1160
	beqz	$a0, .LBB14_80
# %bb.75:                               # %.lr.ph.i.preheader
                                        #   in Loop: Header=BB14_74 Depth=1
	move	$a0, $zero
	ori	$s0, $zero, 1
	.p2align	4, , 16
.LBB14_76:                              # %.lr.ph.i
                                        #   Parent Loop BB14_74 Depth=1
                                        # =>  This Inner Loop Header: Depth=2
	ld.d	$a1, $fp, 1416
	slli.d	$a0, $a0, 3
	fldx.d	$fa0, $a1, $a0
	ld.d	$a1, $fp, 1440
	fst.d	$fa0, $sp, 72
	fldx.d	$fa1, $a1, $a0
	ld.d	$a1, $fp, 1464
	fadd.d	$fa0, $fa0, $fa1
	fst.d	$fa0, $sp, 88
	fldx.d	$fa0, $a1, $a0
	ld.d	$a1, $fp, 1488
	fst.d	$fa0, $sp, 80
	fldx.d	$fa1, $a1, $a0
	fadd.d	$fa0, $fa0, $fa1
	fst.d	$fa0, $sp, 96
	addi.d	$a1, $sp, 72
	move	$a0, $s1
	pcaddu18i	$ra, %call36(KDTree_AddElement)
	jirl	$ra, $ra, 0
	ld.d	$s2, $fp, 1160
	bstrpick.d	$a0, $s0, 31, 0
	addi.w	$s0, $s0, 1
	bltu	$a0, $s2, .LBB14_76
# %bb.77:                               # %_ZNSt6vectorIiSaIiEE17_S_check_init_lenEmRKS0_.exit.i
                                        #   in Loop: Header=BB14_74 Depth=1
	beqz	$s2, .LBB14_80
# %bb.78:                               # %.noexc144
                                        #   in Loop: Header=BB14_74 Depth=1
	slli.d	$s3, $s2, 2
	move	$a0, $s3
	pcaddu18i	$ra, %call36(_Znwm)
	jirl	$ra, $ra, 0
	move	$s0, $a0
	alsl.d	$a0, $s2, $a0, 2
	st.d	$a0, $sp, 40                    # 8-byte Folded Spill
	ori	$a0, $zero, 1
	st.w	$zero, $s0, 0
	beq	$s2, $a0, .LBB14_81
# %bb.79:                               # %_ZSt6fill_nIPimiET_S1_T0_RKT1_.exit.loopexit.i.i.i.i.i
                                        #   in Loop: Header=BB14_74 Depth=1
	addi.d	$a0, $s0, 4
	addi.d	$a2, $s3, -4
	move	$a1, $zero
	pcaddu18i	$ra, %call36(memset)
	jirl	$ra, $ra, 0
	move	$a0, $s2
	b	.LBB14_81
	.p2align	4, , 16
.LBB14_80:                              # %_ZNSt6vectorIiSaIiEE17_S_check_init_lenEmRKS0_.exit.i.thread
                                        #   in Loop: Header=BB14_74 Depth=1
	move	$a0, $zero
	st.d	$zero, $sp, 40                  # 8-byte Folded Spill
	move	$s0, $zero
.LBB14_81:                              # %_ZNSt6vectorIiSaIiEEC2EmRKS0_.exit
                                        #   in Loop: Header=BB14_74 Depth=1
	ld.d	$a4, $fp, 1416
	ld.d	$a5, $fp, 1440
	ld.d	$a6, $fp, 1464
	ld.d	$a7, $fp, 1488
.Ltmp88:
	addi.w	$a3, $a0, 0
	addi.d	$a1, $sp, 204
	move	$a0, $s1
	move	$a2, $s0
	fmov.d	$fa0, $fs0
	pcaddu18i	$ra, %call36(KDTree_QueryCircleIntersect_Double)
	jirl	$ra, $ra, 0
.Ltmp89:
# %bb.82:                               #   in Loop: Header=BB14_74 Depth=1
	ld.d	$s2, $fp, 1176
	srli.d	$a0, $s2, 61
	bnez	$a0, .LBB14_139
# %bb.83:                               # %_ZNSt6vectorIiSaIiEE17_S_check_init_lenEmRKS0_.exit.i145
                                        #   in Loop: Header=BB14_74 Depth=1
	beqz	$s2, .LBB14_86
# %bb.84:                               #   in Loop: Header=BB14_74 Depth=1
	slli.d	$s4, $s2, 2
.Ltmp91:
	move	$a0, $s4
	pcaddu18i	$ra, %call36(_Znwm)
	jirl	$ra, $ra, 0
.Ltmp92:
# %bb.85:                               # %.noexc149
                                        #   in Loop: Header=BB14_74 Depth=1
	move	$s3, $a0
	st.d	$a0, $sp, 176
	alsl.d	$s2, $s2, $a0, 2
	st.d	$s2, $sp, 192
	move	$a1, $zero
	move	$a2, $s4
	pcaddu18i	$ra, %call36(memset)
	jirl	$ra, $ra, 0
	ld.w	$a0, $sp, 204
	st.d	$s2, $sp, 184
	ori	$a7, $zero, 1
	bge	$a0, $a7, .LBB14_87
	b	.LBB14_91
	.p2align	4, , 16
.LBB14_86:                              # %_ZNSt12_Vector_baseIiSaIiEEC2EmRKS0_.exit.thread.i147
                                        #   in Loop: Header=BB14_74 Depth=1
	move	$s3, $zero
	move	$s2, $zero
	st.d	$zero, $sp, 192
	vld	$vr0, $sp, 16                   # 16-byte Folded Reload
	vst	$vr0, $sp, 176
	ld.w	$a0, $sp, 204
	st.d	$s2, $sp, 184
	ori	$a7, $zero, 1
	blt	$a0, $a7, .LBB14_91
.LBB14_87:                              # %.lr.ph250
                                        #   in Loop: Header=BB14_74 Depth=1
	ld.d	$a1, $fp, 1352
	ld.w	$a2, $fp, 1120
	move	$a3, $zero
	move	$a4, $s0
	b	.LBB14_89
	.p2align	4, , 16
.LBB14_88:                              #   in Loop: Header=BB14_89 Depth=2
	addi.d	$a3, $a3, 1
	addi.d	$a4, $a4, 4
	bgeu	$a3, $a0, .LBB14_91
.LBB14_89:                              #   Parent Loop BB14_74 Depth=1
                                        # =>  This Inner Loop Header: Depth=2
	ld.w	$a5, $a4, 0
	slli.d	$a5, $a5, 2
	ldx.w	$a6, $a1, $a5
	bge	$a6, $a2, .LBB14_88
# %bb.90:                               #   in Loop: Header=BB14_89 Depth=2
	stx.w	$a7, $s3, $a5
	b	.LBB14_88
	.p2align	4, , 16
.LBB14_91:                              # %._crit_edge251
                                        #   in Loop: Header=BB14_74 Depth=1
.Ltmp94:
	move	$a0, $s1
	pcaddu18i	$ra, %call36(KDTree_Destroy)
	jirl	$ra, $ra, 0
.Ltmp95:
# %bb.92:                               #   in Loop: Header=BB14_74 Depth=1
	st.w	$zero, $sp, 172
	st.w	$zero, $sp, 168
.Ltmp97:
	addi.d	$a1, $sp, 176
	addi.d	$a2, $sp, 172
	addi.d	$a3, $sp, 168
	move	$a0, $fp
	pcaddu18i	$ra, %call36(_ZN4Mesh13refine_smoothERSt6vectorIiSaIiEERiS4_)
	jirl	$ra, $ra, 0
.Ltmp98:
# %bb.93:                               #   in Loop: Header=BB14_74 Depth=1
	move	$s4, $a0
	st.w	$zero, $sp, 80
	st.d	$zero, $sp, 88
	addi.d	$a0, $sp, 80
	st.d	$a0, $sp, 96
	st.d	$a0, $sp, 104
	st.d	$zero, $sp, 112
	st.w	$zero, $sp, 128
	st.d	$zero, $sp, 136
	addi.d	$a0, $sp, 128
	st.d	$a0, $sp, 144
	st.d	$a0, $sp, 152
	ld.d	$a0, $sp, 184
	ld.d	$s3, $sp, 176
	st.d	$zero, $sp, 160
	ld.w	$s5, $sp, 172
	ld.w	$s6, $sp, 168
	sub.d	$s8, $a0, $s3
	st.d	$zero, $sp, 48
	vld	$vr0, $sp, 16                   # 16-byte Folded Reload
	vst	$vr0, $sp, 56
	beq	$a0, $s3, .LBB14_98
# %bb.94:                               #   in Loop: Header=BB14_74 Depth=1
	addi.w	$a0, $zero, -3
	lu52i.d	$a0, $a0, 2047
	bgeu	$s8, $a0, .LBB14_137
# %bb.95:                               # %_ZNSt15__new_allocatorIiE8allocateEmPKv.exit.i.i.i.i
                                        #   in Loop: Header=BB14_74 Depth=1
.Ltmp100:
	move	$a0, $s8
	pcaddu18i	$ra, %call36(_Znwm)
	jirl	$ra, $ra, 0
.Ltmp101:
# %bb.96:                               # %.noexc152
                                        #   in Loop: Header=BB14_74 Depth=1
	move	$s7, $a0
	st.d	$a0, $sp, 48
	add.d	$s2, $a0, $s8
	st.d	$s2, $sp, 64
	ori	$a0, $zero, 5
	bltu	$s8, $a0, .LBB14_107
# %bb.97:                               #   in Loop: Header=BB14_74 Depth=1
	move	$a0, $s7
	move	$a1, $s3
	move	$a2, $s8
	pcaddu18i	$ra, %call36(memmove)
	jirl	$ra, $ra, 0
	b	.LBB14_99
	.p2align	4, , 16
.LBB14_98:                              # %.thread
                                        #   in Loop: Header=BB14_74 Depth=1
	move	$s7, $zero
	st.d	$zero, $sp, 48
	st.d	$s8, $sp, 64
	move	$s2, $s8
.LBB14_99:                              #   in Loop: Header=BB14_74 Depth=1
	st.d	$s2, $sp, 56
.Ltmp105:
	addi.d	$a3, $sp, 48
	addi.d	$a5, $sp, 72
	move	$a0, $fp
	move	$a1, $s5
	move	$a2, $s6
	move	$a4, $zero
	pcaddu18i	$ra, %call36(_ZN4Mesh10rezone_allEiiSt6vectorIiSaIiEEiR10MallocPlus)
	jirl	$ra, $ra, 0
.Ltmp106:
# %bb.100:                              #   in Loop: Header=BB14_74 Depth=1
	beqz	$s7, .LBB14_102
# %bb.101:                              #   in Loop: Header=BB14_74 Depth=1
	sub.d	$a1, $s2, $s7
	move	$a0, $s7
	pcaddu18i	$ra, %call36(_ZdlPvm)
	jirl	$ra, $ra, 0
.LBB14_102:                             # %_ZNSt6vectorIiSaIiEED2Ev.exit
                                        #   in Loop: Header=BB14_74 Depth=1
	st.d	$s4, $fp, 1160
.Ltmp108:
	move	$a0, $fp
	move	$a1, $zero
	pcaddu18i	$ra, %call36(_ZN4Mesh24calc_spatial_coordinatesEi)
	jirl	$ra, $ra, 0
.Ltmp109:
# %bb.103:                              #   in Loop: Header=BB14_74 Depth=1
	ld.d	$a1, $sp, 136
.Ltmp111:
	addi.d	$a0, $sp, 120
	pcaddu18i	$ra, %call36(_ZNSt8_Rb_treeIPvSt4pairIKS0_P24malloc_plus_memory_entryESt10_Select1stIS5_ESt4lessIS0_ESaIS5_EE8_M_eraseEPSt13_Rb_tree_nodeIS5_E)
	jirl	$ra, $ra, 0
.Ltmp112:
# %bb.104:                              # %_ZNSt3mapIPvP24malloc_plus_memory_entrySt4lessIS0_ESaISt4pairIKS0_S2_EEED2Ev.exit.i
                                        #   in Loop: Header=BB14_74 Depth=1
	ld.d	$a1, $sp, 88
.Ltmp114:
	addi.d	$a0, $sp, 72
	pcaddu18i	$ra, %call36(_ZNSt8_Rb_treeINSt7__cxx1112basic_stringIcSt11char_traitsIcESaIcEEESt4pairIKS5_P24malloc_plus_memory_entryESt10_Select1stISA_ESt4lessIS5_ESaISA_EE8_M_eraseEPSt13_Rb_tree_nodeISA_E)
	jirl	$ra, $ra, 0
.Ltmp115:
# %bb.105:                              # %_ZN10MallocPlusD2Ev.exit
                                        #   in Loop: Header=BB14_74 Depth=1
	beqz	$s3, .LBB14_73
# %bb.106:                              #   in Loop: Header=BB14_74 Depth=1
	ld.d	$a0, $sp, 192
	sub.d	$a1, $a0, $s3
	move	$a0, $s3
	pcaddu18i	$ra, %call36(_ZdlPvm)
	jirl	$ra, $ra, 0
	b	.LBB14_73
.LBB14_107:                             #   in Loop: Header=BB14_74 Depth=1
	ori	$a0, $zero, 4
	bne	$s8, $a0, .LBB14_99
# %bb.108:                              #   in Loop: Header=BB14_74 Depth=1
	ld.w	$a0, $s3, 0
	st.w	$a0, $s7, 0
	b	.LBB14_99
.LBB14_109:                             # %._crit_edge256
	ld.d	$a1, $fp, 1304
	ld.d	$a2, $fp, 1312
	beq	$a2, $a1, .LBB14_111
# %bb.110:                              # %_ZSt8_DestroyIPiiEvT_S1_RSaIT0_E.exit.i.i143
	st.d	$a1, $fp, 1312
.LBB14_111:                             # %_ZNSt6vectorIiSaIiEE5clearEv.exit
	ld.d	$a1, $fp, 1160
	st.d	$a1, $fp, 1176
.LBB14_112:
	ld.w	$a1, $fp, 1136
	move	$a3, $zero
	st.d	$zero, $sp, 72
	ld.w	$a2, $fp, 1144
	st.w	$a1, $sp, 80
	st.w	$a1, $sp, 84
	st.w	$zero, $sp, 176
	st.w	$a2, $sp, 180
	st.w	$zero, $sp, 184
	st.w	$a2, $sp, 188
	ori	$s6, $zero, 1
	addi.w	$a1, $zero, -4
	lu52i.d	$a1, $a1, 2047
	st.d	$a1, $sp, 40                    # 8-byte Folded Spill
	addi.w	$a1, $zero, -1
	lu52i.d	$s4, $a1, 511
	b	.LBB14_114
	.p2align	4, , 16
.LBB14_113:                             # %._crit_edge264
                                        #   in Loop: Header=BB14_114 Depth=1
	ld.d	$a3, $sp, 8                     # 8-byte Folded Reload
	addi.d	$a3, $a3, 1
	ori	$a1, $zero, 4
	beq	$a3, $a1, .LBB14_135
.LBB14_114:                             # =>This Loop Header: Depth=1
                                        #     Child Loop BB14_117 Depth 2
                                        #       Child Loop BB14_121 Depth 3
	ori	$a1, $zero, 2
	sll.w	$a1, $a1, $a0
	st.d	$a3, $sp, 8                     # 8-byte Folded Spill
	blt	$a1, $s6, .LBB14_113
# %bb.115:                              # %.lr.ph263
                                        #   in Loop: Header=BB14_114 Depth=1
	slli.d	$a2, $a3, 2
	addi.d	$a3, $sp, 176
	ldx.w	$a3, $a2, $a3
	addi.d	$a4, $sp, 72
	ldx.w	$a2, $a2, $a4
	addi.d	$a4, $a3, 1
	st.d	$a4, $sp, 16                    # 8-byte Folded Spill
	mul.d	$s3, $a1, $a3
	st.d	$a2, $sp, 32                    # 8-byte Folded Spill
	addi.d	$s7, $a2, 1
	b	.LBB14_117
	.p2align	4, , 16
.LBB14_116:                             # %._crit_edge260
                                        #   in Loop: Header=BB14_117 Depth=2
	addi.w	$s3, $s3, 1
	ld.d	$a2, $sp, 16                    # 8-byte Folded Reload
	mul.w	$a2, $a1, $a2
	bge	$s3, $a2, .LBB14_113
.LBB14_117:                             #   Parent Loop BB14_114 Depth=1
                                        # =>  This Loop Header: Depth=2
                                        #       Child Loop BB14_121 Depth 3
	ld.d	$a2, $sp, 32                    # 8-byte Folded Reload
	mul.w	$s5, $a2, $a1
	ori	$a1, $zero, 2
	sll.w	$a1, $a1, $a0
	mul.w	$a1, $a1, $s7
	blt	$s5, $a1, .LBB14_121
# %bb.118:                              # %.._crit_edge260_crit_edge
                                        #   in Loop: Header=BB14_117 Depth=2
	ori	$a1, $zero, 2
	sll.w	$a1, $a1, $a0
	b	.LBB14_116
	.p2align	4, , 16
.LBB14_119:                             #   in Loop: Header=BB14_121 Depth=3
	st.w	$s3, $a0, 0
	addi.d	$a0, $a0, 4
	st.d	$a0, $fp, 712
.LBB14_120:                             # %_ZNSt6vectorIiSaIiEE9push_backERKi.exit170
                                        #   in Loop: Header=BB14_121 Depth=3
	ld.wu	$a0, $fp, 1120
	addi.w	$s5, $s5, 1
	ori	$a1, $zero, 2
	sll.w	$a1, $a1, $a0
	mul.w	$a2, $a1, $s7
	bge	$s5, $a2, .LBB14_116
.LBB14_121:                             # %.lr.ph259
                                        #   Parent Loop BB14_114 Depth=1
                                        #     Parent Loop BB14_117 Depth=2
                                        # =>    This Inner Loop Header: Depth=3
	ld.d	$a0, $fp, 688
	ld.d	$a1, $fp, 696
	beq	$a0, $a1, .LBB14_123
# %bb.122:                              #   in Loop: Header=BB14_121 Depth=3
	st.w	$s5, $a0, 0
	addi.d	$a0, $a0, 4
	st.d	$a0, $fp, 688
	ld.d	$a0, $fp, 712
	ld.d	$a1, $fp, 720
	bne	$a0, $a1, .LBB14_119
	b	.LBB14_129
	.p2align	4, , 16
.LBB14_123:                             #   in Loop: Header=BB14_121 Depth=3
	ld.d	$s1, $fp, 680
	sub.d	$s0, $a0, $s1
	ld.d	$a0, $sp, 40                    # 8-byte Folded Reload
	beq	$s0, $a0, .LBB14_136
# %bb.124:                              # %_ZNSt12_Vector_baseIiSaIiEE11_M_allocateEm.exit.i.i
                                        #   in Loop: Header=BB14_121 Depth=3
	srai.d	$a0, $s0, 2
	sltu	$a1, $s6, $a0
	masknez	$a2, $s6, $a1
	maskeqz	$a1, $a0, $a1
	or	$a1, $a1, $a2
	add.d	$a0, $a1, $a0
	sltu	$a1, $a0, $a1
	sltu	$a2, $a0, $s4
	maskeqz	$a0, $a0, $a2
	masknez	$a2, $s4, $a2
	or	$a0, $a0, $a2
	masknez	$a0, $a0, $a1
	maskeqz	$a1, $s4, $a1
	or	$s8, $a1, $a0
	slli.d	$a0, $s8, 2
	pcaddu18i	$ra, %call36(_Znwm)
	jirl	$ra, $ra, 0
	move	$s2, $a0
	stx.w	$s5, $a0, $s0
	blt	$s0, $s6, .LBB14_126
# %bb.125:                              #   in Loop: Header=BB14_121 Depth=3
	move	$a0, $s2
	move	$a1, $s1
	move	$a2, $s0
	pcaddu18i	$ra, %call36(memcpy)
	jirl	$ra, $ra, 0
.LBB14_126:                             # %_ZNSt6vectorIiSaIiEE11_S_relocateEPiS2_S2_RS0_.exit.i.i
                                        #   in Loop: Header=BB14_121 Depth=3
	beqz	$s1, .LBB14_128
# %bb.127:                              #   in Loop: Header=BB14_121 Depth=3
	move	$a0, $s1
	move	$a1, $s0
	pcaddu18i	$ra, %call36(_ZdlPvm)
	jirl	$ra, $ra, 0
.LBB14_128:                             # %_ZNSt6vectorIiSaIiEE17_M_realloc_appendIJRKiEEEvDpOT_.exit.i
                                        #   in Loop: Header=BB14_121 Depth=3
	add.d	$a0, $s2, $s0
	addi.d	$a0, $a0, 4
	st.d	$s2, $fp, 680
	st.d	$a0, $fp, 688
	alsl.d	$a0, $s8, $s2, 2
	st.d	$a0, $fp, 696
	ld.d	$a0, $fp, 712
	ld.d	$a1, $fp, 720
	bne	$a0, $a1, .LBB14_119
.LBB14_129:                             #   in Loop: Header=BB14_121 Depth=3
	ld.d	$s1, $fp, 704
	sub.d	$s0, $a0, $s1
	ld.d	$a0, $sp, 40                    # 8-byte Folded Reload
	beq	$s0, $a0, .LBB14_136
# %bb.130:                              # %_ZNSt12_Vector_baseIiSaIiEE11_M_allocateEm.exit.i.i165
                                        #   in Loop: Header=BB14_121 Depth=3
	srai.d	$a0, $s0, 2
	sltu	$a1, $s6, $a0
	masknez	$a2, $s6, $a1
	maskeqz	$a1, $a0, $a1
	or	$a1, $a1, $a2
	add.d	$a0, $a1, $a0
	sltu	$a1, $a0, $a1
	sltu	$a2, $a0, $s4
	maskeqz	$a0, $a0, $a2
	masknez	$a2, $s4, $a2
	or	$a0, $a0, $a2
	masknez	$a0, $a0, $a1
	maskeqz	$a1, $s4, $a1
	or	$s8, $a1, $a0
	slli.d	$a0, $s8, 2
	pcaddu18i	$ra, %call36(_Znwm)
	jirl	$ra, $ra, 0
	move	$s2, $a0
	stx.w	$s3, $a0, $s0
	blt	$s0, $s6, .LBB14_132
# %bb.131:                              #   in Loop: Header=BB14_121 Depth=3
	move	$a0, $s2
	move	$a1, $s1
	move	$a2, $s0
	pcaddu18i	$ra, %call36(memcpy)
	jirl	$ra, $ra, 0
.LBB14_132:                             # %_ZNSt6vectorIiSaIiEE11_S_relocateEPiS2_S2_RS0_.exit.i.i167
                                        #   in Loop: Header=BB14_121 Depth=3
	beqz	$s1, .LBB14_134
# %bb.133:                              #   in Loop: Header=BB14_121 Depth=3
	move	$a0, $s1
	move	$a1, $s0
	pcaddu18i	$ra, %call36(_ZdlPvm)
	jirl	$ra, $ra, 0
.LBB14_134:                             # %_ZNSt6vectorIiSaIiEE17_M_realloc_appendIJRKiEEEvDpOT_.exit.i169
                                        #   in Loop: Header=BB14_121 Depth=3
	add.d	$a0, $s2, $s0
	addi.d	$a0, $a0, 4
	st.d	$s2, $fp, 704
	st.d	$a0, $fp, 712
	alsl.d	$a0, $s8, $s2, 2
	st.d	$a0, $fp, 720
	b	.LBB14_120
.LBB14_135:
	fld.d	$fs0, $sp, 208                  # 8-byte Folded Reload
	ld.d	$s8, $sp, 216                   # 8-byte Folded Reload
	ld.d	$s7, $sp, 224                   # 8-byte Folded Reload
	ld.d	$s6, $sp, 232                   # 8-byte Folded Reload
	ld.d	$s5, $sp, 240                   # 8-byte Folded Reload
	ld.d	$s4, $sp, 248                   # 8-byte Folded Reload
	ld.d	$s3, $sp, 256                   # 8-byte Folded Reload
	ld.d	$s2, $sp, 264                   # 8-byte Folded Reload
	ld.d	$s1, $sp, 272                   # 8-byte Folded Reload
	ld.d	$s0, $sp, 280                   # 8-byte Folded Reload
	ld.d	$fp, $sp, 288                   # 8-byte Folded Reload
	ld.d	$ra, $sp, 296                   # 8-byte Folded Reload
	addi.d	$sp, $sp, 304
	ret
.LBB14_136:
	pcalau12i	$a0, %pc_hi20(.L.str.143)
	addi.d	$a0, $a0, %pc_lo12(.L.str.143)
	pcaddu18i	$ra, %call36(_ZSt20__throw_length_errorPKc)
	jirl	$ra, $ra, 0
.LBB14_137:                             # %.noexc.i.i
.Ltmp102:
	pcaddu18i	$ra, %call36(_ZSt28__throw_bad_array_new_lengthv)
	jirl	$ra, $ra, 0
.Ltmp103:
# %bb.138:                              # %.noexc151
.LBB14_139:
.Ltmp117:
	pcalau12i	$a0, %pc_hi20(.L.str.142)
	addi.d	$a0, $a0, %pc_lo12(.L.str.142)
	pcaddu18i	$ra, %call36(_ZSt20__throw_length_errorPKc)
	jirl	$ra, $ra, 0
.Ltmp118:
# %bb.140:                              # %.noexc148
.LBB14_141:                             # %.loopexit189
.Ltmp93:
	move	$fp, $a0
	b	.LBB14_156
.LBB14_142:
.Ltmp116:
	pcaddu18i	$ra, %call36(__clang_call_terminate)
	jirl	$ra, $ra, 0
.LBB14_143:
.Ltmp113:
	pcaddu18i	$ra, %call36(__clang_call_terminate)
	jirl	$ra, $ra, 0
.LBB14_144:
.Ltmp107:
	move	$fp, $a0
	beqz	$s7, .LBB14_153
# %bb.145:
	sub.d	$a1, $s2, $s7
	move	$a0, $s7
	pcaddu18i	$ra, %call36(_ZdlPvm)
	jirl	$ra, $ra, 0
	b	.LBB14_153
.LBB14_146:
.Ltmp96:
	move	$fp, $a0
	b	.LBB14_154
.LBB14_147:
.Ltmp99:
	ld.d	$s3, $sp, 176
	move	$fp, $a0
	b	.LBB14_154
.LBB14_148:                             # %.loopexit.split-lp
.Ltmp119:
	move	$fp, $a0
	b	.LBB14_156
.LBB14_149:
.Ltmp90:
	move	$fp, $a0
	b	.LBB14_156
.LBB14_150:                             # %.loopexit190
.Ltmp110:
	b	.LBB14_152
.LBB14_151:                             # %.loopexit.split-lp191
.Ltmp104:
.LBB14_152:                             # %_ZNSt6vectorIiSaIiEED2Ev.exit158
	move	$fp, $a0
.LBB14_153:                             # %_ZNSt6vectorIiSaIiEED2Ev.exit158
	addi.d	$a0, $sp, 72
	pcaddu18i	$ra, %call36(_ZN10MallocPlusD2Ev)
	jirl	$ra, $ra, 0
.LBB14_154:
	beqz	$s3, .LBB14_156
# %bb.155:
	ld.d	$a0, $sp, 192
	sub.d	$a1, $a0, $s3
	move	$a0, $s3
	pcaddu18i	$ra, %call36(_ZdlPvm)
	jirl	$ra, $ra, 0
.LBB14_156:                             # %_ZNSt6vectorIiSaIiEED2Ev.exit160
	ld.d	$a0, $sp, 40                    # 8-byte Folded Reload
	sub.d	$a1, $a0, $s0
	move	$a0, $s0
	pcaddu18i	$ra, %call36(_ZdlPvm)
	jirl	$ra, $ra, 0
	move	$a0, $fp
	pcaddu18i	$ra, %call36(_Unwind_Resume)
	jirl	$ra, $ra, 0
.Lfunc_end14:
	.size	_ZN4Mesh4initEiid16partition_methodi, .Lfunc_end14-_ZN4Mesh4initEiid16partition_methodi
	.cfi_endproc
	.section	.gcc_except_table,"a",@progbits
	.p2align	2, 0x0
GCC_except_table14:
.Lexception6:
	.byte	255                             # @LPStart Encoding = omit
	.byte	155                             # @TType Encoding = indirect pcrel sdata4
	.uleb128 .Lttbase2-.Lttbaseref2
.Lttbaseref2:
	.byte	1                               # Call site Encoding = uleb128
	.uleb128 .Lcst_end6-.Lcst_begin6
.Lcst_begin6:
	.uleb128 .Lfunc_begin6-.Lfunc_begin6    # >> Call Site 1 <<
	.uleb128 .Ltmp88-.Lfunc_begin6          #   Call between .Lfunc_begin6 and .Ltmp88
	.byte	0                               #     has no landing pad
	.byte	0                               #   On action: cleanup
	.uleb128 .Ltmp88-.Lfunc_begin6          # >> Call Site 2 <<
	.uleb128 .Ltmp89-.Ltmp88                #   Call between .Ltmp88 and .Ltmp89
	.uleb128 .Ltmp90-.Lfunc_begin6          #     jumps to .Ltmp90
	.byte	0                               #   On action: cleanup
	.uleb128 .Ltmp91-.Lfunc_begin6          # >> Call Site 3 <<
	.uleb128 .Ltmp92-.Ltmp91                #   Call between .Ltmp91 and .Ltmp92
	.uleb128 .Ltmp93-.Lfunc_begin6          #     jumps to .Ltmp93
	.byte	0                               #   On action: cleanup
	.uleb128 .Ltmp92-.Lfunc_begin6          # >> Call Site 4 <<
	.uleb128 .Ltmp94-.Ltmp92                #   Call between .Ltmp92 and .Ltmp94
	.byte	0                               #     has no landing pad
	.byte	0                               #   On action: cleanup
	.uleb128 .Ltmp94-.Lfunc_begin6          # >> Call Site 5 <<
	.uleb128 .Ltmp95-.Ltmp94                #   Call between .Ltmp94 and .Ltmp95
	.uleb128 .Ltmp96-.Lfunc_begin6          #     jumps to .Ltmp96
	.byte	0                               #   On action: cleanup
	.uleb128 .Ltmp97-.Lfunc_begin6          # >> Call Site 6 <<
	.uleb128 .Ltmp98-.Ltmp97                #   Call between .Ltmp97 and .Ltmp98
	.uleb128 .Ltmp99-.Lfunc_begin6          #     jumps to .Ltmp99
	.byte	0                               #   On action: cleanup
	.uleb128 .Ltmp100-.Lfunc_begin6         # >> Call Site 7 <<
	.uleb128 .Ltmp101-.Ltmp100              #   Call between .Ltmp100 and .Ltmp101
	.uleb128 .Ltmp110-.Lfunc_begin6         #     jumps to .Ltmp110
	.byte	0                               #   On action: cleanup
	.uleb128 .Ltmp101-.Lfunc_begin6         # >> Call Site 8 <<
	.uleb128 .Ltmp105-.Ltmp101              #   Call between .Ltmp101 and .Ltmp105
	.byte	0                               #     has no landing pad
	.byte	0                               #   On action: cleanup
	.uleb128 .Ltmp105-.Lfunc_begin6         # >> Call Site 9 <<
	.uleb128 .Ltmp106-.Ltmp105              #   Call between .Ltmp105 and .Ltmp106
	.uleb128 .Ltmp107-.Lfunc_begin6         #     jumps to .Ltmp107
	.byte	0                               #   On action: cleanup
	.uleb128 .Ltmp106-.Lfunc_begin6         # >> Call Site 10 <<
	.uleb128 .Ltmp108-.Ltmp106              #   Call between .Ltmp106 and .Ltmp108
	.byte	0                               #     has no landing pad
	.byte	0                               #   On action: cleanup
	.uleb128 .Ltmp108-.Lfunc_begin6         # >> Call Site 11 <<
	.uleb128 .Ltmp109-.Ltmp108              #   Call between .Ltmp108 and .Ltmp109
	.uleb128 .Ltmp110-.Lfunc_begin6         #     jumps to .Ltmp110
	.byte	0                               #   On action: cleanup
	.uleb128 .Ltmp111-.Lfunc_begin6         # >> Call Site 12 <<
	.uleb128 .Ltmp112-.Ltmp111              #   Call between .Ltmp111 and .Ltmp112
	.uleb128 .Ltmp113-.Lfunc_begin6         #     jumps to .Ltmp113
	.byte	1                               #   On action: 1
	.uleb128 .Ltmp114-.Lfunc_begin6         # >> Call Site 13 <<
	.uleb128 .Ltmp115-.Ltmp114              #   Call between .Ltmp114 and .Ltmp115
	.uleb128 .Ltmp116-.Lfunc_begin6         #     jumps to .Ltmp116
	.byte	1                               #   On action: 1
	.uleb128 .Ltmp115-.Lfunc_begin6         # >> Call Site 14 <<
	.uleb128 .Ltmp102-.Ltmp115              #   Call between .Ltmp115 and .Ltmp102
	.byte	0                               #     has no landing pad
	.byte	0                               #   On action: cleanup
	.uleb128 .Ltmp102-.Lfunc_begin6         # >> Call Site 15 <<
	.uleb128 .Ltmp103-.Ltmp102              #   Call between .Ltmp102 and .Ltmp103
	.uleb128 .Ltmp104-.Lfunc_begin6         #     jumps to .Ltmp104
	.byte	0                               #   On action: cleanup
	.uleb128 .Ltmp117-.Lfunc_begin6         # >> Call Site 16 <<
	.uleb128 .Ltmp118-.Ltmp117              #   Call between .Ltmp117 and .Ltmp118
	.uleb128 .Ltmp119-.Lfunc_begin6         #     jumps to .Ltmp119
	.byte	0                               #   On action: cleanup
	.uleb128 .Ltmp118-.Lfunc_begin6         # >> Call Site 17 <<
	.uleb128 .Lfunc_end14-.Ltmp118          #   Call between .Ltmp118 and .Lfunc_end14
	.byte	0                               #     has no landing pad
	.byte	0                               #   On action: cleanup
.Lcst_end6:
	.byte	1                               # >> Action Record 1 <<
                                        #   Catch TypeInfo 1
	.byte	0                               #   No further actions
	.p2align	2, 0x0
                                        # >> Catch TypeInfos <<
	.word	0                               # TypeInfo 1
.Lttbase2:
	.p2align	2, 0x0
                                        # -- End function
	.text
	.globl	_ZN4Mesh13calc_celltypeEm       # -- Begin function _ZN4Mesh13calc_celltypeEm
	.p2align	5
	.type	_ZN4Mesh13calc_celltypeEm,@function
_ZN4Mesh13calc_celltypeEm:              # @_ZN4Mesh13calc_celltypeEm
	.cfi_startproc
# %bb.0:
	addi.d	$sp, $sp, -48
	.cfi_def_cfa_offset 48
	st.d	$ra, $sp, 40                    # 8-byte Folded Spill
	st.d	$fp, $sp, 32                    # 8-byte Folded Spill
	st.d	$s0, $sp, 24                    # 8-byte Folded Spill
	st.d	$s1, $sp, 16                    # 8-byte Folded Spill
	st.d	$s2, $sp, 8                     # 8-byte Folded Spill
	.cfi_offset 1, -8
	.cfi_offset 22, -16
	.cfi_offset 23, -24
	.cfi_offset 24, -32
	.cfi_offset 25, -40
	move	$s0, $a0
	ld.d	$a2, $a0, 1360
	move	$fp, $a1
	addi.d	$s1, $a0, 8
	beqz	$a2, .LBB15_4
# %bb.1:
	move	$a0, $s1
	move	$a1, $a2
	pcaddu18i	$ra, %call36(_ZN10MallocPlus15get_memory_sizeEPv)
	jirl	$ra, $ra, 0
	bgeu	$a0, $fp, .LBB15_5
# %bb.2:
	ld.d	$a1, $s0, 1360
	beqz	$a1, .LBB15_4
# %bb.3:
	move	$a0, $s1
	pcaddu18i	$ra, %call36(_ZN10MallocPlus13memory_deleteEPv)
	jirl	$ra, $ra, 0
	st.d	$a0, $s0, 1360
.LBB15_4:                               # %.thread
	pcalau12i	$a0, %pc_hi20(.L.str.49)
	addi.d	$a3, $a0, %pc_lo12(.L.str.49)
	ori	$a2, $zero, 4
	move	$a0, $s1
	move	$a1, $fp
	move	$a4, $zero
	pcaddu18i	$ra, %call36(_ZN10MallocPlus13memory_mallocEmmPKci)
	jirl	$ra, $ra, 0
	st.d	$a0, $s0, 1360
.LBB15_5:
	beqz	$fp, .LBB15_16
# %bb.6:                                # %.lr.ph
	ld.d	$a0, $s0, 1360
	ld.d	$a1, $s0, 1328
	ld.d	$a2, $s0, 1352
	ld.d	$a3, $s0, 880
	ld.d	$a4, $s0, 904
	ld.d	$a5, $s0, 1336
	ld.d	$a6, $s0, 928
	ld.d	$a7, $s0, 952
	ori	$t0, $zero, 1
	addi.w	$t1, $zero, -1
	lu32i.d	$t1, 0
	addi.w	$t2, $zero, -2
	lu32i.d	$t2, 0
	addi.w	$t3, $zero, -3
	lu32i.d	$t3, 0
	addi.w	$t4, $zero, -4
	lu32i.d	$t4, 0
	ori	$t5, $zero, 1
	b	.LBB15_8
	.p2align	4, , 16
.LBB15_7:                               #   in Loop: Header=BB15_8 Depth=1
	bstrpick.d	$t6, $t5, 31, 0
	addi.d	$a0, $a0, 4
	addi.w	$t5, $t5, 1
	bgeu	$t6, $fp, .LBB15_16
.LBB15_8:                               # =>This Inner Loop Header: Depth=1
	addi.w	$t6, $t5, -1
	st.w	$t0, $a0, 0
	slli.d	$s0, $t6, 2
	ldx.w	$t8, $a2, $s0
	ldx.w	$s1, $a1, $s0
	slli.d	$t7, $t8, 2
	ldx.w	$s2, $a3, $t7
	alsl.d	$t7, $t6, $a2, 2
	blt	$s1, $s2, .LBB15_12
# %bb.9:                                #   in Loop: Header=BB15_8 Depth=1
	slli.d	$s2, $t8, 2
	ldx.w	$s2, $a4, $s2
	blt	$s2, $s1, .LBB15_13
.LBB15_10:                              #   in Loop: Header=BB15_8 Depth=1
	ldx.w	$s0, $a5, $s0
	slli.d	$s1, $t8, 2
	ldx.w	$s1, $a6, $s1
	blt	$s0, $s1, .LBB15_14
.LBB15_11:                              #   in Loop: Header=BB15_8 Depth=1
	slli.d	$t6, $t8, 2
	ldx.w	$t6, $a7, $t6
	bge	$t6, $s0, .LBB15_7
	b	.LBB15_15
	.p2align	4, , 16
.LBB15_12:                              #   in Loop: Header=BB15_8 Depth=1
	alsl.d	$t8, $t6, $a1, 2
	st.w	$t1, $a0, 0
	ld.w	$s1, $t8, 0
	ld.w	$t8, $t7, 0
	slli.d	$s2, $t8, 2
	ldx.w	$s2, $a4, $s2
	bge	$s2, $s1, .LBB15_10
.LBB15_13:                              #   in Loop: Header=BB15_8 Depth=1
	st.w	$t2, $a0, 0
	ld.w	$t8, $t7, 0
	ldx.w	$s0, $a5, $s0
	slli.d	$s1, $t8, 2
	ldx.w	$s1, $a6, $s1
	bge	$s0, $s1, .LBB15_11
.LBB15_14:                              #   in Loop: Header=BB15_8 Depth=1
	alsl.d	$t6, $t6, $a5, 2
	st.w	$t3, $a0, 0
	ld.w	$s0, $t6, 0
	ld.w	$t8, $t7, 0
	slli.d	$t6, $t8, 2
	ldx.w	$t6, $a7, $t6
	bge	$t6, $s0, .LBB15_7
.LBB15_15:                              #   in Loop: Header=BB15_8 Depth=1
	st.w	$t4, $a0, 0
	b	.LBB15_7
.LBB15_16:                              # %._crit_edge
	ld.d	$s2, $sp, 8                     # 8-byte Folded Reload
	ld.d	$s1, $sp, 16                    # 8-byte Folded Reload
	ld.d	$s0, $sp, 24                    # 8-byte Folded Reload
	ld.d	$fp, $sp, 32                    # 8-byte Folded Reload
	ld.d	$ra, $sp, 40                    # 8-byte Folded Reload
	addi.d	$sp, $sp, 48
	ret
.Lfunc_end15:
	.size	_ZN4Mesh13calc_celltypeEm, .Lfunc_end15-_ZN4Mesh13calc_celltypeEm
	.cfi_endproc
                                        # -- End function
	.globl	_ZN4Mesh20calc_neighbors_localEv # -- Begin function _ZN4Mesh20calc_neighbors_localEv
	.p2align	5
	.type	_ZN4Mesh20calc_neighbors_localEv,@function
_ZN4Mesh20calc_neighbors_localEv:       # @_ZN4Mesh20calc_neighbors_localEv
.Lfunc_begin7:
	.cfi_startproc
	.cfi_personality 155, DW.ref.__gxx_personality_v0
	.cfi_lsda 27, .Lexception7
# %bb.0:
	addi.d	$sp, $sp, -368
	.cfi_def_cfa_offset 368
	st.d	$ra, $sp, 360                   # 8-byte Folded Spill
	st.d	$fp, $sp, 352                   # 8-byte Folded Spill
	st.d	$s0, $sp, 344                   # 8-byte Folded Spill
	st.d	$s1, $sp, 336                   # 8-byte Folded Spill
	st.d	$s2, $sp, 328                   # 8-byte Folded Spill
	st.d	$s3, $sp, 320                   # 8-byte Folded Spill
	st.d	$s4, $sp, 312                   # 8-byte Folded Spill
	st.d	$s5, $sp, 304                   # 8-byte Folded Spill
	st.d	$s6, $sp, 296                   # 8-byte Folded Spill
	st.d	$s7, $sp, 288                   # 8-byte Folded Spill
	st.d	$s8, $sp, 280                   # 8-byte Folded Spill
	.cfi_offset 1, -8
	.cfi_offset 22, -16
	.cfi_offset 23, -24
	.cfi_offset 24, -32
	.cfi_offset 25, -40
	.cfi_offset 26, -48
	.cfi_offset 27, -56
	.cfi_offset 28, -64
	.cfi_offset 29, -72
	.cfi_offset 30, -80
	.cfi_offset 31, -88
	move	$fp, $a0
	addi.d	$a0, $sp, 232
	pcaddu18i	$ra, %call36(cpu_timer_start)
	jirl	$ra, $ra, 0
	ld.bu	$a0, $fp, 616
	ori	$a1, $zero, 1
	bne	$a0, $a1, .LBB16_128
# %bb.1:
	ld.w	$a0, $fp, 592
	ld.d	$a1, $fp, 1368
	addi.d	$a0, $a0, 1
	st.w	$a0, $fp, 592
	addi.d	$s0, $fp, 8
	move	$a0, $s0
	pcaddu18i	$ra, %call36(_ZN10MallocPlus15get_memory_sizeEPv)
	jirl	$ra, $ra, 0
	ld.d	$s1, $fp, 1160
	bltu	$a0, $s1, .LBB16_14
# %bb.2:
	ld.d	$s0, $fp, 640
	beqz	$s0, .LBB16_23
.LBB16_3:
	ld.d	$a0, $fp, 648
	beqz	$a0, .LBB16_24
.LBB16_4:                               # %_ZN4Mesh10set_boundsEi.exit
	addi.w	$a1, $s1, 0
	st.w	$zero, $s0, 0
	ori	$a2, $zero, 1
	st.w	$s1, $a0, 0
	blt	$a1, $a2, .LBB16_9
# %bb.5:                                # %.lr.ph
	ld.d	$a0, $fp, 1368
	ld.d	$a1, $fp, 1376
	ld.d	$a3, $fp, 1384
	ld.d	$a4, $fp, 1392
	bstrpick.d	$a2, $s1, 30, 0
	ori	$a5, $zero, 24
	bgeu	$a2, $a5, .LBB16_31
# %bb.6:
	move	$a5, $zero
.LBB16_7:                               # %scalar.ph.preheader
	alsl.d	$a4, $a5, $a4, 2
	alsl.d	$a3, $a5, $a3, 2
	alsl.d	$a1, $a5, $a1, 2
	alsl.d	$a0, $a5, $a0, 2
	sub.d	$a2, $a2, $a5
	addi.w	$a5, $zero, -98
	lu32i.d	$a5, 0
	.p2align	4, , 16
.LBB16_8:                               # %scalar.ph
                                        # =>This Inner Loop Header: Depth=1
	st.w	$a5, $a0, 0
	st.w	$a5, $a1, 0
	st.w	$a5, $a3, 0
	st.w	$a5, $a4, 0
	addi.d	$a4, $a4, 4
	addi.d	$a3, $a3, 4
	addi.d	$a1, $a1, 4
	addi.d	$a2, $a2, -1
	addi.d	$a0, $a0, 4
	bnez	$a2, .LBB16_8
.LBB16_9:                               # %._crit_edge
	pcalau12i	$a0, %pc_hi20(calc_neighbor_type)
	ld.w	$a0, $a0, %pc_lo12(calc_neighbor_type)
	beqz	$a0, .LBB16_25
# %bb.10:                               # %._crit_edge
	ori	$a1, $zero, 1
	bne	$a0, $a1, .LBB16_128
# %bb.11:
	addi.d	$a0, $sp, 216
	pcaddu18i	$ra, %call36(cpu_timer_start)
	jirl	$ra, $ra, 0
	ld.w	$a0, $fp, 1120
	mul.w	$a0, $a0, $a0
	ori	$a1, $zero, 2
	sll.w	$s2, $a1, $a0
	addi.w	$a1, $zero, -1
	bge	$a1, $s2, .LBB16_135
# %bb.12:                               # %_ZNSt6vectorIiSaIiEE17_S_check_init_lenEmRKS0_.exit.i
	ori	$a1, $zero, 30
	bgeu	$a1, $a0, .LBB16_40
# %bb.13:
	move	$s2, $zero
	move	$s0, $zero
	b	.LBB16_41
.LBB16_14:
	ld.d	$a1, $fp, 1368
	beqz	$a1, .LBB16_16
# %bb.15:
	move	$a0, $s0
	pcaddu18i	$ra, %call36(_ZN10MallocPlus13memory_deleteEPv)
	jirl	$ra, $ra, 0
	st.d	$a0, $fp, 1368
.LBB16_16:
	ld.d	$a1, $fp, 1376
	beqz	$a1, .LBB16_18
# %bb.17:
	move	$a0, $s0
	pcaddu18i	$ra, %call36(_ZN10MallocPlus13memory_deleteEPv)
	jirl	$ra, $ra, 0
	st.d	$a0, $fp, 1376
.LBB16_18:
	ld.d	$a1, $fp, 1384
	beqz	$a1, .LBB16_20
# %bb.19:
	move	$a0, $s0
	pcaddu18i	$ra, %call36(_ZN10MallocPlus13memory_deleteEPv)
	jirl	$ra, $ra, 0
	st.d	$a0, $fp, 1384
.LBB16_20:
	ld.d	$a1, $fp, 1392
	beqz	$a1, .LBB16_22
# %bb.21:
	move	$a0, $s0
	pcaddu18i	$ra, %call36(_ZN10MallocPlus13memory_deleteEPv)
	jirl	$ra, $ra, 0
	st.d	$a0, $fp, 1392
.LBB16_22:
	ld.d	$a1, $fp, 1160
	pcalau12i	$a0, %pc_hi20(.L.str.42)
	addi.d	$a3, $a0, %pc_lo12(.L.str.42)
	ori	$a2, $zero, 4
	ori	$a4, $zero, 4
	move	$a0, $s0
	pcaddu18i	$ra, %call36(_ZN10MallocPlus13memory_mallocEmmPKci)
	jirl	$ra, $ra, 0
	ld.d	$a1, $fp, 1160
	st.d	$a0, $fp, 1368
	pcalau12i	$a0, %pc_hi20(.L.str.43)
	addi.d	$a3, $a0, %pc_lo12(.L.str.43)
	ori	$a2, $zero, 4
	ori	$a4, $zero, 4
	move	$a0, $s0
	pcaddu18i	$ra, %call36(_ZN10MallocPlus13memory_mallocEmmPKci)
	jirl	$ra, $ra, 0
	ld.d	$a1, $fp, 1160
	st.d	$a0, $fp, 1376
	pcalau12i	$a0, %pc_hi20(.L.str.44)
	addi.d	$a3, $a0, %pc_lo12(.L.str.44)
	ori	$a2, $zero, 4
	ori	$a4, $zero, 4
	move	$a0, $s0
	pcaddu18i	$ra, %call36(_ZN10MallocPlus13memory_mallocEmmPKci)
	jirl	$ra, $ra, 0
	ld.d	$a1, $fp, 1160
	st.d	$a0, $fp, 1384
	pcalau12i	$a0, %pc_hi20(.L.str.45)
	addi.d	$a3, $a0, %pc_lo12(.L.str.45)
	ori	$a2, $zero, 4
	ori	$a4, $zero, 4
	move	$a0, $s0
	pcaddu18i	$ra, %call36(_ZN10MallocPlus13memory_mallocEmmPKci)
	jirl	$ra, $ra, 0
	ld.d	$s1, $fp, 1160
	st.d	$a0, $fp, 1392
	ld.d	$s0, $fp, 640
	bnez	$s0, .LBB16_3
.LBB16_23:
	ori	$a0, $zero, 4
	pcaddu18i	$ra, %call36(malloc)
	jirl	$ra, $ra, 0
	move	$s0, $a0
	st.d	$a0, $fp, 640
	ld.d	$a0, $fp, 648
	bnez	$a0, .LBB16_4
.LBB16_24:
	ori	$a0, $zero, 4
	pcaddu18i	$ra, %call36(malloc)
	jirl	$ra, $ra, 0
	st.d	$a0, $fp, 648
	b	.LBB16_4
.LBB16_25:
	addi.d	$a0, $sp, 248
	pcaddu18i	$ra, %call36(cpu_timer_start)
	jirl	$ra, $ra, 0
	ld.d	$a0, $fp, 1160
	ld.w	$a1, $fp, 1144
	st.d	$a0, $fp, 1176
	ld.wu	$a2, $fp, 1120
	addi.d	$a1, $a1, 1
	ld.w	$a4, $fp, 1136
	ori	$a3, $zero, 2
	sll.w	$a5, $a3, $a2
	mul.w	$a3, $a5, $a1
	addi.d	$a1, $a4, 1
	mul.w	$a1, $a1, $a5
	beqz	$a0, .LBB16_68
# %bb.26:                               # %.lr.ph548
	ld.d	$a4, $fp, 1352
	ld.d	$a5, $fp, 1336
	ld.d	$a6, $fp, 1328
	ori	$a7, $zero, 8
	bgeu	$a0, $a7, .LBB16_129
# %bb.27:
	move	$a7, $zero
	move	$t2, $zero
	move	$t3, $zero
	move	$t0, $a3
	move	$t1, $a1
.LBB16_28:                              # %scalar.ph593.preheader
	addi.w	$t4, $a7, 1
	ori	$t5, $zero, 2
	.p2align	4, , 16
.LBB16_29:                              # %scalar.ph593
                                        # =>This Inner Loop Header: Depth=1
	slli.d	$a7, $a7, 2
	ldx.w	$t6, $a4, $a7
	ldx.w	$t7, $a5, $a7
	sub.d	$t6, $a2, $t6
	sll.w	$t6, $t5, $t6
	mul.w	$t8, $t7, $t6
	slt	$s0, $t8, $t0
	maskeqz	$t8, $t8, $s0
	masknez	$t0, $t0, $s0
	or	$t0, $t8, $t0
	addi.d	$t7, $t7, 1
	mul.d	$t7, $t7, $t6
	addi.w	$t7, $t7, -1
	slt	$t8, $t2, $t7
	ldx.w	$a7, $a6, $a7
	maskeqz	$t7, $t7, $t8
	masknez	$t2, $t2, $t8
	or	$t2, $t7, $t2
	mul.w	$t7, $a7, $t6
	slt	$t8, $t7, $t1
	maskeqz	$t7, $t7, $t8
	masknez	$t1, $t1, $t8
	or	$t1, $t7, $t1
	addi.d	$a7, $a7, 1
	mul.d	$a7, $a7, $t6
	addi.w	$a7, $a7, -1
	slt	$t6, $t3, $a7
	maskeqz	$a7, $a7, $t6
	masknez	$t3, $t3, $t6
	or	$t3, $a7, $t3
	bstrpick.d	$a7, $t4, 31, 0
	addi.w	$t4, $t4, 1
	bltu	$a7, $a0, .LBB16_29
.LBB16_30:                              # %._crit_edge549
	slt	$a4, $t0, $a3
	masknez	$a5, $a3, $a4
	maskeqz	$a4, $t0, $a4
	or	$a7, $a4, $a5
	slt	$a4, $t1, $a1
	masknez	$a5, $a1, $a4
	maskeqz	$a4, $t1, $a4
	or	$a5, $a4, $a5
	srai.d	$a4, $t2, 63
	andn	$a6, $t2, $a4
	srai.d	$a4, $t3, 63
	andn	$a4, $t3, $a4
	b	.LBB16_69
.LBB16_31:                              # %vector.memcheck
	sub.d	$a7, $a1, $a0
	ori	$a6, $zero, 32
	move	$a5, $zero
	bltu	$a7, $a6, .LBB16_7
# %bb.32:                               # %vector.memcheck
	sub.d	$a7, $a3, $a0
	bltu	$a7, $a6, .LBB16_7
# %bb.33:                               # %vector.memcheck
	sub.d	$a7, $a4, $a0
	ori	$a6, $zero, 32
	bltu	$a7, $a6, .LBB16_7
# %bb.34:                               # %vector.memcheck
	sub.d	$a7, $a3, $a1
	bltu	$a7, $a6, .LBB16_7
# %bb.35:                               # %vector.memcheck
	sub.d	$a7, $a4, $a1
	ori	$a6, $zero, 32
	bltu	$a7, $a6, .LBB16_7
# %bb.36:                               # %vector.memcheck
	sub.d	$a7, $a4, $a3
	bltu	$a7, $a6, .LBB16_7
# %bb.37:                               # %vector.ph
	bstrpick.d	$a5, $s1, 30, 3
	slli.d	$a5, $a5, 3
	addi.d	$a6, $a4, 16
	addi.d	$a7, $a3, 16
	addi.d	$t0, $a1, 16
	addi.d	$t1, $a0, 16
	vrepli.w	$vr0, -98
	move	$t2, $a5
	.p2align	4, , 16
.LBB16_38:                              # %vector.body
                                        # =>This Inner Loop Header: Depth=1
	vst	$vr0, $t1, -16
	vst	$vr0, $t1, 0
	vst	$vr0, $t0, -16
	vst	$vr0, $t0, 0
	vst	$vr0, $a7, -16
	vst	$vr0, $a7, 0
	vst	$vr0, $a6, -16
	vst	$vr0, $a6, 0
	addi.d	$t2, $t2, -8
	addi.d	$a6, $a6, 32
	addi.d	$a7, $a7, 32
	addi.d	$t0, $t0, 32
	addi.d	$t1, $t1, 32
	bnez	$t2, .LBB16_38
# %bb.39:                               # %middle.block
	bne	$a2, $a5, .LBB16_7
	b	.LBB16_9
.LBB16_40:                              # %.noexc459
	slli.d	$s1, $s2, 2
	move	$a0, $s1
	pcaddu18i	$ra, %call36(_Znwm)
	jirl	$ra, $ra, 0
	move	$s0, $a0
	alsl.d	$s2, $s2, $a0, 2
	st.w	$zero, $a0, 0
	addi.d	$a0, $a0, 4
	addi.d	$a2, $s1, -4
	move	$a1, $zero
	pcaddu18i	$ra, %call36(memset)
	jirl	$ra, $ra, 0
.LBB16_41:                              # %_ZNSt6vectorIiSaIiEEC2EmRKS0_.exit
	st.w	$zero, $fp, 1128
.Ltmp120:
	move	$a0, $fp
	move	$a1, $zero
	pcaddu18i	$ra, %call36(_ZN4Mesh24calc_spatial_coordinatesEi)
	jirl	$ra, $ra, 0
.Ltmp121:
# %bb.42:
	addi.d	$s1, $fp, 784
.Ltmp122:
	move	$a0, $s1
	pcaddu18i	$ra, %call36(KDTree_Initialize)
	jirl	$ra, $ra, 0
.Ltmp123:
# %bb.43:                               # %.noexc460
	ld.d	$a0, $fp, 1160
	beqz	$a0, .LBB16_47
# %bb.44:                               # %.lr.ph.i
	move	$a0, $zero
	ori	$s3, $zero, 1
	.p2align	4, , 16
.LBB16_45:                              # =>This Inner Loop Header: Depth=1
	ld.d	$a1, $fp, 1416
	slli.d	$a0, $a0, 3
	fldx.d	$fa0, $a1, $a0
	ld.d	$a1, $fp, 1440
	fst.d	$fa0, $sp, 248
	fldx.d	$fa1, $a1, $a0
	ld.d	$a1, $fp, 1464
	fadd.d	$fa0, $fa0, $fa1
	fst.d	$fa0, $sp, 264
	fldx.d	$fa0, $a1, $a0
	ld.d	$a1, $fp, 1488
	fst.d	$fa0, $sp, 256
	fldx.d	$fa1, $a1, $a0
	fadd.d	$fa0, $fa0, $fa1
	fst.d	$fa0, $sp, 272
.Ltmp124:
	addi.d	$a1, $sp, 248
	move	$a0, $s1
	pcaddu18i	$ra, %call36(KDTree_AddElement)
	jirl	$ra, $ra, 0
.Ltmp125:
# %bb.46:                               # %.noexc461
                                        #   in Loop: Header=BB16_45 Depth=1
	ld.d	$a1, $fp, 1160
	bstrpick.d	$a0, $s3, 31, 0
	addi.w	$s3, $s3, 1
	bltu	$a0, $a1, .LBB16_45
.LBB16_47:                              # %.loopexit537
	ld.d	$a0, $sp, 216
	ld.d	$a1, $sp, 224
.Ltmp127:
	pcaddu18i	$ra, %call36(cpu_timer_stop)
	jirl	$ra, $ra, 0
.Ltmp128:
# %bb.48:
	fld.d	$fa1, $fp, 336
	fadd.d	$fa0, $fa0, $fa1
	fst.d	$fa0, $fp, 336
.Ltmp129:
	addi.d	$a0, $sp, 216
	pcaddu18i	$ra, %call36(cpu_timer_start)
	jirl	$ra, $ra, 0
.Ltmp130:
# %bb.49:                               # %.preheader
	ld.d	$a0, $fp, 1160
	beqz	$a0, .LBB16_64
# %bb.50:                               # %.lr.ph540
	move	$a0, $zero
	move	$s3, $zero
	ori	$s4, $zero, 1
	b	.LBB16_52
	.p2align	4, , 16
.LBB16_51:                              #   in Loop: Header=BB16_52 Depth=1
	ld.d	$a1, $fp, 1160
	addi.w	$s3, $s3, 1
	bstrpick.d	$a0, $s3, 31, 0
	bgeu	$a0, $a1, .LBB16_64
.LBB16_52:                              # =>This Inner Loop Header: Depth=1
	ld.d	$a1, $fp, 1368
	slli.d	$s5, $a0, 2
	stx.w	$s3, $a1, $s5
	ld.d	$a1, $fp, 1440
	ld.d	$a2, $fp, 1416
	slli.d	$s6, $a0, 3
	fldx.d	$fa0, $a1, $s6
	fldx.d	$fa1, $a2, $s6
	vldi	$vr2, -944
	fmul.d	$fa0, $fa0, $fa2
	fsub.d	$fa0, $fa1, $fa0
	fst.d	$fa0, $sp, 184
	fldx.d	$fa0, $a1, $s6
	fldx.d	$fa1, $a2, $s6
	fmul.d	$fa0, $fa0, $fa2
	ld.d	$a0, $fp, 1488
	ld.d	$a1, $fp, 1464
	fsub.d	$fa0, $fa1, $fa0
	fst.d	$fa0, $sp, 200
	fldx.d	$fa0, $a0, $s6
	fldx.d	$fa1, $a1, $s6
	fmul.d	$fa0, $fa0, $fa2
	fadd.d	$fa0, $fa1, $fa0
	fst.d	$fa0, $sp, 192
	fldx.d	$fa0, $a0, $s6
	fldx.d	$fa1, $a1, $s6
	fmul.d	$fa0, $fa0, $fa2
	fadd.d	$fa0, $fa1, $fa0
	fst.d	$fa0, $sp, 208
.Ltmp131:
	addi.d	$a1, $sp, 180
	addi.d	$a3, $sp, 184
	move	$a0, $s1
	move	$a2, $s0
	pcaddu18i	$ra, %call36(KDTree_QueryBoxIntersect)
	jirl	$ra, $ra, 0
.Ltmp132:
# %bb.53:                               #   in Loop: Header=BB16_52 Depth=1
	ld.w	$a0, $sp, 180
	bne	$a0, $s4, .LBB16_55
# %bb.54:                               #   in Loop: Header=BB16_52 Depth=1
	ld.w	$a0, $s0, 0
	ld.d	$a1, $fp, 1368
	stx.w	$a0, $a1, $s5
.LBB16_55:                              #   in Loop: Header=BB16_52 Depth=1
	ld.d	$a0, $fp, 1376
	stx.w	$s3, $a0, $s5
	ld.d	$a0, $fp, 1440
	ld.d	$a1, $fp, 1416
	fldx.d	$fa0, $a0, $s6
	fldx.d	$fa1, $a1, $s6
	vldi	$vr2, -908
	fmul.d	$fa0, $fa0, $fa2
	fadd.d	$fa0, $fa1, $fa0
	fst.d	$fa0, $sp, 184
	fldx.d	$fa0, $a0, $s6
	fldx.d	$fa1, $a1, $s6
	fmul.d	$fa0, $fa0, $fa2
	ld.d	$a0, $fp, 1488
	ld.d	$a1, $fp, 1464
	fadd.d	$fa0, $fa1, $fa0
	fst.d	$fa0, $sp, 200
	fldx.d	$fa0, $a0, $s6
	fldx.d	$fa1, $a1, $s6
	vldi	$vr2, -944
	fmul.d	$fa0, $fa0, $fa2
	fadd.d	$fa0, $fa1, $fa0
	fst.d	$fa0, $sp, 192
	fldx.d	$fa0, $a0, $s6
	fldx.d	$fa1, $a1, $s6
	fmul.d	$fa0, $fa0, $fa2
	fadd.d	$fa0, $fa1, $fa0
	fst.d	$fa0, $sp, 208
.Ltmp133:
	addi.d	$a1, $sp, 180
	addi.d	$a3, $sp, 184
	move	$a0, $s1
	move	$a2, $s0
	pcaddu18i	$ra, %call36(KDTree_QueryBoxIntersect)
	jirl	$ra, $ra, 0
.Ltmp134:
# %bb.56:                               #   in Loop: Header=BB16_52 Depth=1
	ld.w	$a0, $sp, 180
	bne	$a0, $s4, .LBB16_58
# %bb.57:                               #   in Loop: Header=BB16_52 Depth=1
	ld.w	$a0, $s0, 0
	ld.d	$a1, $fp, 1376
	stx.w	$a0, $a1, $s5
.LBB16_58:                              #   in Loop: Header=BB16_52 Depth=1
	ld.d	$a0, $fp, 1384
	stx.w	$s3, $a0, $s5
	ld.d	$a0, $fp, 1440
	ld.d	$a1, $fp, 1416
	fldx.d	$fa0, $a0, $s6
	fldx.d	$fa1, $a1, $s6
	vldi	$vr2, -944
	fmul.d	$fa0, $fa0, $fa2
	fadd.d	$fa0, $fa1, $fa0
	fst.d	$fa0, $sp, 184
	fldx.d	$fa0, $a0, $s6
	fldx.d	$fa1, $a1, $s6
	fmul.d	$fa0, $fa0, $fa2
	ld.d	$a0, $fp, 1488
	ld.d	$a1, $fp, 1464
	fadd.d	$fa0, $fa1, $fa0
	fst.d	$fa0, $sp, 200
	fldx.d	$fa0, $a0, $s6
	fldx.d	$fa1, $a1, $s6
	fmul.d	$fa0, $fa0, $fa2
	fsub.d	$fa0, $fa1, $fa0
	fst.d	$fa0, $sp, 192
	fldx.d	$fa0, $a0, $s6
	fldx.d	$fa1, $a1, $s6
	fmul.d	$fa0, $fa0, $fa2
	fsub.d	$fa0, $fa1, $fa0
	fst.d	$fa0, $sp, 208
.Ltmp135:
	addi.d	$a1, $sp, 180
	addi.d	$a3, $sp, 184
	move	$a0, $s1
	move	$a2, $s0
	pcaddu18i	$ra, %call36(KDTree_QueryBoxIntersect)
	jirl	$ra, $ra, 0
.Ltmp136:
# %bb.59:                               #   in Loop: Header=BB16_52 Depth=1
	ld.w	$a0, $sp, 180
	bne	$a0, $s4, .LBB16_61
# %bb.60:                               #   in Loop: Header=BB16_52 Depth=1
	ld.w	$a0, $s0, 0
	ld.d	$a1, $fp, 1384
	stx.w	$a0, $a1, $s5
.LBB16_61:                              #   in Loop: Header=BB16_52 Depth=1
	ld.d	$a0, $fp, 1392
	stx.w	$s3, $a0, $s5
	ld.d	$a0, $fp, 1440
	ld.d	$a1, $fp, 1416
	fldx.d	$fa0, $a0, $s6
	fldx.d	$fa1, $a1, $s6
	vldi	$vr2, -944
	fmul.d	$fa0, $fa0, $fa2
	fadd.d	$fa0, $fa1, $fa0
	fst.d	$fa0, $sp, 184
	fldx.d	$fa0, $a0, $s6
	fldx.d	$fa1, $a1, $s6
	fmul.d	$fa0, $fa0, $fa2
	ld.d	$a0, $fp, 1488
	ld.d	$a1, $fp, 1464
	fadd.d	$fa0, $fa1, $fa0
	fst.d	$fa0, $sp, 200
	fldx.d	$fa0, $a0, $s6
	fldx.d	$fa1, $a1, $s6
	vldi	$vr2, -908
	fmul.d	$fa0, $fa0, $fa2
	fadd.d	$fa0, $fa1, $fa0
	fst.d	$fa0, $sp, 192
	fldx.d	$fa0, $a0, $s6
	fldx.d	$fa1, $a1, $s6
	fmul.d	$fa0, $fa0, $fa2
	fadd.d	$fa0, $fa1, $fa0
	fst.d	$fa0, $sp, 208
.Ltmp137:
	addi.d	$a1, $sp, 180
	addi.d	$a3, $sp, 184
	move	$a0, $s1
	move	$a2, $s0
	pcaddu18i	$ra, %call36(KDTree_QueryBoxIntersect)
	jirl	$ra, $ra, 0
.Ltmp138:
# %bb.62:                               #   in Loop: Header=BB16_52 Depth=1
	ld.w	$a0, $sp, 180
	bne	$a0, $s4, .LBB16_51
# %bb.63:                               #   in Loop: Header=BB16_52 Depth=1
	ld.w	$a0, $s0, 0
	ld.d	$a1, $fp, 1392
	stx.w	$a0, $a1, $s5
	b	.LBB16_51
.LBB16_64:                              # %._crit_edge541
.Ltmp140:
	move	$a0, $s1
	pcaddu18i	$ra, %call36(KDTree_Destroy)
	jirl	$ra, $ra, 0
.Ltmp141:
# %bb.65:
	ld.d	$a0, $sp, 216
	ld.d	$a1, $sp, 224
.Ltmp142:
	pcaddu18i	$ra, %call36(cpu_timer_stop)
	jirl	$ra, $ra, 0
.Ltmp143:
# %bb.66:
	fld.d	$fa1, $fp, 344
	fadd.d	$fa0, $fa0, $fa1
	fst.d	$fa0, $fp, 344
	beqz	$s0, .LBB16_128
# %bb.67:
	sub.d	$a1, $s2, $s0
	move	$a0, $s0
	pcaddu18i	$ra, %call36(_ZdlPvm)
	jirl	$ra, $ra, 0
	b	.LBB16_128
.LBB16_68:
	move	$a6, $zero
	move	$a4, $zero
	move	$a7, $a3
	move	$a5, $a1
.LBB16_69:                              # %.thread582
	addi.d	$t0, $zero, -4
	sll.w	$t0, $t0, $a2
	add.w	$a7, $a7, $t0
	srai.d	$t1, $a7, 63
	andn	$s3, $a7, $t1
	ori	$a7, $zero, 4
	sll.w	$a2, $a7, $a2
	add.w	$a6, $a6, $a2
	slt	$a7, $a3, $a6
	masknez	$a6, $a6, $a7
	maskeqz	$a3, $a3, $a7
	or	$a3, $a3, $a6
	add.w	$a5, $a5, $t0
	srai.d	$a6, $a5, 63
	andn	$s4, $a5, $a6
	add.w	$a2, $a4, $a2
	slt	$a4, $a1, $a2
	masknez	$a2, $a2, $a4
	maskeqz	$a1, $a1, $a4
	or	$a1, $a1, $a2
	sub.w	$s5, $a1, $s4
	sub.w	$a2, $a3, $s3
	addi.w	$a0, $a0, 0
	move	$a1, $s5
	move	$a3, $zero
	pcaddu18i	$ra, %call36(compact_hash_init)
	jirl	$ra, $ra, 0
	ld.d	$a1, $fp, 1160
	pcalau12i	$s7, %pc_hi20(_ZZN4Mesh20calc_neighbors_localEvE4hash)
	st.d	$a0, $s7, %pc_lo12(_ZZN4Mesh20calc_neighbors_localEvE4hash)
	beqz	$a1, .LBB16_72
# %bb.70:                               # %.lr.ph555
	pcalau12i	$a0, %got_pc_hi20(write_hash)
	ld.d	$s0, $a0, %got_pc_lo12(write_hash)
	move	$a0, $zero
	move	$s1, $zero
	ori	$s2, $zero, 2
	.p2align	4, , 16
.LBB16_71:                              # =>This Inner Loop Header: Depth=1
	ld.d	$a1, $fp, 1352
	slli.d	$a2, $a0, 2
	ldx.w	$a0, $a1, $a2
	ld.w	$a1, $fp, 1120
	ld.d	$a3, $fp, 1328
	ld.w	$a4, $fp, 636
	ld.d	$a5, $fp, 1336
	sub.d	$a1, $a1, $a0
	ldx.w	$a3, $a3, $a2
	add.w	$a0, $s1, $a4
	ldx.w	$a2, $a5, $a2
	sll.w	$a1, $s2, $a1
	mul.d	$a3, $a3, $a1
	sub.d	$a3, $a3, $s4
	mul.d	$a1, $a2, $a1
	ld.d	$a4, $s0, 0
	ld.d	$a2, $s7, %pc_lo12(_ZZN4Mesh20calc_neighbors_localEvE4hash)
	sub.d	$a1, $a1, $s3
	mul.d	$a1, $a1, $s5
	add.w	$a1, $a3, $a1
	jirl	$ra, $a4, 0
	ld.d	$a1, $fp, 1160
	addi.w	$s1, $s1, 1
	bstrpick.d	$a0, $s1, 31, 0
	bltu	$a0, $a1, .LBB16_71
.LBB16_72:                              # %._crit_edge556
	st.d	$s4, $sp, 144                   # 8-byte Folded Spill
	ld.d	$a0, $sp, 248
	ld.d	$a1, $sp, 256
	pcaddu18i	$ra, %call36(cpu_timer_stop)
	jirl	$ra, $ra, 0
	fld.d	$fa1, $fp, 216
	fadd.d	$fa0, $fa0, $fa1
	fst.d	$fa0, $fp, 216
	addi.d	$a0, $sp, 248
	pcaddu18i	$ra, %call36(cpu_timer_start)
	jirl	$ra, $ra, 0
	ld.w	$a0, $fp, 1144
	ld.wu	$a1, $fp, 1120
	addi.d	$a0, $a0, 1
	ori	$a2, $zero, 2
	sll.w	$a1, $a2, $a1
	mul.d	$a0, $a1, $a0
	ld.w	$a2, $fp, 1136
	pcalau12i	$a3, %pc_hi20(_ZZN4Mesh20calc_neighbors_localEvE8jmaxcalc)
	st.d	$a3, $sp, 32                    # 8-byte Folded Spill
	st.w	$a0, $a3, %pc_lo12(_ZZN4Mesh20calc_neighbors_localEvE8jmaxcalc)
	ld.d	$a0, $fp, 1160
	addi.d	$a2, $a2, 1
	mul.d	$a1, $a2, $a1
	pcalau12i	$a2, %pc_hi20(_ZZN4Mesh20calc_neighbors_localEvE8imaxcalc)
	st.d	$a2, $sp, 24                    # 8-byte Folded Spill
	st.w	$a1, $a2, %pc_lo12(_ZZN4Mesh20calc_neighbors_localEvE8imaxcalc)
	beqz	$a0, .LBB16_127
# %bb.73:                               # %.lr.ph559
	move	$a0, $zero
	move	$s1, $zero
	ld.d	$a1, $sp, 144                   # 8-byte Folded Reload
	nor	$a1, $a1, $zero
	st.d	$a1, $sp, 16                    # 8-byte Folded Spill
	nor	$a1, $s3, $zero
	st.d	$a1, $sp, 8                     # 8-byte Folded Spill
	addi.w	$s6, $zero, -1
	st.d	$s3, $sp, 128                   # 8-byte Folded Spill
	st.d	$s7, $sp, 48                    # 8-byte Folded Spill
	st.d	$s5, $sp, 136                   # 8-byte Folded Spill
	b	.LBB16_76
.LBB16_74:                              #   in Loop: Header=BB16_76 Depth=1
	move	$t0, $s8
	.p2align	4, , 16
.LBB16_75:                              #   in Loop: Header=BB16_76 Depth=1
	ld.d	$a0, $fp, 1368
	ld.d	$a1, $sp, 88                    # 8-byte Folded Reload
	stx.w	$t0, $a0, $a1
	ld.d	$a0, $fp, 1376
	stx.w	$s0, $a0, $a1
	ld.d	$a0, $fp, 1384
	stx.w	$s3, $a0, $a1
	ld.d	$a0, $fp, 1392
	stx.w	$s4, $a0, $a1
	ld.d	$a1, $fp, 1160
	addi.w	$s1, $s1, 1
	bstrpick.d	$a0, $s1, 31, 0
	ld.d	$s3, $sp, 128                   # 8-byte Folded Reload
	bgeu	$a0, $a1, .LBB16_127
.LBB16_76:                              # =>This Inner Loop Header: Depth=1
	ld.d	$a1, $fp, 1352
	ld.d	$a2, $fp, 1328
	slli.d	$a4, $a0, 2
	ld.d	$a3, $fp, 1336
	ldx.w	$t5, $a1, $a4
	ld.w	$a0, $fp, 1120
	ldx.w	$a2, $a2, $a4
	st.d	$a4, $sp, 88                    # 8-byte Folded Spill
	ldx.w	$a4, $a3, $a4
	sub.d	$a1, $a0, $t5
	ori	$a6, $zero, 2
	sll.w	$a5, $a6, $a1
	mul.w	$a3, $a5, $a2
	st.d	$a2, $sp, 120                   # 8-byte Folded Spill
	addi.d	$a1, $a2, -1
	mul.d	$a1, $a5, $a1
	slli.d	$a2, $a1, 32
	srai.d	$a2, $a2, 63
	andn	$a1, $a1, $a2
	mul.w	$a2, $a5, $a4
	st.d	$a4, $sp, 112                   # 8-byte Folded Spill
	addi.d	$a4, $a4, -1
	st.d	$a5, $sp, 152                   # 8-byte Folded Spill
	mul.d	$a4, $a5, $a4
	slli.d	$a5, $a4, 32
	srai.d	$a5, $a5, 63
	andn	$a4, $a4, $a5
	ld.w	$a5, $fp, 636
	sll.w	$a6, $a6, $a0
	slt	$a7, $a3, $a6
	xori	$a7, $a7, 1
	st.d	$s1, $sp, 96                    # 8-byte Folded Spill
	add.w	$s4, $s1, $a5
	masknez	$a5, $s4, $a7
	maskeqz	$t0, $s6, $a7
	or	$a5, $t0, $a5
	slt	$t0, $a2, $a6
	xori	$t0, $t0, 1
	masknez	$t1, $s4, $t0
	ld.w	$t2, $fp, 1144
	maskeqz	$t3, $s6, $t0
	or	$t1, $t3, $t1
	ld.w	$t3, $fp, 1136
	mul.w	$s2, $t2, $a6
	xor	$t2, $a3, $a6
	sltui	$t2, $t2, 1
	slt	$t4, $a2, $s2
	and	$s1, $t0, $t4
	maskeqz	$t0, $a5, $s1
	ld.d	$t4, $sp, 144                   # 8-byte Folded Reload
	masknez	$s8, $s4, $s1
	or	$t0, $t0, $s8
	maskeqz	$t0, $t0, $t2
	masknez	$a5, $a5, $t2
	sub.w	$t2, $a3, $t4
	st.d	$t2, $sp, 160                   # 8-byte Folded Spill
	mul.w	$s0, $t3, $a6
	or	$t0, $t0, $a5
	xor	$a5, $a2, $a6
	sltui	$a5, $a5, 1
	slt	$a3, $a3, $s0
	and	$s5, $a7, $a3
	maskeqz	$a3, $t1, $s5
	move	$a6, $s3
	masknez	$a7, $s4, $s5
	st.d	$a7, $sp, 80                    # 8-byte Folded Spill
	or	$a3, $a3, $a7
	maskeqz	$a3, $a3, $a5
	masknez	$a5, $t1, $a5
	ld.d	$a7, $sp, 24                    # 8-byte Folded Reload
	ld.w	$s7, $a7, %pc_lo12(_ZZN4Mesh20calc_neighbors_localEvE8imaxcalc)
	or	$s3, $a3, $a5
	ld.d	$a3, $sp, 32                    # 8-byte Folded Reload
	ld.w	$a3, $a3, %pc_lo12(_ZZN4Mesh20calc_neighbors_localEvE8jmaxcalc)
	st.d	$a3, $sp, 72                    # 8-byte Folded Spill
	sub.w	$a1, $a1, $t4
	st.d	$a1, $sp, 56                    # 8-byte Folded Spill
	sub.w	$a1, $a2, $a6
	st.d	$a1, $sp, 168                   # 8-byte Folded Spill
	sub.w	$a1, $a4, $a6
	st.d	$a1, $sp, 64                    # 8-byte Folded Spill
	st.d	$t5, $sp, 104                   # 8-byte Folded Spill
	beq	$a0, $t5, .LBB16_79
# %bb.77:                               #   in Loop: Header=BB16_76 Depth=1
	bge	$s6, $t0, .LBB16_83
# %bb.78:                               #   in Loop: Header=BB16_76 Depth=1
	bge	$s6, $s3, .LBB16_84
.LBB16_79:                              #   in Loop: Header=BB16_76 Depth=1
	blt	$s6, $t0, .LBB16_87
.LBB16_80:                              #   in Loop: Header=BB16_76 Depth=1
	st.d	$s3, $sp, 40                    # 8-byte Folded Spill
	move	$s3, $t0
	pcalau12i	$a0, %got_pc_hi20(read_hash)
	ld.d	$a0, $a0, %got_pc_lo12(read_hash)
	ld.d	$a2, $a0, 0
	ld.d	$a0, $sp, 48                    # 8-byte Folded Reload
	ld.d	$a1, $a0, %pc_lo12(_ZZN4Mesh20calc_neighbors_localEvE4hash)
	ld.d	$a0, $sp, 136                   # 8-byte Folded Reload
	ld.d	$a3, $sp, 168                   # 8-byte Folded Reload
	mul.d	$a0, $a3, $a0
	ld.d	$a3, $sp, 56                    # 8-byte Folded Reload
	add.w	$a0, $a0, $a3
	jirl	$ra, $a2, 0
	bltz	$a0, .LBB16_85
# %bb.81:                               #   in Loop: Header=BB16_76 Depth=1
	ld.w	$a1, $fp, 1160
	move	$t0, $s3
	bge	$a0, $a1, .LBB16_86
# %bb.82:                               #   in Loop: Header=BB16_76 Depth=1
	ld.d	$a1, $fp, 1352
	slli.d	$a2, $a0, 2
	ldx.w	$a1, $a1, $a2
	ld.d	$a2, $sp, 104                   # 8-byte Folded Reload
	xor	$a1, $a1, $a2
	sltui	$a1, $a1, 1
	masknez	$a2, $t0, $a1
	maskeqz	$a0, $a0, $a1
	or	$t0, $a0, $a2
	b	.LBB16_86
.LBB16_83:                              #   in Loop: Header=BB16_76 Depth=1
	ld.d	$a5, $sp, 160                   # 8-byte Folded Reload
	ld.d	$a0, $sp, 56                    # 8-byte Folded Reload
	sub.d	$a0, $a5, $a0
	pcalau12i	$a1, %got_pc_hi20(read_hash)
	ld.d	$a1, $a1, %got_pc_lo12(read_hash)
	bstrpick.d	$a2, $a0, 31, 31
	add.w	$a0, $a0, $a2
	srli.d	$a0, $a0, 1
	ld.d	$a2, $a1, 0
	ld.d	$a1, $sp, 48                    # 8-byte Folded Reload
	ld.d	$a1, $a1, %pc_lo12(_ZZN4Mesh20calc_neighbors_localEvE4hash)
	ld.d	$a3, $sp, 136                   # 8-byte Folded Reload
	ld.d	$a4, $sp, 168                   # 8-byte Folded Reload
	mul.d	$a3, $a4, $a3
	add.d	$a3, $a3, $a5
	sub.w	$a0, $a3, $a0
	jirl	$ra, $a2, 0
	move	$t0, $a0
	blt	$s6, $s3, .LBB16_79
.LBB16_84:                              #   in Loop: Header=BB16_76 Depth=1
	ld.d	$a3, $sp, 168                   # 8-byte Folded Reload
	ld.d	$a0, $sp, 64                    # 8-byte Folded Reload
	sub.d	$a0, $a3, $a0
	pcalau12i	$a1, %got_pc_hi20(read_hash)
	ld.d	$a1, $a1, %got_pc_lo12(read_hash)
	bstrpick.d	$a2, $a0, 31, 31
	add.w	$a0, $a0, $a2
	srli.d	$a0, $a0, 1
	ld.d	$a2, $a1, 0
	ld.d	$a1, $sp, 48                    # 8-byte Folded Reload
	ld.d	$a1, $a1, %pc_lo12(_ZZN4Mesh20calc_neighbors_localEvE4hash)
	sub.d	$a0, $a3, $a0
	ld.d	$a3, $sp, 136                   # 8-byte Folded Reload
	mul.d	$a0, $a0, $a3
	ld.d	$a3, $sp, 160                   # 8-byte Folded Reload
	add.w	$a0, $a0, $a3
	move	$s3, $t0
	jirl	$ra, $a2, 0
	move	$t0, $s3
	move	$s3, $a0
	blt	$s6, $t0, .LBB16_87
	b	.LBB16_80
.LBB16_85:                              #   in Loop: Header=BB16_76 Depth=1
	move	$t0, $s3
.LBB16_86:                              #   in Loop: Header=BB16_76 Depth=1
	ld.d	$s3, $sp, 40                    # 8-byte Folded Reload
.LBB16_87:                              #   in Loop: Header=BB16_76 Depth=1
	ld.d	$a0, $sp, 120                   # 8-byte Folded Reload
	addi.d	$a0, $a0, 1
	ld.d	$a1, $sp, 152                   # 8-byte Folded Reload
	mul.w	$a0, $a1, $a0
	addi.w	$a1, $s7, -1
	slt	$a2, $a1, $a0
	masknez	$a0, $a0, $a2
	maskeqz	$a1, $a1, $a2
	or	$a0, $a1, $a0
	ld.d	$a1, $sp, 16                    # 8-byte Folded Reload
	add.w	$a1, $s0, $a1
	ld.d	$a2, $sp, 160                   # 8-byte Folded Reload
	slt	$a1, $a1, $a2
	masknez	$a2, $s6, $a1
	maskeqz	$a1, $s4, $a1
	or	$a1, $a1, $a2
	xor	$a2, $a0, $s0
	sltui	$a2, $a2, 1
	maskeqz	$a3, $a1, $s1
	or	$a3, $a3, $s8
	masknez	$a1, $a1, $a2
	maskeqz	$a2, $a3, $a2
	or	$a2, $a2, $a1
	ld.d	$a1, $sp, 144                   # 8-byte Folded Reload
	sub.w	$s1, $a0, $a1
	ld.d	$s7, $sp, 48                    # 8-byte Folded Reload
	move	$s8, $t0
	move	$s0, $a2
	bge	$s6, $a2, .LBB16_89
# %bb.88:                               #   in Loop: Header=BB16_76 Depth=1
	st.d	$s1, $sp, 40                    # 8-byte Folded Spill
	ld.d	$s1, $sp, 96                    # 8-byte Folded Reload
	blt	$s6, $s3, .LBB16_94
	b	.LBB16_90
	.p2align	4, , 16
.LBB16_89:                              #   in Loop: Header=BB16_76 Depth=1
	pcalau12i	$a0, %got_pc_hi20(read_hash)
	ld.d	$a0, $a0, %got_pc_lo12(read_hash)
	ld.d	$a2, $a0, 0
	ld.d	$a1, $s7, %pc_lo12(_ZZN4Mesh20calc_neighbors_localEvE4hash)
	ld.d	$a0, $sp, 136                   # 8-byte Folded Reload
	ld.d	$a3, $sp, 168                   # 8-byte Folded Reload
	mul.d	$a0, $a3, $a0
	add.w	$a0, $a0, $s1
	jirl	$ra, $a2, 0
	move	$t0, $s8
	move	$s0, $a0
	st.d	$s1, $sp, 40                    # 8-byte Folded Spill
	ld.d	$s1, $sp, 96                    # 8-byte Folded Reload
	blt	$s6, $s3, .LBB16_94
.LBB16_90:                              #   in Loop: Header=BB16_76 Depth=1
	pcalau12i	$a0, %got_pc_hi20(read_hash)
	ld.d	$a0, $a0, %got_pc_lo12(read_hash)
	ld.d	$a2, $a0, 0
	ld.d	$a1, $s7, %pc_lo12(_ZZN4Mesh20calc_neighbors_localEvE4hash)
	ld.d	$a0, $sp, 136                   # 8-byte Folded Reload
	ld.d	$a3, $sp, 64                    # 8-byte Folded Reload
	mul.d	$a0, $a3, $a0
	ld.d	$a3, $sp, 160                   # 8-byte Folded Reload
	add.w	$a0, $a0, $a3
	jirl	$ra, $a2, 0
	bltz	$a0, .LBB16_93
# %bb.91:                               #   in Loop: Header=BB16_76 Depth=1
	ld.w	$a1, $fp, 1160
	bge	$a0, $a1, .LBB16_93
# %bb.92:                               #   in Loop: Header=BB16_76 Depth=1
	ld.d	$a1, $fp, 1352
	slli.d	$a2, $a0, 2
	ldx.w	$a1, $a1, $a2
	ld.d	$a2, $sp, 104                   # 8-byte Folded Reload
	xor	$a1, $a1, $a2
	sltui	$a1, $a1, 1
	masknez	$a2, $s3, $a1
	maskeqz	$a0, $a0, $a1
	or	$s3, $a0, $a2
.LBB16_93:                              #   in Loop: Header=BB16_76 Depth=1
	move	$t0, $s8
.LBB16_94:                              #   in Loop: Header=BB16_76 Depth=1
	ld.d	$a0, $sp, 112                   # 8-byte Folded Reload
	addi.d	$a0, $a0, 1
	ld.d	$a1, $sp, 152                   # 8-byte Folded Reload
	mul.w	$a0, $a1, $a0
	ld.d	$a1, $sp, 72                    # 8-byte Folded Reload
	addi.w	$a1, $a1, -1
	slt	$a2, $a1, $a0
	masknez	$a0, $a0, $a2
	maskeqz	$a1, $a1, $a2
	or	$a0, $a1, $a0
	ld.d	$a1, $sp, 8                     # 8-byte Folded Reload
	add.w	$a1, $s2, $a1
	ld.d	$a2, $sp, 168                   # 8-byte Folded Reload
	slt	$a1, $a1, $a2
	masknez	$a2, $s6, $a1
	maskeqz	$a1, $s4, $a1
	or	$a1, $a1, $a2
	xor	$a2, $a0, $s2
	sltui	$a2, $a2, 1
	maskeqz	$a3, $a1, $s5
	ld.d	$a4, $sp, 80                    # 8-byte Folded Reload
	or	$a3, $a3, $a4
	masknez	$a1, $a1, $a2
	maskeqz	$a2, $a3, $a2
	or	$s4, $a2, $a1
	ld.d	$a1, $sp, 128                   # 8-byte Folded Reload
	sub.w	$s2, $a0, $a1
	ld.d	$s5, $sp, 136                   # 8-byte Folded Reload
	bge	$s6, $s4, .LBB16_96
# %bb.95:                               #   in Loop: Header=BB16_76 Depth=1
	st.d	$s2, $sp, 80                    # 8-byte Folded Spill
	ld.w	$a0, $fp, 1120
	ld.d	$s2, $sp, 104                   # 8-byte Folded Reload
	bne	$s2, $a0, .LBB16_97
	b	.LBB16_103
	.p2align	4, , 16
.LBB16_96:                              #   in Loop: Header=BB16_76 Depth=1
	pcalau12i	$a0, %got_pc_hi20(read_hash)
	ld.d	$a0, $a0, %got_pc_lo12(read_hash)
	ld.d	$a2, $a0, 0
	ld.d	$a1, $s7, %pc_lo12(_ZZN4Mesh20calc_neighbors_localEvE4hash)
	mul.d	$a0, $s2, $s5
	ld.d	$a3, $sp, 160                   # 8-byte Folded Reload
	add.w	$a0, $a0, $a3
	jirl	$ra, $a2, 0
	move	$t0, $s8
	move	$s4, $a0
	st.d	$s2, $sp, 80                    # 8-byte Folded Spill
	ld.w	$a0, $fp, 1120
	ld.d	$s2, $sp, 104                   # 8-byte Folded Reload
	beq	$s2, $a0, .LBB16_103
.LBB16_97:                              #   in Loop: Header=BB16_76 Depth=1
	ori	$a1, $zero, 2
	sll.w	$a0, $a1, $a0
	ld.d	$a1, $sp, 168                   # 8-byte Folded Reload
	bge	$a1, $a0, .LBB16_100
# %bb.98:                               #   in Loop: Header=BB16_76 Depth=1
	bge	$s6, $s0, .LBB16_110
# %bb.99:                               #   in Loop: Header=BB16_76 Depth=1
	bge	$s6, $t0, .LBB16_111
.LBB16_100:                             #   in Loop: Header=BB16_76 Depth=1
	ld.wu	$a0, $fp, 1120
	ori	$a1, $zero, 2
	sll.w	$a0, $a1, $a0
	ld.d	$a1, $sp, 160                   # 8-byte Folded Reload
	bge	$a1, $a0, .LBB16_103
# %bb.101:                              #   in Loop: Header=BB16_76 Depth=1
	bge	$s6, $s4, .LBB16_112
# %bb.102:                              #   in Loop: Header=BB16_76 Depth=1
	bge	$s6, $s3, .LBB16_113
	.p2align	4, , 16
.LBB16_103:                             #   in Loop: Header=BB16_76 Depth=1
	beqz	$s2, .LBB16_75
.LBB16_104:                             #   in Loop: Header=BB16_76 Depth=1
	blt	$s6, $t0, .LBB16_108
# %bb.105:                              #   in Loop: Header=BB16_76 Depth=1
	move	$s8, $t0
	ld.d	$a1, $sp, 112                   # 8-byte Folded Reload
	bstrpick.d	$a0, $a1, 31, 31
	add.w	$a0, $a1, $a0
	srli.d	$a0, $a0, 1
	pcalau12i	$a1, %got_pc_hi20(read_hash)
	ld.d	$a1, $a1, %got_pc_lo12(read_hash)
	ld.d	$a2, $sp, 152                   # 8-byte Folded Reload
	mul.d	$a0, $a0, $a2
	slli.d	$a0, $a0, 1
	ld.d	$a2, $sp, 128                   # 8-byte Folded Reload
	sub.d	$a0, $a0, $a2
	ld.d	$a2, $a1, 0
	ld.d	$a1, $s7, %pc_lo12(_ZZN4Mesh20calc_neighbors_localEvE4hash)
	mul.d	$a0, $a0, $s5
	ld.d	$a3, $sp, 160                   # 8-byte Folded Reload
	sub.d	$a0, $a0, $a3
	ld.d	$a3, $sp, 56                    # 8-byte Folded Reload
	alsl.w	$a0, $a3, $a0, 1
	jirl	$ra, $a2, 0
	bltz	$a0, .LBB16_114
# %bb.106:                              #   in Loop: Header=BB16_76 Depth=1
	ld.w	$a1, $fp, 1160
	move	$t0, $s8
	bge	$a0, $a1, .LBB16_108
# %bb.107:                              #   in Loop: Header=BB16_76 Depth=1
	ld.d	$a1, $fp, 1352
	slli.d	$a2, $a0, 2
	ldx.w	$a1, $a1, $a2
	addi.w	$a2, $s2, -1
	xor	$a1, $a1, $a2
	sltui	$a1, $a1, 1
	masknez	$a2, $t0, $a1
	maskeqz	$a0, $a0, $a1
	or	$t0, $a0, $a2
	.p2align	4, , 16
.LBB16_108:                             #   in Loop: Header=BB16_76 Depth=1
	bge	$s6, $s0, .LBB16_115
.LBB16_109:                             #   in Loop: Header=BB16_76 Depth=1
	blt	$s6, $s3, .LBB16_122
	b	.LBB16_119
.LBB16_110:                             #   in Loop: Header=BB16_76 Depth=1
	pcalau12i	$a0, %got_pc_hi20(read_hash)
	ld.d	$a0, $a0, %got_pc_lo12(read_hash)
	ld.d	$a1, $sp, 168                   # 8-byte Folded Reload
	ld.d	$a2, $sp, 80                    # 8-byte Folded Reload
	add.d	$a1, $a2, $a1
	bstrpick.d	$a2, $a1, 31, 31
	add.w	$a2, $a1, $a2
	ld.d	$a3, $a0, 0
	ld.d	$a1, $s7, %pc_lo12(_ZZN4Mesh20calc_neighbors_localEvE4hash)
	srli.d	$a0, $a2, 1
	mul.d	$a0, $a0, $s5
	ld.d	$a2, $sp, 40                    # 8-byte Folded Reload
	add.w	$a0, $a0, $a2
	jirl	$ra, $a3, 0
	move	$t0, $s8
	move	$s0, $a0
	blt	$s6, $t0, .LBB16_100
.LBB16_111:                             #   in Loop: Header=BB16_76 Depth=1
	ld.d	$a2, $sp, 160                   # 8-byte Folded Reload
	ld.d	$a0, $sp, 56                    # 8-byte Folded Reload
	sub.d	$a0, $a2, $a0
	bstrpick.d	$a1, $a0, 31, 31
	add.w	$a0, $a0, $a1
	srli.d	$a0, $a0, 1
	sub.d	$a0, $a2, $a0
	pcalau12i	$a1, %got_pc_hi20(read_hash)
	ld.d	$a1, $a1, %got_pc_lo12(read_hash)
	ld.d	$a2, $sp, 168                   # 8-byte Folded Reload
	ld.d	$a3, $sp, 80                    # 8-byte Folded Reload
	add.d	$a2, $a3, $a2
	bstrpick.d	$a3, $a2, 31, 31
	add.w	$a2, $a2, $a3
	ld.d	$a3, $a1, 0
	ld.d	$a1, $s7, %pc_lo12(_ZZN4Mesh20calc_neighbors_localEvE4hash)
	srli.d	$a2, $a2, 1
	mul.d	$a2, $a2, $s5
	add.w	$a0, $a0, $a2
	jirl	$ra, $a3, 0
	move	$t0, $a0
	b	.LBB16_100
.LBB16_112:                             #   in Loop: Header=BB16_76 Depth=1
	pcalau12i	$a0, %got_pc_hi20(read_hash)
	ld.d	$a0, $a0, %got_pc_lo12(read_hash)
	ld.d	$a1, $sp, 160                   # 8-byte Folded Reload
	ld.d	$a2, $sp, 40                    # 8-byte Folded Reload
	add.d	$a1, $a2, $a1
	bstrpick.d	$a2, $a1, 31, 31
	add.w	$a2, $a1, $a2
	ld.d	$a3, $a0, 0
	ld.d	$a1, $s7, %pc_lo12(_ZZN4Mesh20calc_neighbors_localEvE4hash)
	srli.d	$a0, $a2, 1
	ld.d	$a2, $sp, 80                    # 8-byte Folded Reload
	mul.d	$a2, $a2, $s5
	add.w	$a0, $a0, $a2
	move	$s4, $t0
	jirl	$ra, $a3, 0
	move	$t0, $s4
	move	$s4, $a0
	blt	$s6, $s3, .LBB16_103
.LBB16_113:                             #   in Loop: Header=BB16_76 Depth=1
	ld.d	$a0, $sp, 160                   # 8-byte Folded Reload
	ld.d	$a1, $sp, 40                    # 8-byte Folded Reload
	add.d	$a0, $a1, $a0
	bstrpick.d	$a1, $a0, 31, 31
	add.w	$a0, $a0, $a1
	srli.d	$a0, $a0, 1
	ld.d	$a4, $sp, 168                   # 8-byte Folded Reload
	ld.d	$a1, $sp, 64                    # 8-byte Folded Reload
	sub.d	$a1, $a4, $a1
	pcalau12i	$a2, %got_pc_hi20(read_hash)
	ld.d	$a2, $a2, %got_pc_lo12(read_hash)
	bstrpick.d	$a3, $a1, 31, 31
	add.w	$a1, $a1, $a3
	srli.d	$a3, $a1, 1
	ld.d	$a2, $a2, 0
	ld.d	$a1, $s7, %pc_lo12(_ZZN4Mesh20calc_neighbors_localEvE4hash)
	sub.d	$a3, $a4, $a3
	mul.d	$a3, $a3, $s5
	add.w	$a0, $a3, $a0
	move	$s8, $t0
	jirl	$ra, $a2, 0
	move	$t0, $s8
	move	$s3, $a0
	bnez	$s2, .LBB16_104
	b	.LBB16_75
.LBB16_114:                             #   in Loop: Header=BB16_76 Depth=1
	move	$t0, $s8
	blt	$s6, $s0, .LBB16_109
	.p2align	4, , 16
.LBB16_115:                             #   in Loop: Header=BB16_76 Depth=1
	move	$s8, $t0
	ld.d	$a1, $sp, 112                   # 8-byte Folded Reload
	bstrpick.d	$a0, $a1, 31, 31
	add.w	$a0, $a1, $a0
	pcalau12i	$a1, %got_pc_hi20(read_hash)
	ld.d	$a1, $a1, %got_pc_lo12(read_hash)
	srli.d	$a0, $a0, 1
	ld.d	$a2, $sp, 152                   # 8-byte Folded Reload
	mul.d	$a0, $a0, $a2
	slli.d	$a0, $a0, 1
	ld.d	$a2, $a1, 0
	ld.d	$a1, $s7, %pc_lo12(_ZZN4Mesh20calc_neighbors_localEvE4hash)
	ld.d	$a3, $sp, 128                   # 8-byte Folded Reload
	sub.d	$a0, $a0, $a3
	mul.d	$a0, $a0, $s5
	ld.d	$a3, $sp, 40                    # 8-byte Folded Reload
	add.w	$a0, $a0, $a3
	jirl	$ra, $a2, 0
	bltz	$a0, .LBB16_118
# %bb.116:                              #   in Loop: Header=BB16_76 Depth=1
	ld.w	$a1, $fp, 1160
	bge	$a0, $a1, .LBB16_118
# %bb.117:                              #   in Loop: Header=BB16_76 Depth=1
	ld.d	$a1, $fp, 1352
	slli.d	$a2, $a0, 2
	ldx.w	$a1, $a1, $a2
	addi.w	$a2, $s2, -1
	xor	$a1, $a1, $a2
	sltui	$a1, $a1, 1
	masknez	$a2, $s0, $a1
	maskeqz	$a0, $a0, $a1
	or	$s0, $a0, $a2
.LBB16_118:                             #   in Loop: Header=BB16_76 Depth=1
	move	$t0, $s8
	blt	$s6, $s3, .LBB16_122
.LBB16_119:                             #   in Loop: Header=BB16_76 Depth=1
	move	$s8, $t0
	ld.d	$a0, $sp, 64                    # 8-byte Folded Reload
	slli.d	$a0, $a0, 1
	ld.d	$a1, $sp, 168                   # 8-byte Folded Reload
	sub.d	$a0, $a0, $a1
	ld.d	$a2, $sp, 120                   # 8-byte Folded Reload
	bstrpick.d	$a1, $a2, 31, 31
	add.w	$a1, $a2, $a1
	pcalau12i	$a2, %got_pc_hi20(read_hash)
	ld.d	$a2, $a2, %got_pc_lo12(read_hash)
	srli.d	$a1, $a1, 1
	ld.d	$a3, $sp, 152                   # 8-byte Folded Reload
	mul.d	$a1, $a1, $a3
	slli.d	$a3, $a1, 1
	ld.d	$a2, $a2, 0
	ld.d	$a1, $s7, %pc_lo12(_ZZN4Mesh20calc_neighbors_localEvE4hash)
	ld.d	$a4, $sp, 144                   # 8-byte Folded Reload
	sub.d	$a3, $a3, $a4
	mul.d	$a0, $a0, $s5
	add.w	$a0, $a3, $a0
	jirl	$ra, $a2, 0
	bltz	$a0, .LBB16_126
# %bb.120:                              #   in Loop: Header=BB16_76 Depth=1
	ld.w	$a1, $fp, 1160
	move	$t0, $s8
	bge	$a0, $a1, .LBB16_122
# %bb.121:                              #   in Loop: Header=BB16_76 Depth=1
	ld.d	$a1, $fp, 1352
	slli.d	$a2, $a0, 2
	ldx.w	$a1, $a1, $a2
	addi.w	$a2, $s2, -1
	xor	$a1, $a1, $a2
	sltui	$a1, $a1, 1
	masknez	$a2, $s3, $a1
	maskeqz	$a0, $a0, $a1
	or	$s3, $a0, $a2
	.p2align	4, , 16
.LBB16_122:                             #   in Loop: Header=BB16_76 Depth=1
	blt	$s6, $s4, .LBB16_75
.LBB16_123:                             #   in Loop: Header=BB16_76 Depth=1
	move	$s8, $t0
	ld.d	$a1, $sp, 120                   # 8-byte Folded Reload
	bstrpick.d	$a0, $a1, 31, 31
	add.w	$a0, $a1, $a0
	pcalau12i	$a1, %got_pc_hi20(read_hash)
	ld.d	$a1, $a1, %got_pc_lo12(read_hash)
	srli.d	$a0, $a0, 1
	ld.d	$a2, $sp, 152                   # 8-byte Folded Reload
	mul.d	$a0, $a0, $a2
	slli.d	$a0, $a0, 1
	ld.d	$a2, $a1, 0
	ld.d	$a1, $s7, %pc_lo12(_ZZN4Mesh20calc_neighbors_localEvE4hash)
	ld.d	$a3, $sp, 144                   # 8-byte Folded Reload
	sub.d	$a0, $a0, $a3
	ld.d	$a3, $sp, 80                    # 8-byte Folded Reload
	mul.d	$a3, $a3, $s5
	add.w	$a0, $a0, $a3
	jirl	$ra, $a2, 0
	bltz	$a0, .LBB16_74
# %bb.124:                              #   in Loop: Header=BB16_76 Depth=1
	ld.w	$a1, $fp, 1160
	move	$t0, $s8
	bge	$a0, $a1, .LBB16_75
# %bb.125:                              #   in Loop: Header=BB16_76 Depth=1
	ld.d	$a1, $fp, 1352
	slli.d	$a2, $a0, 2
	ldx.w	$a1, $a1, $a2
	addi.w	$a2, $s2, -1
	xor	$a1, $a1, $a2
	sltui	$a1, $a1, 1
	masknez	$a2, $s4, $a1
	maskeqz	$a0, $a0, $a1
	or	$s4, $a0, $a2
	b	.LBB16_75
.LBB16_126:                             #   in Loop: Header=BB16_76 Depth=1
	move	$t0, $s8
	blt	$s6, $s4, .LBB16_75
	b	.LBB16_123
.LBB16_127:                             # %._crit_edge560
	ld.d	$a0, $sp, 248
	ld.d	$a1, $sp, 256
	pcaddu18i	$ra, %call36(cpu_timer_stop)
	jirl	$ra, $ra, 0
	fld.d	$fa1, $fp, 224
	fadd.d	$fa0, $fa0, $fa1
	fst.d	$fa0, $fp, 224
	addi.d	$a0, $sp, 248
	pcaddu18i	$ra, %call36(cpu_timer_start)
	jirl	$ra, $ra, 0
	pcaddu18i	$ra, %call36(write_hash_collision_report)
	jirl	$ra, $ra, 0
	pcaddu18i	$ra, %call36(read_hash_collision_report)
	jirl	$ra, $ra, 0
	ld.d	$a0, $s7, %pc_lo12(_ZZN4Mesh20calc_neighbors_localEvE4hash)
	pcaddu18i	$ra, %call36(compact_hash_delete)
	jirl	$ra, $ra, 0
.LBB16_128:
	ld.d	$a0, $sp, 232
	ld.d	$a1, $sp, 240
	pcaddu18i	$ra, %call36(cpu_timer_stop)
	jirl	$ra, $ra, 0
	fld.d	$fa1, $fp, 208
	fadd.d	$fa0, $fa0, $fa1
	fst.d	$fa0, $fp, 208
	ld.d	$s8, $sp, 280                   # 8-byte Folded Reload
	ld.d	$s7, $sp, 288                   # 8-byte Folded Reload
	ld.d	$s6, $sp, 296                   # 8-byte Folded Reload
	ld.d	$s5, $sp, 304                   # 8-byte Folded Reload
	ld.d	$s4, $sp, 312                   # 8-byte Folded Reload
	ld.d	$s3, $sp, 320                   # 8-byte Folded Reload
	ld.d	$s2, $sp, 328                   # 8-byte Folded Reload
	ld.d	$s1, $sp, 336                   # 8-byte Folded Reload
	ld.d	$s0, $sp, 344                   # 8-byte Folded Reload
	ld.d	$fp, $sp, 352                   # 8-byte Folded Reload
	ld.d	$ra, $sp, 360                   # 8-byte Folded Reload
	addi.d	$sp, $sp, 368
	ret
.LBB16_129:                             # %vector.scevcheck
	addi.d	$t0, $a0, -1
	bstrpick.d	$t1, $t0, 31, 0
	addi.w	$t2, $zero, -1
	lu32i.d	$t2, 0
	move	$a7, $zero
	beq	$t1, $t2, .LBB16_134
# %bb.130:                              # %vector.scevcheck
	srli.d	$t4, $t0, 32
	move	$t0, $a3
	move	$t1, $a1
	move	$t2, $a7
	move	$t3, $a7
	bnez	$t4, .LBB16_28
# %bb.131:                              # %vector.ph595
	bstrpick.d	$a7, $a0, 32, 3
	slli.d	$a7, $a7, 3
	vreplgr2vr.w	$vr5, $a2
	vreplgr2vr.w	$vr2, $a3
	vreplgr2vr.w	$vr1, $a1
	addi.d	$t0, $a6, 16
	addi.d	$t1, $a5, 16
	addi.d	$t2, $a4, 16
	vrepli.b	$vr0, 0
	vrepli.w	$vr7, 2
	vrepli.b	$vr9, -1
	move	$t3, $a7
	vori.b	$vr10, $vr2, 0
	vori.b	$vr8, $vr1, 0
	vori.b	$vr6, $vr0, 0
	vori.b	$vr3, $vr0, 0
	vori.b	$vr4, $vr0, 0
	.p2align	4, , 16
.LBB16_132:                             # %vector.body602
                                        # =>This Inner Loop Header: Depth=1
	vld	$vr11, $t2, -16
	vld	$vr12, $t2, 0
	vld	$vr13, $t1, -16
	vld	$vr14, $t1, 0
	vsub.w	$vr11, $vr5, $vr11
	vsub.w	$vr12, $vr5, $vr12
	vsll.w	$vr11, $vr7, $vr11
	vsll.w	$vr12, $vr7, $vr12
	vmul.w	$vr15, $vr13, $vr11
	vmul.w	$vr16, $vr14, $vr12
	vmin.w	$vr2, $vr15, $vr2
	vmin.w	$vr10, $vr16, $vr10
	vaddi.wu	$vr13, $vr13, 1
	vaddi.wu	$vr14, $vr14, 1
	vori.b	$vr15, $vr9, 0
	vmadd.w	$vr15, $vr13, $vr11
	vori.b	$vr13, $vr9, 0
	vmadd.w	$vr13, $vr14, $vr12
	vld	$vr14, $t0, -16
	vld	$vr16, $t0, 0
	vmax.w	$vr0, $vr15, $vr0
	vmax.w	$vr6, $vr13, $vr6
	vmul.w	$vr13, $vr14, $vr11
	vmul.w	$vr15, $vr16, $vr12
	vmin.w	$vr1, $vr13, $vr1
	vmin.w	$vr8, $vr15, $vr8
	vaddi.wu	$vr13, $vr14, 1
	vaddi.wu	$vr14, $vr16, 1
	vori.b	$vr15, $vr9, 0
	vmadd.w	$vr15, $vr13, $vr11
	vori.b	$vr11, $vr9, 0
	vmadd.w	$vr11, $vr14, $vr12
	vmax.w	$vr3, $vr15, $vr3
	vmax.w	$vr4, $vr11, $vr4
	addi.d	$t3, $t3, -8
	addi.d	$t0, $t0, 32
	addi.d	$t1, $t1, 32
	addi.d	$t2, $t2, 32
	bnez	$t3, .LBB16_132
# %bb.133:                              # %middle.block617
	vmin.w	$vr2, $vr2, $vr10
	vshuf4i.w	$vr5, $vr2, 14
	vmin.w	$vr2, $vr2, $vr5
	vreplvei.w	$vr5, $vr2, 1
	vmin.w	$vr2, $vr2, $vr5
	vpickve2gr.w	$t0, $vr2, 0
	vmin.w	$vr1, $vr1, $vr8
	vshuf4i.w	$vr2, $vr1, 14
	vmin.w	$vr1, $vr1, $vr2
	vreplvei.w	$vr2, $vr1, 1
	vmin.w	$vr1, $vr1, $vr2
	vpickve2gr.w	$t1, $vr1, 0
	vmax.w	$vr0, $vr0, $vr6
	vshuf4i.w	$vr1, $vr0, 14
	vmax.w	$vr0, $vr0, $vr1
	vreplvei.w	$vr1, $vr0, 1
	vmax.w	$vr0, $vr0, $vr1
	vpickve2gr.w	$t2, $vr0, 0
	vmax.w	$vr0, $vr3, $vr4
	vshuf4i.w	$vr1, $vr0, 14
	vmax.w	$vr0, $vr0, $vr1
	vreplvei.w	$vr1, $vr0, 1
	vmax.w	$vr0, $vr0, $vr1
	vpickve2gr.w	$t3, $vr0, 0
	bne	$a0, $a7, .LBB16_28
	b	.LBB16_30
.LBB16_134:
	move	$t0, $a3
	move	$t1, $a1
	move	$t2, $a7
	move	$t3, $a7
	b	.LBB16_28
.LBB16_135:                             # %.noexc
	pcalau12i	$a0, %pc_hi20(.L.str.142)
	addi.d	$a0, $a0, %pc_lo12(.L.str.142)
	pcaddu18i	$ra, %call36(_ZSt20__throw_length_errorPKc)
	jirl	$ra, $ra, 0
.LBB16_136:                             # %.loopexit.split-lp
.Ltmp144:
	b	.LBB16_138
.LBB16_137:                             # %.loopexit
.Ltmp126:
.LBB16_138:
	move	$fp, $a0
	bnez	$s0, .LBB16_140
	b	.LBB16_141
.LBB16_139:                             # %.thread
.Ltmp139:
	move	$fp, $a0
.LBB16_140:
	sub.d	$a1, $s2, $s0
	move	$a0, $s0
	pcaddu18i	$ra, %call36(_ZdlPvm)
	jirl	$ra, $ra, 0
.LBB16_141:                             # %_ZNSt6vectorIiSaIiEED2Ev.exit463
	move	$a0, $fp
	pcaddu18i	$ra, %call36(_Unwind_Resume)
	jirl	$ra, $ra, 0
.Lfunc_end16:
	.size	_ZN4Mesh20calc_neighbors_localEv, .Lfunc_end16-_ZN4Mesh20calc_neighbors_localEv
	.cfi_endproc
	.section	.gcc_except_table,"a",@progbits
	.p2align	2, 0x0
GCC_except_table16:
.Lexception7:
	.byte	255                             # @LPStart Encoding = omit
	.byte	255                             # @TType Encoding = omit
	.byte	1                               # Call site Encoding = uleb128
	.uleb128 .Lcst_end7-.Lcst_begin7
.Lcst_begin7:
	.uleb128 .Lfunc_begin7-.Lfunc_begin7    # >> Call Site 1 <<
	.uleb128 .Ltmp120-.Lfunc_begin7         #   Call between .Lfunc_begin7 and .Ltmp120
	.byte	0                               #     has no landing pad
	.byte	0                               #   On action: cleanup
	.uleb128 .Ltmp120-.Lfunc_begin7         # >> Call Site 2 <<
	.uleb128 .Ltmp123-.Ltmp120              #   Call between .Ltmp120 and .Ltmp123
	.uleb128 .Ltmp144-.Lfunc_begin7         #     jumps to .Ltmp144
	.byte	0                               #   On action: cleanup
	.uleb128 .Ltmp124-.Lfunc_begin7         # >> Call Site 3 <<
	.uleb128 .Ltmp125-.Ltmp124              #   Call between .Ltmp124 and .Ltmp125
	.uleb128 .Ltmp126-.Lfunc_begin7         #     jumps to .Ltmp126
	.byte	0                               #   On action: cleanup
	.uleb128 .Ltmp127-.Lfunc_begin7         # >> Call Site 4 <<
	.uleb128 .Ltmp130-.Ltmp127              #   Call between .Ltmp127 and .Ltmp130
	.uleb128 .Ltmp144-.Lfunc_begin7         #     jumps to .Ltmp144
	.byte	0                               #   On action: cleanup
	.uleb128 .Ltmp131-.Lfunc_begin7         # >> Call Site 5 <<
	.uleb128 .Ltmp138-.Ltmp131              #   Call between .Ltmp131 and .Ltmp138
	.uleb128 .Ltmp139-.Lfunc_begin7         #     jumps to .Ltmp139
	.byte	0                               #   On action: cleanup
	.uleb128 .Ltmp140-.Lfunc_begin7         # >> Call Site 6 <<
	.uleb128 .Ltmp143-.Ltmp140              #   Call between .Ltmp140 and .Ltmp143
	.uleb128 .Ltmp144-.Lfunc_begin7         #     jumps to .Ltmp144
	.byte	0                               #   On action: cleanup
	.uleb128 .Ltmp143-.Lfunc_begin7         # >> Call Site 7 <<
	.uleb128 .Lfunc_end16-.Ltmp143          #   Call between .Ltmp143 and .Lfunc_end16
	.byte	0                               #     has no landing pad
	.byte	0                               #   On action: cleanup
.Lcst_end7:
	.p2align	2, 0x0
                                        # -- End function
	.text
	.globl	_ZN4Mesh12kdtree_setupEv        # -- Begin function _ZN4Mesh12kdtree_setupEv
	.p2align	5
	.type	_ZN4Mesh12kdtree_setupEv,@function
_ZN4Mesh12kdtree_setupEv:               # @_ZN4Mesh12kdtree_setupEv
	.cfi_startproc
# %bb.0:
	addi.d	$sp, $sp, -64
	.cfi_def_cfa_offset 64
	st.d	$ra, $sp, 56                    # 8-byte Folded Spill
	st.d	$fp, $sp, 48                    # 8-byte Folded Spill
	st.d	$s0, $sp, 40                    # 8-byte Folded Spill
	st.d	$s1, $sp, 32                    # 8-byte Folded Spill
	.cfi_offset 1, -8
	.cfi_offset 22, -16
	.cfi_offset 23, -24
	.cfi_offset 24, -32
	move	$fp, $a0
	addi.d	$s0, $a0, 784
	move	$a0, $s0
	pcaddu18i	$ra, %call36(KDTree_Initialize)
	jirl	$ra, $ra, 0
	ld.d	$a0, $fp, 1160
	beqz	$a0, .LBB17_3
# %bb.1:                                # %.lr.ph
	move	$a0, $zero
	ori	$s1, $zero, 1
	.p2align	4, , 16
.LBB17_2:                               # =>This Inner Loop Header: Depth=1
	ld.d	$a1, $fp, 1416
	slli.d	$a0, $a0, 3
	fldx.d	$fa0, $a1, $a0
	ld.d	$a1, $fp, 1440
	fst.d	$fa0, $sp, 0
	fldx.d	$fa1, $a1, $a0
	ld.d	$a1, $fp, 1464
	fadd.d	$fa0, $fa0, $fa1
	fst.d	$fa0, $sp, 16
	fldx.d	$fa0, $a1, $a0
	ld.d	$a1, $fp, 1488
	fst.d	$fa0, $sp, 8
	fldx.d	$fa1, $a1, $a0
	fadd.d	$fa0, $fa0, $fa1
	fst.d	$fa0, $sp, 24
	addi.d	$a1, $sp, 0
	move	$a0, $s0
	pcaddu18i	$ra, %call36(KDTree_AddElement)
	jirl	$ra, $ra, 0
	ld.d	$a1, $fp, 1160
	bstrpick.d	$a0, $s1, 31, 0
	addi.w	$s1, $s1, 1
	bltu	$a0, $a1, .LBB17_2
.LBB17_3:                               # %._crit_edge
	ld.d	$s1, $sp, 32                    # 8-byte Folded Reload
	ld.d	$s0, $sp, 40                    # 8-byte Folded Reload
	ld.d	$fp, $sp, 48                    # 8-byte Folded Reload
	ld.d	$ra, $sp, 56                    # 8-byte Folded Reload
	addi.d	$sp, $sp, 64
	ret
.Lfunc_end17:
	.size	_ZN4Mesh12kdtree_setupEv, .Lfunc_end17-_ZN4Mesh12kdtree_setupEv
	.cfi_endproc
                                        # -- End function
	.globl	_ZN4Mesh13refine_smoothERSt6vectorIiSaIiEERiS4_ # -- Begin function _ZN4Mesh13refine_smoothERSt6vectorIiSaIiEERiS4_
	.p2align	5
	.type	_ZN4Mesh13refine_smoothERSt6vectorIiSaIiEERiS4_,@function
_ZN4Mesh13refine_smoothERSt6vectorIiSaIiEERiS4_: # @_ZN4Mesh13refine_smoothERSt6vectorIiSaIiEERiS4_
.Lfunc_begin8:
	.cfi_startproc
	.cfi_personality 155, DW.ref.__gxx_personality_v0
	.cfi_lsda 27, .Lexception8
# %bb.0:
	addi.d	$sp, $sp, -144
	.cfi_def_cfa_offset 144
	st.d	$ra, $sp, 136                   # 8-byte Folded Spill
	st.d	$fp, $sp, 128                   # 8-byte Folded Spill
	st.d	$s0, $sp, 120                   # 8-byte Folded Spill
	st.d	$s1, $sp, 112                   # 8-byte Folded Spill
	st.d	$s2, $sp, 104                   # 8-byte Folded Spill
	st.d	$s3, $sp, 96                    # 8-byte Folded Spill
	st.d	$s4, $sp, 88                    # 8-byte Folded Spill
	st.d	$s5, $sp, 80                    # 8-byte Folded Spill
	st.d	$s6, $sp, 72                    # 8-byte Folded Spill
	st.d	$s7, $sp, 64                    # 8-byte Folded Spill
	st.d	$s8, $sp, 56                    # 8-byte Folded Spill
	.cfi_offset 1, -8
	.cfi_offset 22, -16
	.cfi_offset 23, -24
	.cfi_offset 24, -32
	.cfi_offset 25, -40
	.cfi_offset 26, -48
	.cfi_offset 27, -56
	.cfi_offset 28, -64
	.cfi_offset 29, -72
	.cfi_offset 30, -80
	.cfi_offset 31, -88
	move	$s1, $a3
	move	$s0, $a2
	move	$s2, $a1
	move	$fp, $a0
	ld.d	$a0, $a1, 8
	ld.d	$s5, $a1, 0
	st.d	$zero, $sp, 48
	vrepli.b	$vr0, 0
	vst	$vr0, $sp, 32
	sub.d	$s3, $a0, $s5
	beq	$a0, $s5, .LBB18_15
# %bb.1:
	addi.w	$a0, $zero, -4
	lu52i.d	$a0, $a0, 2047
	bltu	$a0, $s3, .LBB18_155
# %bb.2:                                # %_ZNSt15__new_allocatorIiE8allocateEmPKv.exit.i.i.i.i
.Ltmp145:
	move	$a0, $s3
	pcaddu18i	$ra, %call36(_Znwm)
	jirl	$ra, $ra, 0
.Ltmp146:
# %bb.3:                                # %.noexc418
	move	$s4, $a0
	ori	$a0, $zero, 5
	bltu	$s3, $a0, .LBB18_157
# %bb.4:
	move	$a0, $s4
	move	$a1, $s5
	move	$a2, $s3
	pcaddu18i	$ra, %call36(memmove)
	jirl	$ra, $ra, 0
.LBB18_5:                               # %_ZNSt6vectorIiSaIiEEC2ERKS1_.exit
	ld.d	$a0, $fp, 1160
	add.d	$s3, $s4, $s3
	addi.d	$s5, $fp, 1160
	bnez	$a0, .LBB18_17
# %bb.6:
	move	$a2, $zero
	move	$a1, $zero
.LBB18_7:                               # %.thread471
	st.w	$a2, $s0, 0
	st.w	$a1, $s1, 0
	sub.d	$a1, $s3, $s4
	move	$a0, $s4
	pcaddu18i	$ra, %call36(_ZdlPvm)
	jirl	$ra, $ra, 0
.LBB18_8:                               # %_ZNSt6vectorIiSaIiEED2Ev.exit
	ld.w	$s3, $s0, 0
.Ltmp147:
	addi.d	$a0, $sp, 16
	pcaddu18i	$ra, %call36(cpu_timer_start)
	jirl	$ra, $ra, 0
.Ltmp148:
# %bb.9:
	blez	$s3, .LBB18_30
# %bb.10:
	ld.w	$a1, $fp, 1120
	ld.d	$a0, $sp, 32
	ori	$a2, $zero, 2
	blt	$a1, $a2, .LBB18_31
# %bb.11:
	ld.w	$a1, $fp, 628
	sltui	$a1, $a1, 1
	ori	$a2, $zero, 1176
	masknez	$a2, $a2, $a1
	ori	$a3, $zero, 1160
	maskeqz	$a3, $a3, $a1
	ld.w	$a4, $fp, 588
	ld.d	$a1, $sp, 40
	or	$a2, $a3, $a2
	ldx.d	$a2, $fp, $a2
	addi.d	$a4, $a4, 1
	sub.d	$a3, $a1, $a0
	srai.d	$a3, $a3, 2
	st.w	$a4, $fp, 588
	bgeu	$a3, $a2, .LBB18_114
# %bb.12:
	sub.d	$a1, $a2, $a3
.Ltmp149:
	addi.d	$a0, $sp, 32
	pcaddu18i	$ra, %call36(_ZNSt6vectorIiSaIiEE17_M_default_appendEm)
	jirl	$ra, $ra, 0
.Ltmp150:
# %bb.13:                               # %_ZNSt6vectorIiSaIiEE6resizeEm.exit
	ld.w	$a1, $fp, 1120
	ld.d	$a0, $sp, 32
	ori	$a2, $zero, 2
	blt	$a1, $a2, .LBB18_31
# %bb.14:
	ld.d	$a1, $sp, 40
	b	.LBB18_115
.LBB18_15:                              # %_ZNSt6vectorIiSaIiEEC2ERKS1_.exit.thread
	ld.d	$a0, $fp, 1160
	addi.d	$s5, $fp, 1160
	beqz	$a0, .LBB18_151
# %bb.16:
	move	$s4, $zero
.LBB18_17:                              # %.lr.ph.i
	move	$a3, $zero
	move	$a1, $zero
	move	$a2, $zero
	ld.d	$a4, $fp, 1360
	ld.d	$a5, $fp, 1328
	ld.d	$a6, $fp, 1336
	ori	$a7, $zero, 1
	addi.w	$t0, $zero, -1
	ori	$t1, $zero, 1
	bstrins.d	$t1, $t1, 32, 31
	ori	$t2, $zero, 1
	b	.LBB18_20
.LBB18_18:                              #   in Loop: Header=BB18_20 Depth=1
	addi.d	$a2, $a2, 1
	.p2align	4, , 16
.LBB18_19:                              # %.thread.i
                                        #   in Loop: Header=BB18_20 Depth=1
	bstrpick.d	$t3, $t2, 31, 0
	addi.d	$a3, $a3, 4
	addi.w	$t2, $t2, 1
	bgeu	$t3, $a0, .LBB18_7
.LBB18_20:                              # =>This Inner Loop Header: Depth=1
	ldx.w	$t3, $s4, $a3
	bge	$t0, $t3, .LBB18_24
# %bb.21:                               #   in Loop: Header=BB18_20 Depth=1
	beqz	$t3, .LBB18_19
# %bb.22:                               #   in Loop: Header=BB18_20 Depth=1
	ldx.w	$t3, $a4, $a3
	bne	$t3, $a7, .LBB18_18
# %bb.23:                               #   in Loop: Header=BB18_20 Depth=1
	addi.d	$a2, $a2, 3
	b	.LBB18_19
	.p2align	4, , 16
.LBB18_24:                              #   in Loop: Header=BB18_20 Depth=1
	ldx.w	$t5, $a4, $a3
	ldx.w	$t3, $a5, $a3
	ldx.w	$t4, $a6, $a3
	bne	$t5, $a7, .LBB18_26
# %bb.25:                               #   in Loop: Header=BB18_20 Depth=1
	or	$t3, $t3, $t4
	b	.LBB18_29
.LBB18_26:                              #   in Loop: Header=BB18_20 Depth=1
	and	$t5, $t3, $t1
	addi.w	$t5, $t5, 0
	bne	$t5, $a7, .LBB18_28
# %bb.27:                               #   in Loop: Header=BB18_20 Depth=1
	move	$t5, $t4
	bstrins.d	$t5, $zero, 30, 1
	addi.w	$t5, $t5, 0
	beq	$t5, $a7, .LBB18_19
.LBB18_28:                              #   in Loop: Header=BB18_20 Depth=1
	or	$t3, $t4, $t3
.LBB18_29:                              # %.thread.i
                                        #   in Loop: Header=BB18_20 Depth=1
	andi	$t3, $t3, 1
	sub.d	$a1, $a1, $t3
	b	.LBB18_19
.LBB18_30:                              # %..critedge_crit_edge
	ld.d	$a0, $sp, 32
.LBB18_31:                              # %.critedge
	ld.d	$a1, $sp, 40
	beq	$a1, $a0, .LBB18_33
.LBB18_32:                              # %_ZSt8_DestroyIPiiEvT_S1_RSaIT0_E.exit.i.i423
	st.d	$a0, $sp, 40
	move	$a1, $a0
.LBB18_33:                              # %_ZNSt6vectorIiSaIiEE5clearEv.exit
	ld.d	$a2, $fp, 1176
	sub.d	$a3, $a1, $a0
	srai.d	$a3, $a3, 2
	bgeu	$a3, $a2, .LBB18_36
# %bb.34:
	sub.d	$a1, $a2, $a3
.Ltmp152:
	addi.d	$a0, $sp, 32
	pcaddu18i	$ra, %call36(_ZNSt6vectorIiSaIiEE17_M_default_appendEm)
	jirl	$ra, $ra, 0
.Ltmp153:
# %bb.35:                               # %._ZNSt6vectorIiSaIiEE6resizeEm.exit427_crit_edge
	ld.d	$a0, $sp, 32
	ld.d	$a5, $sp, 40
	b	.LBB18_37
.LBB18_36:
	sltu	$a3, $a2, $a3
	alsl.d	$a2, $a2, $a0, 2
	maskeqz	$a2, $a2, $a3
	masknez	$a1, $a1, $a3
	or	$a5, $a2, $a1
.LBB18_37:                              # %_ZNSt6vectorIiSaIiEE6resizeEm.exit427
	ld.d	$a4, $sp, 48
	ld.d	$s3, $s2, 0
	ld.d	$a1, $s2, 8
	ld.d	$a6, $s2, 16
	ld.d	$s5, $s5, 0
	st.d	$a0, $s2, 0
	st.d	$a5, $s2, 8
	st.d	$a4, $s2, 16
	sub.d	$s4, $a1, $s3
	beqz	$s5, .LBB18_88
# %bb.38:                               # %.lr.ph
	st.d	$s1, $sp, 8                     # 8-byte Folded Spill
	move	$a7, $zero
	ld.d	$t0, $fp, 1328
	ld.d	$t1, $fp, 1336
	ld.d	$t2, $fp, 1368
	ld.d	$t3, $fp, 1352
	ld.d	$t4, $fp, 1384
	ld.d	$t5, $fp, 1376
	ld.d	$t6, $fp, 1392
	ori	$t7, $zero, 1
	lu12i.w	$a2, -245
	ori	$a2, $a2, 3521
	lu12i.w	$a3, -524288
	ori	$a3, $a3, 1
	ori	$t8, $zero, 1
	b	.LBB18_41
	.p2align	4, , 16
.LBB18_39:                              # %.sink.split610
                                        #   in Loop: Header=BB18_41 Depth=1
	stx.w	$zero, $a0, $a7
.LBB18_40:                              #   in Loop: Header=BB18_41 Depth=1
	bstrpick.d	$s1, $t8, 31, 0
	addi.d	$a7, $a7, 4
	addi.w	$t8, $t8, 1
	bgeu	$s1, $s5, .LBB18_58
.LBB18_41:                              # =>This Inner Loop Header: Depth=1
	ldx.w	$s6, $s3, $a7
	stx.w	$s6, $a0, $a7
	bltu	$s6, $a2, .LBB18_40
# %bb.42:                               #   in Loop: Header=BB18_41 Depth=1
	ldx.w	$s6, $t0, $a7
	ldx.w	$s7, $t1, $a7
	and	$s8, $s6, $a3
	and	$ra, $s7, $a3
	bne	$s8, $t7, .LBB18_46
# %bb.43:                               #   in Loop: Header=BB18_41 Depth=1
	bne	$ra, $t7, .LBB18_46
# %bb.44:                               #   in Loop: Header=BB18_41 Depth=1
	ldx.w	$s6, $t5, $a7
	slli.d	$s6, $s6, 2
	ldx.w	$s7, $s3, $s6
	ldx.w	$s8, $t3, $s6
	ldx.w	$s6, $t3, $a7
	slt	$s7, $zero, $s7
	add.w	$s7, $s8, $s7
	blt	$s6, $s7, .LBB18_39
# %bb.45:                               #   in Loop: Header=BB18_41 Depth=1
	ldx.w	$s7, $t6, $a7
	slli.d	$s7, $s7, 2
	ldx.w	$s8, $s3, $s7
	ldx.w	$s7, $t3, $s7
	slt	$s8, $zero, $s8
	add.w	$s7, $s7, $s8
	bge	$s6, $s7, .LBB18_40
	b	.LBB18_39
	.p2align	4, , 16
.LBB18_46:                              #   in Loop: Header=BB18_41 Depth=1
	andi	$s1, $s6, 1
	bnez	$s1, .LBB18_50
# %bb.47:                               #   in Loop: Header=BB18_41 Depth=1
	bne	$ra, $t7, .LBB18_50
# %bb.48:                               #   in Loop: Header=BB18_41 Depth=1
	ldx.w	$s1, $t2, $a7
	slli.d	$s1, $s1, 2
	ldx.w	$s7, $s3, $s1
	ldx.w	$s1, $t3, $s1
	ldx.w	$s6, $t3, $a7
	slt	$s7, $zero, $s7
	add.w	$s1, $s1, $s7
	blt	$s6, $s1, .LBB18_39
# %bb.49:                               #   in Loop: Header=BB18_41 Depth=1
	ldx.w	$s1, $t6, $a7
	b	.LBB18_57
.LBB18_50:                              #   in Loop: Header=BB18_41 Depth=1
	bne	$s8, $t7, .LBB18_53
# %bb.51:                               #   in Loop: Header=BB18_41 Depth=1
	andi	$s1, $s7, 1
	bnez	$s1, .LBB18_53
# %bb.52:                               #   in Loop: Header=BB18_41 Depth=1
	ldx.w	$s1, $t5, $a7
	b	.LBB18_55
.LBB18_53:                              #   in Loop: Header=BB18_41 Depth=1
	or	$s1, $s7, $s6
	andi	$s1, $s1, 1
	bnez	$s1, .LBB18_40
# %bb.54:                               #   in Loop: Header=BB18_41 Depth=1
	ldx.w	$s1, $t2, $a7
.LBB18_55:                              #   in Loop: Header=BB18_41 Depth=1
	slli.d	$s1, $s1, 2
	ldx.w	$s7, $s3, $s1
	ldx.w	$s1, $t3, $s1
	ldx.w	$s6, $t3, $a7
	slt	$s7, $zero, $s7
	add.w	$s1, $s1, $s7
	blt	$s6, $s1, .LBB18_39
# %bb.56:                               #   in Loop: Header=BB18_41 Depth=1
	ldx.w	$s1, $t4, $a7
.LBB18_57:                              #   in Loop: Header=BB18_41 Depth=1
	slli.d	$s1, $s1, 2
	ldx.w	$s7, $s3, $s1
	ldx.w	$s1, $t3, $s1
	slt	$s7, $zero, $s7
	add.w	$s1, $s1, $s7
	bge	$s6, $s1, .LBB18_40
	b	.LBB18_39
.LBB18_58:                              # %.lr.ph577
	move	$a7, $zero
	st.d	$a0, $sp, 32
	st.d	$a5, $sp, 40
	st.d	$s3, $s2, 0
	st.d	$a1, $s2, 8
	st.d	$a6, $s2, 16
	ld.d	$a5, $fp, 1328
	ld.d	$a6, $fp, 1336
	ld.d	$t0, $fp, 1392
	ld.d	$t1, $fp, 1376
	ld.d	$t2, $fp, 1368
	ld.d	$t3, $fp, 1384
	ld.d	$t4, $fp, 1352
	st.d	$a4, $sp, 48
	ori	$a4, $zero, 1
	ori	$t5, $zero, 1
	b	.LBB18_61
	.p2align	4, , 16
.LBB18_59:                              # %.sink.split616
                                        #   in Loop: Header=BB18_61 Depth=1
	stx.w	$zero, $s3, $a7
.LBB18_60:                              #   in Loop: Header=BB18_61 Depth=1
	bstrpick.d	$t6, $t5, 31, 0
	addi.d	$a7, $a7, 4
	addi.w	$t5, $t5, 1
	bgeu	$t6, $s5, .LBB18_77
.LBB18_61:                              # =>This Inner Loop Header: Depth=1
	ldx.w	$t6, $a0, $a7
	stx.w	$t6, $s3, $a7
	bltu	$t6, $a2, .LBB18_60
# %bb.62:                               #   in Loop: Header=BB18_61 Depth=1
	ldx.w	$t6, $a5, $a7
	ldx.w	$t7, $a6, $a7
	and	$s2, $t6, $a3
	and	$s7, $t7, $a3
	bne	$s2, $a4, .LBB18_64
# %bb.63:                               #   in Loop: Header=BB18_61 Depth=1
	move	$s6, $t3
	move	$t8, $t2
	beq	$s7, $a4, .LBB18_69
.LBB18_64:                              #   in Loop: Header=BB18_61 Depth=1
	andi	$t8, $t6, 1
	bnez	$t8, .LBB18_66
# %bb.65:                               #   in Loop: Header=BB18_61 Depth=1
	move	$s6, $t3
	move	$t8, $t1
	beq	$s7, $a4, .LBB18_69
.LBB18_66:                              #   in Loop: Header=BB18_61 Depth=1
	bne	$s2, $a4, .LBB18_68
# %bb.67:                               #   in Loop: Header=BB18_61 Depth=1
	andi	$s1, $t7, 1
	move	$s6, $t0
	move	$t8, $t2
	beqz	$s1, .LBB18_69
.LBB18_68:                              #   in Loop: Header=BB18_61 Depth=1
	or	$t6, $t7, $t6
	andi	$t6, $t6, 1
	move	$s6, $t0
	move	$t8, $t1
	bnez	$t6, .LBB18_76
	.p2align	4, , 16
.LBB18_69:                              #   in Loop: Header=BB18_61 Depth=1
	ldx.w	$s2, $s6, $a7
	slli.d	$t6, $s2, 2
	ldx.w	$t6, $t8, $t6
	bltz	$t6, .LBB18_59
# %bb.70:                               #   in Loop: Header=BB18_61 Depth=1
	ldx.w	$t7, $t8, $a7
	bstrpick.d	$t6, $t6, 31, 0
	slli.d	$s2, $s2, 2
	ldx.w	$s1, $a0, $s2
	addi.w	$t8, $zero, -1
	bne	$s1, $t8, .LBB18_59
.LBB18_71:                              #   in Loop: Header=BB18_61 Depth=1
	ldx.w	$s1, $t4, $s2
	ldx.w	$s2, $t4, $a7
	bne	$s1, $s2, .LBB18_59
# %bb.72:                               #   in Loop: Header=BB18_61 Depth=1
	slli.d	$t7, $t7, 2
	ldx.w	$s1, $a0, $t7
	bne	$s1, $t8, .LBB18_59
# %bb.73:                               #   in Loop: Header=BB18_61 Depth=1
	ldx.w	$t7, $t4, $t7
	bne	$t7, $s2, .LBB18_59
# %bb.74:                               #   in Loop: Header=BB18_61 Depth=1
	slli.d	$t6, $t6, 2
	ldx.w	$t7, $a0, $t6
	bne	$t7, $t8, .LBB18_59
# %bb.75:                               #   in Loop: Header=BB18_61 Depth=1
	ldx.w	$t6, $t4, $t6
	beq	$t6, $s2, .LBB18_60
	b	.LBB18_59
.LBB18_76:                              #   in Loop: Header=BB18_61 Depth=1
	move	$t6, $zero
	move	$t7, $zero
	move	$s2, $zero
	slli.d	$s2, $s2, 2
	ldx.w	$s1, $a0, $s2
	addi.w	$t8, $zero, -1
	bne	$s1, $t8, .LBB18_59
	b	.LBB18_71
.LBB18_77:                              # %.lr.ph579
	move	$a0, $zero
	ld.d	$a2, $fp, 1360
	ld.d	$a3, $fp, 1384
	ld.d	$a4, $fp, 1392
	ld.d	$a5, $fp, 1368
	ld.d	$a6, $fp, 1376
	ori	$a7, $zero, 1
	addi.w	$t0, $zero, -1
	ori	$t1, $zero, 3
	pcalau12i	$t2, %pc_hi20(.LJTI18_0)
	addi.d	$t2, $t2, %pc_lo12(.LJTI18_0)
	ld.d	$s1, $sp, 8                     # 8-byte Folded Reload
	b	.LBB18_81
.LBB18_78:                              #   in Loop: Header=BB18_81 Depth=1
	move	$t3, $a4
.LBB18_79:                              # %.sink.split617
                                        #   in Loop: Header=BB18_81 Depth=1
	ldx.w	$t3, $t3, $a0
	slli.d	$t3, $t3, 2
	ldx.w	$t3, $s3, $t3
	stx.w	$t3, $s3, $a0
.LBB18_80:                              #   in Loop: Header=BB18_81 Depth=1
	bstrpick.d	$t3, $a7, 31, 0
	addi.d	$a0, $a0, 4
	addi.w	$a7, $a7, 1
	bgeu	$t3, $s5, .LBB18_86
.LBB18_81:                              # =>This Inner Loop Header: Depth=1
	ldx.w	$t3, $a2, $a0
	blt	$t0, $t3, .LBB18_80
# %bb.82:                               #   in Loop: Header=BB18_81 Depth=1
	addi.d	$t3, $t3, 4
	bltu	$t1, $t3, .LBB18_80
# %bb.83:                               #   in Loop: Header=BB18_81 Depth=1
	slli.d	$t3, $t3, 2
	ldx.w	$t3, $t2, $t3
	add.d	$t4, $t2, $t3
	move	$t3, $a6
	jr	$t4
.LBB18_84:                              #   in Loop: Header=BB18_81 Depth=1
	move	$t3, $a3
	b	.LBB18_79
.LBB18_85:                              #   in Loop: Header=BB18_81 Depth=1
	move	$t3, $a5
	b	.LBB18_79
.LBB18_86:                              # %._crit_edge580
	bne	$a1, $s3, .LBB18_89
# %bb.87:
	move	$s2, $zero
	move	$a0, $zero
	b	.LBB18_94
.LBB18_88:                              # %._crit_edge580.thread
	st.d	$a0, $sp, 32
	st.d	$a5, $sp, 40
	st.d	$a4, $sp, 48
	st.d	$s3, $s2, 0
	st.d	$a1, $s2, 8
	st.d	$a6, $s2, 16
	beq	$a1, $s3, .LBB18_152
.LBB18_89:
	addi.w	$a0, $zero, -3
	lu52i.d	$a0, $a0, 2047
	bgeu	$s4, $a0, .LBB18_155
# %bb.90:                               # %_ZNSt15__new_allocatorIiE8allocateEmPKv.exit.i.i.i.i432
.Ltmp154:
	move	$a0, $s4
	pcaddu18i	$ra, %call36(_Znwm)
	jirl	$ra, $ra, 0
.Ltmp155:
# %bb.91:                               # %.noexc435
	move	$s2, $a0
	ori	$a0, $zero, 5
	bltu	$s4, $a0, .LBB18_159
# %bb.92:
	move	$a0, $s2
	move	$a1, $s3
	move	$a2, $s4
	pcaddu18i	$ra, %call36(memmove)
	jirl	$ra, $ra, 0
.LBB18_93:                              # %_ZNSt6vectorIiSaIiEEC2ERKS1_.exit436
	add.d	$a0, $s2, $s4
	beqz	$s5, .LBB18_108
.LBB18_94:                              # %.lr.ph.i438
	move	$a2, $zero
	move	$a1, $zero
	move	$a3, $zero
	ld.d	$a4, $fp, 1360
	ld.d	$a5, $fp, 1328
	ld.d	$a6, $fp, 1336
	ori	$a7, $zero, 1
	addi.w	$t0, $zero, -1
	ori	$t1, $zero, 1
	bstrins.d	$t1, $t1, 32, 31
	ori	$t2, $zero, 1
	b	.LBB18_97
.LBB18_95:                              #   in Loop: Header=BB18_97 Depth=1
	addi.d	$a3, $a3, 1
	.p2align	4, , 16
.LBB18_96:                              # %.thread.i443
                                        #   in Loop: Header=BB18_97 Depth=1
	bstrpick.d	$t3, $t2, 31, 0
	addi.d	$a2, $a2, 4
	addi.w	$t2, $t2, 1
	bgeu	$t3, $s5, .LBB18_107
.LBB18_97:                              # =>This Inner Loop Header: Depth=1
	ldx.w	$t3, $s2, $a2
	bge	$t0, $t3, .LBB18_101
# %bb.98:                               #   in Loop: Header=BB18_97 Depth=1
	beqz	$t3, .LBB18_96
# %bb.99:                               #   in Loop: Header=BB18_97 Depth=1
	ldx.w	$t3, $a4, $a2
	bne	$t3, $a7, .LBB18_95
# %bb.100:                              #   in Loop: Header=BB18_97 Depth=1
	addi.d	$a3, $a3, 3
	b	.LBB18_96
	.p2align	4, , 16
.LBB18_101:                             #   in Loop: Header=BB18_97 Depth=1
	ldx.w	$t5, $a4, $a2
	ldx.w	$t3, $a5, $a2
	ldx.w	$t4, $a6, $a2
	bne	$t5, $a7, .LBB18_103
# %bb.102:                              #   in Loop: Header=BB18_97 Depth=1
	or	$t3, $t3, $t4
	b	.LBB18_106
.LBB18_103:                             #   in Loop: Header=BB18_97 Depth=1
	and	$t5, $t3, $t1
	addi.w	$t5, $t5, 0
	bne	$t5, $a7, .LBB18_105
# %bb.104:                              #   in Loop: Header=BB18_97 Depth=1
	move	$t5, $t4
	bstrins.d	$t5, $zero, 30, 1
	addi.w	$t5, $t5, 0
	beq	$t5, $a7, .LBB18_96
.LBB18_105:                             #   in Loop: Header=BB18_97 Depth=1
	or	$t3, $t4, $t3
.LBB18_106:                             # %.thread.i443
                                        #   in Loop: Header=BB18_97 Depth=1
	andi	$t3, $t3, 1
	sub.d	$a1, $a1, $t3
	b	.LBB18_96
.LBB18_107:                             # %.thread522
	st.w	$a3, $s0, 0
	st.w	$a1, $s1, 0
	ld.w	$a2, $s0, 0
	add.d	$s3, $a2, $a1
	b	.LBB18_109
.LBB18_108:
	st.w	$zero, $s0, 0
	st.w	$zero, $s1, 0
	ld.w	$s3, $s0, 0
.LBB18_109:
	sub.d	$a1, $a0, $s2
	move	$a0, $s2
	pcaddu18i	$ra, %call36(_ZdlPvm)
	jirl	$ra, $ra, 0
	ld.w	$a1, $s1, 0
	ld.w	$a0, $s0, 0
	sltu	$a2, $zero, $a1
.LBB18_110:                             # %_ZNSt6vectorIiSaIiEED2Ev.exit455
	sltu	$a3, $zero, $a0
	ld.d	$a0, $sp, 16
	ld.d	$a1, $sp, 24
	or	$a2, $a3, $a2
	andi	$a2, $a2, 1
	st.b	$a2, $fp, 616
.Ltmp158:
	pcaddu18i	$ra, %call36(cpu_timer_stop)
	jirl	$ra, $ra, 0
.Ltmp159:
# %bb.111:
	fld.d	$fa1, $fp, 352
	ld.d	$a0, $sp, 32
	fadd.d	$fa0, $fa0, $fa1
	fst.d	$fa0, $fp, 352
	beqz	$a0, .LBB18_113
# %bb.112:
	ld.d	$a1, $sp, 48
	sub.d	$a1, $a1, $a0
	pcaddu18i	$ra, %call36(_ZdlPvm)
	jirl	$ra, $ra, 0
.LBB18_113:                             # %_ZNSt6vectorIiSaIiEED2Ev.exit457
	add.w	$a0, $s3, $s5
	ld.d	$s8, $sp, 56                    # 8-byte Folded Reload
	ld.d	$s7, $sp, 64                    # 8-byte Folded Reload
	ld.d	$s6, $sp, 72                    # 8-byte Folded Reload
	ld.d	$s5, $sp, 80                    # 8-byte Folded Reload
	ld.d	$s4, $sp, 88                    # 8-byte Folded Reload
	ld.d	$s3, $sp, 96                    # 8-byte Folded Reload
	ld.d	$s2, $sp, 104                   # 8-byte Folded Reload
	ld.d	$s1, $sp, 112                   # 8-byte Folded Reload
	ld.d	$s0, $sp, 120                   # 8-byte Folded Reload
	ld.d	$fp, $sp, 128                   # 8-byte Folded Reload
	ld.d	$ra, $sp, 136                   # 8-byte Folded Reload
	addi.d	$sp, $sp, 144
	ret
.LBB18_114:
	sltu	$a3, $a2, $a3
	alsl.d	$a2, $a2, $a0, 2
	maskeqz	$a2, $a2, $a3
	masknez	$a1, $a1, $a3
	or	$a1, $a2, $a1
.LBB18_115:                             # %.lr.ph559
	ld.d	$a2, $fp, 1160
	ld.d	$a3, $sp, 48
	ld.d	$s7, $s2, 0
	ld.d	$s6, $s2, 8
	ld.d	$s4, $s2, 16
	beqz	$a2, .LBB18_153
# %bb.116:                              # %.lr.ph.us.preheader
	ld.d	$a4, $fp, 1352
	ori	$a5, $zero, 1
	ori	$a7, $zero, 1
	.p2align	4, , 16
.LBB18_117:                             # %.lr.ph.us
                                        # =>This Loop Header: Depth=1
                                        #     Child Loop BB18_120 Depth 2
	st.d	$a0, $s2, 0
	st.d	$a1, $s2, 8
	st.d	$a3, $s2, 16
	ld.d	$t3, $fp, 1368
	ld.w	$t4, $fp, 1176
	ld.d	$t5, $fp, 1392
	ld.d	$t6, $fp, 1376
	ld.d	$t7, $fp, 1384
	move	$s3, $zero
	move	$t8, $zero
	move	$t0, $s7
	move	$t1, $s6
	move	$t2, $s4
	ori	$s4, $zero, 1
	b	.LBB18_120
	.p2align	4, , 16
.LBB18_118:                             # %.sink.split
                                        #   in Loop: Header=BB18_120 Depth=2
	stx.w	$a5, $a0, $s3
	addi.w	$t8, $t8, 1
.LBB18_119:                             #   in Loop: Header=BB18_120 Depth=2
	bstrpick.d	$a6, $s4, 31, 0
	addi.d	$s3, $s3, 4
	addi.w	$s4, $s4, 1
	bgeu	$a6, $a2, .LBB18_149
.LBB18_120:                             #   Parent Loop BB18_117 Depth=1
                                        # =>  This Inner Loop Header: Depth=2
	ldx.w	$s7, $t0, $s3
	ldx.w	$s6, $a4, $s3
	stx.w	$s7, $a0, $s3
	bgtz	$s7, .LBB18_119
# %bb.121:                              #   in Loop: Header=BB18_120 Depth=2
	ldx.w	$s7, $t3, $s3
	bltz	$s7, .LBB18_128
# %bb.122:                              #   in Loop: Header=BB18_120 Depth=2
	bge	$s7, $t4, .LBB18_128
# %bb.123:                              #   in Loop: Header=BB18_120 Depth=2
	slli.d	$s7, $s7, 2
	ldx.w	$ra, $t0, $s7
	ldx.w	$s8, $a4, $s7
	slt	$ra, $zero, $ra
	sub.d	$a6, $s8, $s6
	add.w	$a6, $a6, $ra
	blt	$a5, $a6, .LBB18_118
# %bb.124:                              #   in Loop: Header=BB18_120 Depth=2
	bge	$s6, $s8, .LBB18_128
# %bb.125:                              #   in Loop: Header=BB18_120 Depth=2
	ldx.w	$s7, $t5, $s7
	bltz	$s7, .LBB18_128
# %bb.126:                              #   in Loop: Header=BB18_120 Depth=2
	bge	$s7, $t4, .LBB18_128
# %bb.127:                              #   in Loop: Header=BB18_120 Depth=2
	slli.d	$a6, $s7, 2
	ldx.w	$s7, $t0, $a6
	ldx.w	$a6, $a4, $a6
	slt	$s7, $zero, $s7
	sub.d	$a6, $a6, $s6
	add.w	$a6, $a6, $s7
	blt	$a5, $a6, .LBB18_118
	.p2align	4, , 16
.LBB18_128:                             # %.thread480.us
                                        #   in Loop: Header=BB18_120 Depth=2
	ldx.w	$s7, $t6, $s3
	bltz	$s7, .LBB18_135
# %bb.129:                              # %.thread480.us
                                        #   in Loop: Header=BB18_120 Depth=2
	bge	$s7, $t4, .LBB18_135
# %bb.130:                              #   in Loop: Header=BB18_120 Depth=2
	slli.d	$s7, $s7, 2
	ldx.w	$a6, $t0, $s7
	ldx.w	$s8, $a4, $s7
	slt	$a6, $zero, $a6
	sub.d	$ra, $s8, $s6
	add.w	$a6, $ra, $a6
	blt	$a5, $a6, .LBB18_118
# %bb.131:                              #   in Loop: Header=BB18_120 Depth=2
