	.file	"output_test_helper.cc"
                                        # Start of file scope inline assembly
	.globl	_ZSt21ios_base_library_initv

                                        # End of file scope inline assembly
	.text
	.hidden	_ZN8internal17GetResultsCheckerEv # -- Begin function _ZN8internal17GetResultsCheckerEv
	.globl	_ZN8internal17GetResultsCheckerEv
	.p2align	5
	.type	_ZN8internal17GetResultsCheckerEv,@function
_ZN8internal17GetResultsCheckerEv:      # @_ZN8internal17GetResultsCheckerEv
# %bb.0:
	pcalau12i	$a0, %pc_hi20(_ZGVZN8internal17GetResultsCheckerEvE2rc)
	ld.b	$a0, $a0, %pc_lo12(_ZGVZN8internal17GetResultsCheckerEvE2rc)
	dbar	20
	beqz	$a0, .LBB0_2
# %bb.1:
	pcalau12i	$a0, %pc_hi20(_ZZN8internal17GetResultsCheckerEvE2rc)
	addi.d	$a0, $a0, %pc_lo12(_ZZN8internal17GetResultsCheckerEvE2rc)
	ret
.LBB0_2:
	addi.d	$sp, $sp, -16
	st.d	$ra, $sp, 8                     # 8-byte Folded Spill
	st.d	$fp, $sp, 0                     # 8-byte Folded Spill
	pcalau12i	$a0, %pc_hi20(_ZGVZN8internal17GetResultsCheckerEvE2rc)
	addi.d	$a0, $a0, %pc_lo12(_ZGVZN8internal17GetResultsCheckerEvE2rc)
	pcaddu18i	$ra, %call36(__cxa_guard_acquire)
	jirl	$ra, $ra, 0
	addi.w	$a0, $a0, 0
	beqz	$a0, .LBB0_4
# %bb.3:
	pcalau12i	$a0, %pc_hi20(_ZZN8internal17GetResultsCheckerEvE2rc)
	addi.d	$fp, $a0, %pc_lo12(_ZZN8internal17GetResultsCheckerEvE2rc)
	ori	$a2, $zero, 72
	move	$a0, $fp
	move	$a1, $zero
	pcaddu18i	$ra, %call36(memset)
	jirl	$ra, $ra, 0
	pcalau12i	$a0, %pc_hi20(_ZN8internal14ResultsCheckerD2Ev)
	addi.d	$a0, $a0, %pc_lo12(_ZN8internal14ResultsCheckerD2Ev)
	pcalau12i	$a1, %pc_hi20(__dso_handle)
	addi.d	$a2, $a1, %pc_lo12(__dso_handle)
	move	$a1, $fp
	pcaddu18i	$ra, %call36(__cxa_atexit)
	jirl	$ra, $ra, 0
	pcalau12i	$a0, %pc_hi20(_ZGVZN8internal17GetResultsCheckerEvE2rc)
	addi.d	$a0, $a0, %pc_lo12(_ZGVZN8internal17GetResultsCheckerEvE2rc)
	pcaddu18i	$ra, %call36(__cxa_guard_release)
	jirl	$ra, $ra, 0
.LBB0_4:
	ld.d	$fp, $sp, 0                     # 8-byte Folded Reload
	ld.d	$ra, $sp, 8                     # 8-byte Folded Reload
	addi.d	$sp, $sp, 16
	pcalau12i	$a0, %pc_hi20(_ZZN8internal17GetResultsCheckerEvE2rc)
	addi.d	$a0, $a0, %pc_lo12(_ZZN8internal17GetResultsCheckerEvE2rc)
	ret
.Lfunc_end0:
	.size	_ZN8internal17GetResultsCheckerEv, .Lfunc_end0-_ZN8internal17GetResultsCheckerEv
                                        # -- End function
	.section	.text._ZN8internal14ResultsCheckerD2Ev,"axG",@progbits,_ZN8internal14ResultsCheckerD2Ev,comdat
	.hidden	_ZN8internal14ResultsCheckerD2Ev # -- Begin function _ZN8internal14ResultsCheckerD2Ev
	.weak	_ZN8internal14ResultsCheckerD2Ev
	.p2align	5
	.type	_ZN8internal14ResultsCheckerD2Ev,@function
_ZN8internal14ResultsCheckerD2Ev:       # @_ZN8internal14ResultsCheckerD2Ev
.Lfunc_begin0:
	.cfi_startproc
	.cfi_personality 155, DW.ref.__gxx_personality_v0
	.cfi_lsda 27, .Lexception0
# %bb.0:
	addi.d	$sp, $sp, -32
	.cfi_def_cfa_offset 32
	st.d	$ra, $sp, 24                    # 8-byte Folded Spill
	st.d	$fp, $sp, 16                    # 8-byte Folded Spill
	st.d	$s0, $sp, 8                     # 8-byte Folded Spill
	st.d	$s1, $sp, 0                     # 8-byte Folded Spill
	.cfi_offset 1, -8
	.cfi_offset 22, -16
	.cfi_offset 23, -24
	.cfi_offset 24, -32
	move	$fp, $a0
	ld.d	$a0, $a0, 48
	ld.d	$s0, $fp, 56
	beq	$a0, $s0, .LBB1_6
# %bb.1:                                # %.lr.ph.i.i.i.preheader
	addi.d	$s1, $a0, 16
	b	.LBB1_3
	.p2align	4, , 16
.LBB1_2:                                # %_ZSt8_DestroyINSt7__cxx1112basic_stringIcSt11char_traitsIcESaIcEEEEvPT_.exit.i.i.i
                                        #   in Loop: Header=BB1_3 Depth=1
	addi.d	$a0, $s1, 16
	addi.d	$s1, $s1, 32
	beq	$a0, $s0, .LBB1_5
.LBB1_3:                                # %.lr.ph.i.i.i
                                        # =>This Inner Loop Header: Depth=1
	ld.d	$a0, $s1, -16
	beq	$s1, $a0, .LBB1_2
# %bb.4:                                # %_ZNKSt7__cxx1112basic_stringIcSt11char_traitsIcESaIcEE11_M_is_localEv.exit.i.i.i.i.i.i
                                        #   in Loop: Header=BB1_3 Depth=1
	ld.d	$a1, $s1, 0
	addi.d	$a1, $a1, 1
	pcaddu18i	$ra, %call36(_ZdlPvm)
	jirl	$ra, $ra, 0
	b	.LBB1_2
.LBB1_5:                                # %_ZSt8_DestroyIPNSt7__cxx1112basic_stringIcSt11char_traitsIcESaIcEEES5_EvT_S7_RSaIT0_E.exitthread-pre-split.i
	ld.d	$a0, $fp, 48
.LBB1_6:                                # %_ZSt8_DestroyIPNSt7__cxx1112basic_stringIcSt11char_traitsIcESaIcEEES5_EvT_S7_RSaIT0_E.exit.i
	beqz	$a0, .LBB1_8
# %bb.7:
	ld.d	$a1, $fp, 64
	sub.d	$a1, $a1, $a0
	pcaddu18i	$ra, %call36(_ZdlPvm)
	jirl	$ra, $ra, 0
.LBB1_8:                                # %_ZNSt6vectorINSt7__cxx1112basic_stringIcSt11char_traitsIcESaIcEEESaIS5_EED2Ev.exit
	ld.d	$s0, $fp, 24
	ld.d	$s1, $fp, 32
	bne	$s0, $s1, .LBB1_17
# %bb.9:                                # %_ZSt8_DestroyIP7ResultsS0_EvT_S2_RSaIT0_E.exit.i
	beqz	$s0, .LBB1_11
.LBB1_10:
	ld.d	$a0, $fp, 40
	sub.d	$a1, $a0, $s0
	move	$a0, $s0
	pcaddu18i	$ra, %call36(_ZdlPvm)
	jirl	$ra, $ra, 0
.LBB1_11:                               # %_ZNSt6vectorI7ResultsSaIS0_EED2Ev.exit
	ld.d	$s0, $fp, 0
	ld.d	$s1, $fp, 8
	beq	$s0, $s1, .LBB1_14
	.p2align	4, , 16
.LBB1_12:                               # %.lr.ph.i.i.i8
                                        # =>This Inner Loop Header: Depth=1
	move	$a0, $s0
	pcaddu18i	$ra, %call36(_ZN8internal14ResultsChecker12PatternAndFnD2Ev)
	jirl	$ra, $ra, 0
	addi.d	$s0, $s0, 120
	bne	$s0, $s1, .LBB1_12
# %bb.13:                               # %_ZSt8_DestroyIPN8internal14ResultsChecker12PatternAndFnES2_EvT_S4_RSaIT0_E.exitthread-pre-split.i
	ld.d	$s0, $fp, 0
.LBB1_14:                               # %_ZSt8_DestroyIPN8internal14ResultsChecker12PatternAndFnES2_EvT_S4_RSaIT0_E.exit.i
	beqz	$s0, .LBB1_21
# %bb.15:
	ld.d	$a0, $fp, 16
	sub.d	$a1, $a0, $s0
	move	$a0, $s0
	ld.d	$s1, $sp, 0                     # 8-byte Folded Reload
	ld.d	$s0, $sp, 8                     # 8-byte Folded Reload
	ld.d	$fp, $sp, 16                    # 8-byte Folded Reload
	ld.d	$ra, $sp, 24                    # 8-byte Folded Reload
	addi.d	$sp, $sp, 32
	pcaddu18i	$t8, %call36(_ZdlPvm)
	jr	$t8
	.p2align	4, , 16
.LBB1_16:                               # %_ZSt8_DestroyI7ResultsEvPT_.exit.i.i.i
                                        #   in Loop: Header=BB1_17 Depth=1
	addi.d	$s0, $s0, 80
	beq	$s0, $s1, .LBB1_20
.LBB1_17:                               # %.lr.ph.i.i.i2
                                        # =>This Inner Loop Header: Depth=1
	ld.d	$a1, $s0, 48
	addi.d	$a0, $s0, 32
.Ltmp0:
	pcaddu18i	$ra, %call36(_ZNSt8_Rb_treeINSt7__cxx1112basic_stringIcSt11char_traitsIcESaIcEEESt4pairIKS5_S5_ESt10_Select1stIS8_ESt4lessIS5_ESaIS8_EE8_M_eraseEPSt13_Rb_tree_nodeIS8_E)
	jirl	$ra, $ra, 0
.Ltmp1:
# %bb.18:                               # %_ZNSt3mapINSt7__cxx1112basic_stringIcSt11char_traitsIcESaIcEEES5_St4lessIS5_ESaISt4pairIKS5_S5_EEED2Ev.exit.i.i.i.i.i
                                        #   in Loop: Header=BB1_17 Depth=1
	ld.d	$a0, $s0, 0
	addi.d	$a1, $s0, 16
	beq	$a1, $a0, .LBB1_16
# %bb.19:                               # %_ZNKSt7__cxx1112basic_stringIcSt11char_traitsIcESaIcEE11_M_is_localEv.exit.i.i.i.i.i.i.i
                                        #   in Loop: Header=BB1_17 Depth=1
	ld.d	$a1, $a1, 0
	addi.d	$a1, $a1, 1
	pcaddu18i	$ra, %call36(_ZdlPvm)
	jirl	$ra, $ra, 0
	b	.LBB1_16
.LBB1_20:                               # %_ZSt8_DestroyIP7ResultsS0_EvT_S2_RSaIT0_E.exitthread-pre-split.i
	ld.d	$s0, $fp, 24
	bnez	$s0, .LBB1_10
	b	.LBB1_11
.LBB1_21:                               # %_ZNSt6vectorIN8internal14ResultsChecker12PatternAndFnESaIS2_EED2Ev.exit
	ld.d	$s1, $sp, 0                     # 8-byte Folded Reload
	ld.d	$s0, $sp, 8                     # 8-byte Folded Reload
	ld.d	$fp, $sp, 16                    # 8-byte Folded Reload
	ld.d	$ra, $sp, 24                    # 8-byte Folded Reload
	addi.d	$sp, $sp, 32
	ret
.LBB1_22:
.Ltmp2:
	pcaddu18i	$ra, %call36(__clang_call_terminate)
	jirl	$ra, $ra, 0
.Lfunc_end1:
	.size	_ZN8internal14ResultsCheckerD2Ev, .Lfunc_end1-_ZN8internal14ResultsCheckerD2Ev
	.cfi_endproc
	.section	.gcc_except_table._ZN8internal14ResultsCheckerD2Ev,"aG",@progbits,_ZN8internal14ResultsCheckerD2Ev,comdat
	.p2align	2, 0x0
GCC_except_table1:
.Lexception0:
	.byte	255                             # @LPStart Encoding = omit
	.byte	155                             # @TType Encoding = indirect pcrel sdata4
	.uleb128 .Lttbase0-.Lttbaseref0
.Lttbaseref0:
	.byte	1                               # Call site Encoding = uleb128
	.uleb128 .Lcst_end0-.Lcst_begin0
.Lcst_begin0:
	.uleb128 .Lfunc_begin0-.Lfunc_begin0    # >> Call Site 1 <<
	.uleb128 .Ltmp0-.Lfunc_begin0           #   Call between .Lfunc_begin0 and .Ltmp0
	.byte	0                               #     has no landing pad
	.byte	0                               #   On action: cleanup
	.uleb128 .Ltmp0-.Lfunc_begin0           # >> Call Site 2 <<
	.uleb128 .Ltmp1-.Ltmp0                  #   Call between .Ltmp0 and .Ltmp1
	.uleb128 .Ltmp2-.Lfunc_begin0           #     jumps to .Ltmp2
	.byte	1                               #   On action: 1
	.uleb128 .Ltmp1-.Lfunc_begin0           # >> Call Site 3 <<
	.uleb128 .Lfunc_end1-.Ltmp1             #   Call between .Ltmp1 and .Lfunc_end1
	.byte	0                               #     has no landing pad
	.byte	0                               #   On action: cleanup
.Lcst_end0:
	.byte	1                               # >> Action Record 1 <<
                                        #   Catch TypeInfo 1
	.byte	0                               #   No further actions
	.p2align	2, 0x0
                                        # >> Catch TypeInfos <<
	.word	0                               # TypeInfo 1
.Lttbase0:
	.p2align	2, 0x0
                                        # -- End function
	.text
	.hidden	_ZN8internal14ResultsChecker3AddERKNSt7__cxx1112basic_stringIcSt11char_traitsIcESaIcEEERKSt8functionIFvRK7ResultsEE # -- Begin function _ZN8internal14ResultsChecker3AddERKNSt7__cxx1112basic_stringIcSt11char_traitsIcESaIcEEERKSt8functionIFvRK7ResultsEE
	.globl	_ZN8internal14ResultsChecker3AddERKNSt7__cxx1112basic_stringIcSt11char_traitsIcESaIcEEERKSt8functionIFvRK7ResultsEE
	.p2align	5
	.type	_ZN8internal14ResultsChecker3AddERKNSt7__cxx1112basic_stringIcSt11char_traitsIcESaIcEEERKSt8functionIFvRK7ResultsEE,@function
_ZN8internal14ResultsChecker3AddERKNSt7__cxx1112basic_stringIcSt11char_traitsIcESaIcEEERKSt8functionIFvRK7ResultsEE: # @_ZN8internal14ResultsChecker3AddERKNSt7__cxx1112basic_stringIcSt11char_traitsIcESaIcEEERKSt8functionIFvRK7ResultsEE
	.cfi_startproc
# %bb.0:
	pcaddu18i	$t8, %call36(_ZNSt6vectorIN8internal14ResultsChecker12PatternAndFnESaIS2_EE12emplace_backIJRKNSt7__cxx1112basic_stringIcSt11char_traitsIcESaIcEEERKSt8functionIFvRK7ResultsEEEEERS2_DpOT_)
	jr	$t8
.Lfunc_end2:
	.size	_ZN8internal14ResultsChecker3AddERKNSt7__cxx1112basic_stringIcSt11char_traitsIcESaIcEEERKSt8functionIFvRK7ResultsEE, .Lfunc_end2-_ZN8internal14ResultsChecker3AddERKNSt7__cxx1112basic_stringIcSt11char_traitsIcESaIcEEERKSt8functionIFvRK7ResultsEE
	.cfi_endproc
                                        # -- End function
	.section	.text._ZNSt6vectorIN8internal14ResultsChecker12PatternAndFnESaIS2_EE12emplace_backIJRKNSt7__cxx1112basic_stringIcSt11char_traitsIcESaIcEEERKSt8functionIFvRK7ResultsEEEEERS2_DpOT_,"axG",@progbits,_ZNSt6vectorIN8internal14ResultsChecker12PatternAndFnESaIS2_EE12emplace_backIJRKNSt7__cxx1112basic_stringIcSt11char_traitsIcESaIcEEERKSt8functionIFvRK7ResultsEEEEERS2_DpOT_,comdat
	.hidden	_ZNSt6vectorIN8internal14ResultsChecker12PatternAndFnESaIS2_EE12emplace_backIJRKNSt7__cxx1112basic_stringIcSt11char_traitsIcESaIcEEERKSt8functionIFvRK7ResultsEEEEERS2_DpOT_ # -- Begin function _ZNSt6vectorIN8internal14ResultsChecker12PatternAndFnESaIS2_EE12emplace_backIJRKNSt7__cxx1112basic_stringIcSt11char_traitsIcESaIcEEERKSt8functionIFvRK7ResultsEEEEERS2_DpOT_
	.weak	_ZNSt6vectorIN8internal14ResultsChecker12PatternAndFnESaIS2_EE12emplace_backIJRKNSt7__cxx1112basic_stringIcSt11char_traitsIcESaIcEEERKSt8functionIFvRK7ResultsEEEEERS2_DpOT_
	.p2align	5
	.type	_ZNSt6vectorIN8internal14ResultsChecker12PatternAndFnESaIS2_EE12emplace_backIJRKNSt7__cxx1112basic_stringIcSt11char_traitsIcESaIcEEERKSt8functionIFvRK7ResultsEEEEERS2_DpOT_,@function
_ZNSt6vectorIN8internal14ResultsChecker12PatternAndFnESaIS2_EE12emplace_backIJRKNSt7__cxx1112basic_stringIcSt11char_traitsIcESaIcEEERKSt8functionIFvRK7ResultsEEEEERS2_DpOT_: # @_ZNSt6vectorIN8internal14ResultsChecker12PatternAndFnESaIS2_EE12emplace_backIJRKNSt7__cxx1112basic_stringIcSt11char_traitsIcESaIcEEERKSt8functionIFvRK7ResultsEEEEERS2_DpOT_
.Lfunc_begin1:
	.cfi_startproc
	.cfi_personality 155, DW.ref.__gxx_personality_v0
	.cfi_lsda 27, .Lexception1
# %bb.0:
	addi.d	$sp, $sp, -80
	.cfi_def_cfa_offset 80
	st.d	$ra, $sp, 72                    # 8-byte Folded Spill
	st.d	$fp, $sp, 64                    # 8-byte Folded Spill
	st.d	$s0, $sp, 56                    # 8-byte Folded Spill
	st.d	$s1, $sp, 48                    # 8-byte Folded Spill
	st.d	$s2, $sp, 40                    # 8-byte Folded Spill
	.cfi_offset 1, -8
	.cfi_offset 22, -16
	.cfi_offset 23, -24
	.cfi_offset 24, -32
	.cfi_offset 25, -40
	move	$fp, $a0
	ld.d	$s1, $a0, 8
	ld.d	$a0, $a0, 16
	move	$s2, $a2
	move	$s0, $a1
	beq	$s1, $a0, .LBB3_8
# %bb.1:
	ld.d	$a3, $s2, 16
	vrepli.b	$vr0, 0
	vst	$vr0, $sp, 24
	vst	$vr0, $sp, 8
	beqz	$a3, .LBB3_4
# %bb.2:
.Ltmp3:
	addi.d	$a0, $sp, 8
	ori	$a2, $zero, 2
	move	$a1, $s2
	jirl	$ra, $a3, 0
.Ltmp4:
# %bb.3:
	vld	$vr0, $s2, 16
	vst	$vr0, $sp, 24
.LBB3_4:                                # %_ZNSt8functionIFvRK7ResultsEEC2ERKS4_.exit
.Ltmp9:
	addi.d	$a2, $sp, 8
	move	$a0, $s1
	move	$a1, $s0
	pcaddu18i	$ra, %call36(_ZN8internal14ResultsChecker12PatternAndFnC2ERKNSt7__cxx1112basic_stringIcSt11char_traitsIcESaIcEEESt8functionIFvRK7ResultsEE)
	jirl	$ra, $ra, 0
.Ltmp10:
# %bb.5:                                # %_ZNSt15__new_allocatorIN8internal14ResultsChecker12PatternAndFnEE9constructIS2_JRKNSt7__cxx1112basic_stringIcSt11char_traitsIcESaIcEEERKSt8functionIFvRK7ResultsEEEEEvPT_DpOT0_.exit
	ld.d	$a3, $sp, 24
	beqz	$a3, .LBB3_7
# %bb.6:
.Ltmp15:
	addi.d	$a0, $sp, 8
	addi.d	$a1, $sp, 8
	ori	$a2, $zero, 3
	jirl	$ra, $a3, 0
.Ltmp16:
.LBB3_7:                                # %_ZNSt14_Function_baseD2Ev.exit6
	ld.d	$a0, $fp, 8
	addi.d	$a0, $a0, 120
	st.d	$a0, $fp, 8
	b	.LBB3_9
.LBB3_8:
	move	$a0, $fp
	move	$a1, $s0
	move	$a2, $s2
	pcaddu18i	$ra, %call36(_ZNSt6vectorIN8internal14ResultsChecker12PatternAndFnESaIS2_EE17_M_realloc_appendIJRKNSt7__cxx1112basic_stringIcSt11char_traitsIcESaIcEEERKSt8functionIFvRK7ResultsEEEEEvDpOT_)
	jirl	$ra, $ra, 0
	ld.d	$a0, $fp, 8
.LBB3_9:
	addi.d	$a0, $a0, -120
	ld.d	$s2, $sp, 40                    # 8-byte Folded Reload
	ld.d	$s1, $sp, 48                    # 8-byte Folded Reload
	ld.d	$s0, $sp, 56                    # 8-byte Folded Reload
	ld.d	$fp, $sp, 64                    # 8-byte Folded Reload
	ld.d	$ra, $sp, 72                    # 8-byte Folded Reload
	addi.d	$sp, $sp, 80
	ret
.LBB3_10:
.Ltmp17:
	pcaddu18i	$ra, %call36(__clang_call_terminate)
	jirl	$ra, $ra, 0
.LBB3_11:
.Ltmp5:
	ld.d	$a3, $sp, 24
	move	$fp, $a0
	beqz	$a3, .LBB3_16
# %bb.12:
.Ltmp6:
	addi.d	$a0, $sp, 8
	addi.d	$a1, $sp, 8
	ori	$a2, $zero, 3
	jirl	$ra, $a3, 0
.Ltmp7:
	b	.LBB3_16
.LBB3_13:
.Ltmp8:
	pcaddu18i	$ra, %call36(__clang_call_terminate)
	jirl	$ra, $ra, 0
.LBB3_14:
.Ltmp11:
	ld.d	$a3, $sp, 24
	move	$fp, $a0
	beqz	$a3, .LBB3_16
# %bb.15:
.Ltmp12:
	addi.d	$a0, $sp, 8
	addi.d	$a1, $sp, 8
	ori	$a2, $zero, 3
	jirl	$ra, $a3, 0
.Ltmp13:
.LBB3_16:                               # %common.resume
	move	$a0, $fp
	pcaddu18i	$ra, %call36(_Unwind_Resume)
	jirl	$ra, $ra, 0
.LBB3_17:
.Ltmp14:
	pcaddu18i	$ra, %call36(__clang_call_terminate)
	jirl	$ra, $ra, 0
.Lfunc_end3:
	.size	_ZNSt6vectorIN8internal14ResultsChecker12PatternAndFnESaIS2_EE12emplace_backIJRKNSt7__cxx1112basic_stringIcSt11char_traitsIcESaIcEEERKSt8functionIFvRK7ResultsEEEEERS2_DpOT_, .Lfunc_end3-_ZNSt6vectorIN8internal14ResultsChecker12PatternAndFnESaIS2_EE12emplace_backIJRKNSt7__cxx1112basic_stringIcSt11char_traitsIcESaIcEEERKSt8functionIFvRK7ResultsEEEEERS2_DpOT_
	.cfi_endproc
	.section	.gcc_except_table._ZNSt6vectorIN8internal14ResultsChecker12PatternAndFnESaIS2_EE12emplace_backIJRKNSt7__cxx1112basic_stringIcSt11char_traitsIcESaIcEEERKSt8functionIFvRK7ResultsEEEEERS2_DpOT_,"aG",@progbits,_ZNSt6vectorIN8internal14ResultsChecker12PatternAndFnESaIS2_EE12emplace_backIJRKNSt7__cxx1112basic_stringIcSt11char_traitsIcESaIcEEERKSt8functionIFvRK7ResultsEEEEERS2_DpOT_,comdat
	.p2align	2, 0x0
GCC_except_table3:
.Lexception1:
	.byte	255                             # @LPStart Encoding = omit
	.byte	155                             # @TType Encoding = indirect pcrel sdata4
	.uleb128 .Lttbase1-.Lttbaseref1
.Lttbaseref1:
	.byte	1                               # Call site Encoding = uleb128
	.uleb128 .Lcst_end1-.Lcst_begin1
.Lcst_begin1:
	.uleb128 .Ltmp3-.Lfunc_begin1           # >> Call Site 1 <<
	.uleb128 .Ltmp4-.Ltmp3                  #   Call between .Ltmp3 and .Ltmp4
	.uleb128 .Ltmp5-.Lfunc_begin1           #     jumps to .Ltmp5
	.byte	0                               #   On action: cleanup
	.uleb128 .Ltmp9-.Lfunc_begin1           # >> Call Site 2 <<
	.uleb128 .Ltmp10-.Ltmp9                 #   Call between .Ltmp9 and .Ltmp10
	.uleb128 .Ltmp11-.Lfunc_begin1          #     jumps to .Ltmp11
	.byte	0                               #   On action: cleanup
	.uleb128 .Ltmp15-.Lfunc_begin1          # >> Call Site 3 <<
	.uleb128 .Ltmp16-.Ltmp15                #   Call between .Ltmp15 and .Ltmp16
	.uleb128 .Ltmp17-.Lfunc_begin1          #     jumps to .Ltmp17
	.byte	1                               #   On action: 1
	.uleb128 .Ltmp16-.Lfunc_begin1          # >> Call Site 4 <<
	.uleb128 .Ltmp6-.Ltmp16                 #   Call between .Ltmp16 and .Ltmp6
	.byte	0                               #     has no landing pad
	.byte	0                               #   On action: cleanup
	.uleb128 .Ltmp6-.Lfunc_begin1           # >> Call Site 5 <<
	.uleb128 .Ltmp7-.Ltmp6                  #   Call between .Ltmp6 and .Ltmp7
	.uleb128 .Ltmp8-.Lfunc_begin1           #     jumps to .Ltmp8
	.byte	1                               #   On action: 1
	.uleb128 .Ltmp7-.Lfunc_begin1           # >> Call Site 6 <<
	.uleb128 .Ltmp12-.Ltmp7                 #   Call between .Ltmp7 and .Ltmp12
	.byte	0                               #     has no landing pad
	.byte	0                               #   On action: cleanup
	.uleb128 .Ltmp12-.Lfunc_begin1          # >> Call Site 7 <<
	.uleb128 .Ltmp13-.Ltmp12                #   Call between .Ltmp12 and .Ltmp13
	.uleb128 .Ltmp14-.Lfunc_begin1          #     jumps to .Ltmp14
	.byte	1                               #   On action: 1
	.uleb128 .Ltmp13-.Lfunc_begin1          # >> Call Site 8 <<
	.uleb128 .Lfunc_end3-.Ltmp13            #   Call between .Ltmp13 and .Lfunc_end3
	.byte	0                               #     has no landing pad
	.byte	0                               #   On action: cleanup
.Lcst_end1:
	.byte	1                               # >> Action Record 1 <<
                                        #   Catch TypeInfo 1
	.byte	0                               #   No further actions
	.p2align	2, 0x0
                                        # >> Catch TypeInfos <<
	.word	0                               # TypeInfo 1
.Lttbase1:
	.p2align	2, 0x0
                                        # -- End function
	.text
	.hidden	_ZN8internal14ResultsChecker12CheckResultsERNSt7__cxx1118basic_stringstreamIcSt11char_traitsIcESaIcEEE # -- Begin function _ZN8internal14ResultsChecker12CheckResultsERNSt7__cxx1118basic_stringstreamIcSt11char_traitsIcESaIcEEE
	.globl	_ZN8internal14ResultsChecker12CheckResultsERNSt7__cxx1118basic_stringstreamIcSt11char_traitsIcESaIcEEE
	.p2align	5
	.type	_ZN8internal14ResultsChecker12CheckResultsERNSt7__cxx1118basic_stringstreamIcSt11char_traitsIcESaIcEEE,@function
_ZN8internal14ResultsChecker12CheckResultsERNSt7__cxx1118basic_stringstreamIcSt11char_traitsIcESaIcEEE: # @_ZN8internal14ResultsChecker12CheckResultsERNSt7__cxx1118basic_stringstreamIcSt11char_traitsIcESaIcEEE
.Lfunc_begin2:
	.cfi_startproc
	.cfi_personality 155, DW.ref.__gxx_personality_v0
	.cfi_lsda 27, .Lexception2
# %bb.0:
	addi.d	$sp, $sp, -240
	.cfi_def_cfa_offset 240
	st.d	$ra, $sp, 232                   # 8-byte Folded Spill
	st.d	$fp, $sp, 224                   # 8-byte Folded Spill
	st.d	$s0, $sp, 216                   # 8-byte Folded Spill
	st.d	$s1, $sp, 208                   # 8-byte Folded Spill
	st.d	$s2, $sp, 200                   # 8-byte Folded Spill
	st.d	$s3, $sp, 192                   # 8-byte Folded Spill
	st.d	$s4, $sp, 184                   # 8-byte Folded Spill
	st.d	$s5, $sp, 176                   # 8-byte Folded Spill
	st.d	$s6, $sp, 168                   # 8-byte Folded Spill
	st.d	$s7, $sp, 160                   # 8-byte Folded Spill
	st.d	$s8, $sp, 152                   # 8-byte Folded Spill
	.cfi_offset 1, -8
	.cfi_offset 22, -16
	.cfi_offset 23, -24
	.cfi_offset 24, -32
	.cfi_offset 25, -40
	.cfi_offset 26, -48
	.cfi_offset 27, -56
	.cfi_offset 28, -64
	.cfi_offset 29, -72
	.cfi_offset 30, -80
	.cfi_offset 31, -88
	move	$s0, $a1
	ld.d	$a1, $a1, 0
	ld.d	$a1, $a1, -24
	st.d	$a0, $sp, 32                    # 8-byte Folded Spill
	add.d	$a0, $s0, $a1
	move	$a1, $zero
	pcaddu18i	$ra, %call36(_ZNSt9basic_iosIcSt11char_traitsIcEE5clearESt12_Ios_Iostate)
	jirl	$ra, $ra, 0
	move	$a0, $s0
	pcaddu18i	$ra, %call36(_ZNSi5tellgEv)
	jirl	$ra, $ra, 0
	ori	$a1, $zero, 1
	blt	$a0, $a1, .LBB4_2
# %bb.1:
	move	$a0, $s0
	move	$a1, $zero
	move	$a2, $zero
	pcaddu18i	$ra, %call36(_ZNSi5seekgESt4fposI11__mbstate_tE)
	jirl	$ra, $ra, 0
.LBB4_2:
	ld.d	$a0, $s0, 0
	ld.d	$a0, $a0, -24
	add.d	$a0, $s0, $a0
	move	$a1, $zero
	pcaddu18i	$ra, %call36(_ZNSt9basic_iosIcSt11char_traitsIcEE5clearESt12_Ios_Iostate)
	jirl	$ra, $ra, 0
	addi.d	$a1, $sp, 104
	ld.d	$a0, $s0, 0
	st.d	$a1, $sp, 88
	st.d	$zero, $sp, 96
	st.b	$zero, $sp, 104
	ld.d	$a0, $a0, -24
	addi.d	$fp, $s0, 32
	ldx.wu	$a0, $fp, $a0
	andi	$a1, $a0, 2
	bnez	$a1, .LBB4_26
# %bb.3:                                # %.lr.ph.preheader
	bnez	$a0, .LBB4_164
# %bb.4:
	pcalau12i	$a0, %pc_hi20(_ZGVZN9benchmark8internal18GetNullLogInstanceEvE8null_log)
	addi.d	$s1, $a0, %pc_lo12(_ZGVZN9benchmark8internal18GetNullLogInstanceEvE8null_log)
	ld.b	$a0, $s1, 0
	addi.d	$s3, $s0, 240
	dbar	20
	beqz	$a0, .LBB4_169
.LBB4_5:
	ld.d	$a0, $s0, 0
	ld.d	$a0, $a0, -24
	ldx.d	$s2, $s3, $a0
	beqz	$s2, .LBB4_167
# %bb.6:                                # %_ZSt13__check_facetISt5ctypeIcEERKT_PS3_.exit.i.i.peel
	ld.bu	$a0, $s2, 56
	beqz	$a0, .LBB4_8
# %bb.7:
	ld.bu	$a0, $s2, 67
	b	.LBB4_10
.LBB4_8:
.Ltmp18:
	move	$a0, $s2
	pcaddu18i	$ra, %call36(_ZNKSt5ctypeIcE13_M_widen_initEv)
	jirl	$ra, $ra, 0
.Ltmp19:
# %bb.9:                                # %.noexc39.peel
	ld.d	$a0, $s2, 0
	ld.d	$a2, $a0, 48
.Ltmp20:
	ori	$a1, $zero, 10
	move	$a0, $s2
	jirl	$ra, $a2, 0
.Ltmp21:
.LBB4_10:                               # %_ZNKSt9basic_iosIcSt11char_traitsIcEE5widenEc.exit.i.peel
.Ltmp22:
	ext.w.b	$a2, $a0
	addi.d	$a1, $sp, 88
	move	$a0, $s0
	pcaddu18i	$ra, %call36(_ZSt7getlineIcSt11char_traitsIcESaIcEERSt13basic_istreamIT_T0_ES7_RNSt7__cxx1112basic_stringIS4_S5_T1_EES4_)
	jirl	$ra, $ra, 0
.Ltmp23:
# %bb.11:                               # %_ZSt7getlineIcSt11char_traitsIcESaIcEERSt13basic_istreamIT_T0_ES7_RNSt7__cxx1112basic_stringIS4_S5_T1_EE.exit.peel
.Ltmp24:
	addi.d	$a1, $sp, 88
	ld.d	$a0, $sp, 32                    # 8-byte Folded Reload
	pcaddu18i	$ra, %call36(_ZN8internal14ResultsChecker10SetHeader_ERKNSt7__cxx1112basic_stringIcSt11char_traitsIcESaIcEEE)
	jirl	$ra, $ra, 0
.Ltmp25:
# %bb.12:                               # %.backedge.peel
	ld.d	$a0, $s0, 0
	ld.d	$a0, $a0, -24
	ldx.wu	$a0, $fp, $a0
	andi	$a1, $a0, 2
	bnez	$a1, .LBB4_26
# %bb.13:                               # %.lr.ph.preheader367
	pcalau12i	$s4, %pc_hi20(_ZZN9benchmark8internal18GetNullLogInstanceEvE8null_log)
	.p2align	4, , 16
.LBB4_14:                               # %.lr.ph
                                        # =>This Inner Loop Header: Depth=1
	addi.w	$a0, $a0, 0
	bnez	$a0, .LBB4_164
# %bb.15:                               #   in Loop: Header=BB4_14 Depth=1
	ld.b	$a0, $s1, 0
	dbar	20
	beqz	$a0, .LBB4_24
.LBB4_16:                               #   in Loop: Header=BB4_14 Depth=1
	ld.d	$a0, $s0, 0
	ld.d	$a0, $a0, -24
	ldx.d	$s2, $s3, $a0
	beqz	$s2, .LBB4_167
# %bb.17:                               # %_ZSt13__check_facetISt5ctypeIcEERKT_PS3_.exit.i.i
                                        #   in Loop: Header=BB4_14 Depth=1
	ld.bu	$a0, $s2, 56
	beqz	$a0, .LBB4_19
# %bb.18:                               #   in Loop: Header=BB4_14 Depth=1
	ld.bu	$a0, $s2, 67
	b	.LBB4_21
	.p2align	4, , 16
.LBB4_19:                               #   in Loop: Header=BB4_14 Depth=1
.Ltmp32:
	move	$a0, $s2
	pcaddu18i	$ra, %call36(_ZNKSt5ctypeIcE13_M_widen_initEv)
	jirl	$ra, $ra, 0
.Ltmp33:
# %bb.20:                               # %.noexc39
                                        #   in Loop: Header=BB4_14 Depth=1
	ld.d	$a0, $s2, 0
	ld.d	$a2, $a0, 48
.Ltmp34:
	ori	$a1, $zero, 10
	move	$a0, $s2
	jirl	$ra, $a2, 0
.Ltmp35:
.LBB4_21:                               # %_ZNKSt9basic_iosIcSt11char_traitsIcEE5widenEc.exit.i
                                        #   in Loop: Header=BB4_14 Depth=1
.Ltmp36:
	ext.w.b	$a2, $a0
	addi.d	$a1, $sp, 88
	move	$a0, $s0
	pcaddu18i	$ra, %call36(_ZSt7getlineIcSt11char_traitsIcESaIcEERSt13basic_istreamIT_T0_ES7_RNSt7__cxx1112basic_stringIS4_S5_T1_EES4_)
	jirl	$ra, $ra, 0
.Ltmp37:
# %bb.22:                               # %_ZSt7getlineIcSt11char_traitsIcESaIcEERSt13basic_istreamIT_T0_ES7_RNSt7__cxx1112basic_stringIS4_S5_T1_EE.exit
                                        #   in Loop: Header=BB4_14 Depth=1
.Ltmp38:
	addi.d	$a1, $sp, 88
	ld.d	$a0, $sp, 32                    # 8-byte Folded Reload
	pcaddu18i	$ra, %call36(_ZN8internal14ResultsChecker10SetValues_ERKNSt7__cxx1112basic_stringIcSt11char_traitsIcESaIcEEE)
	jirl	$ra, $ra, 0
.Ltmp39:
# %bb.23:                               # %.backedge
                                        #   in Loop: Header=BB4_14 Depth=1
	ld.d	$a0, $s0, 0
	ld.d	$a0, $a0, -24
	ldx.wu	$a0, $fp, $a0
	andi	$a1, $a0, 2
	beqz	$a1, .LBB4_14
	b	.LBB4_26
.LBB4_24:                               #   in Loop: Header=BB4_14 Depth=1
	move	$a0, $s1
	pcaddu18i	$ra, %call36(__cxa_guard_acquire)
	jirl	$ra, $ra, 0
	addi.w	$a0, $a0, 0
	beqz	$a0, .LBB4_16
# %bb.25:                               #   in Loop: Header=BB4_14 Depth=1
	st.d	$zero, $s4, %pc_lo12(_ZZN9benchmark8internal18GetNullLogInstanceEvE8null_log)
	move	$a0, $s1
	pcaddu18i	$ra, %call36(__cxa_guard_release)
	jirl	$ra, $ra, 0
	b	.LBB4_16
.LBB4_26:                               # %._crit_edge
	ld.d	$a0, $sp, 32                    # 8-byte Folded Reload
	ld.d	$s8, $a0, 0
	ld.d	$a0, $a0, 8
	st.d	$a0, $sp, 16                    # 8-byte Folded Spill
	beq	$s8, $a0, .LBB4_159
# %bb.27:
	pcalau12i	$s3, %pc_hi20(_ZZN9benchmark8internal8LogLevelEvE9log_level)
	ori	$s4, $zero, 2
	pcalau12i	$a0, %pc_hi20(_ZGVZN9benchmark8internal18GetNullLogInstanceEvE8null_log)
	addi.d	$a0, $a0, %pc_lo12(_ZGVZN9benchmark8internal18GetNullLogInstanceEvE8null_log)
	st.d	$a0, $sp, 56                    # 8-byte Folded Spill
	pcalau12i	$a0, %pc_hi20(_ZZN9benchmark8internal18GetNullLogInstanceEvE8null_log)
	addi.d	$a0, $a0, %pc_lo12(_ZZN9benchmark8internal18GetNullLogInstanceEvE8null_log)
	st.d	$a0, $sp, 48                    # 8-byte Folded Spill
	ori	$fp, $zero, 1
	vrepli.b	$vr0, 0
	vst	$vr0, $sp, 64                   # 16-byte Folded Spill
	pcalau12i	$a0, %pc_hi20(.L.str.2)
	addi.d	$a0, $a0, %pc_lo12(.L.str.2)
	st.d	$a0, $sp, 40                    # 8-byte Folded Spill
	pcalau12i	$a0, %pc_hi20(.L.str.3)
	addi.d	$a0, $a0, %pc_lo12(.L.str.3)
	st.d	$a0, $sp, 24                    # 8-byte Folded Spill
	pcalau12i	$a0, %pc_hi20(.L.str.10)
	addi.d	$a0, $a0, %pc_lo12(.L.str.10)
	st.d	$a0, $sp, 8                     # 8-byte Folded Spill
	pcalau12i	$a0, %pc_hi20(.L.str.12)
	addi.d	$a0, $a0, %pc_lo12(.L.str.12)
	st.d	$a0, $sp, 0                     # 8-byte Folded Spill
	pcalau12i	$s1, %pc_hi20(_ZGVZN9benchmark8internal19GetErrorLogInstanceEvE9error_log)
	b	.LBB4_29
	.p2align	4, , 16
.LBB4_28:                               # %._crit_edge346
                                        #   in Loop: Header=BB4_29 Depth=1
	addi.d	$s8, $s8, 120
	ld.d	$a0, $sp, 16                    # 8-byte Folded Reload
	beq	$s8, $a0, .LBB4_159
.LBB4_29:                               # =>This Loop Header: Depth=1
                                        #     Child Loop BB4_62 Depth 2
	ld.w	$a0, $s3, %pc_lo12(_ZZN9benchmark8internal8LogLevelEvE9log_level)
	bge	$a0, $s4, .LBB4_33
# %bb.30:                               #   in Loop: Header=BB4_29 Depth=1
	ld.d	$a0, $sp, 56                    # 8-byte Folded Reload
	ld.b	$a0, $a0, 0
	dbar	20
	ld.d	$s0, $sp, 48                    # 8-byte Folded Reload
	bnez	$a0, .LBB4_34
# %bb.31:                               #   in Loop: Header=BB4_29 Depth=1
	ld.d	$a0, $sp, 56                    # 8-byte Folded Reload
	pcaddu18i	$ra, %call36(__cxa_guard_acquire)
	jirl	$ra, $ra, 0
	addi.w	$a0, $a0, 0
	ld.d	$s0, $sp, 48                    # 8-byte Folded Reload
	beqz	$a0, .LBB4_34
# %bb.32:                               #   in Loop: Header=BB4_29 Depth=1
	ld.d	$s0, $sp, 48                    # 8-byte Folded Reload
	st.d	$zero, $s0, 0
	ld.d	$s5, $sp, 56                    # 8-byte Folded Reload
	b	.LBB4_155
	.p2align	4, , 16
.LBB4_33:                               #   in Loop: Header=BB4_29 Depth=1
	ld.b	$a0, $s1, %pc_lo12(_ZGVZN9benchmark8internal19GetErrorLogInstanceEvE9error_log)
	pcalau12i	$a1, %pc_hi20(_ZZN9benchmark8internal19GetErrorLogInstanceEvE9error_log)
	addi.d	$s0, $a1, %pc_lo12(_ZZN9benchmark8internal19GetErrorLogInstanceEvE9error_log)
	dbar	20
	beqz	$a0, .LBB4_153
.LBB4_34:                               # %_ZN9benchmark8internal22GetLogInstanceForLevelEi.exit
                                        #   in Loop: Header=BB4_29 Depth=1
	ld.d	$a0, $s0, 0
	beqz	$a0, .LBB4_42
# %bb.35:                               #   in Loop: Header=BB4_29 Depth=1
.Ltmp41:
	pcalau12i	$a1, %pc_hi20(.L.str.2)
	addi.d	$a1, $a1, %pc_lo12(.L.str.2)
	ori	$a2, $zero, 7
	pcaddu18i	$ra, %call36(_ZSt16__ostream_insertIcSt11char_traitsIcEERSt13basic_ostreamIT_T0_ES6_PKS3_l)
	jirl	$ra, $ra, 0
.Ltmp42:
# %bb.36:                               # %_ZN9benchmark8internallsIA8_cEERNS0_7LogTypeES4_RKT_.exit
                                        #   in Loop: Header=BB4_29 Depth=1
	ld.d	$a0, $s0, 0
	beqz	$a0, .LBB4_42
# %bb.37:                               #   in Loop: Header=BB4_29 Depth=1
.Ltmp43:
	ori	$a1, $zero, 2
	pcaddu18i	$ra, %call36(_ZNSolsEi)
	jirl	$ra, $ra, 0
.Ltmp44:
# %bb.38:                               # %_ZN9benchmark8internallsIiEERNS0_7LogTypeES3_RKT_.exit
                                        #   in Loop: Header=BB4_29 Depth=1
	ld.d	$a0, $s0, 0
	beqz	$a0, .LBB4_42
# %bb.39:                               #   in Loop: Header=BB4_29 Depth=1
.Ltmp45:
	pcalau12i	$a1, %pc_hi20(.L.str.3)
	addi.d	$a1, $a1, %pc_lo12(.L.str.3)
	ori	$a2, $zero, 3
	pcaddu18i	$ra, %call36(_ZSt16__ostream_insertIcSt11char_traitsIcEERSt13basic_ostreamIT_T0_ES6_PKS3_l)
	jirl	$ra, $ra, 0
.Ltmp46:
# %bb.40:                               # %_ZN9benchmark8internallsIA4_cEERNS0_7LogTypeES4_RKT_.exit
                                        #   in Loop: Header=BB4_29 Depth=1
	ld.d	$a0, $s0, 0
	beqz	$a0, .LBB4_42
# %bb.41:                               #   in Loop: Header=BB4_29 Depth=1
.Ltmp47:
	pcalau12i	$a1, %pc_hi20(.L.str.4)
	addi.d	$a1, $a1, %pc_lo12(.L.str.4)
	ori	$a2, $zero, 33
	pcaddu18i	$ra, %call36(_ZSt16__ostream_insertIcSt11char_traitsIcEERSt13basic_ostreamIT_T0_ES6_PKS3_l)
	jirl	$ra, $ra, 0
.Ltmp48:
	.p2align	4, , 16
.LBB4_42:                               # %_ZN9benchmark8internallsIA34_cEERNS0_7LogTypeES4_RKT_.exit
                                        #   in Loop: Header=BB4_29 Depth=1
	ld.w	$a0, $s3, %pc_lo12(_ZZN9benchmark8internal8LogLevelEvE9log_level)
	bge	$a0, $s4, .LBB4_46
# %bb.43:                               #   in Loop: Header=BB4_29 Depth=1
	ld.d	$a0, $sp, 56                    # 8-byte Folded Reload
	ld.b	$a0, $a0, 0
	dbar	20
	ld.d	$s0, $sp, 48                    # 8-byte Folded Reload
	bnez	$a0, .LBB4_47
# %bb.44:                               #   in Loop: Header=BB4_29 Depth=1
	ld.d	$a0, $sp, 56                    # 8-byte Folded Reload
	pcaddu18i	$ra, %call36(__cxa_guard_acquire)
	jirl	$ra, $ra, 0
	addi.w	$a0, $a0, 0
	ld.d	$s0, $sp, 48                    # 8-byte Folded Reload
	beqz	$a0, .LBB4_47
# %bb.45:                               #   in Loop: Header=BB4_29 Depth=1
	ld.d	$s0, $sp, 48                    # 8-byte Folded Reload
	st.d	$zero, $s0, 0
	ld.d	$s5, $sp, 56                    # 8-byte Folded Reload
	b	.LBB4_158
	.p2align	4, , 16
.LBB4_46:                               #   in Loop: Header=BB4_29 Depth=1
	ld.b	$a0, $s1, %pc_lo12(_ZGVZN9benchmark8internal19GetErrorLogInstanceEvE9error_log)
	dbar	20
	pcalau12i	$a1, %pc_hi20(_ZZN9benchmark8internal19GetErrorLogInstanceEvE9error_log)
	addi.d	$s0, $a1, %pc_lo12(_ZZN9benchmark8internal19GetErrorLogInstanceEvE9error_log)
	beqz	$a0, .LBB4_156
.LBB4_47:                               # %_ZN9benchmark8internal22GetLogInstanceForLevelEi.exit58
                                        #   in Loop: Header=BB4_29 Depth=1
	ld.d	$a0, $s0, 0
	beqz	$a0, .LBB4_59
# %bb.48:                               #   in Loop: Header=BB4_29 Depth=1
.Ltmp50:
	pcalau12i	$a1, %pc_hi20(.L.str.2)
	addi.d	$a1, $a1, %pc_lo12(.L.str.2)
	ori	$a2, $zero, 7
	pcaddu18i	$ra, %call36(_ZSt16__ostream_insertIcSt11char_traitsIcEERSt13basic_ostreamIT_T0_ES6_PKS3_l)
	jirl	$ra, $ra, 0
.Ltmp51:
# %bb.49:                               # %_ZN9benchmark8internallsIA8_cEERNS0_7LogTypeES4_RKT_.exit61
                                        #   in Loop: Header=BB4_29 Depth=1
	ld.d	$a0, $s0, 0
	beqz	$a0, .LBB4_59
# %bb.50:                               #   in Loop: Header=BB4_29 Depth=1
.Ltmp53:
	ori	$a1, $zero, 2
	pcaddu18i	$ra, %call36(_ZNSolsEi)
	jirl	$ra, $ra, 0
.Ltmp54:
# %bb.51:                               # %_ZN9benchmark8internallsIiEERNS0_7LogTypeES3_RKT_.exit64
                                        #   in Loop: Header=BB4_29 Depth=1
	ld.d	$a0, $s0, 0
	beqz	$a0, .LBB4_59
# %bb.52:                               #   in Loop: Header=BB4_29 Depth=1
.Ltmp55:
	pcalau12i	$a1, %pc_hi20(.L.str.3)
	addi.d	$a1, $a1, %pc_lo12(.L.str.3)
	ori	$a2, $zero, 3
	pcaddu18i	$ra, %call36(_ZSt16__ostream_insertIcSt11char_traitsIcEERSt13basic_ostreamIT_T0_ES6_PKS3_l)
	jirl	$ra, $ra, 0
.Ltmp56:
# %bb.53:                               # %_ZN9benchmark8internallsIA4_cEERNS0_7LogTypeES4_RKT_.exit67
                                        #   in Loop: Header=BB4_29 Depth=1
	ld.d	$a0, $s0, 0
	beqz	$a0, .LBB4_59
# %bb.54:                               #   in Loop: Header=BB4_29 Depth=1
.Ltmp57:
	pcalau12i	$a1, %pc_hi20(.L.str.5)
	addi.d	$a1, $a1, %pc_lo12(.L.str.5)
	ori	$a2, $zero, 33
	pcaddu18i	$ra, %call36(_ZSt16__ostream_insertIcSt11char_traitsIcEERSt13basic_ostreamIT_T0_ES6_PKS3_l)
	jirl	$ra, $ra, 0
.Ltmp58:
# %bb.55:                               # %_ZN9benchmark8internallsIA34_cEERNS0_7LogTypeES4_RKT_.exit70
                                        #   in Loop: Header=BB4_29 Depth=1
	ld.d	$a0, $s0, 0
	beqz	$a0, .LBB4_59
# %bb.56:                               #   in Loop: Header=BB4_29 Depth=1
	ld.d	$a1, $s8, 0
	ld.d	$a2, $s8, 8
.Ltmp59:
	pcaddu18i	$ra, %call36(_ZSt16__ostream_insertIcSt11char_traitsIcEERSt13basic_ostreamIT_T0_ES6_PKS3_l)
	jirl	$ra, $ra, 0
.Ltmp60:
# %bb.57:                               # %_ZN9benchmark8internallsINSt7__cxx1112basic_stringIcSt11char_traitsIcESaIcEEEEERNS0_7LogTypeES9_RKT_.exit
                                        #   in Loop: Header=BB4_29 Depth=1
	ld.d	$a0, $s0, 0
	beqz	$a0, .LBB4_59
# %bb.58:                               #   in Loop: Header=BB4_29 Depth=1
.Ltmp61:
	pcalau12i	$a1, %pc_hi20(.L.str.6)
	addi.d	$a1, $a1, %pc_lo12(.L.str.6)
	ori	$a2, $zero, 4
	pcaddu18i	$ra, %call36(_ZSt16__ostream_insertIcSt11char_traitsIcEERSt13basic_ostreamIT_T0_ES6_PKS3_l)
	jirl	$ra, $ra, 0
.Ltmp62:
	.p2align	4, , 16
.LBB4_59:                               # %_ZN9benchmark8internallsIA5_cEERNS0_7LogTypeES4_RKT_.exit
                                        #   in Loop: Header=BB4_29 Depth=1
	ld.d	$a0, $sp, 32                    # 8-byte Folded Reload
	ld.d	$s5, $a0, 24
	ld.d	$s0, $a0, 32
	beq	$s5, $s0, .LBB4_28
# %bb.60:                               # %.lr.ph345
                                        #   in Loop: Header=BB4_29 Depth=1
	addi.d	$s6, $s8, 88
	b	.LBB4_62
	.p2align	4, , 16
.LBB4_61:                               # %_ZN9benchmark8internallsIA2_cEERNS0_7LogTypeES4_RKT_.exit
                                        #   in Loop: Header=BB4_62 Depth=2
	addi.d	$s5, $s5, 80
	beq	$s5, $s0, .LBB4_28
.LBB4_62:                               #   Parent Loop BB4_29 Depth=1
                                        # =>  This Inner Loop Header: Depth=2
	ld.d	$a1, $s8, 72
	ld.bu	$a0, $a1, 0
	bne	$a0, $fp, .LBB4_71
# %bb.63:                               #   in Loop: Header=BB4_62 Depth=2
	ld.d	$a0, $s5, 0
	ld.d	$a2, $s5, 8
	addi.d	$a3, $a1, 8
	add.d	$a1, $a0, $a2
	vld	$vr0, $sp, 64                   # 16-byte Folded Reload
	vst	$vr0, $sp, 136
	vst	$vr0, $sp, 120
.Ltmp64:
	addi.d	$a2, $sp, 120
	move	$a4, $zero
	move	$a5, $zero
	move	$a6, $zero
	pcaddu18i	$ra, %call36(_ZNSt8__detail17__regex_algo_implIN9__gnu_cxx17__normal_iteratorIPKcNSt7__cxx1112basic_stringIcSt11char_traitsIcESaIcEEEEESaINS5_9sub_matchISB_EEEcNS5_12regex_traitsIcEEEEbT_SH_RNS5_13match_resultsISH_T0_EERKNS5_11basic_regexIT1_T2_EENSt15regex_constants15match_flag_typeENS_20_RegexExecutorPolicyEb)
	jirl	$ra, $ra, 0
.Ltmp65:
# %bb.64:                               # %_ZSt12regex_searchIN9__gnu_cxx17__normal_iteratorIPKcNSt7__cxx1112basic_stringIcSt11char_traitsIcESaIcEEEEESaINS4_9sub_matchISA_EEEcNS4_12regex_traitsIcEEEbT_SG_RNS4_13match_resultsISG_T0_EERKNS4_11basic_regexIT1_T2_EENSt15regex_constants15match_flag_typeE.exit.i.i.i
                                        #   in Loop: Header=BB4_62 Depth=2
	move	$s7, $a0
	ld.d	$a0, $sp, 120
	beqz	$a0, .LBB4_66
# %bb.65:                               #   in Loop: Header=BB4_62 Depth=2
	ld.d	$a1, $sp, 136
	sub.d	$a1, $a1, $a0
	pcaddu18i	$ra, %call36(_ZdlPvm)
	jirl	$ra, $ra, 0
.LBB4_66:                               # %_ZN9benchmark5Regex5MatchERKNSt7__cxx1112basic_stringIcSt11char_traitsIcESaIcEEE.exit
                                        #   in Loop: Header=BB4_62 Depth=2
	beqz	$s7, .LBB4_71
# %bb.67:                               #   in Loop: Header=BB4_62 Depth=2
	ld.w	$a0, $s3, %pc_lo12(_ZZN9benchmark8internal8LogLevelEvE9log_level)
	bge	$a0, $s4, .LBB4_90
# %bb.68:                               #   in Loop: Header=BB4_62 Depth=2
	ld.d	$a0, $sp, 56                    # 8-byte Folded Reload
	ld.b	$a0, $a0, 0
	dbar	20
	ld.d	$s2, $sp, 48                    # 8-byte Folded Reload
	bnez	$a0, .LBB4_91
# %bb.69:                               #   in Loop: Header=BB4_62 Depth=2
	ld.d	$a0, $sp, 56                    # 8-byte Folded Reload
	pcaddu18i	$ra, %call36(__cxa_guard_acquire)
	jirl	$ra, $ra, 0
	addi.w	$a0, $a0, 0
	ld.d	$s2, $sp, 48                    # 8-byte Folded Reload
	beqz	$a0, .LBB4_91
# %bb.70:                               #   in Loop: Header=BB4_62 Depth=2
	ld.d	$s2, $sp, 48                    # 8-byte Folded Reload
	st.d	$zero, $s2, 0
	ld.d	$s7, $sp, 56                    # 8-byte Folded Reload
	b	.LBB4_146
	.p2align	4, , 16
.LBB4_71:                               # %_ZN9benchmark5Regex5MatchERKNSt7__cxx1112basic_stringIcSt11char_traitsIcESaIcEEE.exit.thread
                                        #   in Loop: Header=BB4_62 Depth=2
	ld.w	$a0, $s3, %pc_lo12(_ZZN9benchmark8internal8LogLevelEvE9log_level)
	bge	$a0, $s4, .LBB4_75
# %bb.72:                               #   in Loop: Header=BB4_62 Depth=2
	pcalau12i	$a0, %pc_hi20(_ZGVZN9benchmark8internal18GetNullLogInstanceEvE8null_log)
	ld.b	$a0, $a0, %pc_lo12(_ZGVZN9benchmark8internal18GetNullLogInstanceEvE8null_log)
	dbar	20
	pcalau12i	$a1, %pc_hi20(_ZZN9benchmark8internal18GetNullLogInstanceEvE8null_log)
	addi.d	$s7, $a1, %pc_lo12(_ZZN9benchmark8internal18GetNullLogInstanceEvE8null_log)
	bnez	$a0, .LBB4_76
# %bb.73:                               #   in Loop: Header=BB4_62 Depth=2
	pcalau12i	$a0, %pc_hi20(_ZGVZN9benchmark8internal18GetNullLogInstanceEvE8null_log)
	addi.d	$s2, $a0, %pc_lo12(_ZGVZN9benchmark8internal18GetNullLogInstanceEvE8null_log)
	move	$a0, $s2
	pcaddu18i	$ra, %call36(__cxa_guard_acquire)
	jirl	$ra, $ra, 0
	addi.w	$a0, $a0, 0
	beqz	$a0, .LBB4_76
# %bb.74:                               #   in Loop: Header=BB4_62 Depth=2
	pcalau12i	$a0, %pc_hi20(_ZZN9benchmark8internal18GetNullLogInstanceEvE8null_log)
	addi.d	$s7, $a0, %pc_lo12(_ZZN9benchmark8internal18GetNullLogInstanceEvE8null_log)
	st.d	$zero, $s7, 0
	b	.LBB4_143
	.p2align	4, , 16
.LBB4_75:                               #   in Loop: Header=BB4_62 Depth=2
	ld.b	$a0, $s1, %pc_lo12(_ZGVZN9benchmark8internal19GetErrorLogInstanceEvE9error_log)
	dbar	20
	pcalau12i	$a1, %pc_hi20(_ZZN9benchmark8internal19GetErrorLogInstanceEvE9error_log)
	addi.d	$s7, $a1, %pc_lo12(_ZZN9benchmark8internal19GetErrorLogInstanceEvE9error_log)
	beqz	$a0, .LBB4_141
.LBB4_76:                               # %_ZN9benchmark8internal22GetLogInstanceForLevelEi.exit83
                                        #   in Loop: Header=BB4_62 Depth=2
	ld.d	$a0, $s7, 0
	beqz	$a0, .LBB4_61
# %bb.77:                               #   in Loop: Header=BB4_62 Depth=2
.Ltmp67:
	pcalau12i	$a1, %pc_hi20(.L.str.2)
	addi.d	$a1, $a1, %pc_lo12(.L.str.2)
	ori	$a2, $zero, 7
	pcaddu18i	$ra, %call36(_ZSt16__ostream_insertIcSt11char_traitsIcEERSt13basic_ostreamIT_T0_ES6_PKS3_l)
	jirl	$ra, $ra, 0
.Ltmp68:
# %bb.78:                               # %_ZN9benchmark8internallsIA8_cEERNS0_7LogTypeES4_RKT_.exit86
                                        #   in Loop: Header=BB4_62 Depth=2
	ld.d	$a0, $s7, 0
	beqz	$a0, .LBB4_61
# %bb.79:                               #   in Loop: Header=BB4_62 Depth=2
.Ltmp69:
	ori	$a1, $zero, 2
	pcaddu18i	$ra, %call36(_ZNSolsEi)
	jirl	$ra, $ra, 0
.Ltmp70:
# %bb.80:                               # %_ZN9benchmark8internallsIiEERNS0_7LogTypeES3_RKT_.exit89
                                        #   in Loop: Header=BB4_62 Depth=2
	ld.d	$a0, $s7, 0
	beqz	$a0, .LBB4_61
# %bb.81:                               #   in Loop: Header=BB4_62 Depth=2
.Ltmp71:
	pcalau12i	$a1, %pc_hi20(.L.str.3)
	addi.d	$a1, $a1, %pc_lo12(.L.str.3)
	ori	$a2, $zero, 3
	pcaddu18i	$ra, %call36(_ZSt16__ostream_insertIcSt11char_traitsIcEERSt13basic_ostreamIT_T0_ES6_PKS3_l)
	jirl	$ra, $ra, 0
.Ltmp72:
# %bb.82:                               # %_ZN9benchmark8internallsIA4_cEERNS0_7LogTypeES4_RKT_.exit92
                                        #   in Loop: Header=BB4_62 Depth=2
	ld.d	$a0, $s7, 0
	beqz	$a0, .LBB4_61
# %bb.83:                               #   in Loop: Header=BB4_62 Depth=2
	ld.d	$a1, $s8, 0
	ld.d	$a2, $s8, 8
.Ltmp73:
	pcaddu18i	$ra, %call36(_ZSt16__ostream_insertIcSt11char_traitsIcEERSt13basic_ostreamIT_T0_ES6_PKS3_l)
	jirl	$ra, $ra, 0
.Ltmp74:
# %bb.84:                               # %_ZN9benchmark8internallsINSt7__cxx1112basic_stringIcSt11char_traitsIcESaIcEEEEERNS0_7LogTypeES9_RKT_.exit95
                                        #   in Loop: Header=BB4_62 Depth=2
	ld.d	$a0, $s7, 0
	beqz	$a0, .LBB4_61
# %bb.85:                               #   in Loop: Header=BB4_62 Depth=2
.Ltmp75:
	pcalau12i	$a1, %pc_hi20(.L.str.7)
	addi.d	$a1, $a1, %pc_lo12(.L.str.7)
	ori	$a2, $zero, 19
	pcaddu18i	$ra, %call36(_ZSt16__ostream_insertIcSt11char_traitsIcEERSt13basic_ostreamIT_T0_ES6_PKS3_l)
	jirl	$ra, $ra, 0
.Ltmp76:
# %bb.86:                               # %_ZN9benchmark8internallsIA20_cEERNS0_7LogTypeES4_RKT_.exit
                                        #   in Loop: Header=BB4_62 Depth=2
	ld.d	$a0, $s7, 0
	beqz	$a0, .LBB4_61
# %bb.87:                               #   in Loop: Header=BB4_62 Depth=2
	ld.d	$a1, $s5, 0
	ld.d	$a2, $s5, 8
.Ltmp77:
	pcaddu18i	$ra, %call36(_ZSt16__ostream_insertIcSt11char_traitsIcEERSt13basic_ostreamIT_T0_ES6_PKS3_l)
	jirl	$ra, $ra, 0
.Ltmp78:
# %bb.88:                               # %_ZN9benchmark8internallsINSt7__cxx1112basic_stringIcSt11char_traitsIcESaIcEEEEERNS0_7LogTypeES9_RKT_.exit100
                                        #   in Loop: Header=BB4_62 Depth=2
	ld.d	$a0, $s7, 0
	beqz	$a0, .LBB4_61
# %bb.89:                               #   in Loop: Header=BB4_62 Depth=2
.Ltmp79:
	pcalau12i	$a1, %pc_hi20(.L.str.8)
	addi.d	$a1, $a1, %pc_lo12(.L.str.8)
	ori	$a2, $zero, 1
	pcaddu18i	$ra, %call36(_ZSt16__ostream_insertIcSt11char_traitsIcEERSt13basic_ostreamIT_T0_ES6_PKS3_l)
	jirl	$ra, $ra, 0
.Ltmp80:
	b	.LBB4_61
.LBB4_90:                               #   in Loop: Header=BB4_62 Depth=2
	ld.b	$a0, $s1, %pc_lo12(_ZGVZN9benchmark8internal19GetErrorLogInstanceEvE9error_log)
	dbar	20
	pcalau12i	$a1, %pc_hi20(_ZZN9benchmark8internal19GetErrorLogInstanceEvE9error_log)
	addi.d	$s2, $a1, %pc_lo12(_ZZN9benchmark8internal19GetErrorLogInstanceEvE9error_log)
	beqz	$a0, .LBB4_144
.LBB4_91:                               # %_ZN9benchmark8internal22GetLogInstanceForLevelEi.exit110
                                        #   in Loop: Header=BB4_62 Depth=2
	ld.d	$a0, $s2, 0
	beqz	$a0, .LBB4_105
# %bb.92:                               #   in Loop: Header=BB4_62 Depth=2
.Ltmp82:
	pcalau12i	$a1, %pc_hi20(.L.str.2)
	addi.d	$a1, $a1, %pc_lo12(.L.str.2)
	ori	$a2, $zero, 7
	pcaddu18i	$ra, %call36(_ZSt16__ostream_insertIcSt11char_traitsIcEERSt13basic_ostreamIT_T0_ES6_PKS3_l)
	jirl	$ra, $ra, 0
.Ltmp83:
# %bb.93:                               # %_ZN9benchmark8internallsIA8_cEERNS0_7LogTypeES4_RKT_.exit113
                                        #   in Loop: Header=BB4_62 Depth=2
	ld.d	$a0, $s2, 0
	beqz	$a0, .LBB4_105
# %bb.94:                               #   in Loop: Header=BB4_62 Depth=2
.Ltmp84:
	ori	$a1, $zero, 2
	pcaddu18i	$ra, %call36(_ZNSolsEi)
	jirl	$ra, $ra, 0
.Ltmp85:
# %bb.95:                               # %_ZN9benchmark8internallsIiEERNS0_7LogTypeES3_RKT_.exit116
                                        #   in Loop: Header=BB4_62 Depth=2
	ld.d	$a0, $s2, 0
	beqz	$a0, .LBB4_105
# %bb.96:                               #   in Loop: Header=BB4_62 Depth=2
.Ltmp86:
	pcalau12i	$a1, %pc_hi20(.L.str.3)
	addi.d	$a1, $a1, %pc_lo12(.L.str.3)
	ori	$a2, $zero, 3
	pcaddu18i	$ra, %call36(_ZSt16__ostream_insertIcSt11char_traitsIcEERSt13basic_ostreamIT_T0_ES6_PKS3_l)
	jirl	$ra, $ra, 0
.Ltmp87:
# %bb.97:                               # %_ZN9benchmark8internallsIA4_cEERNS0_7LogTypeES4_RKT_.exit119
                                        #   in Loop: Header=BB4_62 Depth=2
	ld.d	$a0, $s2, 0
	beqz	$a0, .LBB4_105
# %bb.98:                               #   in Loop: Header=BB4_62 Depth=2
	ld.d	$a1, $s8, 0
	ld.d	$a2, $s8, 8
.Ltmp88:
	pcaddu18i	$ra, %call36(_ZSt16__ostream_insertIcSt11char_traitsIcEERSt13basic_ostreamIT_T0_ES6_PKS3_l)
	jirl	$ra, $ra, 0
.Ltmp89:
# %bb.99:                               # %_ZN9benchmark8internallsINSt7__cxx1112basic_stringIcSt11char_traitsIcESaIcEEEEERNS0_7LogTypeES9_RKT_.exit122
                                        #   in Loop: Header=BB4_62 Depth=2
	ld.d	$a0, $s2, 0
	beqz	$a0, .LBB4_105
# %bb.100:                              #   in Loop: Header=BB4_62 Depth=2
.Ltmp90:
	pcalau12i	$a1, %pc_hi20(.L.str.9)
	addi.d	$a1, $a1, %pc_lo12(.L.str.9)
	ori	$a2, $zero, 15
	pcaddu18i	$ra, %call36(_ZSt16__ostream_insertIcSt11char_traitsIcEERSt13basic_ostreamIT_T0_ES6_PKS3_l)
	jirl	$ra, $ra, 0
.Ltmp91:
# %bb.101:                              # %_ZN9benchmark8internallsIA16_cEERNS0_7LogTypeES4_RKT_.exit
                                        #   in Loop: Header=BB4_62 Depth=2
	ld.d	$a0, $s2, 0
	beqz	$a0, .LBB4_105
# %bb.102:                              #   in Loop: Header=BB4_62 Depth=2
	ld.d	$a1, $s5, 0
	ld.d	$a2, $s5, 8
.Ltmp92:
	pcaddu18i	$ra, %call36(_ZSt16__ostream_insertIcSt11char_traitsIcEERSt13basic_ostreamIT_T0_ES6_PKS3_l)
	jirl	$ra, $ra, 0
.Ltmp93:
# %bb.103:                              # %_ZN9benchmark8internallsINSt7__cxx1112basic_stringIcSt11char_traitsIcESaIcEEEEERNS0_7LogTypeES9_RKT_.exit127
                                        #   in Loop: Header=BB4_62 Depth=2
	ld.d	$a0, $s2, 0
	beqz	$a0, .LBB4_105
# %bb.104:                              #   in Loop: Header=BB4_62 Depth=2
.Ltmp94:
	pcalau12i	$a1, %pc_hi20(.L.str.8)
	addi.d	$a1, $a1, %pc_lo12(.L.str.8)
	ori	$a2, $zero, 1
	pcaddu18i	$ra, %call36(_ZSt16__ostream_insertIcSt11char_traitsIcEERSt13basic_ostreamIT_T0_ES6_PKS3_l)
	jirl	$ra, $ra, 0
.Ltmp95:
	.p2align	4, , 16
.LBB4_105:                              # %_ZN9benchmark8internallsIA2_cEERNS0_7LogTypeES4_RKT_.exit130
                                        #   in Loop: Header=BB4_62 Depth=2
	ld.w	$a0, $s3, %pc_lo12(_ZZN9benchmark8internal8LogLevelEvE9log_level)
	blt	$a0, $fp, .LBB4_109
# %bb.106:                              #   in Loop: Header=BB4_62 Depth=2
	ld.b	$a0, $s1, %pc_lo12(_ZGVZN9benchmark8internal19GetErrorLogInstanceEvE9error_log)
	dbar	20
	pcalau12i	$a1, %pc_hi20(_ZZN9benchmark8internal19GetErrorLogInstanceEvE9error_log)
	addi.d	$s2, $a1, %pc_lo12(_ZZN9benchmark8internal19GetErrorLogInstanceEvE9error_log)
	bnez	$a0, .LBB4_110
# %bb.107:                              #   in Loop: Header=BB4_62 Depth=2
	pcalau12i	$a0, %pc_hi20(_ZGVZN9benchmark8internal19GetErrorLogInstanceEvE9error_log)
	addi.d	$s7, $a0, %pc_lo12(_ZGVZN9benchmark8internal19GetErrorLogInstanceEvE9error_log)
	move	$a0, $s7
	pcaddu18i	$ra, %call36(__cxa_guard_acquire)
	jirl	$ra, $ra, 0
	addi.w	$a0, $a0, 0
	beqz	$a0, .LBB4_110
# %bb.108:                              #   in Loop: Header=BB4_62 Depth=2
	pcalau12i	$a0, %got_pc_hi20(_ZSt4clog)
	ld.d	$a0, $a0, %got_pc_lo12(_ZSt4clog)
	pcalau12i	$a1, %pc_hi20(_ZZN9benchmark8internal19GetErrorLogInstanceEvE9error_log)
	addi.d	$s2, $a1, %pc_lo12(_ZZN9benchmark8internal19GetErrorLogInstanceEvE9error_log)
	st.d	$a0, $s2, 0
	b	.LBB4_149
.LBB4_109:                              #   in Loop: Header=BB4_62 Depth=2
	ld.d	$a0, $sp, 56                    # 8-byte Folded Reload
	ld.b	$a0, $a0, 0
	dbar	20
	ld.d	$s2, $sp, 48                    # 8-byte Folded Reload
	beqz	$a0, .LBB4_147
.LBB4_110:                              # %_ZN9benchmark8internal22GetLogInstanceForLevelEi.exit138
                                        #   in Loop: Header=BB4_62 Depth=2
	ld.d	$a0, $s2, 0
	beqz	$a0, .LBB4_122
# %bb.111:                              #   in Loop: Header=BB4_62 Depth=2
.Ltmp97:
	pcalau12i	$a1, %pc_hi20(.L.str.2)
	addi.d	$a1, $a1, %pc_lo12(.L.str.2)
	ori	$a2, $zero, 7
	pcaddu18i	$ra, %call36(_ZSt16__ostream_insertIcSt11char_traitsIcEERSt13basic_ostreamIT_T0_ES6_PKS3_l)
	jirl	$ra, $ra, 0
.Ltmp98:
# %bb.112:                              # %_ZN9benchmark8internallsIA8_cEERNS0_7LogTypeES4_RKT_.exit141
                                        #   in Loop: Header=BB4_62 Depth=2
	ld.d	$a0, $s2, 0
	beqz	$a0, .LBB4_122
# %bb.113:                              #   in Loop: Header=BB4_62 Depth=2
.Ltmp99:
	ori	$a1, $zero, 1
	pcaddu18i	$ra, %call36(_ZNSolsEi)
	jirl	$ra, $ra, 0
.Ltmp100:
# %bb.114:                              # %_ZN9benchmark8internallsIiEERNS0_7LogTypeES3_RKT_.exit144
                                        #   in Loop: Header=BB4_62 Depth=2
	ld.d	$a0, $s2, 0
	beqz	$a0, .LBB4_122
# %bb.115:                              #   in Loop: Header=BB4_62 Depth=2
.Ltmp101:
	pcalau12i	$a1, %pc_hi20(.L.str.3)
	addi.d	$a1, $a1, %pc_lo12(.L.str.3)
	ori	$a2, $zero, 3
	pcaddu18i	$ra, %call36(_ZSt16__ostream_insertIcSt11char_traitsIcEERSt13basic_ostreamIT_T0_ES6_PKS3_l)
	jirl	$ra, $ra, 0
.Ltmp102:
# %bb.116:                              # %_ZN9benchmark8internallsIA4_cEERNS0_7LogTypeES4_RKT_.exit147
                                        #   in Loop: Header=BB4_62 Depth=2
	ld.d	$a0, $s2, 0
	beqz	$a0, .LBB4_122
# %bb.117:                              #   in Loop: Header=BB4_62 Depth=2
.Ltmp103:
	pcalau12i	$a1, %pc_hi20(.L.str.10)
	addi.d	$a1, $a1, %pc_lo12(.L.str.10)
	ori	$a2, $zero, 20
	pcaddu18i	$ra, %call36(_ZSt16__ostream_insertIcSt11char_traitsIcEERSt13basic_ostreamIT_T0_ES6_PKS3_l)
	jirl	$ra, $ra, 0
.Ltmp104:
# %bb.118:                              # %_ZN9benchmark8internallsIA21_cEERNS0_7LogTypeES4_RKT_.exit
                                        #   in Loop: Header=BB4_62 Depth=2
	ld.d	$a0, $s2, 0
	beqz	$a0, .LBB4_122
# %bb.119:                              #   in Loop: Header=BB4_62 Depth=2
	ld.d	$a1, $s5, 0
	ld.d	$a2, $s5, 8
.Ltmp105:
	pcaddu18i	$ra, %call36(_ZSt16__ostream_insertIcSt11char_traitsIcEERSt13basic_ostreamIT_T0_ES6_PKS3_l)
	jirl	$ra, $ra, 0
.Ltmp106:
# %bb.120:                              # %_ZN9benchmark8internallsINSt7__cxx1112basic_stringIcSt11char_traitsIcESaIcEEEEERNS0_7LogTypeES9_RKT_.exit152
                                        #   in Loop: Header=BB4_62 Depth=2
	ld.d	$a0, $s2, 0
	beqz	$a0, .LBB4_122
# %bb.121:                              #   in Loop: Header=BB4_62 Depth=2
.Ltmp107:
	pcalau12i	$a1, %pc_hi20(.L.str.11)
	addi.d	$a1, $a1, %pc_lo12(.L.str.11)
	ori	$a2, $zero, 7
	pcaddu18i	$ra, %call36(_ZSt16__ostream_insertIcSt11char_traitsIcEERSt13basic_ostreamIT_T0_ES6_PKS3_l)
	jirl	$ra, $ra, 0
.Ltmp108:
	.p2align	4, , 16
.LBB4_122:                              # %_ZN9benchmark8internallsIA8_cEERNS0_7LogTypeES4_RKT_.exit155
                                        #   in Loop: Header=BB4_62 Depth=2
	ld.d	$a0, $s8, 104
	beqz	$a0, .LBB4_162
# %bb.123:                              #   in Loop: Header=BB4_62 Depth=2
	ld.d	$a2, $s8, 112
.Ltmp110:
	move	$a0, $s6
	move	$a1, $s5
	jirl	$ra, $a2, 0
.Ltmp111:
# %bb.124:                              # %_ZNKSt8functionIFvRK7ResultsEEclES2_.exit
                                        #   in Loop: Header=BB4_62 Depth=2
	ld.w	$a0, $s3, %pc_lo12(_ZZN9benchmark8internal8LogLevelEvE9log_level)
	blt	$a0, $fp, .LBB4_128
# %bb.125:                              #   in Loop: Header=BB4_62 Depth=2
	ld.b	$a0, $s1, %pc_lo12(_ZGVZN9benchmark8internal19GetErrorLogInstanceEvE9error_log)
	dbar	20
	pcalau12i	$a1, %pc_hi20(_ZZN9benchmark8internal19GetErrorLogInstanceEvE9error_log)
	addi.d	$s2, $a1, %pc_lo12(_ZZN9benchmark8internal19GetErrorLogInstanceEvE9error_log)
	bnez	$a0, .LBB4_129
# %bb.126:                              #   in Loop: Header=BB4_62 Depth=2
	pcalau12i	$a0, %pc_hi20(_ZGVZN9benchmark8internal19GetErrorLogInstanceEvE9error_log)
	addi.d	$s7, $a0, %pc_lo12(_ZGVZN9benchmark8internal19GetErrorLogInstanceEvE9error_log)
	move	$a0, $s7
	pcaddu18i	$ra, %call36(__cxa_guard_acquire)
	jirl	$ra, $ra, 0
	addi.w	$a0, $a0, 0
	beqz	$a0, .LBB4_129
# %bb.127:                              #   in Loop: Header=BB4_62 Depth=2
	pcalau12i	$a0, %got_pc_hi20(_ZSt4clog)
	ld.d	$a0, $a0, %got_pc_lo12(_ZSt4clog)
	pcalau12i	$a1, %pc_hi20(_ZZN9benchmark8internal19GetErrorLogInstanceEvE9error_log)
	addi.d	$s2, $a1, %pc_lo12(_ZZN9benchmark8internal19GetErrorLogInstanceEvE9error_log)
	st.d	$a0, $s2, 0
	b	.LBB4_152
.LBB4_128:                              #   in Loop: Header=BB4_62 Depth=2
	ld.d	$a0, $sp, 56                    # 8-byte Folded Reload
	ld.b	$a0, $a0, 0
	dbar	20
	ld.d	$s2, $sp, 48                    # 8-byte Folded Reload
	beqz	$a0, .LBB4_150
.LBB4_129:                              # %_ZN9benchmark8internal22GetLogInstanceForLevelEi.exit166
                                        #   in Loop: Header=BB4_62 Depth=2
	ld.d	$a0, $s2, 0
	beqz	$a0, .LBB4_61
# %bb.130:                              #   in Loop: Header=BB4_62 Depth=2
.Ltmp112:
	ori	$a2, $zero, 7
	ld.d	$a1, $sp, 40                    # 8-byte Folded Reload
	pcaddu18i	$ra, %call36(_ZSt16__ostream_insertIcSt11char_traitsIcEERSt13basic_ostreamIT_T0_ES6_PKS3_l)
	jirl	$ra, $ra, 0
.Ltmp113:
# %bb.131:                              # %_ZN9benchmark8internallsIA8_cEERNS0_7LogTypeES4_RKT_.exit169
                                        #   in Loop: Header=BB4_62 Depth=2
	ld.d	$a0, $s2, 0
	beqz	$a0, .LBB4_61
# %bb.132:                              #   in Loop: Header=BB4_62 Depth=2
.Ltmp115:
	ori	$a1, $zero, 1
	pcaddu18i	$ra, %call36(_ZNSolsEi)
	jirl	$ra, $ra, 0
.Ltmp116:
# %bb.133:                              # %_ZN9benchmark8internallsIiEERNS0_7LogTypeES3_RKT_.exit172
                                        #   in Loop: Header=BB4_62 Depth=2
	ld.d	$a0, $s2, 0
	beqz	$a0, .LBB4_61
# %bb.134:                              #   in Loop: Header=BB4_62 Depth=2
.Ltmp117:
	ori	$a2, $zero, 3
	ld.d	$a1, $sp, 24                    # 8-byte Folded Reload
	pcaddu18i	$ra, %call36(_ZSt16__ostream_insertIcSt11char_traitsIcEERSt13basic_ostreamIT_T0_ES6_PKS3_l)
	jirl	$ra, $ra, 0
.Ltmp118:
# %bb.135:                              # %_ZN9benchmark8internallsIA4_cEERNS0_7LogTypeES4_RKT_.exit175
                                        #   in Loop: Header=BB4_62 Depth=2
	ld.d	$a0, $s2, 0
	beqz	$a0, .LBB4_61
# %bb.136:                              #   in Loop: Header=BB4_62 Depth=2
.Ltmp119:
	ori	$a2, $zero, 20
	ld.d	$a1, $sp, 8                     # 8-byte Folded Reload
	pcaddu18i	$ra, %call36(_ZSt16__ostream_insertIcSt11char_traitsIcEERSt13basic_ostreamIT_T0_ES6_PKS3_l)
	jirl	$ra, $ra, 0
.Ltmp120:
# %bb.137:                              # %_ZN9benchmark8internallsIA21_cEERNS0_7LogTypeES4_RKT_.exit178
                                        #   in Loop: Header=BB4_62 Depth=2
	ld.d	$a0, $s2, 0
	beqz	$a0, .LBB4_61
# %bb.138:                              #   in Loop: Header=BB4_62 Depth=2
	ld.d	$a1, $s5, 0
	ld.d	$a2, $s5, 8
.Ltmp121:
	pcaddu18i	$ra, %call36(_ZSt16__ostream_insertIcSt11char_traitsIcEERSt13basic_ostreamIT_T0_ES6_PKS3_l)
	jirl	$ra, $ra, 0
.Ltmp122:
# %bb.139:                              # %_ZN9benchmark8internallsINSt7__cxx1112basic_stringIcSt11char_traitsIcESaIcEEEEERNS0_7LogTypeES9_RKT_.exit181
                                        #   in Loop: Header=BB4_62 Depth=2
	ld.d	$a0, $s2, 0
	beqz	$a0, .LBB4_61
# %bb.140:                              #   in Loop: Header=BB4_62 Depth=2
.Ltmp123:
	ori	$a2, $zero, 6
	ld.d	$a1, $sp, 0                     # 8-byte Folded Reload
	pcaddu18i	$ra, %call36(_ZSt16__ostream_insertIcSt11char_traitsIcEERSt13basic_ostreamIT_T0_ES6_PKS3_l)
	jirl	$ra, $ra, 0
.Ltmp124:
	b	.LBB4_61
.LBB4_141:                              #   in Loop: Header=BB4_62 Depth=2
	pcalau12i	$a0, %pc_hi20(_ZGVZN9benchmark8internal19GetErrorLogInstanceEvE9error_log)
	addi.d	$s2, $a0, %pc_lo12(_ZGVZN9benchmark8internal19GetErrorLogInstanceEvE9error_log)
	move	$a0, $s2
	pcaddu18i	$ra, %call36(__cxa_guard_acquire)
	jirl	$ra, $ra, 0
	addi.w	$a0, $a0, 0
	beqz	$a0, .LBB4_76
# %bb.142:                              #   in Loop: Header=BB4_62 Depth=2
	pcalau12i	$a0, %got_pc_hi20(_ZSt4clog)
	ld.d	$a0, $a0, %got_pc_lo12(_ZSt4clog)
	pcalau12i	$a1, %pc_hi20(_ZZN9benchmark8internal19GetErrorLogInstanceEvE9error_log)
	addi.d	$s7, $a1, %pc_lo12(_ZZN9benchmark8internal19GetErrorLogInstanceEvE9error_log)
	st.d	$a0, $s7, 0
.LBB4_143:                              # %_ZN9benchmark8internal19GetErrorLogInstanceEv.exit.sink.split.i79
                                        #   in Loop: Header=BB4_62 Depth=2
	move	$a0, $s2
	pcaddu18i	$ra, %call36(__cxa_guard_release)
	jirl	$ra, $ra, 0
	b	.LBB4_76
.LBB4_144:                              #   in Loop: Header=BB4_62 Depth=2
	pcalau12i	$a0, %pc_hi20(_ZGVZN9benchmark8internal19GetErrorLogInstanceEvE9error_log)
	addi.d	$s7, $a0, %pc_lo12(_ZGVZN9benchmark8internal19GetErrorLogInstanceEvE9error_log)
	move	$a0, $s7
	pcaddu18i	$ra, %call36(__cxa_guard_acquire)
	jirl	$ra, $ra, 0
	addi.w	$a0, $a0, 0
	beqz	$a0, .LBB4_91
# %bb.145:                              #   in Loop: Header=BB4_62 Depth=2
	pcalau12i	$a0, %got_pc_hi20(_ZSt4clog)
	ld.d	$a0, $a0, %got_pc_lo12(_ZSt4clog)
	pcalau12i	$a1, %pc_hi20(_ZZN9benchmark8internal19GetErrorLogInstanceEvE9error_log)
	addi.d	$s2, $a1, %pc_lo12(_ZZN9benchmark8internal19GetErrorLogInstanceEvE9error_log)
	st.d	$a0, $s2, 0
.LBB4_146:                              # %_ZN9benchmark8internal19GetErrorLogInstanceEv.exit.sink.split.i106
                                        #   in Loop: Header=BB4_62 Depth=2
	move	$a0, $s7
	pcaddu18i	$ra, %call36(__cxa_guard_release)
	jirl	$ra, $ra, 0
	b	.LBB4_91
.LBB4_147:                              #   in Loop: Header=BB4_62 Depth=2
	ld.d	$a0, $sp, 56                    # 8-byte Folded Reload
	pcaddu18i	$ra, %call36(__cxa_guard_acquire)
	jirl	$ra, $ra, 0
	addi.w	$a0, $a0, 0
	ld.d	$s2, $sp, 48                    # 8-byte Folded Reload
	beqz	$a0, .LBB4_110
# %bb.148:                              #   in Loop: Header=BB4_62 Depth=2
	ld.d	$s2, $sp, 48                    # 8-byte Folded Reload
	st.d	$zero, $s2, 0
	ld.d	$s7, $sp, 56                    # 8-byte Folded Reload
.LBB4_149:                              # %_ZN9benchmark8internal19GetErrorLogInstanceEv.exit.sink.split.i134
                                        #   in Loop: Header=BB4_62 Depth=2
	move	$a0, $s7
	pcaddu18i	$ra, %call36(__cxa_guard_release)
	jirl	$ra, $ra, 0
	b	.LBB4_110
.LBB4_150:                              #   in Loop: Header=BB4_62 Depth=2
	ld.d	$a0, $sp, 56                    # 8-byte Folded Reload
	pcaddu18i	$ra, %call36(__cxa_guard_acquire)
	jirl	$ra, $ra, 0
	addi.w	$a0, $a0, 0
	ld.d	$s2, $sp, 48                    # 8-byte Folded Reload
	beqz	$a0, .LBB4_129
# %bb.151:                              #   in Loop: Header=BB4_62 Depth=2
	ld.d	$s2, $sp, 48                    # 8-byte Folded Reload
	st.d	$zero, $s2, 0
	ld.d	$s7, $sp, 56                    # 8-byte Folded Reload
.LBB4_152:                              # %_ZN9benchmark8internal19GetErrorLogInstanceEv.exit.sink.split.i162
                                        #   in Loop: Header=BB4_62 Depth=2
	move	$a0, $s7
	pcaddu18i	$ra, %call36(__cxa_guard_release)
	jirl	$ra, $ra, 0
	b	.LBB4_129
.LBB4_153:                              #   in Loop: Header=BB4_29 Depth=1
	pcalau12i	$a0, %pc_hi20(_ZGVZN9benchmark8internal19GetErrorLogInstanceEvE9error_log)
	addi.d	$s5, $a0, %pc_lo12(_ZGVZN9benchmark8internal19GetErrorLogInstanceEvE9error_log)
	move	$a0, $s5
	pcaddu18i	$ra, %call36(__cxa_guard_acquire)
	jirl	$ra, $ra, 0
	addi.w	$a0, $a0, 0
	beqz	$a0, .LBB4_34
# %bb.154:                              #   in Loop: Header=BB4_29 Depth=1
	pcalau12i	$a0, %got_pc_hi20(_ZSt4clog)
	ld.d	$a0, $a0, %got_pc_lo12(_ZSt4clog)
	pcalau12i	$a1, %pc_hi20(_ZZN9benchmark8internal19GetErrorLogInstanceEvE9error_log)
	addi.d	$s0, $a1, %pc_lo12(_ZZN9benchmark8internal19GetErrorLogInstanceEvE9error_log)
	st.d	$a0, $s0, 0
.LBB4_155:                              # %_ZN9benchmark8internal19GetErrorLogInstanceEv.exit.sink.split.i
                                        #   in Loop: Header=BB4_29 Depth=1
	move	$a0, $s5
	pcaddu18i	$ra, %call36(__cxa_guard_release)
	jirl	$ra, $ra, 0
	b	.LBB4_34
.LBB4_156:                              #   in Loop: Header=BB4_29 Depth=1
	pcalau12i	$a0, %pc_hi20(_ZGVZN9benchmark8internal19GetErrorLogInstanceEvE9error_log)
	addi.d	$s5, $a0, %pc_lo12(_ZGVZN9benchmark8internal19GetErrorLogInstanceEvE9error_log)
	move	$a0, $s5
	pcaddu18i	$ra, %call36(__cxa_guard_acquire)
	jirl	$ra, $ra, 0
	addi.w	$a0, $a0, 0
	beqz	$a0, .LBB4_47
# %bb.157:                              #   in Loop: Header=BB4_29 Depth=1
	pcalau12i	$a0, %got_pc_hi20(_ZSt4clog)
	ld.d	$a0, $a0, %got_pc_lo12(_ZSt4clog)
	pcalau12i	$a1, %pc_hi20(_ZZN9benchmark8internal19GetErrorLogInstanceEvE9error_log)
	addi.d	$s0, $a1, %pc_lo12(_ZZN9benchmark8internal19GetErrorLogInstanceEvE9error_log)
	st.d	$a0, $s0, 0
.LBB4_158:                              # %_ZN9benchmark8internal19GetErrorLogInstanceEv.exit.sink.split.i54
                                        #   in Loop: Header=BB4_29 Depth=1
	move	$a0, $s5
	pcaddu18i	$ra, %call36(__cxa_guard_release)
	jirl	$ra, $ra, 0
	b	.LBB4_47
.LBB4_159:                              # %._crit_edge351
	ld.d	$a0, $sp, 88
	addi.d	$a1, $sp, 104
	beq	$a0, $a1, .LBB4_161
# %bb.160:                              # %_ZNKSt7__cxx1112basic_stringIcSt11char_traitsIcESaIcEE11_M_is_localEv.exit.i.i
	ld.d	$a1, $sp, 104
	addi.d	$a1, $a1, 1
	pcaddu18i	$ra, %call36(_ZdlPvm)
	jirl	$ra, $ra, 0
.LBB4_161:                              # %_ZNSt7__cxx1112basic_stringIcSt11char_traitsIcESaIcEED2Ev.exit
	ld.d	$s8, $sp, 152                   # 8-byte Folded Reload
	ld.d	$s7, $sp, 160                   # 8-byte Folded Reload
	ld.d	$s6, $sp, 168                   # 8-byte Folded Reload
	ld.d	$s5, $sp, 176                   # 8-byte Folded Reload
	ld.d	$s4, $sp, 184                   # 8-byte Folded Reload
	ld.d	$s3, $sp, 192                   # 8-byte Folded Reload
	ld.d	$s2, $sp, 200                   # 8-byte Folded Reload
	ld.d	$s1, $sp, 208                   # 8-byte Folded Reload
	ld.d	$s0, $sp, 216                   # 8-byte Folded Reload
	ld.d	$fp, $sp, 224                   # 8-byte Folded Reload
	ld.d	$ra, $sp, 232                   # 8-byte Folded Reload
	addi.d	$sp, $sp, 240
	ret
.LBB4_162:
.Ltmp126:
	pcaddu18i	$ra, %call36(_ZSt25__throw_bad_function_callv)
	jirl	$ra, $ra, 0
.Ltmp127:
# %bb.163:                              # %.noexc157
.LBB4_164:                              # %.loopexit353
.Ltmp27:
	pcalau12i	$a0, %pc_hi20(.L.str)
	addi.d	$a1, $a0, %pc_lo12(.L.str)
	pcalau12i	$a0, %pc_hi20(.L.str.1)
	addi.d	$a2, $a0, %pc_lo12(.L.str.1)
	pcalau12i	$a0, %pc_hi20(.L__func__._ZN8internal14ResultsChecker12CheckResultsERNSt7__cxx1118basic_stringstreamIcSt11char_traitsIcESaIcEEE)
	addi.d	$a3, $a0, %pc_lo12(.L__func__._ZN8internal14ResultsChecker12CheckResultsERNSt7__cxx1118basic_stringstreamIcSt11char_traitsIcESaIcEEE)
	addi.d	$a0, $sp, 120
	ori	$a4, $zero, 235
	pcaddu18i	$ra, %call36(_ZN9benchmark8internal12CheckHandlerC2EPKcS3_S3_i)
	jirl	$ra, $ra, 0
.Ltmp28:
# %bb.165:                              # %_ZN9benchmark8internal18GetNullLogInstanceEv.exit
.Ltmp29:
	addi.d	$a0, $sp, 120
	pcaddu18i	$ra, %call36(_ZN9benchmark8internal12CheckHandlerD2Ev)
	jirl	$ra, $ra, 0
.Ltmp30:
# %bb.166:
.LBB4_167:                              # %.loopexit354
.Ltmp129:
	pcaddu18i	$ra, %call36(_ZSt16__throw_bad_castv)
	jirl	$ra, $ra, 0
.Ltmp130:
# %bb.168:                              # %.noexc
.LBB4_169:
	pcalau12i	$a0, %pc_hi20(_ZGVZN9benchmark8internal18GetNullLogInstanceEvE8null_log)
	addi.d	$a0, $a0, %pc_lo12(_ZGVZN9benchmark8internal18GetNullLogInstanceEvE8null_log)
	pcaddu18i	$ra, %call36(__cxa_guard_acquire)
	jirl	$ra, $ra, 0
	addi.w	$a0, $a0, 0
	beqz	$a0, .LBB4_5
# %bb.170:
	pcalau12i	$a0, %pc_hi20(_ZZN9benchmark8internal18GetNullLogInstanceEvE8null_log)
	st.d	$zero, $a0, %pc_lo12(_ZZN9benchmark8internal18GetNullLogInstanceEvE8null_log)
	pcalau12i	$a0, %pc_hi20(_ZGVZN9benchmark8internal18GetNullLogInstanceEvE8null_log)
	addi.d	$a0, $a0, %pc_lo12(_ZGVZN9benchmark8internal18GetNullLogInstanceEvE8null_log)
	pcaddu18i	$ra, %call36(__cxa_guard_release)
	jirl	$ra, $ra, 0
	b	.LBB4_5
.LBB4_171:                              # %.loopexit333.loopexit.split-lp
.Ltmp26:
	ld.d	$a2, $sp, 88
	addi.d	$a1, $sp, 104
	beq	$a2, $a1, .LBB4_184
	b	.LBB4_188
.LBB4_172:                              # %.loopexit.split-lp334
.Ltmp131:
	ld.d	$a2, $sp, 88
	addi.d	$a1, $sp, 104
	beq	$a2, $a1, .LBB4_184
	b	.LBB4_188
.LBB4_173:
.Ltmp31:
	ld.d	$a2, $sp, 88
	addi.d	$a1, $sp, 104
	beq	$a2, $a1, .LBB4_184
	b	.LBB4_188
.LBB4_174:
.Ltmp49:
	ld.d	$a2, $sp, 88
	addi.d	$a1, $sp, 104
	beq	$a2, $a1, .LBB4_184
	b	.LBB4_188
.LBB4_175:
.Ltmp63:
	ld.d	$a2, $sp, 88
	addi.d	$a1, $sp, 104
	beq	$a2, $a1, .LBB4_184
	b	.LBB4_188
.LBB4_176:                              # %.loopexit333.loopexit
.Ltmp40:
	ld.d	$a2, $sp, 88
	addi.d	$a1, $sp, 104
	beq	$a2, $a1, .LBB4_184
	b	.LBB4_188
.LBB4_177:
.Ltmp52:
	ld.d	$a2, $sp, 88
	addi.d	$a1, $sp, 104
	beq	$a2, $a1, .LBB4_184
	b	.LBB4_188
.LBB4_178:
.Ltmp109:
	ld.d	$a2, $sp, 88
	addi.d	$a1, $sp, 104
	beq	$a2, $a1, .LBB4_184
	b	.LBB4_188
.LBB4_179:
.Ltmp125:
	ld.d	$a2, $sp, 88
	addi.d	$a1, $sp, 104
	beq	$a2, $a1, .LBB4_184
	b	.LBB4_188
.LBB4_180:
.Ltmp96:
	ld.d	$a2, $sp, 88
	addi.d	$a1, $sp, 104
	beq	$a2, $a1, .LBB4_184
	b	.LBB4_188
.LBB4_181:                              # %.loopexit.split-lp
.Ltmp128:
	ld.d	$a2, $sp, 88
	addi.d	$a1, $sp, 104
	beq	$a2, $a1, .LBB4_184
	b	.LBB4_188
.LBB4_182:
.Ltmp66:
	ld.d	$a2, $sp, 120
	bnez	$a2, .LBB4_185
# %bb.183:                              # %.body
	ld.d	$a2, $sp, 88
	addi.d	$a1, $sp, 104
	bne	$a2, $a1, .LBB4_188
.LBB4_184:                              # %_ZNSt7__cxx1112basic_stringIcSt11char_traitsIcESaIcEED2Ev.exit186
	pcaddu18i	$ra, %call36(_Unwind_Resume)
	jirl	$ra, $ra, 0
.LBB4_185:
	ld.d	$a1, $sp, 136
	sub.d	$a1, $a1, $a2
	move	$fp, $a0
	move	$a0, $a2
	pcaddu18i	$ra, %call36(_ZdlPvm)
	jirl	$ra, $ra, 0
	move	$a0, $fp
	ld.d	$a2, $sp, 88
	addi.d	$a1, $sp, 104
	beq	$a2, $a1, .LBB4_184
	b	.LBB4_188
.LBB4_186:
.Ltmp81:
	ld.d	$a2, $sp, 88
	addi.d	$a1, $sp, 104
	beq	$a2, $a1, .LBB4_184
	b	.LBB4_188
.LBB4_187:                              # %.loopexit
.Ltmp114:
	ld.d	$a2, $sp, 88
	addi.d	$a1, $sp, 104
	beq	$a2, $a1, .LBB4_184
.LBB4_188:                              # %_ZNKSt7__cxx1112basic_stringIcSt11char_traitsIcESaIcEE11_M_is_localEv.exit.i.i184
	ld.d	$a1, $sp, 104
	addi.d	$a1, $a1, 1
	move	$fp, $a0
	move	$a0, $a2
	pcaddu18i	$ra, %call36(_ZdlPvm)
	jirl	$ra, $ra, 0
	move	$a0, $fp
	pcaddu18i	$ra, %call36(_Unwind_Resume)
	jirl	$ra, $ra, 0
.Lfunc_end4:
	.size	_ZN8internal14ResultsChecker12CheckResultsERNSt7__cxx1118basic_stringstreamIcSt11char_traitsIcESaIcEEE, .Lfunc_end4-_ZN8internal14ResultsChecker12CheckResultsERNSt7__cxx1118basic_stringstreamIcSt11char_traitsIcESaIcEEE
	.cfi_endproc
	.section	.gcc_except_table,"a",@progbits
	.p2align	2, 0x0
GCC_except_table4:
.Lexception2:
	.byte	255                             # @LPStart Encoding = omit
	.byte	255                             # @TType Encoding = omit
	.byte	1                               # Call site Encoding = uleb128
	.uleb128 .Lcst_end2-.Lcst_begin2
.Lcst_begin2:
	.uleb128 .Lfunc_begin2-.Lfunc_begin2    # >> Call Site 1 <<
	.uleb128 .Ltmp18-.Lfunc_begin2          #   Call between .Lfunc_begin2 and .Ltmp18
	.byte	0                               #     has no landing pad
	.byte	0                               #   On action: cleanup
	.uleb128 .Ltmp18-.Lfunc_begin2          # >> Call Site 2 <<
	.uleb128 .Ltmp25-.Ltmp18                #   Call between .Ltmp18 and .Ltmp25
	.uleb128 .Ltmp26-.Lfunc_begin2          #     jumps to .Ltmp26
	.byte	0                               #   On action: cleanup
	.uleb128 .Ltmp32-.Lfunc_begin2          # >> Call Site 3 <<
	.uleb128 .Ltmp39-.Ltmp32                #   Call between .Ltmp32 and .Ltmp39
	.uleb128 .Ltmp40-.Lfunc_begin2          #     jumps to .Ltmp40
	.byte	0                               #   On action: cleanup
	.uleb128 .Ltmp39-.Lfunc_begin2          # >> Call Site 4 <<
	.uleb128 .Ltmp41-.Ltmp39                #   Call between .Ltmp39 and .Ltmp41
	.byte	0                               #     has no landing pad
	.byte	0                               #   On action: cleanup
	.uleb128 .Ltmp41-.Lfunc_begin2          # >> Call Site 5 <<
	.uleb128 .Ltmp42-.Ltmp41                #   Call between .Ltmp41 and .Ltmp42
	.uleb128 .Ltmp52-.Lfunc_begin2          #     jumps to .Ltmp52
	.byte	0                               #   On action: cleanup
	.uleb128 .Ltmp43-.Lfunc_begin2          # >> Call Site 6 <<
	.uleb128 .Ltmp48-.Ltmp43                #   Call between .Ltmp43 and .Ltmp48
	.uleb128 .Ltmp49-.Lfunc_begin2          #     jumps to .Ltmp49
	.byte	0                               #   On action: cleanup
	.uleb128 .Ltmp48-.Lfunc_begin2          # >> Call Site 7 <<
	.uleb128 .Ltmp50-.Ltmp48                #   Call between .Ltmp48 and .Ltmp50
	.byte	0                               #     has no landing pad
	.byte	0                               #   On action: cleanup
	.uleb128 .Ltmp50-.Lfunc_begin2          # >> Call Site 8 <<
	.uleb128 .Ltmp51-.Ltmp50                #   Call between .Ltmp50 and .Ltmp51
	.uleb128 .Ltmp52-.Lfunc_begin2          #     jumps to .Ltmp52
	.byte	0                               #   On action: cleanup
	.uleb128 .Ltmp53-.Lfunc_begin2          # >> Call Site 9 <<
	.uleb128 .Ltmp62-.Ltmp53                #   Call between .Ltmp53 and .Ltmp62
	.uleb128 .Ltmp63-.Lfunc_begin2          #     jumps to .Ltmp63
	.byte	0                               #   On action: cleanup
	.uleb128 .Ltmp64-.Lfunc_begin2          # >> Call Site 10 <<
	.uleb128 .Ltmp65-.Ltmp64                #   Call between .Ltmp64 and .Ltmp65
	.uleb128 .Ltmp66-.Lfunc_begin2          #     jumps to .Ltmp66
	.byte	0                               #   On action: cleanup
	.uleb128 .Ltmp65-.Lfunc_begin2          # >> Call Site 11 <<
	.uleb128 .Ltmp67-.Ltmp65                #   Call between .Ltmp65 and .Ltmp67
	.byte	0                               #     has no landing pad
	.byte	0                               #   On action: cleanup
	.uleb128 .Ltmp67-.Lfunc_begin2          # >> Call Site 12 <<
	.uleb128 .Ltmp68-.Ltmp67                #   Call between .Ltmp67 and .Ltmp68
	.uleb128 .Ltmp114-.Lfunc_begin2         #     jumps to .Ltmp114
	.byte	0                               #   On action: cleanup
	.uleb128 .Ltmp69-.Lfunc_begin2          # >> Call Site 13 <<
	.uleb128 .Ltmp80-.Ltmp69                #   Call between .Ltmp69 and .Ltmp80
	.uleb128 .Ltmp81-.Lfunc_begin2          #     jumps to .Ltmp81
	.byte	0                               #   On action: cleanup
	.uleb128 .Ltmp82-.Lfunc_begin2          # >> Call Site 14 <<
	.uleb128 .Ltmp83-.Ltmp82                #   Call between .Ltmp82 and .Ltmp83
	.uleb128 .Ltmp114-.Lfunc_begin2         #     jumps to .Ltmp114
	.byte	0                               #   On action: cleanup
	.uleb128 .Ltmp84-.Lfunc_begin2          # >> Call Site 15 <<
	.uleb128 .Ltmp95-.Ltmp84                #   Call between .Ltmp84 and .Ltmp95
	.uleb128 .Ltmp96-.Lfunc_begin2          #     jumps to .Ltmp96
	.byte	0                               #   On action: cleanup
	.uleb128 .Ltmp95-.Lfunc_begin2          # >> Call Site 16 <<
	.uleb128 .Ltmp97-.Ltmp95                #   Call between .Ltmp95 and .Ltmp97
	.byte	0                               #     has no landing pad
	.byte	0                               #   On action: cleanup
	.uleb128 .Ltmp97-.Lfunc_begin2          # >> Call Site 17 <<
	.uleb128 .Ltmp98-.Ltmp97                #   Call between .Ltmp97 and .Ltmp98
	.uleb128 .Ltmp114-.Lfunc_begin2         #     jumps to .Ltmp114
	.byte	0                               #   On action: cleanup
	.uleb128 .Ltmp99-.Lfunc_begin2          # >> Call Site 18 <<
	.uleb128 .Ltmp108-.Ltmp99               #   Call between .Ltmp99 and .Ltmp108
	.uleb128 .Ltmp109-.Lfunc_begin2         #     jumps to .Ltmp109
	.byte	0                               #   On action: cleanup
	.uleb128 .Ltmp110-.Lfunc_begin2         # >> Call Site 19 <<
	.uleb128 .Ltmp111-.Ltmp110              #   Call between .Ltmp110 and .Ltmp111
	.uleb128 .Ltmp114-.Lfunc_begin2         #     jumps to .Ltmp114
	.byte	0                               #   On action: cleanup
	.uleb128 .Ltmp111-.Lfunc_begin2         # >> Call Site 20 <<
	.uleb128 .Ltmp112-.Ltmp111              #   Call between .Ltmp111 and .Ltmp112
	.byte	0                               #     has no landing pad
	.byte	0                               #   On action: cleanup
	.uleb128 .Ltmp112-.Lfunc_begin2         # >> Call Site 21 <<
	.uleb128 .Ltmp113-.Ltmp112              #   Call between .Ltmp112 and .Ltmp113
	.uleb128 .Ltmp114-.Lfunc_begin2         #     jumps to .Ltmp114
	.byte	0                               #   On action: cleanup
	.uleb128 .Ltmp115-.Lfunc_begin2         # >> Call Site 22 <<
	.uleb128 .Ltmp124-.Ltmp115              #   Call between .Ltmp115 and .Ltmp124
	.uleb128 .Ltmp125-.Lfunc_begin2         #     jumps to .Ltmp125
	.byte	0                               #   On action: cleanup
	.uleb128 .Ltmp124-.Lfunc_begin2         # >> Call Site 23 <<
	.uleb128 .Ltmp126-.Ltmp124              #   Call between .Ltmp124 and .Ltmp126
	.byte	0                               #     has no landing pad
	.byte	0                               #   On action: cleanup
	.uleb128 .Ltmp126-.Lfunc_begin2         # >> Call Site 24 <<
	.uleb128 .Ltmp127-.Ltmp126              #   Call between .Ltmp126 and .Ltmp127
	.uleb128 .Ltmp128-.Lfunc_begin2         #     jumps to .Ltmp128
	.byte	0                               #   On action: cleanup
	.uleb128 .Ltmp27-.Lfunc_begin2          # >> Call Site 25 <<
	.uleb128 .Ltmp30-.Ltmp27                #   Call between .Ltmp27 and .Ltmp30
	.uleb128 .Ltmp31-.Lfunc_begin2          #     jumps to .Ltmp31
	.byte	0                               #   On action: cleanup
	.uleb128 .Ltmp129-.Lfunc_begin2         # >> Call Site 26 <<
	.uleb128 .Ltmp130-.Ltmp129              #   Call between .Ltmp129 and .Ltmp130
	.uleb128 .Ltmp131-.Lfunc_begin2         #     jumps to .Ltmp131
	.byte	0                               #   On action: cleanup
	.uleb128 .Ltmp130-.Lfunc_begin2         # >> Call Site 27 <<
	.uleb128 .Lfunc_end4-.Ltmp130           #   Call between .Ltmp130 and .Lfunc_end4
	.byte	0                               #     has no landing pad
	.byte	0                               #   On action: cleanup
.Lcst_end2:
	.p2align	2, 0x0
                                        # -- End function
	.section	.text._ZN9benchmark8internal12CheckHandlerC2EPKcS3_S3_i,"axG",@progbits,_ZN9benchmark8internal12CheckHandlerC2EPKcS3_S3_i,comdat
	.hidden	_ZN9benchmark8internal12CheckHandlerC2EPKcS3_S3_i # -- Begin function _ZN9benchmark8internal12CheckHandlerC2EPKcS3_S3_i
	.weak	_ZN9benchmark8internal12CheckHandlerC2EPKcS3_S3_i
	.p2align	5
	.type	_ZN9benchmark8internal12CheckHandlerC2EPKcS3_S3_i,@function
_ZN9benchmark8internal12CheckHandlerC2EPKcS3_S3_i: # @_ZN9benchmark8internal12CheckHandlerC2EPKcS3_S3_i
	.cfi_startproc
# %bb.0:
	addi.d	$sp, $sp, -64
	.cfi_def_cfa_offset 64
	st.d	$ra, $sp, 56                    # 8-byte Folded Spill
	st.d	$fp, $sp, 48                    # 8-byte Folded Spill
	st.d	$s0, $sp, 40                    # 8-byte Folded Spill
	st.d	$s1, $sp, 32                    # 8-byte Folded Spill
	st.d	$s2, $sp, 24                    # 8-byte Folded Spill
	st.d	$s3, $sp, 16                    # 8-byte Folded Spill
	st.d	$s4, $sp, 8                     # 8-byte Folded Spill
	.cfi_offset 1, -8
	.cfi_offset 22, -16
	.cfi_offset 23, -24
	.cfi_offset 24, -32
	.cfi_offset 25, -40
	.cfi_offset 26, -48
	.cfi_offset 27, -56
	pcalau12i	$a5, %pc_hi20(_ZGVZN9benchmark8internal19GetErrorLogInstanceEvE9error_log)
	ld.b	$a5, $a5, %pc_lo12(_ZGVZN9benchmark8internal19GetErrorLogInstanceEvE9error_log)
	move	$s1, $a4
	move	$s0, $a3
	move	$fp, $a1
	dbar	20
	pcalau12i	$a1, %pc_hi20(_ZZN9benchmark8internal19GetErrorLogInstanceEvE9error_log)
	addi.d	$s4, $a1, %pc_lo12(_ZZN9benchmark8internal19GetErrorLogInstanceEvE9error_log)
	beqz	$a5, .LBB5_18
.LBB5_1:                                # %_ZN9benchmark8internal19GetErrorLogInstanceEv.exit
	ld.d	$s2, $s4, 0
	st.d	$s4, $a0, 0
	beqz	$s2, .LBB5_17
# %bb.2:
	beqz	$a2, .LBB5_4
# %bb.3:
	move	$a0, $a2
	move	$s3, $a2
	pcaddu18i	$ra, %call36(strlen)
	jirl	$ra, $ra, 0
	move	$a2, $a0
	move	$a0, $s2
	move	$a1, $s3
	pcaddu18i	$ra, %call36(_ZSt16__ostream_insertIcSt11char_traitsIcEERSt13basic_ostreamIT_T0_ES6_PKS3_l)
	jirl	$ra, $ra, 0
	ld.d	$a0, $s4, 0
	bnez	$a0, .LBB5_5
	b	.LBB5_17
.LBB5_4:
	ld.d	$a0, $s2, 0
	ld.d	$a0, $a0, -24
	add.d	$a0, $s2, $a0
	ld.w	$a1, $a0, 32
	ori	$a1, $a1, 1
	pcaddu18i	$ra, %call36(_ZNSt9basic_iosIcSt11char_traitsIcEE5clearESt12_Ios_Iostate)
	jirl	$ra, $ra, 0
	ld.d	$a0, $s4, 0
	beqz	$a0, .LBB5_17
.LBB5_5:                                # %_ZN9benchmark8internallsIA2_cEERNS0_7LogTypeES4_RKT_.exit
	pcalau12i	$a1, %pc_hi20(.L.str.45)
	addi.d	$a1, $a1, %pc_lo12(.L.str.45)
	ori	$a2, $zero, 1
	pcaddu18i	$ra, %call36(_ZSt16__ostream_insertIcSt11char_traitsIcEERSt13basic_ostreamIT_T0_ES6_PKS3_l)
	jirl	$ra, $ra, 0
	ld.d	$a0, $s4, 0
	beqz	$a0, .LBB5_17
# %bb.6:                                # %_ZN9benchmark8internallsIiEERNS0_7LogTypeES3_RKT_.exit
	move	$a1, $s1
	pcaddu18i	$ra, %call36(_ZNSolsEi)
	jirl	$ra, $ra, 0
	ld.d	$a0, $s4, 0
	beqz	$a0, .LBB5_17
# %bb.7:                                # %_ZN9benchmark8internallsIA3_cEERNS0_7LogTypeES4_RKT_.exit
	pcalau12i	$a1, %pc_hi20(.L.str.46)
	addi.d	$a1, $a1, %pc_lo12(.L.str.46)
	ori	$a2, $zero, 2
	pcaddu18i	$ra, %call36(_ZSt16__ostream_insertIcSt11char_traitsIcEERSt13basic_ostreamIT_T0_ES6_PKS3_l)
	jirl	$ra, $ra, 0
	ld.d	$s1, $s4, 0
	beqz	$s1, .LBB5_17
# %bb.8:
	beqz	$s0, .LBB5_10
# %bb.9:
	move	$a0, $s0
	pcaddu18i	$ra, %call36(strlen)
	jirl	$ra, $ra, 0
	move	$a2, $a0
	move	$a0, $s1
	move	$a1, $s0
	pcaddu18i	$ra, %call36(_ZSt16__ostream_insertIcSt11char_traitsIcEERSt13basic_ostreamIT_T0_ES6_PKS3_l)
	jirl	$ra, $ra, 0
	ld.d	$a0, $s4, 0
	bnez	$a0, .LBB5_11
	b	.LBB5_17
.LBB5_10:
	ld.d	$a0, $s1, 0
	ld.d	$a0, $a0, -24
	add.d	$a0, $s1, $a0
	ld.w	$a1, $a0, 32
	ori	$a1, $a1, 1
	pcaddu18i	$ra, %call36(_ZNSt9basic_iosIcSt11char_traitsIcEE5clearESt12_Ios_Iostate)
	jirl	$ra, $ra, 0
	ld.d	$a0, $s4, 0
	beqz	$a0, .LBB5_17
.LBB5_11:                               # %_ZN9benchmark8internallsIA10_cEERNS0_7LogTypeES4_RKT_.exit
	pcalau12i	$a1, %pc_hi20(.L.str.47)
	addi.d	$a1, $a1, %pc_lo12(.L.str.47)
	ori	$a2, $zero, 9
	pcaddu18i	$ra, %call36(_ZSt16__ostream_insertIcSt11char_traitsIcEERSt13basic_ostreamIT_T0_ES6_PKS3_l)
	jirl	$ra, $ra, 0
	ld.d	$s0, $s4, 0
	beqz	$s0, .LBB5_17
# %bb.12:
	beqz	$fp, .LBB5_14
# %bb.13:
	move	$a0, $fp
	pcaddu18i	$ra, %call36(strlen)
	jirl	$ra, $ra, 0
	move	$a2, $a0
	move	$a0, $s0
	move	$a1, $fp
	pcaddu18i	$ra, %call36(_ZSt16__ostream_insertIcSt11char_traitsIcEERSt13basic_ostreamIT_T0_ES6_PKS3_l)
	jirl	$ra, $ra, 0
	b	.LBB5_15
.LBB5_14:
	ld.d	$a0, $s0, 0
	ld.d	$a0, $a0, -24
	add.d	$a0, $s0, $a0
	ld.w	$a1, $a0, 32
	ori	$a1, $a1, 1
	pcaddu18i	$ra, %call36(_ZNSt9basic_iosIcSt11char_traitsIcEE5clearESt12_Ios_Iostate)
	jirl	$ra, $ra, 0
.LBB5_15:                               # %_ZN9benchmark8internallsIPKcEERNS0_7LogTypeES5_RKT_.exit11
	ld.d	$a0, $s4, 0
	beqz	$a0, .LBB5_17
# %bb.16:
	pcalau12i	$a1, %pc_hi20(.L.str.48)
	addi.d	$a1, $a1, %pc_lo12(.L.str.48)
	ori	$a2, $zero, 10
	ld.d	$s4, $sp, 8                     # 8-byte Folded Reload
	ld.d	$s3, $sp, 16                    # 8-byte Folded Reload
	ld.d	$s2, $sp, 24                    # 8-byte Folded Reload
	ld.d	$s1, $sp, 32                    # 8-byte Folded Reload
	ld.d	$s0, $sp, 40                    # 8-byte Folded Reload
	ld.d	$fp, $sp, 48                    # 8-byte Folded Reload
	ld.d	$ra, $sp, 56                    # 8-byte Folded Reload
	addi.d	$sp, $sp, 64
	pcaddu18i	$t8, %call36(_ZSt16__ostream_insertIcSt11char_traitsIcEERSt13basic_ostreamIT_T0_ES6_PKS3_l)
	jr	$t8
.LBB5_17:                               # %_ZN9benchmark8internallsIA11_cEERNS0_7LogTypeES4_RKT_.exit
	ld.d	$s4, $sp, 8                     # 8-byte Folded Reload
	ld.d	$s3, $sp, 16                    # 8-byte Folded Reload
	ld.d	$s2, $sp, 24                    # 8-byte Folded Reload
	ld.d	$s1, $sp, 32                    # 8-byte Folded Reload
	ld.d	$s0, $sp, 40                    # 8-byte Folded Reload
	ld.d	$fp, $sp, 48                    # 8-byte Folded Reload
	ld.d	$ra, $sp, 56                    # 8-byte Folded Reload
	addi.d	$sp, $sp, 64
	ret
.LBB5_18:
	pcalau12i	$a1, %pc_hi20(_ZGVZN9benchmark8internal19GetErrorLogInstanceEvE9error_log)
	addi.d	$a1, $a1, %pc_lo12(_ZGVZN9benchmark8internal19GetErrorLogInstanceEvE9error_log)
	move	$s2, $a0
	move	$a0, $a1
	move	$s3, $a2
	pcaddu18i	$ra, %call36(__cxa_guard_acquire)
	jirl	$ra, $ra, 0
	move	$a2, $s3
	move	$a1, $a0
	move	$a0, $s2
	addi.w	$a1, $a1, 0
	beqz	$a1, .LBB5_1
# %bb.19:
	pcalau12i	$a0, %got_pc_hi20(_ZSt4clog)
	ld.d	$a0, $a0, %got_pc_lo12(_ZSt4clog)
	st.d	$a0, $s4, 0
	pcalau12i	$a0, %pc_hi20(_ZGVZN9benchmark8internal19GetErrorLogInstanceEvE9error_log)
	addi.d	$a0, $a0, %pc_lo12(_ZGVZN9benchmark8internal19GetErrorLogInstanceEvE9error_log)
	pcaddu18i	$ra, %call36(__cxa_guard_release)
	jirl	$ra, $ra, 0
	move	$a0, $s2
	move	$a2, $s3
	b	.LBB5_1
.Lfunc_end5:
	.size	_ZN9benchmark8internal12CheckHandlerC2EPKcS3_S3_i, .Lfunc_end5-_ZN9benchmark8internal12CheckHandlerC2EPKcS3_S3_i
	.cfi_endproc
                                        # -- End function
	.section	.text._ZN9benchmark8internal12CheckHandlerD2Ev,"axG",@progbits,_ZN9benchmark8internal12CheckHandlerD2Ev,comdat
	.hidden	_ZN9benchmark8internal12CheckHandlerD2Ev # -- Begin function _ZN9benchmark8internal12CheckHandlerD2Ev
	.weak	_ZN9benchmark8internal12CheckHandlerD2Ev
	.p2align	5
	.type	_ZN9benchmark8internal12CheckHandlerD2Ev,@function
_ZN9benchmark8internal12CheckHandlerD2Ev: # @_ZN9benchmark8internal12CheckHandlerD2Ev
	.cfi_startproc
# %bb.0:
	addi.d	$sp, $sp, -32
	.cfi_def_cfa_offset 32
	st.d	$ra, $sp, 24                    # 8-byte Folded Spill
	st.d	$fp, $sp, 16                    # 8-byte Folded Spill
	st.d	$s0, $sp, 8                     # 8-byte Folded Spill
	.cfi_offset 1, -8
	.cfi_offset 22, -16
	.cfi_offset 23, -24
	ld.d	$a0, $a0, 0
	ld.d	$fp, $a0, 0
	beqz	$fp, .LBB6_7
# %bb.1:
	ld.d	$a0, $fp, 0
	ld.d	$a0, $a0, -24
	add.d	$a0, $fp, $a0
	ld.d	$s0, $a0, 240
	bnez	$s0, .LBB6_3
# %bb.2:
	pcaddu18i	$ra, %call36(_ZSt16__throw_bad_castv)
	jirl	$ra, $ra, 0
.LBB6_3:                                # %_ZSt13__check_facetISt5ctypeIcEERKT_PS3_.exit.i.i
	ld.bu	$a0, $s0, 56
	bnez	$a0, .LBB6_5
# %bb.4:
	move	$a0, $s0
	pcaddu18i	$ra, %call36(_ZNKSt5ctypeIcE13_M_widen_initEv)
	jirl	$ra, $ra, 0
	ld.d	$a0, $s0, 0
	ld.d	$a2, $a0, 48
	ori	$a1, $zero, 10
	move	$a0, $s0
	jirl	$ra, $a2, 0
	b	.LBB6_6
.LBB6_5:
	ld.bu	$a0, $s0, 67
.LBB6_6:                                # %_ZSt4endlIcSt11char_traitsIcEERSt13basic_ostreamIT_T0_ES6_.exit
	ext.w.b	$a1, $a0
	move	$a0, $fp
	pcaddu18i	$ra, %call36(_ZNSo3putEc)
	jirl	$ra, $ra, 0
	pcaddu18i	$ra, %call36(_ZNSo5flushEv)
	jirl	$ra, $ra, 0
.LBB6_7:                                # %_ZN9benchmark8internallsERNS0_7LogTypeEPFRSoS3_E.exit
	pcaddu18i	$ra, %call36(_ZN9benchmark8internal16CallAbortHandlerEv)
	jirl	$ra, $ra, 0
.Lfunc_end6:
	.size	_ZN9benchmark8internal12CheckHandlerD2Ev, .Lfunc_end6-_ZN9benchmark8internal12CheckHandlerD2Ev
	.cfi_endproc
                                        # -- End function
	.section	.text.__clang_call_terminate,"axG",@progbits,__clang_call_terminate,comdat
	.hidden	__clang_call_terminate          # -- Begin function __clang_call_terminate
	.weak	__clang_call_terminate
	.p2align	5
	.type	__clang_call_terminate,@function
__clang_call_terminate:                 # @__clang_call_terminate
# %bb.0:
	addi.d	$sp, $sp, -16
	st.d	$ra, $sp, 8                     # 8-byte Folded Spill
	pcaddu18i	$ra, %call36(__cxa_begin_catch)
	jirl	$ra, $ra, 0
	pcaddu18i	$ra, %call36(_ZSt9terminatev)
	jirl	$ra, $ra, 0
.Lfunc_end7:
	.size	__clang_call_terminate, .Lfunc_end7-__clang_call_terminate
                                        # -- End function
	.text
	.hidden	_ZN8internal14ResultsChecker10SetHeader_ERKNSt7__cxx1112basic_stringIcSt11char_traitsIcESaIcEEE # -- Begin function _ZN8internal14ResultsChecker10SetHeader_ERKNSt7__cxx1112basic_stringIcSt11char_traitsIcESaIcEEE
	.globl	_ZN8internal14ResultsChecker10SetHeader_ERKNSt7__cxx1112basic_stringIcSt11char_traitsIcESaIcEEE
	.p2align	5
	.type	_ZN8internal14ResultsChecker10SetHeader_ERKNSt7__cxx1112basic_stringIcSt11char_traitsIcESaIcEEE,@function
_ZN8internal14ResultsChecker10SetHeader_ERKNSt7__cxx1112basic_stringIcSt11char_traitsIcESaIcEEE: # @_ZN8internal14ResultsChecker10SetHeader_ERKNSt7__cxx1112basic_stringIcSt11char_traitsIcESaIcEEE
	.cfi_startproc
# %bb.0:
	addi.d	$sp, $sp, -64
	.cfi_def_cfa_offset 64
	st.d	$ra, $sp, 56                    # 8-byte Folded Spill
	st.d	$fp, $sp, 48                    # 8-byte Folded Spill
	st.d	$s0, $sp, 40                    # 8-byte Folded Spill
	st.d	$s1, $sp, 32                    # 8-byte Folded Spill
	st.d	$s2, $sp, 24                    # 8-byte Folded Spill
	.cfi_offset 1, -8
	.cfi_offset 22, -16
	.cfi_offset 23, -24
	.cfi_offset 24, -32
	.cfi_offset 25, -40
	move	$a2, $a1
	move	$s0, $a0
	addi.d	$a0, $sp, 0
	move	$a1, $s0
	pcaddu18i	$ra, %call36(_ZN8internal14ResultsChecker9SplitCsv_ERKNSt7__cxx1112basic_stringIcSt11char_traitsIcESaIcEEE)
	jirl	$ra, $ra, 0
	ld.d	$fp, $s0, 48
	vld	$vr0, $sp, 0
	ld.d	$a0, $sp, 16
	ld.d	$s2, $s0, 56
	ld.d	$s1, $s0, 64
	vst	$vr0, $s0, 48
	st.d	$a0, $s0, 64
	st.d	$zero, $sp, 16
	vrepli.b	$vr0, 0
	vst	$vr0, $sp, 0
	beq	$fp, $s2, .LBB8_5
# %bb.1:                                # %.lr.ph.i.i.i.i.i.preheader
	addi.d	$s0, $fp, 16
	b	.LBB8_3
	.p2align	4, , 16
.LBB8_2:                                # %_ZSt8_DestroyINSt7__cxx1112basic_stringIcSt11char_traitsIcESaIcEEEEvPT_.exit.i.i.i.i.i
                                        #   in Loop: Header=BB8_3 Depth=1
	addi.d	$a0, $s0, 16
	addi.d	$s0, $s0, 32
	beq	$a0, $s2, .LBB8_5
.LBB8_3:                                # %.lr.ph.i.i.i.i.i
                                        # =>This Inner Loop Header: Depth=1
	ld.d	$a0, $s0, -16
	beq	$s0, $a0, .LBB8_2
# %bb.4:                                # %_ZNKSt7__cxx1112basic_stringIcSt11char_traitsIcESaIcEE11_M_is_localEv.exit.i.i.i.i.i.i.i.i
                                        #   in Loop: Header=BB8_3 Depth=1
	ld.d	$a1, $s0, 0
	addi.d	$a1, $a1, 1
	pcaddu18i	$ra, %call36(_ZdlPvm)
	jirl	$ra, $ra, 0
	b	.LBB8_2
.LBB8_5:                                # %_ZSt8_DestroyIPNSt7__cxx1112basic_stringIcSt11char_traitsIcESaIcEEES5_EvT_S7_RSaIT0_E.exit.i.i.i
	beqz	$fp, .LBB8_7
# %bb.6:
	sub.d	$a1, $s1, $fp
	move	$a0, $fp
	pcaddu18i	$ra, %call36(_ZdlPvm)
	jirl	$ra, $ra, 0
.LBB8_7:                                # %_ZNSt6vectorINSt7__cxx1112basic_stringIcSt11char_traitsIcESaIcEEESaIS5_EEaSEOS7_.exit
	ld.d	$a0, $sp, 0
	ld.d	$fp, $sp, 8
	beq	$a0, $fp, .LBB8_13
# %bb.8:                                # %.lr.ph.i.i.i.preheader
	addi.d	$s0, $a0, 16
	b	.LBB8_10
	.p2align	4, , 16
.LBB8_9:                                # %_ZSt8_DestroyINSt7__cxx1112basic_stringIcSt11char_traitsIcESaIcEEEEvPT_.exit.i.i.i
                                        #   in Loop: Header=BB8_10 Depth=1
	addi.d	$a0, $s0, 16
	addi.d	$s0, $s0, 32
	beq	$a0, $fp, .LBB8_12
.LBB8_10:                               # %.lr.ph.i.i.i
                                        # =>This Inner Loop Header: Depth=1
	ld.d	$a0, $s0, -16
	beq	$s0, $a0, .LBB8_9
# %bb.11:                               # %_ZNKSt7__cxx1112basic_stringIcSt11char_traitsIcESaIcEE11_M_is_localEv.exit.i.i.i.i.i.i
                                        #   in Loop: Header=BB8_10 Depth=1
	ld.d	$a1, $s0, 0
	addi.d	$a1, $a1, 1
	pcaddu18i	$ra, %call36(_ZdlPvm)
	jirl	$ra, $ra, 0
	b	.LBB8_9
.LBB8_12:                               # %_ZSt8_DestroyIPNSt7__cxx1112basic_stringIcSt11char_traitsIcESaIcEEES5_EvT_S7_RSaIT0_E.exitthread-pre-split.i
	ld.d	$a0, $sp, 0
.LBB8_13:                               # %_ZSt8_DestroyIPNSt7__cxx1112basic_stringIcSt11char_traitsIcESaIcEEES5_EvT_S7_RSaIT0_E.exit.i
	beqz	$a0, .LBB8_15
# %bb.14:
	ld.d	$a1, $sp, 16
	sub.d	$a1, $a1, $a0
	pcaddu18i	$ra, %call36(_ZdlPvm)
	jirl	$ra, $ra, 0
.LBB8_15:                               # %_ZNSt6vectorINSt7__cxx1112basic_stringIcSt11char_traitsIcESaIcEEESaIS5_EED2Ev.exit
	ld.d	$s2, $sp, 24                    # 8-byte Folded Reload
	ld.d	$s1, $sp, 32                    # 8-byte Folded Reload
	ld.d	$s0, $sp, 40                    # 8-byte Folded Reload
	ld.d	$fp, $sp, 48                    # 8-byte Folded Reload
	ld.d	$ra, $sp, 56                    # 8-byte Folded Reload
	addi.d	$sp, $sp, 64
	ret
.Lfunc_end8:
	.size	_ZN8internal14ResultsChecker10SetHeader_ERKNSt7__cxx1112basic_stringIcSt11char_traitsIcESaIcEEE, .Lfunc_end8-_ZN8internal14ResultsChecker10SetHeader_ERKNSt7__cxx1112basic_stringIcSt11char_traitsIcESaIcEEE
	.cfi_endproc
                                        # -- End function
	.hidden	_ZN8internal14ResultsChecker10SetValues_ERKNSt7__cxx1112basic_stringIcSt11char_traitsIcESaIcEEE # -- Begin function _ZN8internal14ResultsChecker10SetValues_ERKNSt7__cxx1112basic_stringIcSt11char_traitsIcESaIcEEE
	.globl	_ZN8internal14ResultsChecker10SetValues_ERKNSt7__cxx1112basic_stringIcSt11char_traitsIcESaIcEEE
	.p2align	5
	.type	_ZN8internal14ResultsChecker10SetValues_ERKNSt7__cxx1112basic_stringIcSt11char_traitsIcESaIcEEE,@function
_ZN8internal14ResultsChecker10SetValues_ERKNSt7__cxx1112basic_stringIcSt11char_traitsIcESaIcEEE: # @_ZN8internal14ResultsChecker10SetValues_ERKNSt7__cxx1112basic_stringIcSt11char_traitsIcESaIcEEE
.Lfunc_begin3:
	.cfi_startproc
	.cfi_personality 155, DW.ref.__gxx_personality_v0
	.cfi_lsda 27, .Lexception3
# %bb.0:
	addi.d	$sp, $sp, -80
	.cfi_def_cfa_offset 80
	st.d	$ra, $sp, 72                    # 8-byte Folded Spill
	st.d	$fp, $sp, 64                    # 8-byte Folded Spill
	st.d	$s0, $sp, 56                    # 8-byte Folded Spill
	st.d	$s1, $sp, 48                    # 8-byte Folded Spill
	st.d	$s2, $sp, 40                    # 8-byte Folded Spill
	st.d	$s3, $sp, 32                    # 8-byte Folded Spill
	.cfi_offset 1, -8
	.cfi_offset 22, -16
	.cfi_offset 23, -24
	.cfi_offset 24, -32
	.cfi_offset 25, -40
	.cfi_offset 26, -48
	move	$s0, $a1
	ld.d	$a1, $a1, 8
	beqz	$a1, .LBB9_29
# %bb.1:
	move	$fp, $a0
	ld.d	$a0, $a0, 48
	ld.d	$a1, $fp, 56
	beq	$a0, $a1, .LBB9_30
# %bb.2:
	pcalau12i	$s1, %pc_hi20(_ZGVZN9benchmark8internal18GetNullLogInstanceEvE8null_log)
	ld.b	$a0, $s1, %pc_lo12(_ZGVZN9benchmark8internal18GetNullLogInstanceEvE8null_log)
	dbar	20
	beqz	$a0, .LBB9_31
.LBB9_3:
	addi.d	$a0, $sp, 0
	move	$a1, $fp
	move	$a2, $s0
	pcaddu18i	$ra, %call36(_ZN8internal14ResultsChecker9SplitCsv_ERKNSt7__cxx1112basic_stringIcSt11char_traitsIcESaIcEEE)
	jirl	$ra, $ra, 0
	ld.d	$a0, $sp, 8
	ld.d	$a1, $sp, 0
	ld.d	$a2, $fp, 56
	ld.d	$a3, $fp, 48
	sub.d	$a0, $a0, $a1
	sub.d	$a1, $a2, $a3
	bne	$a0, $a1, .LBB9_33
# %bb.4:
	ld.b	$a0, $s1, %pc_lo12(_ZGVZN9benchmark8internal18GetNullLogInstanceEvE8null_log)
	dbar	20
	beqz	$a0, .LBB9_36
.LBB9_5:
	ld.d	$s0, $fp, 32
	ld.d	$a0, $fp, 40
	ld.d	$a1, $sp, 0
	beq	$s0, $a0, .LBB9_12
# %bb.6:
	addi.d	$a0, $s0, 16
	st.d	$a0, $s0, 0
	ld.d	$s1, $a1, 8
	ld.d	$s2, $a1, 0
	ori	$a1, $zero, 16
	st.d	$s1, $sp, 24
	bltu	$s1, $a1, .LBB9_9
# %bb.7:                                # %.noexc.i.i.i
.Ltmp137:
	addi.d	$a1, $sp, 24
	move	$a0, $s0
	move	$a2, $zero
	pcaddu18i	$ra, %call36(_ZNSt7__cxx1112basic_stringIcSt11char_traitsIcESaIcEE9_M_createERmm)
	jirl	$ra, $ra, 0
.Ltmp138:
# %bb.8:                                # %.noexc
	st.d	$a0, $s0, 0
	ld.d	$a1, $sp, 24
	st.d	$a1, $s0, 16
.LBB9_9:                                # %._crit_edge.i.i.i.i
	beqz	$s1, .LBB9_14
# %bb.10:                               # %._crit_edge.i.i.i.i
	ori	$a1, $zero, 1
	bne	$s1, $a1, .LBB9_13
# %bb.11:
	ld.b	$a1, $s2, 0
	st.b	$a1, $a0, 0
	b	.LBB9_14
.LBB9_12:
	addi.d	$a0, $fp, 24
.Ltmp139:
	pcaddu18i	$ra, %call36(_ZNSt6vectorI7ResultsSaIS0_EE17_M_realloc_appendIJRNSt7__cxx1112basic_stringIcSt11char_traitsIcESaIcEEEEEEvDpOT_)
	jirl	$ra, $ra, 0
.Ltmp140:
	b	.LBB9_15
.LBB9_13:
	move	$a1, $s2
	move	$a2, $s1
	pcaddu18i	$ra, %call36(memcpy)
	jirl	$ra, $ra, 0
.LBB9_14:                               # %_ZN7ResultsC2ERKNSt7__cxx1112basic_stringIcSt11char_traitsIcESaIcEEE.exit.i
	ld.d	$a0, $sp, 24
	ld.d	$a1, $s0, 0
	st.d	$a0, $s0, 8
	stx.b	$zero, $a1, $a0
	addi.d	$a0, $s0, 40
	st.w	$zero, $s0, 40
	st.d	$zero, $s0, 48
	st.d	$a0, $s0, 56
	st.d	$a0, $s0, 64
	st.d	$zero, $s0, 72
	ld.d	$a0, $fp, 32
	addi.d	$a0, $a0, 80
	st.d	$a0, $fp, 32
.LBB9_15:                               # %_ZNSt6vectorI7ResultsSaIS0_EE12emplace_backIJRNSt7__cxx1112basic_stringIcSt11char_traitsIcESaIcEEEEEERS0_DpOT_.exit
	ld.d	$s0, $sp, 8
	ld.d	$a0, $sp, 0
	sub.d	$a1, $s0, $a0
	srai.d	$a1, $a1, 5
	ori	$a2, $zero, 2
	bltu	$a1, $a2, .LBB9_21
# %bb.16:                               # %.lr.ph
	ld.d	$a0, $fp, 32
	addi.d	$s0, $a0, -48
	addi.d	$s1, $a1, -1
	ori	$s2, $zero, 32
	.p2align	4, , 16
.LBB9_17:                               # =>This Inner Loop Header: Depth=1
	ld.d	$a0, $fp, 48
	ld.d	$s3, $sp, 0
	add.d	$a1, $a0, $s2
.Ltmp142:
	move	$a0, $s0
	pcaddu18i	$ra, %call36(_ZNSt3mapINSt7__cxx1112basic_stringIcSt11char_traitsIcESaIcEEES5_St4lessIS5_ESaISt4pairIKS5_S5_EEEixERS9_)
	jirl	$ra, $ra, 0
.Ltmp143:
# %bb.18:                               #   in Loop: Header=BB9_17 Depth=1
	add.d	$a1, $s3, $s2
.Ltmp144:
	pcaddu18i	$ra, %call36(_ZNSt7__cxx1112basic_stringIcSt11char_traitsIcESaIcEE9_M_assignERKS4_)
	jirl	$ra, $ra, 0
.Ltmp145:
# %bb.19:                               # %_ZNSt7__cxx1112basic_stringIcSt11char_traitsIcESaIcEEaSERKS4_.exit
                                        #   in Loop: Header=BB9_17 Depth=1
	addi.d	$s1, $s1, -1
	addi.d	$s2, $s2, 32
	bnez	$s1, .LBB9_17
# %bb.20:                               # %._crit_edge.loopexit
	ld.d	$a0, $sp, 0
	ld.d	$s0, $sp, 8
.LBB9_21:                               # %._crit_edge
	beq	$a0, $s0, .LBB9_27
# %bb.22:                               # %.lr.ph.i.i.i.preheader
	addi.d	$fp, $a0, 16
	b	.LBB9_24
	.p2align	4, , 16
.LBB9_23:                               # %_ZSt8_DestroyINSt7__cxx1112basic_stringIcSt11char_traitsIcESaIcEEEEvPT_.exit.i.i.i
                                        #   in Loop: Header=BB9_24 Depth=1
	addi.d	$a0, $fp, 16
	addi.d	$fp, $fp, 32
	beq	$a0, $s0, .LBB9_26
.LBB9_24:                               # %.lr.ph.i.i.i
                                        # =>This Inner Loop Header: Depth=1
	ld.d	$a0, $fp, -16
	beq	$fp, $a0, .LBB9_23
# %bb.25:                               # %_ZNKSt7__cxx1112basic_stringIcSt11char_traitsIcESaIcEE11_M_is_localEv.exit.i.i.i.i.i.i
                                        #   in Loop: Header=BB9_24 Depth=1
	ld.d	$a1, $fp, 0
	addi.d	$a1, $a1, 1
	pcaddu18i	$ra, %call36(_ZdlPvm)
	jirl	$ra, $ra, 0
	b	.LBB9_23
.LBB9_26:                               # %_ZSt8_DestroyIPNSt7__cxx1112basic_stringIcSt11char_traitsIcESaIcEEES5_EvT_S7_RSaIT0_E.exitthread-pre-split.i
	ld.d	$a0, $sp, 0
.LBB9_27:                               # %_ZSt8_DestroyIPNSt7__cxx1112basic_stringIcSt11char_traitsIcESaIcEEES5_EvT_S7_RSaIT0_E.exit.i
	beqz	$a0, .LBB9_29
# %bb.28:
	ld.d	$a1, $sp, 16
	sub.d	$a1, $a1, $a0
	pcaddu18i	$ra, %call36(_ZdlPvm)
	jirl	$ra, $ra, 0
.LBB9_29:
	ld.d	$s3, $sp, 32                    # 8-byte Folded Reload
	ld.d	$s2, $sp, 40                    # 8-byte Folded Reload
	ld.d	$s1, $sp, 48                    # 8-byte Folded Reload
	ld.d	$s0, $sp, 56                    # 8-byte Folded Reload
	ld.d	$fp, $sp, 64                    # 8-byte Folded Reload
	ld.d	$ra, $sp, 72                    # 8-byte Folded Reload
	addi.d	$sp, $sp, 80
	ret
.LBB9_30:
	pcalau12i	$a0, %pc_hi20(.L.str.13)
	addi.d	$a1, $a0, %pc_lo12(.L.str.13)
	pcalau12i	$a0, %pc_hi20(.L.str.1)
	addi.d	$a2, $a0, %pc_lo12(.L.str.1)
	pcalau12i	$a0, %pc_hi20(.L__func__._ZN8internal14ResultsChecker10SetValues_ERKNSt7__cxx1112basic_stringIcSt11char_traitsIcESaIcEEE)
	addi.d	$a3, $a0, %pc_lo12(.L__func__._ZN8internal14ResultsChecker10SetValues_ERKNSt7__cxx1112basic_stringIcSt11char_traitsIcESaIcEEE)
	addi.d	$a0, $sp, 0
	ori	$a4, $zero, 269
	pcaddu18i	$ra, %call36(_ZN9benchmark8internal12CheckHandlerC2EPKcS3_S3_i)
	jirl	$ra, $ra, 0
	addi.d	$a0, $sp, 0
	pcaddu18i	$ra, %call36(_ZN9benchmark8internal12CheckHandlerD2Ev)
	jirl	$ra, $ra, 0
.LBB9_31:
	pcalau12i	$a0, %pc_hi20(_ZGVZN9benchmark8internal18GetNullLogInstanceEvE8null_log)
	addi.d	$a0, $a0, %pc_lo12(_ZGVZN9benchmark8internal18GetNullLogInstanceEvE8null_log)
	pcaddu18i	$ra, %call36(__cxa_guard_acquire)
	jirl	$ra, $ra, 0
	addi.w	$a0, $a0, 0
	beqz	$a0, .LBB9_3
# %bb.32:
	pcalau12i	$a0, %pc_hi20(_ZZN9benchmark8internal18GetNullLogInstanceEvE8null_log)
	st.d	$zero, $a0, %pc_lo12(_ZZN9benchmark8internal18GetNullLogInstanceEvE8null_log)
	pcalau12i	$a0, %pc_hi20(_ZGVZN9benchmark8internal18GetNullLogInstanceEvE8null_log)
	addi.d	$a0, $a0, %pc_lo12(_ZGVZN9benchmark8internal18GetNullLogInstanceEvE8null_log)
	pcaddu18i	$ra, %call36(__cxa_guard_release)
	jirl	$ra, $ra, 0
	b	.LBB9_3
.LBB9_33:
.Ltmp132:
	pcalau12i	$a0, %pc_hi20(.L.str.14)
	addi.d	$a1, $a0, %pc_lo12(.L.str.14)
	pcalau12i	$a0, %pc_hi20(.L.str.1)
	addi.d	$a2, $a0, %pc_lo12(.L.str.1)
	pcalau12i	$a0, %pc_hi20(.L__func__._ZN8internal14ResultsChecker10SetValues_ERKNSt7__cxx1112basic_stringIcSt11char_traitsIcESaIcEEE)
	addi.d	$a3, $a0, %pc_lo12(.L__func__._ZN8internal14ResultsChecker10SetValues_ERKNSt7__cxx1112basic_stringIcSt11char_traitsIcESaIcEEE)
	addi.d	$a0, $sp, 24
	ori	$a4, $zero, 271
	pcaddu18i	$ra, %call36(_ZN9benchmark8internal12CheckHandlerC2EPKcS3_S3_i)
	jirl	$ra, $ra, 0
.Ltmp133:
# %bb.34:                               # %_ZN9benchmark8internal18GetNullLogInstanceEv.exit22
.Ltmp134:
	addi.d	$a0, $sp, 24
	pcaddu18i	$ra, %call36(_ZN9benchmark8internal12CheckHandlerD2Ev)
	jirl	$ra, $ra, 0
.Ltmp135:
# %bb.35:
.LBB9_36:
	pcalau12i	$a0, %pc_hi20(_ZGVZN9benchmark8internal18GetNullLogInstanceEvE8null_log)
	addi.d	$a0, $a0, %pc_lo12(_ZGVZN9benchmark8internal18GetNullLogInstanceEvE8null_log)
	pcaddu18i	$ra, %call36(__cxa_guard_acquire)
	jirl	$ra, $ra, 0
	addi.w	$a0, $a0, 0
	beqz	$a0, .LBB9_5
# %bb.37:
	pcalau12i	$a0, %pc_hi20(_ZZN9benchmark8internal18GetNullLogInstanceEvE8null_log)
	st.d	$zero, $a0, %pc_lo12(_ZZN9benchmark8internal18GetNullLogInstanceEvE8null_log)
	pcalau12i	$a0, %pc_hi20(_ZGVZN9benchmark8internal18GetNullLogInstanceEvE8null_log)
	addi.d	$a0, $a0, %pc_lo12(_ZGVZN9benchmark8internal18GetNullLogInstanceEvE8null_log)
	pcaddu18i	$ra, %call36(__cxa_guard_release)
	jirl	$ra, $ra, 0
	b	.LBB9_5
.LBB9_38:
.Ltmp141:
	b	.LBB9_41
.LBB9_39:
.Ltmp136:
	b	.LBB9_41
.LBB9_40:
.Ltmp146:
.LBB9_41:
	move	$fp, $a0
	addi.d	$a0, $sp, 0
	pcaddu18i	$ra, %call36(_ZNSt6vectorINSt7__cxx1112basic_stringIcSt11char_traitsIcESaIcEEESaIS5_EED2Ev)
	jirl	$ra, $ra, 0
	move	$a0, $fp
	pcaddu18i	$ra, %call36(_Unwind_Resume)
	jirl	$ra, $ra, 0
.Lfunc_end9:
	.size	_ZN8internal14ResultsChecker10SetValues_ERKNSt7__cxx1112basic_stringIcSt11char_traitsIcESaIcEEE, .Lfunc_end9-_ZN8internal14ResultsChecker10SetValues_ERKNSt7__cxx1112basic_stringIcSt11char_traitsIcESaIcEEE
	.cfi_endproc
	.section	.gcc_except_table,"a",@progbits
	.p2align	2, 0x0
GCC_except_table9:
.Lexception3:
	.byte	255                             # @LPStart Encoding = omit
	.byte	255                             # @TType Encoding = omit
	.byte	1                               # Call site Encoding = uleb128
	.uleb128 .Lcst_end3-.Lcst_begin3
.Lcst_begin3:
	.uleb128 .Lfunc_begin3-.Lfunc_begin3    # >> Call Site 1 <<
	.uleb128 .Ltmp137-.Lfunc_begin3         #   Call between .Lfunc_begin3 and .Ltmp137
	.byte	0                               #     has no landing pad
	.byte	0                               #   On action: cleanup
	.uleb128 .Ltmp137-.Lfunc_begin3         # >> Call Site 2 <<
	.uleb128 .Ltmp140-.Ltmp137              #   Call between .Ltmp137 and .Ltmp140
	.uleb128 .Ltmp141-.Lfunc_begin3         #     jumps to .Ltmp141
	.byte	0                               #   On action: cleanup
	.uleb128 .Ltmp140-.Lfunc_begin3         # >> Call Site 3 <<
	.uleb128 .Ltmp142-.Ltmp140              #   Call between .Ltmp140 and .Ltmp142
	.byte	0                               #     has no landing pad
	.byte	0                               #   On action: cleanup
	.uleb128 .Ltmp142-.Lfunc_begin3         # >> Call Site 4 <<
	.uleb128 .Ltmp145-.Ltmp142              #   Call between .Ltmp142 and .Ltmp145
	.uleb128 .Ltmp146-.Lfunc_begin3         #     jumps to .Ltmp146
	.byte	0                               #   On action: cleanup
	.uleb128 .Ltmp145-.Lfunc_begin3         # >> Call Site 5 <<
	.uleb128 .Ltmp132-.Ltmp145              #   Call between .Ltmp145 and .Ltmp132
	.byte	0                               #     has no landing pad
	.byte	0                               #   On action: cleanup
	.uleb128 .Ltmp132-.Lfunc_begin3         # >> Call Site 6 <<
	.uleb128 .Ltmp135-.Ltmp132              #   Call between .Ltmp132 and .Ltmp135
	.uleb128 .Ltmp136-.Lfunc_begin3         #     jumps to .Ltmp136
	.byte	0                               #   On action: cleanup
	.uleb128 .Ltmp135-.Lfunc_begin3         # >> Call Site 7 <<
	.uleb128 .Lfunc_end9-.Ltmp135           #   Call between .Ltmp135 and .Lfunc_end9
	.byte	0                               #     has no landing pad
	.byte	0                               #   On action: cleanup
.Lcst_end3:
	.p2align	2, 0x0
                                        # -- End function
	.section	.text._ZN9benchmark8internallsINSt7__cxx1112basic_stringIcSt11char_traitsIcESaIcEEEEERNS0_7LogTypeES9_RKT_,"axG",@progbits,_ZN9benchmark8internallsINSt7__cxx1112basic_stringIcSt11char_traitsIcESaIcEEEEERNS0_7LogTypeES9_RKT_,comdat
	.hidden	_ZN9benchmark8internallsINSt7__cxx1112basic_stringIcSt11char_traitsIcESaIcEEEEERNS0_7LogTypeES9_RKT_ # -- Begin function _ZN9benchmark8internallsINSt7__cxx1112basic_stringIcSt11char_traitsIcESaIcEEEEERNS0_7LogTypeES9_RKT_
	.weak	_ZN9benchmark8internallsINSt7__cxx1112basic_stringIcSt11char_traitsIcESaIcEEEEERNS0_7LogTypeES9_RKT_
	.p2align	5
	.type	_ZN9benchmark8internallsINSt7__cxx1112basic_stringIcSt11char_traitsIcESaIcEEEEERNS0_7LogTypeES9_RKT_,@function
_ZN9benchmark8internallsINSt7__cxx1112basic_stringIcSt11char_traitsIcESaIcEEEEERNS0_7LogTypeES9_RKT_: # @_ZN9benchmark8internallsINSt7__cxx1112basic_stringIcSt11char_traitsIcESaIcEEEEERNS0_7LogTypeES9_RKT_
	.cfi_startproc
# %bb.0:
	ld.d	$a4, $a0, 0
	beqz	$a4, .LBB10_2
# %bb.1:
	addi.d	$sp, $sp, -16
	.cfi_def_cfa_offset 16
	st.d	$ra, $sp, 8                     # 8-byte Folded Spill
	st.d	$fp, $sp, 0                     # 8-byte Folded Spill
	.cfi_offset 1, -8
	.cfi_offset 22, -16
	ld.d	$a3, $a1, 0
	ld.d	$a2, $a1, 8
	move	$fp, $a0
	move	$a0, $a4
	move	$a1, $a3
	pcaddu18i	$ra, %call36(_ZSt16__ostream_insertIcSt11char_traitsIcEERSt13basic_ostreamIT_T0_ES6_PKS3_l)
	jirl	$ra, $ra, 0
	move	$a0, $fp
	ld.d	$fp, $sp, 0                     # 8-byte Folded Reload
	ld.d	$ra, $sp, 8                     # 8-byte Folded Reload
	addi.d	$sp, $sp, 16
.LBB10_2:
	ret
.Lfunc_end10:
	.size	_ZN9benchmark8internallsINSt7__cxx1112basic_stringIcSt11char_traitsIcESaIcEEEEERNS0_7LogTypeES9_RKT_, .Lfunc_end10-_ZN9benchmark8internallsINSt7__cxx1112basic_stringIcSt11char_traitsIcESaIcEEEEERNS0_7LogTypeES9_RKT_
	.cfi_endproc
                                        # -- End function
	.section	.text._ZN9benchmark8internallsIA20_cEERNS0_7LogTypeES4_RKT_,"axG",@progbits,_ZN9benchmark8internallsIA20_cEERNS0_7LogTypeES4_RKT_,comdat
	.hidden	_ZN9benchmark8internallsIA20_cEERNS0_7LogTypeES4_RKT_ # -- Begin function _ZN9benchmark8internallsIA20_cEERNS0_7LogTypeES4_RKT_
	.weak	_ZN9benchmark8internallsIA20_cEERNS0_7LogTypeES4_RKT_
	.p2align	5
	.type	_ZN9benchmark8internallsIA20_cEERNS0_7LogTypeES4_RKT_,@function
_ZN9benchmark8internallsIA20_cEERNS0_7LogTypeES4_RKT_: # @_ZN9benchmark8internallsIA20_cEERNS0_7LogTypeES4_RKT_
	.cfi_startproc
# %bb.0:
	addi.d	$sp, $sp, -32
	.cfi_def_cfa_offset 32
	st.d	$ra, $sp, 24                    # 8-byte Folded Spill
	st.d	$fp, $sp, 16                    # 8-byte Folded Spill
	st.d	$s0, $sp, 8                     # 8-byte Folded Spill
	st.d	$s1, $sp, 0                     # 8-byte Folded Spill
	.cfi_offset 1, -8
	.cfi_offset 22, -16
	.cfi_offset 23, -24
	.cfi_offset 24, -32
	ld.d	$fp, $a0, 0
	beqz	$fp, .LBB11_2
# %bb.1:
	move	$s1, $a0
	move	$a0, $a1
	move	$s0, $a1
	pcaddu18i	$ra, %call36(strlen)
	jirl	$ra, $ra, 0
	move	$a2, $a0
	move	$a0, $fp
	move	$a1, $s0
	pcaddu18i	$ra, %call36(_ZSt16__ostream_insertIcSt11char_traitsIcEERSt13basic_ostreamIT_T0_ES6_PKS3_l)
	jirl	$ra, $ra, 0
	move	$a0, $s1
.LBB11_2:
	ld.d	$s1, $sp, 0                     # 8-byte Folded Reload
	ld.d	$s0, $sp, 8                     # 8-byte Folded Reload
	ld.d	$fp, $sp, 16                    # 8-byte Folded Reload
	ld.d	$ra, $sp, 24                    # 8-byte Folded Reload
	addi.d	$sp, $sp, 32
	ret
.Lfunc_end11:
	.size	_ZN9benchmark8internallsIA20_cEERNS0_7LogTypeES4_RKT_, .Lfunc_end11-_ZN9benchmark8internallsIA20_cEERNS0_7LogTypeES4_RKT_
	.cfi_endproc
                                        # -- End function
	.text
	.hidden	_ZN8internal14ResultsChecker9SplitCsv_ERKNSt7__cxx1112basic_stringIcSt11char_traitsIcESaIcEEE # -- Begin function _ZN8internal14ResultsChecker9SplitCsv_ERKNSt7__cxx1112basic_stringIcSt11char_traitsIcESaIcEEE
	.globl	_ZN8internal14ResultsChecker9SplitCsv_ERKNSt7__cxx1112basic_stringIcSt11char_traitsIcESaIcEEE
	.p2align	5
	.type	_ZN8internal14ResultsChecker9SplitCsv_ERKNSt7__cxx1112basic_stringIcSt11char_traitsIcESaIcEEE,@function
_ZN8internal14ResultsChecker9SplitCsv_ERKNSt7__cxx1112basic_stringIcSt11char_traitsIcESaIcEEE: # @_ZN8internal14ResultsChecker9SplitCsv_ERKNSt7__cxx1112basic_stringIcSt11char_traitsIcESaIcEEE
.Lfunc_begin4:
	.cfi_startproc
	.cfi_personality 155, DW.ref.__gxx_personality_v0
	.cfi_lsda 27, .Lexception4
# %bb.0:
	addi.d	$sp, $sp, -144
	.cfi_def_cfa_offset 144
	st.d	$ra, $sp, 136                   # 8-byte Folded Spill
	st.d	$fp, $sp, 128                   # 8-byte Folded Spill
	st.d	$s0, $sp, 120                   # 8-byte Folded Spill
	st.d	$s1, $sp, 112                   # 8-byte Folded Spill
	st.d	$s2, $sp, 104                   # 8-byte Folded Spill
	st.d	$s3, $sp, 96                    # 8-byte Folded Spill
	st.d	$s4, $sp, 88                    # 8-byte Folded Spill
	st.d	$s5, $sp, 80                    # 8-byte Folded Spill
	st.d	$s6, $sp, 72                    # 8-byte Folded Spill
	st.d	$s7, $sp, 64                    # 8-byte Folded Spill
	st.d	$s8, $sp, 56                    # 8-byte Folded Spill
	.cfi_offset 1, -8
	.cfi_offset 22, -16
	.cfi_offset 23, -24
	.cfi_offset 24, -32
	.cfi_offset 25, -40
	.cfi_offset 26, -48
	.cfi_offset 27, -56
	.cfi_offset 28, -64
	.cfi_offset 29, -72
	.cfi_offset 30, -80
	.cfi_offset 31, -88
	move	$s0, $a2
	ld.d	$a2, $a2, 8
	st.d	$zero, $a0, 16
	vrepli.b	$vr0, 0
	vst	$vr0, $a0, 0
	beqz	$a2, .LBB12_42
# %bb.1:
	move	$fp, $a0
	ld.d	$a0, $a1, 48
	ld.d	$a1, $a1, 56
	beq	$a0, $a1, .LBB12_3
# %bb.2:
	sub.d	$a0, $a1, $a0
	srai.d	$a1, $a0, 5
.Ltmp147:
	move	$a0, $fp
	pcaddu18i	$ra, %call36(_ZNSt6vectorINSt7__cxx1112basic_stringIcSt11char_traitsIcESaIcEEESaIS5_EE7reserveEm)
	jirl	$ra, $ra, 0
.Ltmp148:
.LBB12_3:
	ori	$a1, $zero, 44
	move	$a0, $s0
	move	$a2, $zero
	pcaddu18i	$ra, %call36(_ZNKSt7__cxx1112basic_stringIcSt11char_traitsIcESaIcEE4findEcm)
	jirl	$ra, $ra, 0
	move	$s2, $a0
	move	$s4, $zero
	addi.d	$s1, $sp, 32
	addi.w	$s6, $zero, -1
	pcalau12i	$a0, %pc_hi20(_ZGVZN9benchmark8internal18GetNullLogInstanceEvE8null_log)
	addi.d	$s3, $a0, %pc_lo12(_ZGVZN9benchmark8internal18GetNullLogInstanceEvE8null_log)
	pcalau12i	$a0, %pc_hi20(_ZZN9benchmark8internal18GetNullLogInstanceEvE8null_log)
	st.d	$a0, $sp, 8                     # 8-byte Folded Spill
	ori	$s8, $zero, 16
	b	.LBB12_7
	.p2align	4, , 16
.LBB12_4:                               # %_ZNKSt7__cxx1112basic_stringIcSt11char_traitsIcESaIcEE11_M_is_localEv.exit.i.i.i
                                        #   in Loop: Header=BB12_7 Depth=1
	st.d	$a1, $s4, 0
	ld.d	$a0, $sp, 32
	ld.d	$s5, $sp, 24
	st.d	$a0, $s4, 16
.LBB12_5:                               # %_ZNSt6vectorINSt7__cxx1112basic_stringIcSt11char_traitsIcESaIcEEESaIS5_EE9push_backEOS5_.exit.thread
                                        #   in Loop: Header=BB12_7 Depth=1
	st.d	$s5, $s4, 8
	ld.d	$a0, $fp, 8
	st.d	$s1, $sp, 16
	st.d	$zero, $sp, 24
	addi.d	$a0, $a0, 32
	st.d	$a0, $fp, 8
.LBB12_6:                               # %_ZNSt7__cxx1112basic_stringIcSt11char_traitsIcESaIcEED2Ev.exit
                                        #   in Loop: Header=BB12_7 Depth=1
	addi.d	$s4, $s2, 1
	ori	$a1, $zero, 44
	move	$a0, $s0
	move	$a2, $s4
	pcaddu18i	$ra, %call36(_ZNKSt7__cxx1112basic_stringIcSt11char_traitsIcESaIcEE4findEcm)
	jirl	$ra, $ra, 0
	move	$s2, $a0
.LBB12_7:                               # =>This Inner Loop Header: Depth=1
	beq	$s2, $s6, .LBB12_26
# %bb.8:                                #   in Loop: Header=BB12_7 Depth=1
	beqz	$s2, .LBB12_43
# %bb.9:                                #   in Loop: Header=BB12_7 Depth=1
	ld.b	$a0, $s3, 0
	dbar	20
	beqz	$a0, .LBB12_24
.LBB12_10:                              #   in Loop: Header=BB12_7 Depth=1
	ld.d	$s7, $s0, 0
	ldx.bu	$a0, $s7, $s4
	ld.d	$a3, $s0, 8
	addi.d	$a0, $a0, -34
	sltui	$a0, $a0, 1
	add.d	$s4, $s4, $a0
	bltu	$a3, $s4, .LBB12_46
# %bb.11:                               # %_ZNKSt7__cxx1112basic_stringIcSt11char_traitsIcESaIcEE8_M_checkEmPKc.exit.i.i
                                        #   in Loop: Header=BB12_7 Depth=1
	addi.d	$a0, $s2, -1
	ldx.bu	$a1, $s7, $a0
	addi.d	$a1, $a1, -34
	sltui	$a1, $a1, 1
	masknez	$a2, $s2, $a1
	maskeqz	$a0, $a0, $a1
	or	$a0, $a0, $a2
	sub.d	$a0, $a0, $s4
	st.d	$s1, $sp, 16
	sub.d	$a1, $a3, $s4
	sltu	$a2, $a0, $a1
	maskeqz	$a0, $a0, $a2
	masknez	$a1, $a1, $a2
	or	$s5, $a0, $a1
	st.d	$s5, $sp, 48
	move	$a0, $s1
	bltu	$s5, $s8, .LBB12_14
# %bb.12:                               # %.noexc10.i.i
                                        #   in Loop: Header=BB12_7 Depth=1
.Ltmp163:
	addi.d	$a0, $sp, 16
	addi.d	$a1, $sp, 48
	move	$a2, $zero
	pcaddu18i	$ra, %call36(_ZNSt7__cxx1112basic_stringIcSt11char_traitsIcESaIcEE9_M_createERmm)
	jirl	$ra, $ra, 0
.Ltmp164:
# %bb.13:                               # %.noexc57
                                        #   in Loop: Header=BB12_7 Depth=1
	ld.d	$a1, $sp, 48
	st.d	$a0, $sp, 16
	st.d	$a1, $sp, 32
.LBB12_14:                              # %._crit_edge.i.i.i
                                        #   in Loop: Header=BB12_7 Depth=1
	beqz	$s5, .LBB12_18
# %bb.15:                               # %._crit_edge.i.i.i
                                        #   in Loop: Header=BB12_7 Depth=1
	add.d	$a1, $s7, $s4
	ori	$a2, $zero, 1
	bne	$s5, $a2, .LBB12_17
# %bb.16:                               #   in Loop: Header=BB12_7 Depth=1
	ld.b	$a1, $a1, 0
	st.b	$a1, $a0, 0
	b	.LBB12_18
	.p2align	4, , 16
.LBB12_17:                              #   in Loop: Header=BB12_7 Depth=1
	move	$a2, $s5
	pcaddu18i	$ra, %call36(memcpy)
	jirl	$ra, $ra, 0
.LBB12_18:                              #   in Loop: Header=BB12_7 Depth=1
	ld.d	$a0, $sp, 48
	ld.d	$a1, $sp, 16
	st.d	$a0, $sp, 24
	stx.b	$zero, $a1, $a0
	ld.d	$s4, $fp, 8
	ld.d	$a0, $fp, 16
	beq	$s4, $a0, .LBB12_21
# %bb.19:                               #   in Loop: Header=BB12_7 Depth=1
	addi.d	$a0, $s4, 16
	st.d	$a0, $s4, 0
	ld.d	$a1, $sp, 16
	bne	$a1, $s1, .LBB12_4
# %bb.20:                               #   in Loop: Header=BB12_7 Depth=1
	ld.d	$s5, $sp, 24
	addi.d	$a2, $s5, 1
	move	$a1, $s1
	pcaddu18i	$ra, %call36(memcpy)
	jirl	$ra, $ra, 0
	b	.LBB12_5
	.p2align	4, , 16
.LBB12_21:                              #   in Loop: Header=BB12_7 Depth=1
.Ltmp166:
	addi.d	$a1, $sp, 16
	move	$a0, $fp
	pcaddu18i	$ra, %call36(_ZNSt6vectorINSt7__cxx1112basic_stringIcSt11char_traitsIcESaIcEEESaIS5_EE17_M_realloc_appendIJS5_EEEvDpOT_)
	jirl	$ra, $ra, 0
.Ltmp167:
# %bb.22:                               # %_ZNSt6vectorINSt7__cxx1112basic_stringIcSt11char_traitsIcESaIcEEESaIS5_EE9push_backEOS5_.exit
                                        #   in Loop: Header=BB12_7 Depth=1
	ld.d	$a0, $sp, 16
	beq	$a0, $s1, .LBB12_6
# %bb.23:                               # %_ZNKSt7__cxx1112basic_stringIcSt11char_traitsIcESaIcEE11_M_is_localEv.exit.i.i
                                        #   in Loop: Header=BB12_7 Depth=1
	ld.d	$a1, $sp, 32
	addi.d	$a1, $a1, 1
	pcaddu18i	$ra, %call36(_ZdlPvm)
	jirl	$ra, $ra, 0
	b	.LBB12_6
.LBB12_24:                              #   in Loop: Header=BB12_7 Depth=1
	move	$a0, $s3
	pcaddu18i	$ra, %call36(__cxa_guard_acquire)
	jirl	$ra, $ra, 0
	addi.w	$a0, $a0, 0
	beqz	$a0, .LBB12_10
# %bb.25:                               #   in Loop: Header=BB12_7 Depth=1
	ld.d	$a0, $sp, 8                     # 8-byte Folded Reload
	st.d	$zero, $a0, %pc_lo12(_ZZN9benchmark8internal18GetNullLogInstanceEvE8null_log)
	move	$a0, $s3
	pcaddu18i	$ra, %call36(__cxa_guard_release)
	jirl	$ra, $ra, 0
	b	.LBB12_10
.LBB12_26:
	ld.d	$s3, $s0, 0
	ldx.bu	$a0, $s3, $s4
	ld.d	$a3, $s0, 8
	addi.d	$a0, $a0, -34
	sltui	$a0, $a0, 1
	add.d	$s1, $s4, $a0
	bltu	$a3, $s1, .LBB12_48
# %bb.27:                               # %_ZNKSt7__cxx1112basic_stringIcSt11char_traitsIcESaIcEE8_M_checkEmPKc.exit.i.i62
	addi.d	$a0, $a3, -1
	ldx.bu	$a1, $s3, $a0
	addi.d	$a1, $a1, -34
	sltui	$a1, $a1, 1
	masknez	$a2, $a3, $a1
	maskeqz	$a0, $a0, $a1
	or	$a0, $a0, $a2
	sub.d	$a0, $a0, $s1
	addi.d	$s0, $sp, 32
	st.d	$s0, $sp, 16
	sub.d	$a1, $a3, $s1
	sltu	$a2, $a0, $a1
	maskeqz	$a0, $a0, $a2
	masknez	$a1, $a1, $a2
	or	$s2, $a0, $a1
	ori	$a1, $zero, 16
	st.d	$s2, $sp, 48
	move	$a0, $s0
	bltu	$s2, $a1, .LBB12_30
# %bb.28:                               # %.noexc10.i.i65
.Ltmp155:
	addi.d	$a0, $sp, 16
	addi.d	$a1, $sp, 48
	move	$a2, $zero
	pcaddu18i	$ra, %call36(_ZNSt7__cxx1112basic_stringIcSt11char_traitsIcESaIcEE9_M_createERmm)
	jirl	$ra, $ra, 0
.Ltmp156:
# %bb.29:                               # %.noexc67
	ld.d	$a1, $sp, 48
	st.d	$a0, $sp, 16
	st.d	$a1, $sp, 32
.LBB12_30:                              # %._crit_edge.i.i.i64
	beqz	$s2, .LBB12_34
# %bb.31:                               # %._crit_edge.i.i.i64
	ori	$a2, $zero, 1
	add.d	$a1, $s3, $s1
	bne	$s2, $a2, .LBB12_33
# %bb.32:
	ld.b	$a1, $a1, 0
	st.b	$a1, $a0, 0
	b	.LBB12_34
.LBB12_33:
	move	$a2, $s2
	pcaddu18i	$ra, %call36(memcpy)
	jirl	$ra, $ra, 0
.LBB12_34:
	ld.d	$a0, $sp, 48
	ld.d	$a1, $sp, 16
	st.d	$a0, $sp, 24
	stx.b	$zero, $a1, $a0
	ld.d	$s1, $fp, 8
	ld.d	$a0, $fp, 16
	beq	$s1, $a0, .LBB12_37
# %bb.35:
	addi.d	$a0, $s1, 16
	st.d	$a0, $s1, 0
	ld.d	$a1, $sp, 16
	beq	$a1, $s0, .LBB12_40
# %bb.36:                               # %_ZNKSt7__cxx1112basic_stringIcSt11char_traitsIcESaIcEE11_M_is_localEv.exit.i.i.i70
	st.d	$a1, $s1, 0
	ld.d	$a0, $sp, 32
	ld.d	$s2, $sp, 24
	st.d	$a0, $s1, 16
	b	.LBB12_41
.LBB12_37:
.Ltmp157:
	addi.d	$a1, $sp, 16
	move	$a0, $fp
	pcaddu18i	$ra, %call36(_ZNSt6vectorINSt7__cxx1112basic_stringIcSt11char_traitsIcESaIcEEESaIS5_EE17_M_realloc_appendIJS5_EEEvDpOT_)
	jirl	$ra, $ra, 0
.Ltmp158:
# %bb.38:                               # %_ZNSt6vectorINSt7__cxx1112basic_stringIcSt11char_traitsIcESaIcEEESaIS5_EE9push_backEOS5_.exit73
	ld.d	$a0, $sp, 16
	beq	$a0, $s0, .LBB12_42
# %bb.39:                               # %_ZNKSt7__cxx1112basic_stringIcSt11char_traitsIcESaIcEE11_M_is_localEv.exit.i.i74
	ld.d	$a1, $sp, 32
	addi.d	$a1, $a1, 1
	pcaddu18i	$ra, %call36(_ZdlPvm)
	jirl	$ra, $ra, 0
	b	.LBB12_42
.LBB12_40:
	ld.d	$s2, $sp, 24
	addi.d	$a2, $s2, 1
	move	$a1, $s0
	pcaddu18i	$ra, %call36(memcpy)
	jirl	$ra, $ra, 0
.LBB12_41:                              # %_ZNSt6vectorINSt7__cxx1112basic_stringIcSt11char_traitsIcESaIcEEESaIS5_EE9push_backEOS5_.exit73.thread
	st.d	$s2, $s1, 8
	ld.d	$a0, $fp, 8
	st.d	$zero, $sp, 24
	addi.d	$a0, $a0, 32
	st.d	$a0, $fp, 8
.LBB12_42:
	ld.d	$s8, $sp, 56                    # 8-byte Folded Reload
	ld.d	$s7, $sp, 64                    # 8-byte Folded Reload
	ld.d	$s6, $sp, 72                    # 8-byte Folded Reload
	ld.d	$s5, $sp, 80                    # 8-byte Folded Reload
	ld.d	$s4, $sp, 88                    # 8-byte Folded Reload
	ld.d	$s3, $sp, 96                    # 8-byte Folded Reload
	ld.d	$s2, $sp, 104                   # 8-byte Folded Reload
	ld.d	$s1, $sp, 112                   # 8-byte Folded Reload
	ld.d	$s0, $sp, 120                   # 8-byte Folded Reload
	ld.d	$fp, $sp, 128                   # 8-byte Folded Reload
	ld.d	$ra, $sp, 136                   # 8-byte Folded Reload
	addi.d	$sp, $sp, 144
	ret
.LBB12_43:
.Ltmp150:
	pcalau12i	$a0, %pc_hi20(.L.str.15)
	addi.d	$a1, $a0, %pc_lo12(.L.str.15)
	pcalau12i	$a0, %pc_hi20(.L.str.1)
	addi.d	$a2, $a0, %pc_lo12(.L.str.1)
	pcalau12i	$a0, %pc_hi20(.L__func__._ZN8internal14ResultsChecker9SplitCsv_ERKNSt7__cxx1112basic_stringIcSt11char_traitsIcESaIcEEE)
	addi.d	$a3, $a0, %pc_lo12(.L__func__._ZN8internal14ResultsChecker9SplitCsv_ERKNSt7__cxx1112basic_stringIcSt11char_traitsIcESaIcEEE)
	addi.d	$a0, $sp, 16
	ori	$a4, $zero, 286
	pcaddu18i	$ra, %call36(_ZN9benchmark8internal12CheckHandlerC2EPKcS3_S3_i)
	jirl	$ra, $ra, 0
.Ltmp151:
# %bb.44:                               # %_ZN9benchmark8internal18GetNullLogInstanceEv.exit
.Ltmp152:
	addi.d	$a0, $sp, 16
	pcaddu18i	$ra, %call36(_ZN9benchmark8internal12CheckHandlerD2Ev)
	jirl	$ra, $ra, 0
.Ltmp153:
# %bb.45:
.LBB12_46:
.Ltmp169:
	pcalau12i	$a0, %pc_hi20(.L.str.66)
	addi.d	$a0, $a0, %pc_lo12(.L.str.66)
	pcalau12i	$a1, %pc_hi20(.L.str.297)
	addi.d	$a1, $a1, %pc_lo12(.L.str.297)
	move	$a2, $s4
	pcaddu18i	$ra, %call36(_ZSt24__throw_out_of_range_fmtPKcz)
	jirl	$ra, $ra, 0
.Ltmp170:
# %bb.47:                               # %.noexc
.LBB12_48:
.Ltmp160:
	pcalau12i	$a0, %pc_hi20(.L.str.66)
	addi.d	$a0, $a0, %pc_lo12(.L.str.66)
	pcalau12i	$a1, %pc_hi20(.L.str.297)
	addi.d	$a1, $a1, %pc_lo12(.L.str.297)
	move	$a2, $s1
	pcaddu18i	$ra, %call36(_ZSt24__throw_out_of_range_fmtPKcz)
	jirl	$ra, $ra, 0
.Ltmp161:
# %bb.49:                               # %.noexc66
.LBB12_50:
.Ltmp159:
	ld.d	$a2, $sp, 16
	move	$s2, $a0
	bne	$a2, $s0, .LBB12_54
	b	.LBB12_59
.LBB12_51:
.Ltmp149:
	b	.LBB12_58
.LBB12_52:
.Ltmp162:
	b	.LBB12_58
.LBB12_53:
.Ltmp168:
	ld.d	$a2, $sp, 16
	move	$s2, $a0
	beq	$a2, $s1, .LBB12_59
.LBB12_54:                              # %_ZNKSt7__cxx1112basic_stringIcSt11char_traitsIcESaIcEE11_M_is_localEv.exit.i.i59
	ld.d	$a0, $sp, 32
	addi.d	$a1, $a0, 1
	move	$a0, $a2
	pcaddu18i	$ra, %call36(_ZdlPvm)
	jirl	$ra, $ra, 0
	move	$a0, $fp
	pcaddu18i	$ra, %call36(_ZNSt6vectorINSt7__cxx1112basic_stringIcSt11char_traitsIcESaIcEEESaIS5_EED2Ev)
	jirl	$ra, $ra, 0
	move	$a0, $s2
	pcaddu18i	$ra, %call36(_Unwind_Resume)
	jirl	$ra, $ra, 0
.LBB12_55:                              # %.loopexit
.Ltmp165:
	b	.LBB12_58
.LBB12_56:                              # %.loopexit.split-lp
.Ltmp171:
	b	.LBB12_58
.LBB12_57:
.Ltmp154:
.LBB12_58:
	move	$s2, $a0
.LBB12_59:
	move	$a0, $fp
	pcaddu18i	$ra, %call36(_ZNSt6vectorINSt7__cxx1112basic_stringIcSt11char_traitsIcESaIcEEESaIS5_EED2Ev)
	jirl	$ra, $ra, 0
	move	$a0, $s2
	pcaddu18i	$ra, %call36(_Unwind_Resume)
	jirl	$ra, $ra, 0
.Lfunc_end12:
	.size	_ZN8internal14ResultsChecker9SplitCsv_ERKNSt7__cxx1112basic_stringIcSt11char_traitsIcESaIcEEE, .Lfunc_end12-_ZN8internal14ResultsChecker9SplitCsv_ERKNSt7__cxx1112basic_stringIcSt11char_traitsIcESaIcEEE
	.cfi_endproc
	.section	.gcc_except_table,"a",@progbits
	.p2align	2, 0x0
GCC_except_table12:
.Lexception4:
	.byte	255                             # @LPStart Encoding = omit
	.byte	255                             # @TType Encoding = omit
	.byte	1                               # Call site Encoding = uleb128
	.uleb128 .Lcst_end4-.Lcst_begin4
.Lcst_begin4:
	.uleb128 .Ltmp147-.Lfunc_begin4         # >> Call Site 1 <<
	.uleb128 .Ltmp148-.Ltmp147              #   Call between .Ltmp147 and .Ltmp148
	.uleb128 .Ltmp149-.Lfunc_begin4         #     jumps to .Ltmp149
	.byte	0                               #   On action: cleanup
	.uleb128 .Ltmp148-.Lfunc_begin4         # >> Call Site 2 <<
	.uleb128 .Ltmp163-.Ltmp148              #   Call between .Ltmp148 and .Ltmp163
	.byte	0                               #     has no landing pad
	.byte	0                               #   On action: cleanup
	.uleb128 .Ltmp163-.Lfunc_begin4         # >> Call Site 3 <<
	.uleb128 .Ltmp164-.Ltmp163              #   Call between .Ltmp163 and .Ltmp164
	.uleb128 .Ltmp165-.Lfunc_begin4         #     jumps to .Ltmp165
	.byte	0                               #   On action: cleanup
	.uleb128 .Ltmp164-.Lfunc_begin4         # >> Call Site 4 <<
	.uleb128 .Ltmp166-.Ltmp164              #   Call between .Ltmp164 and .Ltmp166
	.byte	0                               #     has no landing pad
	.byte	0                               #   On action: cleanup
	.uleb128 .Ltmp166-.Lfunc_begin4         # >> Call Site 5 <<
	.uleb128 .Ltmp167-.Ltmp166              #   Call between .Ltmp166 and .Ltmp167
	.uleb128 .Ltmp168-.Lfunc_begin4         #     jumps to .Ltmp168
	.byte	0                               #   On action: cleanup
	.uleb128 .Ltmp167-.Lfunc_begin4         # >> Call Site 6 <<
	.uleb128 .Ltmp155-.Ltmp167              #   Call between .Ltmp167 and .Ltmp155
	.byte	0                               #     has no landing pad
	.byte	0                               #   On action: cleanup
	.uleb128 .Ltmp155-.Lfunc_begin4         # >> Call Site 7 <<
	.uleb128 .Ltmp156-.Ltmp155              #   Call between .Ltmp155 and .Ltmp156
	.uleb128 .Ltmp162-.Lfunc_begin4         #     jumps to .Ltmp162
	.byte	0                               #   On action: cleanup
	.uleb128 .Ltmp156-.Lfunc_begin4         # >> Call Site 8 <<
	.uleb128 .Ltmp157-.Ltmp156              #   Call between .Ltmp156 and .Ltmp157
	.byte	0                               #     has no landing pad
	.byte	0                               #   On action: cleanup
	.uleb128 .Ltmp157-.Lfunc_begin4         # >> Call Site 9 <<
	.uleb128 .Ltmp158-.Ltmp157              #   Call between .Ltmp157 and .Ltmp158
	.uleb128 .Ltmp159-.Lfunc_begin4         #     jumps to .Ltmp159
	.byte	0                               #   On action: cleanup
	.uleb128 .Ltmp158-.Lfunc_begin4         # >> Call Site 10 <<
	.uleb128 .Ltmp150-.Ltmp158              #   Call between .Ltmp158 and .Ltmp150
	.byte	0                               #     has no landing pad
	.byte	0                               #   On action: cleanup
	.uleb128 .Ltmp150-.Lfunc_begin4         # >> Call Site 11 <<
	.uleb128 .Ltmp153-.Ltmp150              #   Call between .Ltmp150 and .Ltmp153
	.uleb128 .Ltmp154-.Lfunc_begin4         #     jumps to .Ltmp154
	.byte	0                               #   On action: cleanup
	.uleb128 .Ltmp169-.Lfunc_begin4         # >> Call Site 12 <<
	.uleb128 .Ltmp170-.Ltmp169              #   Call between .Ltmp169 and .Ltmp170
	.uleb128 .Ltmp171-.Lfunc_begin4         #     jumps to .Ltmp171
	.byte	0                               #   On action: cleanup
	.uleb128 .Ltmp160-.Lfunc_begin4         # >> Call Site 13 <<
	.uleb128 .Ltmp161-.Ltmp160              #   Call between .Ltmp160 and .Ltmp161
	.uleb128 .Ltmp162-.Lfunc_begin4         #     jumps to .Ltmp162
	.byte	0                               #   On action: cleanup
	.uleb128 .Ltmp161-.Lfunc_begin4         # >> Call Site 14 <<
	.uleb128 .Lfunc_end12-.Ltmp161          #   Call between .Ltmp161 and .Lfunc_end12
	.byte	0                               #     has no landing pad
	.byte	0                               #   On action: cleanup
.Lcst_end4:
	.p2align	2, 0x0
                                        # -- End function
	.section	.text._ZNSt6vectorINSt7__cxx1112basic_stringIcSt11char_traitsIcESaIcEEESaIS5_EED2Ev,"axG",@progbits,_ZNSt6vectorINSt7__cxx1112basic_stringIcSt11char_traitsIcESaIcEEESaIS5_EED2Ev,comdat
	.hidden	_ZNSt6vectorINSt7__cxx1112basic_stringIcSt11char_traitsIcESaIcEEESaIS5_EED2Ev # -- Begin function _ZNSt6vectorINSt7__cxx1112basic_stringIcSt11char_traitsIcESaIcEEESaIS5_EED2Ev
	.weak	_ZNSt6vectorINSt7__cxx1112basic_stringIcSt11char_traitsIcESaIcEEESaIS5_EED2Ev
	.p2align	5
	.type	_ZNSt6vectorINSt7__cxx1112basic_stringIcSt11char_traitsIcESaIcEEESaIS5_EED2Ev,@function
_ZNSt6vectorINSt7__cxx1112basic_stringIcSt11char_traitsIcESaIcEEESaIS5_EED2Ev: # @_ZNSt6vectorINSt7__cxx1112basic_stringIcSt11char_traitsIcESaIcEEESaIS5_EED2Ev
	.cfi_startproc
# %bb.0:
	addi.d	$sp, $sp, -32
	.cfi_def_cfa_offset 32
	st.d	$ra, $sp, 24                    # 8-byte Folded Spill
	st.d	$fp, $sp, 16                    # 8-byte Folded Spill
	st.d	$s0, $sp, 8                     # 8-byte Folded Spill
	st.d	$s1, $sp, 0                     # 8-byte Folded Spill
	.cfi_offset 1, -8
	.cfi_offset 22, -16
	.cfi_offset 23, -24
	.cfi_offset 24, -32
	move	$fp, $a0
	ld.d	$a0, $a0, 0
	ld.d	$s0, $fp, 8
	beq	$a0, $s0, .LBB13_6
# %bb.1:                                # %.lr.ph.i.i.preheader
	addi.d	$s1, $a0, 16
	b	.LBB13_3
	.p2align	4, , 16
.LBB13_2:                               # %_ZSt8_DestroyINSt7__cxx1112basic_stringIcSt11char_traitsIcESaIcEEEEvPT_.exit.i.i
                                        #   in Loop: Header=BB13_3 Depth=1
	addi.d	$a0, $s1, 16
	addi.d	$s1, $s1, 32
	beq	$a0, $s0, .LBB13_5
.LBB13_3:                               # %.lr.ph.i.i
                                        # =>This Inner Loop Header: Depth=1
	ld.d	$a0, $s1, -16
	beq	$s1, $a0, .LBB13_2
# %bb.4:                                # %_ZNKSt7__cxx1112basic_stringIcSt11char_traitsIcESaIcEE11_M_is_localEv.exit.i.i.i.i.i
                                        #   in Loop: Header=BB13_3 Depth=1
	ld.d	$a1, $s1, 0
	addi.d	$a1, $a1, 1
	pcaddu18i	$ra, %call36(_ZdlPvm)
	jirl	$ra, $ra, 0
	b	.LBB13_2
.LBB13_5:                               # %_ZSt8_DestroyIPNSt7__cxx1112basic_stringIcSt11char_traitsIcESaIcEEES5_EvT_S7_RSaIT0_E.exitthread-pre-split
	ld.d	$a0, $fp, 0
.LBB13_6:                               # %_ZSt8_DestroyIPNSt7__cxx1112basic_stringIcSt11char_traitsIcESaIcEEES5_EvT_S7_RSaIT0_E.exit
	beqz	$a0, .LBB13_8
# %bb.7:
	ld.d	$a1, $fp, 16
	sub.d	$a1, $a1, $a0
	ld.d	$s1, $sp, 0                     # 8-byte Folded Reload
	ld.d	$s0, $sp, 8                     # 8-byte Folded Reload
	ld.d	$fp, $sp, 16                    # 8-byte Folded Reload
	ld.d	$ra, $sp, 24                    # 8-byte Folded Reload
	addi.d	$sp, $sp, 32
	pcaddu18i	$t8, %call36(_ZdlPvm)
	jr	$t8
.LBB13_8:                               # %_ZNSt12_Vector_baseINSt7__cxx1112basic_stringIcSt11char_traitsIcESaIcEEESaIS5_EED2Ev.exit
	ld.d	$s1, $sp, 0                     # 8-byte Folded Reload
	ld.d	$s0, $sp, 8                     # 8-byte Folded Reload
	ld.d	$fp, $sp, 16                    # 8-byte Folded Reload
	ld.d	$ra, $sp, 24                    # 8-byte Folded Reload
	addi.d	$sp, $sp, 32
	ret
.Lfunc_end13:
	.size	_ZNSt6vectorINSt7__cxx1112basic_stringIcSt11char_traitsIcESaIcEEESaIS5_EED2Ev, .Lfunc_end13-_ZNSt6vectorINSt7__cxx1112basic_stringIcSt11char_traitsIcESaIcEEESaIS5_EED2Ev
	.cfi_endproc
                                        # -- End function
	.section	.text._ZNSt3mapINSt7__cxx1112basic_stringIcSt11char_traitsIcESaIcEEES5_St4lessIS5_ESaISt4pairIKS5_S5_EEEixERS9_,"axG",@progbits,_ZNSt3mapINSt7__cxx1112basic_stringIcSt11char_traitsIcESaIcEEES5_St4lessIS5_ESaISt4pairIKS5_S5_EEEixERS9_,comdat
	.hidden	_ZNSt3mapINSt7__cxx1112basic_stringIcSt11char_traitsIcESaIcEEES5_St4lessIS5_ESaISt4pairIKS5_S5_EEEixERS9_ # -- Begin function _ZNSt3mapINSt7__cxx1112basic_stringIcSt11char_traitsIcESaIcEEES5_St4lessIS5_ESaISt4pairIKS5_S5_EEEixERS9_
	.weak	_ZNSt3mapINSt7__cxx1112basic_stringIcSt11char_traitsIcESaIcEEES5_St4lessIS5_ESaISt4pairIKS5_S5_EEEixERS9_
	.p2align	5
	.type	_ZNSt3mapINSt7__cxx1112basic_stringIcSt11char_traitsIcESaIcEEES5_St4lessIS5_ESaISt4pairIKS5_S5_EEEixERS9_,@function
_ZNSt3mapINSt7__cxx1112basic_stringIcSt11char_traitsIcESaIcEEES5_St4lessIS5_ESaISt4pairIKS5_S5_EEEixERS9_: # @_ZNSt3mapINSt7__cxx1112basic_stringIcSt11char_traitsIcESaIcEEES5_St4lessIS5_ESaISt4pairIKS5_S5_EEEixERS9_
	.cfi_startproc
# %bb.0:
	addi.d	$sp, $sp, -128
	.cfi_def_cfa_offset 128
	st.d	$ra, $sp, 120                   # 8-byte Folded Spill
	st.d	$fp, $sp, 112                   # 8-byte Folded Spill
	st.d	$s0, $sp, 104                   # 8-byte Folded Spill
	st.d	$s1, $sp, 96                    # 8-byte Folded Spill
	st.d	$s2, $sp, 88                    # 8-byte Folded Spill
	st.d	$s3, $sp, 80                    # 8-byte Folded Spill
	st.d	$s4, $sp, 72                    # 8-byte Folded Spill
	st.d	$s5, $sp, 64                    # 8-byte Folded Spill
	st.d	$s6, $sp, 56                    # 8-byte Folded Spill
	st.d	$s7, $sp, 48                    # 8-byte Folded Spill
	st.d	$s8, $sp, 40                    # 8-byte Folded Spill
	.cfi_offset 1, -8
	.cfi_offset 22, -16
	.cfi_offset 23, -24
	.cfi_offset 24, -32
	.cfi_offset 25, -40
	.cfi_offset 26, -48
	.cfi_offset 27, -56
	.cfi_offset 28, -64
	.cfi_offset 29, -72
	.cfi_offset 30, -80
	.cfi_offset 31, -88
	move	$s0, $a0
	ld.d	$s7, $a0, 16
	move	$s8, $a1
	addi.d	$s2, $a0, 8
	beqz	$s7, .LBB14_11
# %bb.1:                                # %.lr.ph.i.i.i
	st.d	$s0, $sp, 16                    # 8-byte Folded Spill
	ld.d	$s6, $s8, 8
	st.d	$s8, $sp, 8                     # 8-byte Folded Spill
	ld.d	$s3, $s8, 0
	lu12i.w	$s5, -524288
	lu12i.w	$a0, 524287
	ori	$s4, $a0, 4095
	ori	$s8, $zero, 16
	ori	$s0, $zero, 24
	move	$s1, $s2
	b	.LBB14_4
	.p2align	4, , 16
.LBB14_2:                               # %_ZNSt11char_traitsIcE7compareEPKcS2_m.exit.thread.i.i.i.i.i.i
                                        #   in Loop: Header=BB14_4 Depth=1
	sub.d	$a0, $fp, $s6
	slt	$a1, $s5, $a0
	maskeqz	$a0, $a0, $a1
	masknez	$a1, $s5, $a1
	or	$a0, $a0, $a1
	slt	$a1, $a0, $s4
	maskeqz	$a0, $a0, $a1
	masknez	$a1, $s4, $a1
	or	$a0, $a0, $a1
.LBB14_3:                               # %_ZNKSt4lessINSt7__cxx1112basic_stringIcSt11char_traitsIcESaIcEEEEclERKS5_S8_.exit.i.i.i
                                        #   in Loop: Header=BB14_4 Depth=1
	addi.w	$a0, $a0, 0
	slti	$a0, $a0, 0
	masknez	$a1, $s7, $a0
	masknez	$a2, $s8, $a0
	maskeqz	$a3, $s0, $a0
	or	$a2, $a3, $a2
	ldx.d	$s7, $s7, $a2
	maskeqz	$a0, $s1, $a0
	or	$s1, $a0, $a1
	beqz	$s7, .LBB14_6
.LBB14_4:                               # =>This Inner Loop Header: Depth=1
	ld.d	$fp, $s7, 40
	sltu	$a0, $s6, $fp
	masknez	$a1, $fp, $a0
	maskeqz	$a0, $s6, $a0
	or	$a2, $a0, $a1
	beqz	$a2, .LBB14_2
# %bb.5:                                # %_ZNSt11char_traitsIcE7compareEPKcS2_m.exit.i.i.i.i.i.i
                                        #   in Loop: Header=BB14_4 Depth=1
	ld.d	$a0, $s7, 32
	move	$a1, $s3
	pcaddu18i	$ra, %call36(memcmp)
	jirl	$ra, $ra, 0
	bnez	$a0, .LBB14_3
	b	.LBB14_2
.LBB14_6:                               # %_ZNSt3mapINSt7__cxx1112basic_stringIcSt11char_traitsIcESaIcEEES5_St4lessIS5_ESaISt4pairIKS5_S5_EEE11lower_boundERS9_.exit
	ld.d	$s0, $sp, 16                    # 8-byte Folded Reload
	ld.d	$s8, $sp, 8                     # 8-byte Folded Reload
	beq	$s1, $s2, .LBB14_11
# %bb.7:
	ld.d	$fp, $s1, 40
	sltu	$a0, $fp, $s6
	masknez	$a1, $s6, $a0
	maskeqz	$a0, $fp, $a0
	or	$a2, $a0, $a1
	beqz	$a2, .LBB14_9
# %bb.8:                                # %_ZNSt11char_traitsIcE7compareEPKcS2_m.exit.i.i.i
	ld.d	$a1, $s1, 32
	move	$a0, $s3
	pcaddu18i	$ra, %call36(memcmp)
	jirl	$ra, $ra, 0
	bnez	$a0, .LBB14_10
.LBB14_9:                               # %_ZNSt11char_traitsIcE7compareEPKcS2_m.exit.thread.i.i.i
	sub.d	$a0, $s6, $fp
	slt	$a1, $s5, $a0
	maskeqz	$a0, $a0, $a1
	masknez	$a1, $s5, $a1
	or	$a0, $a0, $a1
	slt	$a1, $a0, $s4
	maskeqz	$a0, $a0, $a1
	masknez	$a1, $s4, $a1
	or	$a0, $a0, $a1
.LBB14_10:                              # %_ZNKSt4lessINSt7__cxx1112basic_stringIcSt11char_traitsIcESaIcEEEEclERKS5_S8_.exit
	addi.w	$a0, $a0, 0
	addi.w	$a1, $zero, -1
	move	$s2, $s1
	blt	$a1, $a0, .LBB14_12
.LBB14_11:                              # %.critedge
	st.d	$s8, $sp, 32
	pcalau12i	$a0, %pc_hi20(_ZSt19piecewise_construct)
	addi.d	$a2, $a0, %pc_lo12(_ZSt19piecewise_construct)
	addi.d	$a3, $sp, 32
	addi.d	$a4, $sp, 31
	move	$a0, $s0
	move	$a1, $s2
	pcaddu18i	$ra, %call36(_ZNSt8_Rb_treeINSt7__cxx1112basic_stringIcSt11char_traitsIcESaIcEEESt4pairIKS5_S5_ESt10_Select1stIS8_ESt4lessIS5_ESaIS8_EE22_M_emplace_hint_uniqueIJRKSt21piecewise_construct_tSt5tupleIJRS7_EESJ_IJEEEEESt17_Rb_tree_iteratorIS8_ESt23_Rb_tree_const_iteratorIS8_EDpOT_)
	jirl	$ra, $ra, 0
	move	$s1, $a0
.LBB14_12:
	addi.d	$a0, $s1, 64
	ld.d	$s8, $sp, 40                    # 8-byte Folded Reload
	ld.d	$s7, $sp, 48                    # 8-byte Folded Reload
	ld.d	$s6, $sp, 56                    # 8-byte Folded Reload
	ld.d	$s5, $sp, 64                    # 8-byte Folded Reload
	ld.d	$s4, $sp, 72                    # 8-byte Folded Reload
	ld.d	$s3, $sp, 80                    # 8-byte Folded Reload
	ld.d	$s2, $sp, 88                    # 8-byte Folded Reload
	ld.d	$s1, $sp, 96                    # 8-byte Folded Reload
	ld.d	$s0, $sp, 104                   # 8-byte Folded Reload
	ld.d	$fp, $sp, 112                   # 8-byte Folded Reload
	ld.d	$ra, $sp, 120                   # 8-byte Folded Reload
	addi.d	$sp, $sp, 128
	ret
.Lfunc_end14:
	.size	_ZNSt3mapINSt7__cxx1112basic_stringIcSt11char_traitsIcESaIcEEES5_St4lessIS5_ESaISt4pairIKS5_S5_EEEixERS9_, .Lfunc_end14-_ZNSt3mapINSt7__cxx1112basic_stringIcSt11char_traitsIcESaIcEEES5_St4lessIS5_ESaISt4pairIKS5_S5_EEEixERS9_
	.cfi_endproc
                                        # -- End function
	.section	.text._ZNSt6vectorINSt7__cxx1112basic_stringIcSt11char_traitsIcESaIcEEESaIS5_EE7reserveEm,"axG",@progbits,_ZNSt6vectorINSt7__cxx1112basic_stringIcSt11char_traitsIcESaIcEEESaIS5_EE7reserveEm,comdat
	.weak	_ZNSt6vectorINSt7__cxx1112basic_stringIcSt11char_traitsIcESaIcEEESaIS5_EE7reserveEm # -- Begin function _ZNSt6vectorINSt7__cxx1112basic_stringIcSt11char_traitsIcESaIcEEESaIS5_EE7reserveEm
	.p2align	5
	.type	_ZNSt6vectorINSt7__cxx1112basic_stringIcSt11char_traitsIcESaIcEEESaIS5_EE7reserveEm,@function
_ZNSt6vectorINSt7__cxx1112basic_stringIcSt11char_traitsIcESaIcEEESaIS5_EE7reserveEm: # @_ZNSt6vectorINSt7__cxx1112basic_stringIcSt11char_traitsIcESaIcEEESaIS5_EE7reserveEm
	.cfi_startproc
# %bb.0:
	addi.d	$sp, $sp, -96
	.cfi_def_cfa_offset 96
	st.d	$ra, $sp, 88                    # 8-byte Folded Spill
	st.d	$fp, $sp, 80                    # 8-byte Folded Spill
	st.d	$s0, $sp, 72                    # 8-byte Folded Spill
	st.d	$s1, $sp, 64                    # 8-byte Folded Spill
	st.d	$s2, $sp, 56                    # 8-byte Folded Spill
	st.d	$s3, $sp, 48                    # 8-byte Folded Spill
	st.d	$s4, $sp, 40                    # 8-byte Folded Spill
	st.d	$s5, $sp, 32                    # 8-byte Folded Spill
	st.d	$s6, $sp, 24                    # 8-byte Folded Spill
	st.d	$s7, $sp, 16                    # 8-byte Folded Spill
	st.d	$s8, $sp, 8                     # 8-byte Folded Spill
	.cfi_offset 1, -8
	.cfi_offset 22, -16
	.cfi_offset 23, -24
	.cfi_offset 24, -32
	.cfi_offset 25, -40
	.cfi_offset 26, -48
	.cfi_offset 27, -56
	.cfi_offset 28, -64
	.cfi_offset 29, -72
	.cfi_offset 30, -80
	.cfi_offset 31, -88
	srli.d	$a2, $a1, 58
	bnez	$a2, .LBB15_13
# %bb.1:
	move	$fp, $a0
	ld.d	$a0, $a0, 16
	ld.d	$s3, $fp, 0
	sub.d	$a0, $a0, $s3
	srai.d	$a0, $a0, 5
	bgeu	$a0, $a1, .LBB15_12
# %bb.2:                                # %_ZNSt12_Vector_baseINSt7__cxx1112basic_stringIcSt11char_traitsIcESaIcEEESaIS5_EE11_M_allocateEm.exit
	ld.d	$s4, $fp, 8
	slli.d	$s0, $a1, 5
	move	$a0, $s0
	pcaddu18i	$ra, %call36(_Znwm)
	jirl	$ra, $ra, 0
	move	$s1, $a0
	move	$a0, $s3
	beq	$s4, $s3, .LBB15_9
# %bb.3:                                # %.lr.ph.i.i.i.preheader
	move	$s5, $zero
	b	.LBB15_6
	.p2align	4, , 16
.LBB15_4:                               # %_ZNKSt7__cxx1112basic_stringIcSt11char_traitsIcESaIcEE11_M_is_localEv.exit.i.i.i.i.i
                                        #   in Loop: Header=BB15_6 Depth=1
	ld.d	$a0, $s2, 0
	ld.d	$s8, $s7, 8
	st.d	$a1, $s6, 0
	st.d	$a0, $s6, 16
.LBB15_5:                               # %_ZSt19__relocate_object_aINSt7__cxx1112basic_stringIcSt11char_traitsIcESaIcEEES5_SaIS5_EEvPT_PT0_RT1_.exit.i.i.i
                                        #   in Loop: Header=BB15_6 Depth=1
	st.d	$s8, $s6, 8
	stx.d	$s2, $s3, $s5
	st.d	$zero, $s7, 8
	addi.d	$s5, $s5, 32
	add.d	$a0, $s3, $s5
	st.b	$zero, $s2, 0
	beq	$a0, $s4, .LBB15_8
.LBB15_6:                               # %.lr.ph.i.i.i
                                        # =>This Inner Loop Header: Depth=1
	add.d	$s6, $s1, $s5
	ldx.d	$a1, $s3, $s5
	add.d	$s7, $s3, $s5
	addi.d	$a0, $s6, 16
	addi.d	$s2, $s7, 16
	stx.d	$a0, $s1, $s5
	bne	$s2, $a1, .LBB15_4
# %bb.7:                                #   in Loop: Header=BB15_6 Depth=1
	ld.d	$s8, $s7, 8
	addi.d	$a2, $s8, 1
	move	$a1, $s2
	pcaddu18i	$ra, %call36(memcpy)
	jirl	$ra, $ra, 0
	b	.LBB15_5
.LBB15_8:                               # %_ZNSt6vectorINSt7__cxx1112basic_stringIcSt11char_traitsIcESaIcEEESaIS5_EE11_S_relocateEPS5_S8_S8_RS6_.exit.loopexit
	ld.d	$a0, $fp, 0
.LBB15_9:                               # %_ZNSt6vectorINSt7__cxx1112basic_stringIcSt11char_traitsIcESaIcEEESaIS5_EE11_S_relocateEPS5_S8_S8_RS6_.exit
	sub.d	$s2, $s4, $s3
	beqz	$a0, .LBB15_11
# %bb.10:
	ld.d	$a1, $fp, 16
	sub.d	$a1, $a1, $a0
	pcaddu18i	$ra, %call36(_ZdlPvm)
	jirl	$ra, $ra, 0
.LBB15_11:                              # %_ZNSt12_Vector_baseINSt7__cxx1112basic_stringIcSt11char_traitsIcESaIcEEESaIS5_EE13_M_deallocateEPS5_m.exit
	st.d	$s1, $fp, 0
	add.d	$a0, $s1, $s2
	st.d	$a0, $fp, 8
	add.d	$a0, $s1, $s0
	st.d	$a0, $fp, 16
.LBB15_12:
	ld.d	$s8, $sp, 8                     # 8-byte Folded Reload
	ld.d	$s7, $sp, 16                    # 8-byte Folded Reload
	ld.d	$s6, $sp, 24                    # 8-byte Folded Reload
	ld.d	$s5, $sp, 32                    # 8-byte Folded Reload
	ld.d	$s4, $sp, 40                    # 8-byte Folded Reload
	ld.d	$s3, $sp, 48                    # 8-byte Folded Reload
	ld.d	$s2, $sp, 56                    # 8-byte Folded Reload
	ld.d	$s1, $sp, 64                    # 8-byte Folded Reload
	ld.d	$s0, $sp, 72                    # 8-byte Folded Reload
	ld.d	$fp, $sp, 80                    # 8-byte Folded Reload
	ld.d	$ra, $sp, 88                    # 8-byte Folded Reload
	addi.d	$sp, $sp, 96
	ret
.LBB15_13:
	pcalau12i	$a0, %pc_hi20(.L.str.296)
	addi.d	$a0, $a0, %pc_lo12(.L.str.296)
	pcaddu18i	$ra, %call36(_ZSt20__throw_length_errorPKc)
	jirl	$ra, $ra, 0
.Lfunc_end15:
	.size	_ZNSt6vectorINSt7__cxx1112basic_stringIcSt11char_traitsIcESaIcEEESaIS5_EE7reserveEm, .Lfunc_end15-_ZNSt6vectorINSt7__cxx1112basic_stringIcSt11char_traitsIcESaIcEEESaIS5_EE7reserveEm
	.cfi_endproc
                                        # -- End function
	.text
	.hidden	_Z10AddCheckerRKNSt7__cxx1112basic_stringIcSt11char_traitsIcESaIcEEERKSt8functionIFvRK7ResultsEE # -- Begin function _Z10AddCheckerRKNSt7__cxx1112basic_stringIcSt11char_traitsIcESaIcEEERKSt8functionIFvRK7ResultsEE
	.globl	_Z10AddCheckerRKNSt7__cxx1112basic_stringIcSt11char_traitsIcESaIcEEERKSt8functionIFvRK7ResultsEE
	.p2align	5
	.type	_Z10AddCheckerRKNSt7__cxx1112basic_stringIcSt11char_traitsIcESaIcEEERKSt8functionIFvRK7ResultsEE,@function
_Z10AddCheckerRKNSt7__cxx1112basic_stringIcSt11char_traitsIcESaIcEEERKSt8functionIFvRK7ResultsEE: # @_Z10AddCheckerRKNSt7__cxx1112basic_stringIcSt11char_traitsIcESaIcEEERKSt8functionIFvRK7ResultsEE
	.cfi_startproc
# %bb.0:
	addi.d	$sp, $sp, -32
	.cfi_def_cfa_offset 32
	st.d	$ra, $sp, 24                    # 8-byte Folded Spill
	st.d	$fp, $sp, 16                    # 8-byte Folded Spill
	st.d	$s0, $sp, 8                     # 8-byte Folded Spill
	st.d	$s1, $sp, 0                     # 8-byte Folded Spill
	.cfi_offset 1, -8
	.cfi_offset 22, -16
	.cfi_offset 23, -24
	.cfi_offset 24, -32
	pcalau12i	$a2, %pc_hi20(_ZGVZN8internal17GetResultsCheckerEvE2rc)
	ld.b	$a2, $a2, %pc_lo12(_ZGVZN8internal17GetResultsCheckerEvE2rc)
	move	$fp, $a1
	move	$s0, $a0
	dbar	20
	beqz	$a2, .LBB16_2
.LBB16_1:                               # %_ZN8internal17GetResultsCheckerEv.exit
	pcalau12i	$a0, %pc_hi20(_ZZN8internal17GetResultsCheckerEvE2rc)
	addi.d	$s1, $a0, %pc_lo12(_ZZN8internal17GetResultsCheckerEvE2rc)
	move	$a0, $s1
	move	$a1, $s0
	move	$a2, $fp
	pcaddu18i	$ra, %call36(_ZNSt6vectorIN8internal14ResultsChecker12PatternAndFnESaIS2_EE12emplace_backIJRKNSt7__cxx1112basic_stringIcSt11char_traitsIcESaIcEEERKSt8functionIFvRK7ResultsEEEEERS2_DpOT_)
	jirl	$ra, $ra, 0
	ld.d	$a0, $s1, 32
	ld.d	$a1, $s1, 24
	sub.d	$a0, $a0, $a1
	srai.d	$a0, $a0, 4
	lu12i.w	$a1, -209716
	ori	$a1, $a1, 3277
	lu32i.d	$a1, -209716
	lu52i.d	$a1, $a1, -820
	mul.d	$a0, $a0, $a1
	ld.d	$s1, $sp, 0                     # 8-byte Folded Reload
	ld.d	$s0, $sp, 8                     # 8-byte Folded Reload
	ld.d	$fp, $sp, 16                    # 8-byte Folded Reload
	ld.d	$ra, $sp, 24                    # 8-byte Folded Reload
	addi.d	$sp, $sp, 32
	ret
.LBB16_2:
	pcalau12i	$a0, %pc_hi20(_ZGVZN8internal17GetResultsCheckerEvE2rc)
	addi.d	$a0, $a0, %pc_lo12(_ZGVZN8internal17GetResultsCheckerEvE2rc)
	pcaddu18i	$ra, %call36(__cxa_guard_acquire)
	jirl	$ra, $ra, 0
	addi.w	$a0, $a0, 0
	beqz	$a0, .LBB16_1
# %bb.3:
	pcalau12i	$a0, %pc_hi20(_ZZN8internal17GetResultsCheckerEvE2rc)
	addi.d	$s1, $a0, %pc_lo12(_ZZN8internal17GetResultsCheckerEvE2rc)
	ori	$a2, $zero, 72
	move	$a0, $s1
	move	$a1, $zero
	pcaddu18i	$ra, %call36(memset)
	jirl	$ra, $ra, 0
	pcalau12i	$a0, %pc_hi20(_ZN8internal14ResultsCheckerD2Ev)
	addi.d	$a0, $a0, %pc_lo12(_ZN8internal14ResultsCheckerD2Ev)
	pcalau12i	$a1, %pc_hi20(__dso_handle)
	addi.d	$a2, $a1, %pc_lo12(__dso_handle)
	move	$a1, $s1
	pcaddu18i	$ra, %call36(__cxa_atexit)
	jirl	$ra, $ra, 0
	pcalau12i	$a0, %pc_hi20(_ZGVZN8internal17GetResultsCheckerEvE2rc)
	addi.d	$a0, $a0, %pc_lo12(_ZGVZN8internal17GetResultsCheckerEvE2rc)
	pcaddu18i	$ra, %call36(__cxa_guard_release)
	jirl	$ra, $ra, 0
	b	.LBB16_1
.Lfunc_end16:
	.size	_Z10AddCheckerRKNSt7__cxx1112basic_stringIcSt11char_traitsIcESaIcEEERKSt8functionIFvRK7ResultsEE, .Lfunc_end16-_Z10AddCheckerRKNSt7__cxx1112basic_stringIcSt11char_traitsIcESaIcEEERKSt8functionIFvRK7ResultsEE
	.cfi_endproc
                                        # -- End function
	.hidden	_ZNK7Results10NumThreadsEv      # -- Begin function _ZNK7Results10NumThreadsEv
	.globl	_ZNK7Results10NumThreadsEv
	.p2align	5
	.type	_ZNK7Results10NumThreadsEv,@function
_ZNK7Results10NumThreadsEv:             # @_ZNK7Results10NumThreadsEv
.Lfunc_begin5:
	.cfi_startproc
	.cfi_personality 155, DW.ref.__gxx_personality_v0
	.cfi_lsda 27, .Lexception5
# %bb.0:
	addi.d	$sp, $sp, -480
	.cfi_def_cfa_offset 480
	st.d	$ra, $sp, 472                   # 8-byte Folded Spill
	st.d	$fp, $sp, 464                   # 8-byte Folded Spill
	st.d	$s0, $sp, 456                   # 8-byte Folded Spill
	st.d	$s1, $sp, 448                   # 8-byte Folded Spill
	st.d	$s2, $sp, 440                   # 8-byte Folded Spill
	st.d	$s3, $sp, 432                   # 8-byte Folded Spill
	.cfi_offset 1, -8
	.cfi_offset 22, -16
	.cfi_offset 23, -24
	.cfi_offset 24, -32
	.cfi_offset 25, -40
	.cfi_offset 26, -48
	move	$s0, $a0
	pcalau12i	$a0, %pc_hi20(.L.str.16)
	addi.d	$a1, $a0, %pc_lo12(.L.str.16)
	ori	$a3, $zero, 9
	move	$a0, $s0
	move	$a2, $zero
	pcaddu18i	$ra, %call36(_ZNKSt7__cxx1112basic_stringIcSt11char_traitsIcESaIcEE4findEPKcmm)
	jirl	$ra, $ra, 0
	addi.w	$a1, $zero, -1
	beq	$a0, $a1, .LBB17_8
# %bb.1:
	addi.d	$fp, $a0, 9
	ori	$a1, $zero, 47
	move	$a0, $s0
	move	$a2, $fp
	pcaddu18i	$ra, %call36(_ZNKSt7__cxx1112basic_stringIcSt11char_traitsIcESaIcEE4findEcm)
	jirl	$ra, $ra, 0
	move	$s1, $a0
	addi.d	$a0, $sp, 32
	pcaddu18i	$ra, %call36(_ZNSt7__cxx1118basic_stringstreamIcSt11char_traitsIcESaIcEEC1Ev)
	jirl	$ra, $ra, 0
	ld.d	$a3, $s0, 8
	bltu	$a3, $fp, .LBB17_20
# %bb.2:                                # %_ZNKSt7__cxx1112basic_stringIcSt11char_traitsIcESaIcEE8_M_checkEmPKc.exit.i.i
	addi.d	$s2, $sp, 16
	st.d	$s2, $sp, 0
	ld.d	$s3, $s0, 0
	sub.d	$a0, $a3, $fp
	sltu	$a1, $s1, $a0
	masknez	$a0, $a0, $a1
	maskeqz	$a1, $s1, $a1
	or	$s0, $a1, $a0
	ori	$a1, $zero, 16
	st.d	$s0, $sp, 424
	move	$a0, $s2
	bltu	$s0, $a1, .LBB17_5
# %bb.3:                                # %.noexc10.i.i
.Ltmp172:
	addi.d	$a0, $sp, 0
	addi.d	$a1, $sp, 424
	move	$a2, $zero
	pcaddu18i	$ra, %call36(_ZNSt7__cxx1112basic_stringIcSt11char_traitsIcESaIcEE9_M_createERmm)
	jirl	$ra, $ra, 0
.Ltmp173:
# %bb.4:                                # %.noexc19
	ld.d	$a1, $sp, 424
	st.d	$a0, $sp, 0
	st.d	$a1, $sp, 16
.LBB17_5:                               # %._crit_edge.i.i.i
	beqz	$s0, .LBB17_10
# %bb.6:                                # %._crit_edge.i.i.i
	ori	$a2, $zero, 1
	add.d	$a1, $s3, $fp
	bne	$s0, $a2, .LBB17_9
# %bb.7:
	ld.b	$a1, $a1, 0
	st.b	$a1, $a0, 0
	b	.LBB17_10
.LBB17_8:
	ori	$fp, $zero, 1
	b	.LBB17_19
.LBB17_9:
	move	$a2, $s0
	pcaddu18i	$ra, %call36(memcpy)
	jirl	$ra, $ra, 0
.LBB17_10:
	ld.d	$a0, $sp, 424
	ld.d	$a1, $sp, 0
	st.d	$a0, $sp, 8
	stx.b	$zero, $a1, $a0
	ld.d	$a1, $sp, 0
	ld.d	$a2, $sp, 8
	addi.d	$a0, $sp, 48
.Ltmp174:
	pcaddu18i	$ra, %call36(_ZSt16__ostream_insertIcSt11char_traitsIcEERSt13basic_ostreamIT_T0_ES6_PKS3_l)
	jirl	$ra, $ra, 0
.Ltmp175:
# %bb.11:                               # %_ZStlsIcSt11char_traitsIcESaIcEERSt13basic_ostreamIT_T0_ES7_RKNSt7__cxx1112basic_stringIS4_S5_T1_EE.exit
	ld.d	$a0, $sp, 0
	beq	$a0, $s2, .LBB17_13
# %bb.12:                               # %_ZNKSt7__cxx1112basic_stringIcSt11char_traitsIcESaIcEE11_M_is_localEv.exit.i.i
	ld.d	$a1, $sp, 16
	addi.d	$a1, $a1, 1
	pcaddu18i	$ra, %call36(_ZdlPvm)
	jirl	$ra, $ra, 0
.LBB17_13:                              # %_ZNSt7__cxx1112basic_stringIcSt11char_traitsIcESaIcEED2Ev.exit
	ori	$a0, $zero, 1
	st.w	$a0, $sp, 424
.Ltmp177:
	addi.d	$a0, $sp, 32
	addi.d	$a1, $sp, 424
	addi.d	$fp, $sp, 32
	pcaddu18i	$ra, %call36(_ZNSirsERi)
	jirl	$ra, $ra, 0
.Ltmp178:
# %bb.14:
	ld.d	$a0, $sp, 32
	ld.d	$a0, $a0, -24
	add.d	$a0, $fp, $a0
	ld.bu	$a0, $a0, 32
	andi	$a0, $a0, 5
	bnez	$a0, .LBB17_22
# %bb.15:
	pcalau12i	$a0, %pc_hi20(_ZGVZN9benchmark8internal18GetNullLogInstanceEvE8null_log)
	ld.b	$a0, $a0, %pc_lo12(_ZGVZN9benchmark8internal18GetNullLogInstanceEvE8null_log)
	dbar	20
	beqz	$a0, .LBB17_25
.LBB17_16:
	pcalau12i	$a0, %got_pc_hi20(_ZTTNSt7__cxx1118basic_stringstreamIcSt11char_traitsIcESaIcEEE)
	ld.d	$s0, $a0, %got_pc_lo12(_ZTTNSt7__cxx1118basic_stringstreamIcSt11char_traitsIcESaIcEEE)
	ld.d	$a0, $s0, 0
	st.d	$a0, $sp, 32
	ld.d	$a1, $s0, 64
	ld.d	$a0, $a0, -24
	addi.d	$s1, $sp, 32
	stx.d	$a1, $a0, $s1
	ld.d	$a1, $s0, 72
	pcalau12i	$a0, %got_pc_hi20(_ZTVNSt7__cxx1115basic_stringbufIcSt11char_traitsIcESaIcEEE)
	ld.d	$a2, $a0, %got_pc_lo12(_ZTVNSt7__cxx1115basic_stringbufIcSt11char_traitsIcESaIcEEE)
	ld.w	$fp, $sp, 424
	ld.d	$a0, $sp, 128
	st.d	$a1, $sp, 48
	addi.d	$a1, $a2, 16
	addi.d	$a2, $sp, 144
	st.d	$a1, $sp, 56
	beq	$a0, $a2, .LBB17_18
# %bb.17:                               # %_ZNKSt7__cxx1112basic_stringIcSt11char_traitsIcESaIcEE11_M_is_localEv.exit.i.i.i.i.i
	ld.d	$a1, $sp, 144
	addi.d	$a1, $a1, 1
	pcaddu18i	$ra, %call36(_ZdlPvm)
	jirl	$ra, $ra, 0
.LBB17_18:                              # %_ZNSt7__cxx1118basic_stringstreamIcSt11char_traitsIcESaIcEED1Ev.exit
	pcalau12i	$a0, %got_pc_hi20(_ZTVSt15basic_streambufIcSt11char_traitsIcEE)
	ld.d	$a0, $a0, %got_pc_lo12(_ZTVSt15basic_streambufIcSt11char_traitsIcEE)
	addi.d	$a0, $a0, 16
	st.d	$a0, $sp, 56
	addi.d	$a0, $sp, 112
	pcaddu18i	$ra, %call36(_ZNSt6localeD1Ev)
	jirl	$ra, $ra, 0
	ld.d	$a0, $s0, 16
	st.d	$a0, $sp, 32
	ld.d	$a1, $s0, 24
	ld.d	$a0, $a0, -24
	stx.d	$a1, $a0, $s1
	st.d	$zero, $sp, 40
	addi.d	$a0, $sp, 160
	pcaddu18i	$ra, %call36(_ZNSt8ios_baseD2Ev)
	jirl	$ra, $ra, 0
.LBB17_19:
	move	$a0, $fp
	ld.d	$s3, $sp, 432                   # 8-byte Folded Reload
	ld.d	$s2, $sp, 440                   # 8-byte Folded Reload
	ld.d	$s1, $sp, 448                   # 8-byte Folded Reload
	ld.d	$s0, $sp, 456                   # 8-byte Folded Reload
	ld.d	$fp, $sp, 464                   # 8-byte Folded Reload
	ld.d	$ra, $sp, 472                   # 8-byte Folded Reload
	addi.d	$sp, $sp, 480
	ret
.LBB17_20:
.Ltmp185:
	pcalau12i	$a0, %pc_hi20(.L.str.66)
	addi.d	$a0, $a0, %pc_lo12(.L.str.66)
	pcalau12i	$a1, %pc_hi20(.L.str.297)
	addi.d	$a1, $a1, %pc_lo12(.L.str.297)
	move	$a2, $fp
	pcaddu18i	$ra, %call36(_ZSt24__throw_out_of_range_fmtPKcz)
	jirl	$ra, $ra, 0
.Ltmp186:
# %bb.21:                               # %.noexc
.LBB17_22:
.Ltmp180:
	pcalau12i	$a0, %pc_hi20(.L.str.17)
	addi.d	$a1, $a0, %pc_lo12(.L.str.17)
	pcalau12i	$a0, %pc_hi20(.L.str.1)
	addi.d	$a2, $a0, %pc_lo12(.L.str.1)
	pcalau12i	$a0, %pc_hi20(.L__func__._ZNK7Results10NumThreadsEv)
	addi.d	$a3, $a0, %pc_lo12(.L__func__._ZNK7Results10NumThreadsEv)
	addi.d	$a0, $sp, 0
	ori	$a4, $zero, 317
	pcaddu18i	$ra, %call36(_ZN9benchmark8internal12CheckHandlerC2EPKcS3_S3_i)
	jirl	$ra, $ra, 0
.Ltmp181:
# %bb.23:                               # %_ZN9benchmark8internal18GetNullLogInstanceEv.exit
.Ltmp182:
	addi.d	$a0, $sp, 0
	pcaddu18i	$ra, %call36(_ZN9benchmark8internal12CheckHandlerD2Ev)
	jirl	$ra, $ra, 0
.Ltmp183:
# %bb.24:
.LBB17_25:
	pcalau12i	$a0, %pc_hi20(_ZGVZN9benchmark8internal18GetNullLogInstanceEvE8null_log)
	addi.d	$a0, $a0, %pc_lo12(_ZGVZN9benchmark8internal18GetNullLogInstanceEvE8null_log)
	pcaddu18i	$ra, %call36(__cxa_guard_acquire)
	jirl	$ra, $ra, 0
	addi.w	$a0, $a0, 0
	beqz	$a0, .LBB17_16
# %bb.26:
	pcalau12i	$a0, %pc_hi20(_ZZN9benchmark8internal18GetNullLogInstanceEvE8null_log)
	st.d	$zero, $a0, %pc_lo12(_ZZN9benchmark8internal18GetNullLogInstanceEvE8null_log)
	pcalau12i	$a0, %pc_hi20(_ZGVZN9benchmark8internal18GetNullLogInstanceEvE8null_log)
	addi.d	$a0, $a0, %pc_lo12(_ZGVZN9benchmark8internal18GetNullLogInstanceEvE8null_log)
	pcaddu18i	$ra, %call36(__cxa_guard_release)
	jirl	$ra, $ra, 0
	b	.LBB17_16
.LBB17_27:
.Ltmp184:
	b	.LBB17_32
.LBB17_28:
.Ltmp179:
	b	.LBB17_32
.LBB17_29:
.Ltmp176:
	ld.d	$a2, $sp, 0
	move	$fp, $a0
	beq	$a2, $s2, .LBB17_33
# %bb.30:                               # %_ZNKSt7__cxx1112basic_stringIcSt11char_traitsIcESaIcEE11_M_is_localEv.exit.i.i21
	ld.d	$a0, $sp, 16
	addi.d	$a1, $a0, 1
	move	$a0, $a2
	pcaddu18i	$ra, %call36(_ZdlPvm)
	jirl	$ra, $ra, 0
	addi.d	$a0, $sp, 32
	pcaddu18i	$ra, %call36(_ZNSt7__cxx1118basic_stringstreamIcSt11char_traitsIcESaIcEED1Ev)
	jirl	$ra, $ra, 0
	move	$a0, $fp
	pcaddu18i	$ra, %call36(_Unwind_Resume)
	jirl	$ra, $ra, 0
.LBB17_31:
.Ltmp187:
.LBB17_32:
	move	$fp, $a0
.LBB17_33:
	addi.d	$a0, $sp, 32
	pcaddu18i	$ra, %call36(_ZNSt7__cxx1118basic_stringstreamIcSt11char_traitsIcESaIcEED1Ev)
	jirl	$ra, $ra, 0
	move	$a0, $fp
	pcaddu18i	$ra, %call36(_Unwind_Resume)
	jirl	$ra, $ra, 0
.Lfunc_end17:
	.size	_ZNK7Results10NumThreadsEv, .Lfunc_end17-_ZNK7Results10NumThreadsEv
	.cfi_endproc
	.section	.gcc_except_table,"a",@progbits
	.p2align	2, 0x0
GCC_except_table17:
.Lexception5:
	.byte	255                             # @LPStart Encoding = omit
	.byte	255                             # @TType Encoding = omit
	.byte	1                               # Call site Encoding = uleb128
	.uleb128 .Lcst_end5-.Lcst_begin5
.Lcst_begin5:
	.uleb128 .Lfunc_begin5-.Lfunc_begin5    # >> Call Site 1 <<
	.uleb128 .Ltmp172-.Lfunc_begin5         #   Call between .Lfunc_begin5 and .Ltmp172
	.byte	0                               #     has no landing pad
	.byte	0                               #   On action: cleanup
	.uleb128 .Ltmp172-.Lfunc_begin5         # >> Call Site 2 <<
	.uleb128 .Ltmp173-.Ltmp172              #   Call between .Ltmp172 and .Ltmp173
	.uleb128 .Ltmp187-.Lfunc_begin5         #     jumps to .Ltmp187
	.byte	0                               #   On action: cleanup
	.uleb128 .Ltmp173-.Lfunc_begin5         # >> Call Site 3 <<
	.uleb128 .Ltmp174-.Ltmp173              #   Call between .Ltmp173 and .Ltmp174
	.byte	0                               #     has no landing pad
	.byte	0                               #   On action: cleanup
	.uleb128 .Ltmp174-.Lfunc_begin5         # >> Call Site 4 <<
	.uleb128 .Ltmp175-.Ltmp174              #   Call between .Ltmp174 and .Ltmp175
	.uleb128 .Ltmp176-.Lfunc_begin5         #     jumps to .Ltmp176
	.byte	0                               #   On action: cleanup
	.uleb128 .Ltmp175-.Lfunc_begin5         # >> Call Site 5 <<
	.uleb128 .Ltmp177-.Ltmp175              #   Call between .Ltmp175 and .Ltmp177
	.byte	0                               #     has no landing pad
	.byte	0                               #   On action: cleanup
	.uleb128 .Ltmp177-.Lfunc_begin5         # >> Call Site 6 <<
	.uleb128 .Ltmp178-.Ltmp177              #   Call between .Ltmp177 and .Ltmp178
	.uleb128 .Ltmp179-.Lfunc_begin5         #     jumps to .Ltmp179
	.byte	0                               #   On action: cleanup
	.uleb128 .Ltmp178-.Lfunc_begin5         # >> Call Site 7 <<
	.uleb128 .Ltmp185-.Ltmp178              #   Call between .Ltmp178 and .Ltmp185
	.byte	0                               #     has no landing pad
	.byte	0                               #   On action: cleanup
	.uleb128 .Ltmp185-.Lfunc_begin5         # >> Call Site 8 <<
	.uleb128 .Ltmp186-.Ltmp185              #   Call between .Ltmp185 and .Ltmp186
	.uleb128 .Ltmp187-.Lfunc_begin5         #     jumps to .Ltmp187
	.byte	0                               #   On action: cleanup
	.uleb128 .Ltmp180-.Lfunc_begin5         # >> Call Site 9 <<
	.uleb128 .Ltmp183-.Ltmp180              #   Call between .Ltmp180 and .Ltmp183
	.uleb128 .Ltmp184-.Lfunc_begin5         #     jumps to .Ltmp184
	.byte	0                               #   On action: cleanup
	.uleb128 .Ltmp183-.Lfunc_begin5         # >> Call Site 10 <<
	.uleb128 .Lfunc_end17-.Ltmp183          #   Call between .Ltmp183 and .Lfunc_end17
	.byte	0                               #     has no landing pad
	.byte	0                               #   On action: cleanup
.Lcst_end5:
	.p2align	2, 0x0
                                        # -- End function
	.text
	.hidden	_ZNK7Results13NumIterationsEv   # -- Begin function _ZNK7Results13NumIterationsEv
	.globl	_ZNK7Results13NumIterationsEv
	.p2align	5
	.type	_ZNK7Results13NumIterationsEv,@function
_ZNK7Results13NumIterationsEv:          # @_ZNK7Results13NumIterationsEv
.Lfunc_begin6:
	.cfi_startproc
	.cfi_personality 155, DW.ref.__gxx_personality_v0
	.cfi_lsda 27, .Lexception6
# %bb.0:                                # %._crit_edge.i.i
	addi.d	$sp, $sp, -64
	.cfi_def_cfa_offset 64
	st.d	$ra, $sp, 56                    # 8-byte Folded Spill
	st.d	$fp, $sp, 48                    # 8-byte Folded Spill
	st.d	$s0, $sp, 40                    # 8-byte Folded Spill
	fst.d	$fs0, $sp, 32                   # 8-byte Folded Spill
	.cfi_offset 1, -8
	.cfi_offset 22, -16
	.cfi_offset 23, -24
	.cfi_offset 56, -32
	pcalau12i	$a1, %pc_hi20(.L.str.18)
	addi.d	$a1, $a1, %pc_lo12(.L.str.18)
	ld.d	$a2, $a1, 0
	ld.h	$a1, $a1, 8
	addi.d	$s0, $sp, 16
	st.d	$s0, $sp, 0
	st.d	$a2, $sp, 16
	st.h	$a1, $sp, 24
	ori	$a1, $zero, 10
	st.d	$a1, $sp, 8
	st.b	$zero, $sp, 26
.Ltmp188:
	addi.d	$a1, $sp, 0
	pcaddu18i	$ra, %call36(_ZNK7Results5GetAsIdEET_RKNSt7__cxx1112basic_stringIcSt11char_traitsIcESaIcEEE)
	jirl	$ra, $ra, 0
.Ltmp189:
# %bb.1:
	ld.d	$a0, $sp, 0
	beq	$a0, $s0, .LBB18_3
# %bb.2:                                # %_ZNKSt7__cxx1112basic_stringIcSt11char_traitsIcESaIcEE11_M_is_localEv.exit.i.i
	ld.d	$a1, $sp, 16
	addi.d	$a1, $a1, 1
	fmov.d	$fs0, $fa0
	pcaddu18i	$ra, %call36(_ZdlPvm)
	jirl	$ra, $ra, 0
	fmov.d	$fa0, $fs0
.LBB18_3:                               # %_ZNSt7__cxx1112basic_stringIcSt11char_traitsIcESaIcEED2Ev.exit
	fld.d	$fs0, $sp, 32                   # 8-byte Folded Reload
	ld.d	$s0, $sp, 40                    # 8-byte Folded Reload
	ld.d	$fp, $sp, 48                    # 8-byte Folded Reload
	ld.d	$ra, $sp, 56                    # 8-byte Folded Reload
	addi.d	$sp, $sp, 64
	ret
.LBB18_4:
.Ltmp190:
	ld.d	$a2, $sp, 0
	move	$fp, $a0
	beq	$a2, $s0, .LBB18_6
# %bb.5:                                # %_ZNKSt7__cxx1112basic_stringIcSt11char_traitsIcESaIcEE11_M_is_localEv.exit.i.i4
	ld.d	$a0, $sp, 16
	addi.d	$a1, $a0, 1
	move	$a0, $a2
	pcaddu18i	$ra, %call36(_ZdlPvm)
	jirl	$ra, $ra, 0
.LBB18_6:                               # %_ZNSt7__cxx1112basic_stringIcSt11char_traitsIcESaIcEED2Ev.exit6
	move	$a0, $fp
	pcaddu18i	$ra, %call36(_Unwind_Resume)
	jirl	$ra, $ra, 0
.Lfunc_end18:
	.size	_ZNK7Results13NumIterationsEv, .Lfunc_end18-_ZNK7Results13NumIterationsEv
	.cfi_endproc
	.section	.gcc_except_table,"a",@progbits
	.p2align	2, 0x0
GCC_except_table18:
.Lexception6:
	.byte	255                             # @LPStart Encoding = omit
	.byte	255                             # @TType Encoding = omit
	.byte	1                               # Call site Encoding = uleb128
	.uleb128 .Lcst_end6-.Lcst_begin6
.Lcst_begin6:
	.uleb128 .Ltmp188-.Lfunc_begin6         # >> Call Site 1 <<
	.uleb128 .Ltmp189-.Ltmp188              #   Call between .Ltmp188 and .Ltmp189
	.uleb128 .Ltmp190-.Lfunc_begin6         #     jumps to .Ltmp190
	.byte	0                               #   On action: cleanup
	.uleb128 .Ltmp189-.Lfunc_begin6         # >> Call Site 2 <<
	.uleb128 .Lfunc_end18-.Ltmp189          #   Call between .Ltmp189 and .Lfunc_end18
	.byte	0                               #     has no landing pad
	.byte	0                               #   On action: cleanup
.Lcst_end6:
	.p2align	2, 0x0
                                        # -- End function
	.section	.text._ZNK7Results5GetAsIdEET_RKNSt7__cxx1112basic_stringIcSt11char_traitsIcESaIcEEE,"axG",@progbits,_ZNK7Results5GetAsIdEET_RKNSt7__cxx1112basic_stringIcSt11char_traitsIcESaIcEEE,comdat
	.hidden	_ZNK7Results5GetAsIdEET_RKNSt7__cxx1112basic_stringIcSt11char_traitsIcESaIcEEE # -- Begin function _ZNK7Results5GetAsIdEET_RKNSt7__cxx1112basic_stringIcSt11char_traitsIcESaIcEEE
	.weak	_ZNK7Results5GetAsIdEET_RKNSt7__cxx1112basic_stringIcSt11char_traitsIcESaIcEEE
	.p2align	5
	.type	_ZNK7Results5GetAsIdEET_RKNSt7__cxx1112basic_stringIcSt11char_traitsIcESaIcEEE,@function
_ZNK7Results5GetAsIdEET_RKNSt7__cxx1112basic_stringIcSt11char_traitsIcESaIcEEE: # @_ZNK7Results5GetAsIdEET_RKNSt7__cxx1112basic_stringIcSt11char_traitsIcESaIcEEE
.Lfunc_begin7:
	.cfi_startproc
	.cfi_personality 155, DW.ref.__gxx_personality_v0
	.cfi_lsda 27, .Lexception7
# %bb.0:
	addi.d	$sp, $sp, -512
	.cfi_def_cfa_offset 512
	st.d	$ra, $sp, 504                   # 8-byte Folded Spill
	st.d	$fp, $sp, 496                   # 8-byte Folded Spill
	st.d	$s0, $sp, 488                   # 8-byte Folded Spill
	st.d	$s1, $sp, 480                   # 8-byte Folded Spill
	st.d	$s2, $sp, 472                   # 8-byte Folded Spill
	st.d	$s3, $sp, 464                   # 8-byte Folded Spill
	st.d	$s4, $sp, 456                   # 8-byte Folded Spill
	st.d	$s5, $sp, 448                   # 8-byte Folded Spill
	st.d	$s6, $sp, 440                   # 8-byte Folded Spill
	st.d	$s7, $sp, 432                   # 8-byte Folded Spill
	st.d	$s8, $sp, 424                   # 8-byte Folded Spill
	fst.d	$fs0, $sp, 416                  # 8-byte Folded Spill
	.cfi_offset 1, -8
	.cfi_offset 22, -16
	.cfi_offset 23, -24
	.cfi_offset 24, -32
	.cfi_offset 25, -40
	.cfi_offset 26, -48
	.cfi_offset 27, -56
	.cfi_offset 28, -64
	.cfi_offset 29, -72
	.cfi_offset 30, -80
	.cfi_offset 31, -88
	.cfi_offset 56, -96
	ld.d	$s5, $a0, 48
	beqz	$s5, .LBB19_20
# %bb.1:                                # %.lr.ph.i.i.i.i
	addi.d	$s1, $a0, 40
	ld.d	$s4, $a1, 8
	ld.d	$fp, $a1, 0
	lu12i.w	$s3, -524288
	lu12i.w	$a0, 524287
	ori	$s2, $a0, 4095
	ori	$s6, $zero, 16
	ori	$s7, $zero, 24
	move	$s0, $s1
	b	.LBB19_4
	.p2align	4, , 16
.LBB19_2:                               # %_ZNSt11char_traitsIcE7compareEPKcS2_m.exit.thread.i.i.i.i.i.i.i
                                        #   in Loop: Header=BB19_4 Depth=1
	sub.d	$a0, $s8, $s4
	slt	$a1, $s3, $a0
	maskeqz	$a0, $a0, $a1
	masknez	$a1, $s3, $a1
	or	$a0, $a0, $a1
	slt	$a1, $a0, $s2
	maskeqz	$a0, $a0, $a1
	masknez	$a1, $s2, $a1
	or	$a0, $a0, $a1
.LBB19_3:                               # %_ZNKSt4lessINSt7__cxx1112basic_stringIcSt11char_traitsIcESaIcEEEEclERKS5_S8_.exit.i.i.i.i
                                        #   in Loop: Header=BB19_4 Depth=1
	addi.w	$a0, $a0, 0
	slti	$a0, $a0, 0
	masknez	$a1, $s5, $a0
	masknez	$a2, $s6, $a0
	maskeqz	$a3, $s7, $a0
	or	$a2, $a3, $a2
	ldx.d	$s5, $s5, $a2
	maskeqz	$a0, $s0, $a0
	or	$s0, $a0, $a1
	beqz	$s5, .LBB19_6
.LBB19_4:                               # =>This Inner Loop Header: Depth=1
	ld.d	$s8, $s5, 40
	sltu	$a0, $s4, $s8
	masknez	$a1, $s8, $a0
	maskeqz	$a0, $s4, $a0
	or	$a2, $a0, $a1
	beqz	$a2, .LBB19_2
# %bb.5:                                # %_ZNSt11char_traitsIcE7compareEPKcS2_m.exit.i.i.i.i.i.i.i
                                        #   in Loop: Header=BB19_4 Depth=1
	ld.d	$a0, $s5, 32
	move	$a1, $fp
	pcaddu18i	$ra, %call36(memcmp)
	jirl	$ra, $ra, 0
	bnez	$a0, .LBB19_3
	b	.LBB19_2
.LBB19_6:                               # %_ZNKSt8_Rb_treeINSt7__cxx1112basic_stringIcSt11char_traitsIcESaIcEEESt4pairIKS5_S5_ESt10_Select1stIS8_ESt4lessIS5_ESaIS8_EE14_M_lower_boundEPKSt13_Rb_tree_nodeIS8_EPKSt18_Rb_tree_node_baseRS7_.exit.i.i.i
	beq	$s0, $s1, .LBB19_20
# %bb.7:
	ld.d	$s5, $s0, 40
	sltu	$a0, $s5, $s4
	masknez	$a1, $s4, $a0
	maskeqz	$a0, $s5, $a0
	or	$a2, $a0, $a1
	beqz	$a2, .LBB19_9
# %bb.8:                                # %_ZNSt11char_traitsIcE7compareEPKcS2_m.exit.i.i.i.i.i.i
	ld.d	$a1, $s0, 32
	move	$a0, $fp
	pcaddu18i	$ra, %call36(memcmp)
	jirl	$ra, $ra, 0
	bnez	$a0, .LBB19_10
.LBB19_9:                               # %_ZNSt11char_traitsIcE7compareEPKcS2_m.exit.thread.i.i.i.i.i.i
	sub.d	$a0, $s4, $s5
	slt	$a1, $s3, $a0
	maskeqz	$a0, $a0, $a1
	masknez	$a1, $s3, $a1
	or	$a0, $a0, $a1
	slt	$a1, $a0, $s2
	maskeqz	$a0, $a0, $a1
	masknez	$a1, $s2, $a1
	or	$a0, $a0, $a1
.LBB19_10:                              # %_ZNK7Results3GetERKNSt7__cxx1112basic_stringIcSt11char_traitsIcESaIcEEE.exit
	addi.w	$a0, $a0, 0
	bltz	$a0, .LBB19_20
# %bb.11:
	ld.d	$a1, $s0, 72
	beqz	$a1, .LBB19_20
# %bb.12:
	slti	$a0, $a0, 0
	pcalau12i	$fp, %pc_hi20(_ZGVZN9benchmark8internal18GetNullLogInstanceEvE8null_log)
	ld.b	$a1, $fp, %pc_lo12(_ZGVZN9benchmark8internal18GetNullLogInstanceEvE8null_log)
	masknez	$a2, $s0, $a0
	maskeqz	$a0, $s1, $a0
	or	$s1, $a0, $a2
	dbar	20
	beqz	$a1, .LBB19_21
.LBB19_13:                              # %_ZN9benchmark8internal18GetNullLogInstanceEv.exit
	addi.d	$a0, $sp, 24
	pcaddu18i	$ra, %call36(_ZNSt7__cxx1118basic_stringstreamIcSt11char_traitsIcESaIcEEC1Ev)
	jirl	$ra, $ra, 0
	ld.d	$a1, $s1, 64
	ld.d	$a2, $s0, 72
	addi.d	$a0, $sp, 40
.Ltmp191:
	pcaddu18i	$ra, %call36(_ZSt16__ostream_insertIcSt11char_traitsIcEERSt13basic_ostreamIT_T0_ES6_PKS3_l)
	jirl	$ra, $ra, 0
.Ltmp192:
# %bb.14:                               # %_ZStlsIcSt11char_traitsIcESaIcEERSt13basic_ostreamIT_T0_ES7_RKNSt7__cxx1112basic_stringIS4_S5_T1_EE.exit
.Ltmp194:
	addi.d	$a0, $sp, 24
	addi.d	$a1, $sp, 16
	addi.d	$s0, $sp, 24
	pcaddu18i	$ra, %call36(_ZNSi10_M_extractIdEERSiRT_)
	jirl	$ra, $ra, 0
.Ltmp195:
# %bb.15:                               # %_ZNSirsERd.exit
	ld.d	$a0, $sp, 24
	ld.d	$a0, $a0, -24
	add.d	$a0, $s0, $a0
	ld.bu	$a0, $a0, 32
	andi	$a0, $a0, 5
	bnez	$a0, .LBB19_23
# %bb.16:
	ld.b	$a0, $fp, %pc_lo12(_ZGVZN9benchmark8internal18GetNullLogInstanceEvE8null_log)
	dbar	20
	beqz	$a0, .LBB19_26
.LBB19_17:
	pcalau12i	$a0, %got_pc_hi20(_ZTTNSt7__cxx1118basic_stringstreamIcSt11char_traitsIcESaIcEEE)
	ld.d	$fp, $a0, %got_pc_lo12(_ZTTNSt7__cxx1118basic_stringstreamIcSt11char_traitsIcESaIcEEE)
	ld.d	$a0, $fp, 0
	st.d	$a0, $sp, 24
	ld.d	$a1, $fp, 64
	ld.d	$a0, $a0, -24
	addi.d	$s0, $sp, 24
	stx.d	$a1, $a0, $s0
	ld.d	$a1, $fp, 72
	pcalau12i	$a0, %got_pc_hi20(_ZTVNSt7__cxx1115basic_stringbufIcSt11char_traitsIcESaIcEEE)
	ld.d	$a2, $a0, %got_pc_lo12(_ZTVNSt7__cxx1115basic_stringbufIcSt11char_traitsIcESaIcEEE)
	fld.d	$fs0, $sp, 16
	ld.d	$a0, $sp, 120
	st.d	$a1, $sp, 40
	addi.d	$a1, $a2, 16
	addi.d	$a2, $sp, 136
	st.d	$a1, $sp, 48
	beq	$a0, $a2, .LBB19_19
# %bb.18:                               # %_ZNKSt7__cxx1112basic_stringIcSt11char_traitsIcESaIcEE11_M_is_localEv.exit.i.i.i.i.i
	ld.d	$a1, $sp, 136
	addi.d	$a1, $a1, 1
	pcaddu18i	$ra, %call36(_ZdlPvm)
	jirl	$ra, $ra, 0
.LBB19_19:                              # %_ZNSt7__cxx1118basic_stringstreamIcSt11char_traitsIcESaIcEED1Ev.exit
	pcalau12i	$a0, %got_pc_hi20(_ZTVSt15basic_streambufIcSt11char_traitsIcEE)
	ld.d	$a0, $a0, %got_pc_lo12(_ZTVSt15basic_streambufIcSt11char_traitsIcEE)
	addi.d	$a0, $a0, 16
	st.d	$a0, $sp, 48
	addi.d	$a0, $sp, 104
	pcaddu18i	$ra, %call36(_ZNSt6localeD1Ev)
	jirl	$ra, $ra, 0
	ld.d	$a0, $fp, 16
	st.d	$a0, $sp, 24
	ld.d	$a1, $fp, 24
	ld.d	$a0, $a0, -24
	stx.d	$a1, $a0, $s0
	st.d	$zero, $sp, 32
	addi.d	$a0, $sp, 152
	pcaddu18i	$ra, %call36(_ZNSt8ios_baseD2Ev)
	jirl	$ra, $ra, 0
	fmov.d	$fa0, $fs0
	fld.d	$fs0, $sp, 416                  # 8-byte Folded Reload
	ld.d	$s8, $sp, 424                   # 8-byte Folded Reload
	ld.d	$s7, $sp, 432                   # 8-byte Folded Reload
	ld.d	$s6, $sp, 440                   # 8-byte Folded Reload
	ld.d	$s5, $sp, 448                   # 8-byte Folded Reload
	ld.d	$s4, $sp, 456                   # 8-byte Folded Reload
	ld.d	$s3, $sp, 464                   # 8-byte Folded Reload
	ld.d	$s2, $sp, 472                   # 8-byte Folded Reload
	ld.d	$s1, $sp, 480                   # 8-byte Folded Reload
	ld.d	$s0, $sp, 488                   # 8-byte Folded Reload
	ld.d	$fp, $sp, 496                   # 8-byte Folded Reload
	ld.d	$ra, $sp, 504                   # 8-byte Folded Reload
	addi.d	$sp, $sp, 512
	ret
.LBB19_20:                              # %.critedge
	pcalau12i	$a0, %pc_hi20(.L.str.299)
	addi.d	$a1, $a0, %pc_lo12(.L.str.299)
	pcalau12i	$a0, %pc_hi20(.L.str.300)
	addi.d	$a2, $a0, %pc_lo12(.L.str.300)
	pcalau12i	$a0, %pc_hi20(.L__func__._ZNK7Results5GetAsIdEET_RKNSt7__cxx1112basic_stringIcSt11char_traitsIcESaIcEEE)
	addi.d	$a3, $a0, %pc_lo12(.L__func__._ZNK7Results5GetAsIdEET_RKNSt7__cxx1112basic_stringIcSt11char_traitsIcESaIcEEE)
	addi.d	$a0, $sp, 24
	ori	$a4, $zero, 144
	pcaddu18i	$ra, %call36(_ZN9benchmark8internal12CheckHandlerC2EPKcS3_S3_i)
	jirl	$ra, $ra, 0
	addi.d	$a0, $sp, 24
	pcaddu18i	$ra, %call36(_ZN9benchmark8internal12CheckHandlerD2Ev)
	jirl	$ra, $ra, 0
.LBB19_21:
	pcalau12i	$a0, %pc_hi20(_ZGVZN9benchmark8internal18GetNullLogInstanceEvE8null_log)
	addi.d	$a0, $a0, %pc_lo12(_ZGVZN9benchmark8internal18GetNullLogInstanceEvE8null_log)
	pcaddu18i	$ra, %call36(__cxa_guard_acquire)
	jirl	$ra, $ra, 0
	addi.w	$a0, $a0, 0
	beqz	$a0, .LBB19_13
# %bb.22:
	pcalau12i	$a0, %pc_hi20(_ZZN9benchmark8internal18GetNullLogInstanceEvE8null_log)
	st.d	$zero, $a0, %pc_lo12(_ZZN9benchmark8internal18GetNullLogInstanceEvE8null_log)
	pcalau12i	$a0, %pc_hi20(_ZGVZN9benchmark8internal18GetNullLogInstanceEvE8null_log)
	addi.d	$a0, $a0, %pc_lo12(_ZGVZN9benchmark8internal18GetNullLogInstanceEvE8null_log)
	pcaddu18i	$ra, %call36(__cxa_guard_release)
	jirl	$ra, $ra, 0
	b	.LBB19_13
.LBB19_23:
.Ltmp197:
	pcalau12i	$a0, %pc_hi20(.L.str.17)
	addi.d	$a1, $a0, %pc_lo12(.L.str.17)
	pcalau12i	$a0, %pc_hi20(.L.str.300)
	addi.d	$a2, $a0, %pc_lo12(.L.str.300)
	pcalau12i	$a0, %pc_hi20(.L__func__._ZNK7Results5GetAsIdEET_RKNSt7__cxx1112basic_stringIcSt11char_traitsIcESaIcEEE)
	addi.d	$a3, $a0, %pc_lo12(.L__func__._ZNK7Results5GetAsIdEET_RKNSt7__cxx1112basic_stringIcSt11char_traitsIcESaIcEEE)
	addi.d	$a0, $sp, 8
	ori	$a4, $zero, 149
	pcaddu18i	$ra, %call36(_ZN9benchmark8internal12CheckHandlerC2EPKcS3_S3_i)
	jirl	$ra, $ra, 0
.Ltmp198:
# %bb.24:                               # %_ZN9benchmark8internal18GetNullLogInstanceEv.exit20
.Ltmp199:
	addi.d	$a0, $sp, 8
	pcaddu18i	$ra, %call36(_ZN9benchmark8internal12CheckHandlerD2Ev)
	jirl	$ra, $ra, 0
.Ltmp200:
# %bb.25:
.LBB19_26:
	pcalau12i	$a0, %pc_hi20(_ZGVZN9benchmark8internal18GetNullLogInstanceEvE8null_log)
	addi.d	$a0, $a0, %pc_lo12(_ZGVZN9benchmark8internal18GetNullLogInstanceEvE8null_log)
	pcaddu18i	$ra, %call36(__cxa_guard_acquire)
	jirl	$ra, $ra, 0
	addi.w	$a0, $a0, 0
	beqz	$a0, .LBB19_17
# %bb.27:
	pcalau12i	$a0, %pc_hi20(_ZZN9benchmark8internal18GetNullLogInstanceEvE8null_log)
	st.d	$zero, $a0, %pc_lo12(_ZZN9benchmark8internal18GetNullLogInstanceEvE8null_log)
	pcalau12i	$a0, %pc_hi20(_ZGVZN9benchmark8internal18GetNullLogInstanceEvE8null_log)
	addi.d	$a0, $a0, %pc_lo12(_ZGVZN9benchmark8internal18GetNullLogInstanceEvE8null_log)
	pcaddu18i	$ra, %call36(__cxa_guard_release)
	jirl	$ra, $ra, 0
	b	.LBB19_17
.LBB19_28:
.Ltmp201:
	b	.LBB19_31
.LBB19_29:
.Ltmp196:
	b	.LBB19_31
.LBB19_30:
.Ltmp193:
.LBB19_31:
	move	$fp, $a0
	addi.d	$a0, $sp, 24
	pcaddu18i	$ra, %call36(_ZNSt7__cxx1118basic_stringstreamIcSt11char_traitsIcESaIcEED1Ev)
	jirl	$ra, $ra, 0
	move	$a0, $fp
	pcaddu18i	$ra, %call36(_Unwind_Resume)
	jirl	$ra, $ra, 0
.Lfunc_end19:
	.size	_ZNK7Results5GetAsIdEET_RKNSt7__cxx1112basic_stringIcSt11char_traitsIcESaIcEEE, .Lfunc_end19-_ZNK7Results5GetAsIdEET_RKNSt7__cxx1112basic_stringIcSt11char_traitsIcESaIcEEE
	.cfi_endproc
	.section	.gcc_except_table._ZNK7Results5GetAsIdEET_RKNSt7__cxx1112basic_stringIcSt11char_traitsIcESaIcEEE,"aG",@progbits,_ZNK7Results5GetAsIdEET_RKNSt7__cxx1112basic_stringIcSt11char_traitsIcESaIcEEE,comdat
	.p2align	2, 0x0
GCC_except_table19:
.Lexception7:
	.byte	255                             # @LPStart Encoding = omit
	.byte	255                             # @TType Encoding = omit
	.byte	1                               # Call site Encoding = uleb128
	.uleb128 .Lcst_end7-.Lcst_begin7
.Lcst_begin7:
	.uleb128 .Lfunc_begin7-.Lfunc_begin7    # >> Call Site 1 <<
	.uleb128 .Ltmp191-.Lfunc_begin7         #   Call between .Lfunc_begin7 and .Ltmp191
	.byte	0                               #     has no landing pad
	.byte	0                               #   On action: cleanup
	.uleb128 .Ltmp191-.Lfunc_begin7         # >> Call Site 2 <<
	.uleb128 .Ltmp192-.Ltmp191              #   Call between .Ltmp191 and .Ltmp192
	.uleb128 .Ltmp193-.Lfunc_begin7         #     jumps to .Ltmp193
	.byte	0                               #   On action: cleanup
	.uleb128 .Ltmp194-.Lfunc_begin7         # >> Call Site 3 <<
	.uleb128 .Ltmp195-.Ltmp194              #   Call between .Ltmp194 and .Ltmp195
	.uleb128 .Ltmp196-.Lfunc_begin7         #     jumps to .Ltmp196
	.byte	0                               #   On action: cleanup
	.uleb128 .Ltmp195-.Lfunc_begin7         # >> Call Site 4 <<
	.uleb128 .Ltmp197-.Ltmp195              #   Call between .Ltmp195 and .Ltmp197
	.byte	0                               #     has no landing pad
	.byte	0                               #   On action: cleanup
	.uleb128 .Ltmp197-.Lfunc_begin7         # >> Call Site 5 <<
	.uleb128 .Ltmp200-.Ltmp197              #   Call between .Ltmp197 and .Ltmp200
	.uleb128 .Ltmp201-.Lfunc_begin7         #     jumps to .Ltmp201
	.byte	0                               #   On action: cleanup
	.uleb128 .Ltmp200-.Lfunc_begin7         # >> Call Site 6 <<
	.uleb128 .Lfunc_end19-.Ltmp200          #   Call between .Ltmp200 and .Lfunc_end19
	.byte	0                               #     has no landing pad
	.byte	0                               #   On action: cleanup
.Lcst_end7:
	.p2align	2, 0x0
                                        # -- End function
	.section	.text._ZNSt7__cxx1112basic_stringIcSt11char_traitsIcESaIcEEC2IS3_EEPKcRKS3_,"axG",@progbits,_ZNSt7__cxx1112basic_stringIcSt11char_traitsIcESaIcEEC2IS3_EEPKcRKS3_,comdat
	.hidden	_ZNSt7__cxx1112basic_stringIcSt11char_traitsIcESaIcEEC2IS3_EEPKcRKS3_ # -- Begin function _ZNSt7__cxx1112basic_stringIcSt11char_traitsIcESaIcEEC2IS3_EEPKcRKS3_
	.weak	_ZNSt7__cxx1112basic_stringIcSt11char_traitsIcESaIcEEC2IS3_EEPKcRKS3_
	.p2align	5
	.type	_ZNSt7__cxx1112basic_stringIcSt11char_traitsIcESaIcEEC2IS3_EEPKcRKS3_,@function
_ZNSt7__cxx1112basic_stringIcSt11char_traitsIcESaIcEEC2IS3_EEPKcRKS3_: # @_ZNSt7__cxx1112basic_stringIcSt11char_traitsIcESaIcEEC2IS3_EEPKcRKS3_
	.cfi_startproc
# %bb.0:
	addi.d	$sp, $sp, -48
	.cfi_def_cfa_offset 48
	st.d	$ra, $sp, 40                    # 8-byte Folded Spill
	st.d	$fp, $sp, 32                    # 8-byte Folded Spill
	st.d	$s0, $sp, 24                    # 8-byte Folded Spill
	st.d	$s1, $sp, 16                    # 8-byte Folded Spill
	st.d	$s2, $sp, 8                     # 8-byte Folded Spill
	.cfi_offset 1, -8
	.cfi_offset 22, -16
	.cfi_offset 23, -24
	.cfi_offset 24, -32
	.cfi_offset 25, -40
	addi.d	$s2, $a0, 16
	st.d	$s2, $a0, 0
	beqz	$a1, .LBB20_8
# %bb.1:
	move	$s0, $a1
	move	$fp, $a0
	move	$a0, $a1
	pcaddu18i	$ra, %call36(strlen)
	jirl	$ra, $ra, 0
	move	$s1, $a0
	ori	$a0, $zero, 16
	st.d	$s1, $sp, 0
	bltu	$s1, $a0, .LBB20_3
# %bb.2:                                # %.noexc
	addi.d	$a1, $sp, 0
	move	$a0, $fp
	move	$a2, $zero
	pcaddu18i	$ra, %call36(_ZNSt7__cxx1112basic_stringIcSt11char_traitsIcESaIcEE9_M_createERmm)
	jirl	$ra, $ra, 0
	ld.d	$a1, $sp, 0
	move	$s2, $a0
	st.d	$a0, $fp, 0
	st.d	$a1, $fp, 16
.LBB20_3:                               # %._crit_edge.i
	beqz	$s1, .LBB20_7
# %bb.4:                                # %._crit_edge.i
	ori	$a0, $zero, 1
	bne	$s1, $a0, .LBB20_6
# %bb.5:
	ld.b	$a0, $s0, 0
	st.b	$a0, $s2, 0
	b	.LBB20_7
.LBB20_6:
	move	$a0, $s2
	move	$a1, $s0
	move	$a2, $s1
	pcaddu18i	$ra, %call36(memcpy)
	jirl	$ra, $ra, 0
.LBB20_7:
	ld.d	$a0, $sp, 0
	ld.d	$a1, $fp, 0
	st.d	$a0, $fp, 8
	stx.b	$zero, $a1, $a0
	ld.d	$s2, $sp, 8                     # 8-byte Folded Reload
	ld.d	$s1, $sp, 16                    # 8-byte Folded Reload
	ld.d	$s0, $sp, 24                    # 8-byte Folded Reload
	ld.d	$fp, $sp, 32                    # 8-byte Folded Reload
	ld.d	$ra, $sp, 40                    # 8-byte Folded Reload
	addi.d	$sp, $sp, 48
	ret
.LBB20_8:
	pcalau12i	$a0, %pc_hi20(.L.str.84)
	addi.d	$a0, $a0, %pc_lo12(.L.str.84)
	pcaddu18i	$ra, %call36(_ZSt19__throw_logic_errorPKc)
	jirl	$ra, $ra, 0
.Lfunc_end20:
	.size	_ZNSt7__cxx1112basic_stringIcSt11char_traitsIcESaIcEEC2IS3_EEPKcRKS3_, .Lfunc_end20-_ZNSt7__cxx1112basic_stringIcSt11char_traitsIcESaIcEEC2IS3_EEPKcRKS3_
	.cfi_endproc
                                        # -- End function
	.section	.rodata.cst8,"aM",@progbits,8
	.p2align	3, 0x0                          # -- Begin function _ZNK7Results7GetTimeENS_13BenchmarkTimeE
.LCPI21_0:
	.dword	0x3f50624dd2f1a9fc              # double 0.001
.LCPI21_1:
	.dword	0x3eb0c6f7a0b5ed8d              # double 9.9999999999999995E-7
.LCPI21_2:
	.dword	0x3e112e0be826d695              # double 1.0000000000000001E-9
	.text
	.hidden	_ZNK7Results7GetTimeENS_13BenchmarkTimeE
	.globl	_ZNK7Results7GetTimeENS_13BenchmarkTimeE
	.p2align	5
	.type	_ZNK7Results7GetTimeENS_13BenchmarkTimeE,@function
_ZNK7Results7GetTimeENS_13BenchmarkTimeE: # @_ZNK7Results7GetTimeENS_13BenchmarkTimeE
.Lfunc_begin8:
	.cfi_startproc
	.cfi_personality 155, DW.ref.__gxx_personality_v0
	.cfi_lsda 27, .Lexception8
# %bb.0:
	addi.d	$sp, $sp, -144
	.cfi_def_cfa_offset 144
	st.d	$ra, $sp, 136                   # 8-byte Folded Spill
	st.d	$fp, $sp, 128                   # 8-byte Folded Spill
	st.d	$s0, $sp, 120                   # 8-byte Folded Spill
	st.d	$s1, $sp, 112                   # 8-byte Folded Spill
	st.d	$s2, $sp, 104                   # 8-byte Folded Spill
	st.d	$s3, $sp, 96                    # 8-byte Folded Spill
	st.d	$s4, $sp, 88                    # 8-byte Folded Spill
	st.d	$s5, $sp, 80                    # 8-byte Folded Spill
	st.d	$s6, $sp, 72                    # 8-byte Folded Spill
	st.d	$s7, $sp, 64                    # 8-byte Folded Spill
	st.d	$s8, $sp, 56                    # 8-byte Folded Spill
	fst.d	$fs0, $sp, 48                   # 8-byte Folded Spill
	.cfi_offset 1, -8
	.cfi_offset 22, -16
	.cfi_offset 23, -24
	.cfi_offset 24, -32
	.cfi_offset 25, -40
	.cfi_offset 26, -48
	.cfi_offset 27, -56
	.cfi_offset 28, -64
	.cfi_offset 29, -72
	.cfi_offset 30, -80
	.cfi_offset 31, -88
	.cfi_offset 56, -96
	ori	$a2, $zero, 1
	bltu	$a2, $a1, .LBB21_32
# %bb.1:
	move	$s0, $a0
	pcalau12i	$s3, %pc_hi20(_ZGVZN9benchmark8internal18GetNullLogInstanceEvE8null_log)
	ld.b	$a0, $s3, %pc_lo12(_ZGVZN9benchmark8internal18GetNullLogInstanceEvE8null_log)
	dbar	20
	beqz	$a0, .LBB21_33
.LBB21_2:                               # %._crit_edge.i.i
	sltui	$s2, $a1, 1
	pcalau12i	$a0, %pc_hi20(.L.str.21)
	addi.d	$a0, $a0, %pc_lo12(.L.str.21)
	masknez	$a0, $a0, $s2
	pcalau12i	$a1, %pc_hi20(.L.str.20)
	addi.d	$a1, $a1, %pc_lo12(.L.str.20)
	maskeqz	$a1, $a1, $s2
	or	$a1, $a1, $a0
	addi.d	$fp, $sp, 32
	st.d	$fp, $sp, 16
	xori	$s1, $s2, 9
	move	$a0, $fp
	move	$a2, $s1
	pcaddu18i	$ra, %call36(memcpy)
	jirl	$ra, $ra, 0
	st.d	$s1, $sp, 24
	xori	$a0, $s2, 25
	addi.d	$a1, $sp, 16
	stx.b	$zero, $a0, $a1
.Ltmp202:
	move	$a0, $s0
	pcaddu18i	$ra, %call36(_ZNK7Results5GetAsIdEET_RKNSt7__cxx1112basic_stringIcSt11char_traitsIcESaIcEEE)
	jirl	$ra, $ra, 0
.Ltmp203:
# %bb.3:
	fmov.d	$fs0, $fa0
	st.d	$s3, $sp, 8                     # 8-byte Folded Spill
	ld.d	$a0, $sp, 16
	beq	$a0, $fp, .LBB21_5
# %bb.4:                                # %_ZNKSt7__cxx1112basic_stringIcSt11char_traitsIcESaIcEE11_M_is_localEv.exit.i.i
	ld.d	$a1, $sp, 32
	addi.d	$a1, $a1, 1
	pcaddu18i	$ra, %call36(_ZdlPvm)
	jirl	$ra, $ra, 0
.LBB21_5:                               # %_ZNSt7__cxx1112basic_stringIcSt11char_traitsIcESaIcEED2Ev.exit
	pcalau12i	$a0, %pc_hi20(.L.str.22)
	addi.d	$a0, $a0, %pc_lo12(.L.str.22)
	ld.d	$a1, $a0, 0
	ld.b	$a0, $a0, 8
	st.d	$fp, $sp, 16
	st.d	$a1, $sp, 32
	ld.d	$s5, $s0, 48
	st.b	$a0, $sp, 40
	ori	$s6, $zero, 9
	st.d	$s6, $sp, 24
	st.b	$zero, $sp, 41
	beqz	$s5, .LBB21_31
# %bb.6:                                # %.lr.ph.i.i.i.i.preheader
	addi.d	$s0, $s0, 40
	lu12i.w	$s4, -524288
	lu12i.w	$a0, 524287
	ori	$s3, $a0, 4095
	ori	$s7, $zero, 16
	ori	$s8, $zero, 24
	move	$s1, $s0
	b	.LBB21_9
	.p2align	4, , 16
.LBB21_7:                               # %_ZNSt11char_traitsIcE7compareEPKcS2_m.exit.thread.i.i.i.i.i.i.i
                                        #   in Loop: Header=BB21_9 Depth=1
	addi.d	$a0, $s2, -9
	slt	$a1, $s4, $a0
	masknez	$a2, $s4, $a1
	maskeqz	$a0, $a0, $a1
	or	$a0, $a0, $a2
	slt	$a1, $a0, $s3
	maskeqz	$a0, $a0, $a1
	masknez	$a1, $s3, $a1
	or	$a0, $a0, $a1
.LBB21_8:                               # %_ZNKSt4lessINSt7__cxx1112basic_stringIcSt11char_traitsIcESaIcEEEEclERKS5_S8_.exit.i.i.i.i
                                        #   in Loop: Header=BB21_9 Depth=1
	addi.w	$a0, $a0, 0
	slti	$a0, $a0, 0
	masknez	$a1, $s5, $a0
	masknez	$a2, $s7, $a0
	maskeqz	$a3, $s8, $a0
	or	$a2, $a3, $a2
	ldx.d	$s5, $s5, $a2
	maskeqz	$a0, $s1, $a0
	or	$s1, $a0, $a1
	beqz	$s5, .LBB21_11
.LBB21_9:                               # %.lr.ph.i.i.i.i
                                        # =>This Inner Loop Header: Depth=1
	ld.d	$s2, $s5, 40
	beqz	$s2, .LBB21_7
# %bb.10:                               # %_ZNSt11char_traitsIcE7compareEPKcS2_m.exit.i.i.i.i.i.i.i
                                        #   in Loop: Header=BB21_9 Depth=1
	sltui	$a1, $s2, 9
	ld.d	$a0, $s5, 32
	masknez	$a2, $s6, $a1
	maskeqz	$a1, $s2, $a1
	or	$a2, $a1, $a2
	move	$a1, $fp
	pcaddu18i	$ra, %call36(memcmp)
	jirl	$ra, $ra, 0
	bnez	$a0, .LBB21_8
	b	.LBB21_7
.LBB21_11:                              # %_ZNKSt8_Rb_treeINSt7__cxx1112basic_stringIcSt11char_traitsIcESaIcEEESt4pairIKS5_S5_ESt10_Select1stIS8_ESt4lessIS5_ESaIS8_EE14_M_lower_boundEPKSt13_Rb_tree_nodeIS8_EPKSt18_Rb_tree_node_baseRS7_.exit.i.i.i
	beq	$s1, $s0, .LBB21_31
# %bb.12:
	ld.d	$s5, $s1, 40
	beqz	$s5, .LBB21_14
# %bb.13:                               # %_ZNSt11char_traitsIcE7compareEPKcS2_m.exit.i.i.i.i.i.i
	sltui	$a0, $s5, 9
	ori	$a2, $zero, 9
	ld.d	$a1, $s1, 32
	masknez	$a2, $a2, $a0
	maskeqz	$a0, $s5, $a0
	or	$a2, $a0, $a2
	move	$a0, $fp
	pcaddu18i	$ra, %call36(memcmp)
	jirl	$ra, $ra, 0
	bnez	$a0, .LBB21_15
.LBB21_14:                              # %_ZNSt11char_traitsIcE7compareEPKcS2_m.exit.thread.i.i.i.i.i.i
	ori	$a0, $zero, 9
	sub.d	$a0, $a0, $s5
	slt	$a1, $s4, $a0
	maskeqz	$a0, $a0, $a1
	masknez	$a1, $s4, $a1
	or	$a0, $a0, $a1
	slt	$a1, $a0, $s3
	maskeqz	$a0, $a0, $a1
	masknez	$a1, $s3, $a1
	or	$a0, $a0, $a1
.LBB21_15:                              # %_ZNSt7__cxx1112basic_stringIcSt11char_traitsIcESaIcEED2Ev.exit40
	addi.w	$a0, $a0, 0
	bltz	$a0, .LBB21_31
# %bb.16:
	slti	$a0, $a0, 0
	ld.d	$a1, $sp, 8                     # 8-byte Folded Reload
	ld.b	$a1, $a1, %pc_lo12(_ZGVZN9benchmark8internal18GetNullLogInstanceEvE8null_log)
	masknez	$a2, $s1, $a0
	maskeqz	$a0, $s0, $a0
	or	$fp, $a0, $a2
	dbar	20
	beqz	$a1, .LBB21_35
.LBB21_17:
	ld.d	$a2, $fp, 72
	ori	$a0, $zero, 1
	addi.d	$fp, $fp, 64
	beq	$a2, $a0, .LBB21_23
# %bb.18:
	ori	$a0, $zero, 2
	bne	$a2, $a0, .LBB21_24
# %bb.19:                               # %_ZSteqIcSt11char_traitsIcESaIcEEbRKNSt7__cxx1112basic_stringIT_T0_T1_EEPKS5_.exit
	ld.d	$a0, $fp, 0
	ld.hu	$a2, $a0, 0
	lu12i.w	$a1, 7
	ori	$a3, $a1, 878
	beq	$a2, $a3, .LBB21_27
# %bb.20:                               # %_ZSteqIcSt11char_traitsIcESaIcEEbRKNSt7__cxx1112basic_stringIT_T0_T1_EEPKS5_.exit50
	ld.hu	$a2, $a0, 0
	ori	$a3, $a1, 885
	beq	$a2, $a3, .LBB21_28
# %bb.21:                               # %_ZSteqIcSt11char_traitsIcESaIcEEbRKNSt7__cxx1112basic_stringIT_T0_T1_EEPKS5_.exit52
	ld.hu	$a0, $a0, 0
	ori	$a1, $a1, 877
	bne	$a0, $a1, .LBB21_24
# %bb.22:                               # %_ZSteqIcSt11char_traitsIcESaIcEEbRKNSt7__cxx1112basic_stringIT_T0_T1_EEPKS5_.exit52.thread
	pcalau12i	$a0, %pc_hi20(.LCPI21_0)
	fld.d	$fa0, $a0, %pc_lo12(.LCPI21_0)
	b	.LBB21_29
.LBB21_23:                              # %_ZSteqIcSt11char_traitsIcESaIcEEbRKNSt7__cxx1112basic_stringIT_T0_T1_EEPKS5_.exit54
	ld.d	$a0, $fp, 0
	pcalau12i	$a1, %pc_hi20(.L.str.27)
	addi.d	$a1, $a1, %pc_lo12(.L.str.27)
	pcaddu18i	$ra, %call36(bcmp)
	jirl	$ra, $ra, 0
	beqz	$a0, .LBB21_30
.LBB21_24:                              # %_ZSteqIcSt11char_traitsIcESaIcEEbRKNSt7__cxx1112basic_stringIT_T0_T1_EEPKS5_.exit54.thread59
	pcalau12i	$a0, %pc_hi20(.L.str.28)
	addi.d	$a1, $a0, %pc_lo12(.L.str.28)
	pcalau12i	$a0, %pc_hi20(.L.str.1)
	addi.d	$a2, $a0, %pc_lo12(.L.str.1)
	pcalau12i	$a0, %pc_hi20(.L__func__._ZNK7Results7GetTimeENS_13BenchmarkTimeE)
	addi.d	$a3, $a0, %pc_lo12(.L__func__._ZNK7Results7GetTimeENS_13BenchmarkTimeE)
	addi.d	$a0, $sp, 16
	ori	$a4, $zero, 341
	pcaddu18i	$ra, %call36(_ZN9benchmark8internal12CheckHandlerC2EPKcS3_S3_i)
	jirl	$ra, $ra, 0
	ld.d	$a0, $sp, 16
.Ltmp205:
	pcalau12i	$a1, %pc_hi20(.L.str.29)
	addi.d	$a1, $a1, %pc_lo12(.L.str.29)
	pcaddu18i	$ra, %call36(_ZN9benchmark8internallsIA20_cEERNS0_7LogTypeES4_RKT_)
	jirl	$ra, $ra, 0
.Ltmp206:
# %bb.25:
.Ltmp207:
	move	$a1, $fp
	pcaddu18i	$ra, %call36(_ZN9benchmark8internallsINSt7__cxx1112basic_stringIcSt11char_traitsIcESaIcEEEEERNS0_7LogTypeES9_RKT_)
	jirl	$ra, $ra, 0
.Ltmp208:
# %bb.26:
	addi.d	$a0, $sp, 16
	pcaddu18i	$ra, %call36(_ZN9benchmark8internal12CheckHandlerD2Ev)
	jirl	$ra, $ra, 0
.LBB21_27:                              # %_ZSteqIcSt11char_traitsIcESaIcEEbRKNSt7__cxx1112basic_stringIT_T0_T1_EEPKS5_.exit.thread
	pcalau12i	$a0, %pc_hi20(.LCPI21_2)
	fld.d	$fa0, $a0, %pc_lo12(.LCPI21_2)
	b	.LBB21_29
.LBB21_28:                              # %_ZSteqIcSt11char_traitsIcESaIcEEbRKNSt7__cxx1112basic_stringIT_T0_T1_EEPKS5_.exit50.thread
	pcalau12i	$a0, %pc_hi20(.LCPI21_1)
	fld.d	$fa0, $a0, %pc_lo12(.LCPI21_1)
.LBB21_29:                              # %_ZSteqIcSt11char_traitsIcESaIcEEbRKNSt7__cxx1112basic_stringIT_T0_T1_EEPKS5_.exit54.thread
	fmul.d	$fs0, $fs0, $fa0
.LBB21_30:                              # %_ZSteqIcSt11char_traitsIcESaIcEEbRKNSt7__cxx1112basic_stringIT_T0_T1_EEPKS5_.exit54.thread
	fmov.d	$fa0, $fs0
	fld.d	$fs0, $sp, 48                   # 8-byte Folded Reload
	ld.d	$s8, $sp, 56                    # 8-byte Folded Reload
	ld.d	$s7, $sp, 64                    # 8-byte Folded Reload
	ld.d	$s6, $sp, 72                    # 8-byte Folded Reload
	ld.d	$s5, $sp, 80                    # 8-byte Folded Reload
	ld.d	$s4, $sp, 88                    # 8-byte Folded Reload
	ld.d	$s3, $sp, 96                    # 8-byte Folded Reload
	ld.d	$s2, $sp, 104                   # 8-byte Folded Reload
	ld.d	$s1, $sp, 112                   # 8-byte Folded Reload
	ld.d	$s0, $sp, 120                   # 8-byte Folded Reload
	ld.d	$fp, $sp, 128                   # 8-byte Folded Reload
	ld.d	$ra, $sp, 136                   # 8-byte Folded Reload
	addi.d	$sp, $sp, 144
	ret
.LBB21_31:
	pcalau12i	$a0, %pc_hi20(.L.str.23)
	addi.d	$a1, $a0, %pc_lo12(.L.str.23)
	pcalau12i	$a0, %pc_hi20(.L.str.1)
	addi.d	$a2, $a0, %pc_lo12(.L.str.1)
	pcalau12i	$a0, %pc_hi20(.L__func__._ZNK7Results7GetTimeENS_13BenchmarkTimeE)
	addi.d	$a3, $a0, %pc_lo12(.L__func__._ZNK7Results7GetTimeENS_13BenchmarkTimeE)
	addi.d	$a0, $sp, 16
	ori	$a4, $zero, 328
	pcaddu18i	$ra, %call36(_ZN9benchmark8internal12CheckHandlerC2EPKcS3_S3_i)
	jirl	$ra, $ra, 0
	addi.d	$a0, $sp, 16
	pcaddu18i	$ra, %call36(_ZN9benchmark8internal12CheckHandlerD2Ev)
	jirl	$ra, $ra, 0
.LBB21_32:
	pcalau12i	$a0, %pc_hi20(.L.str.19)
	addi.d	$a1, $a0, %pc_lo12(.L.str.19)
	pcalau12i	$a0, %pc_hi20(.L.str.1)
	addi.d	$a2, $a0, %pc_lo12(.L.str.1)
	pcalau12i	$a0, %pc_hi20(.L__func__._ZNK7Results7GetTimeENS_13BenchmarkTimeE)
	addi.d	$a3, $a0, %pc_lo12(.L__func__._ZNK7Results7GetTimeENS_13BenchmarkTimeE)
	addi.d	$a0, $sp, 16
	ori	$a4, $zero, 324
	pcaddu18i	$ra, %call36(_ZN9benchmark8internal12CheckHandlerC2EPKcS3_S3_i)
	jirl	$ra, $ra, 0
	addi.d	$a0, $sp, 16
	pcaddu18i	$ra, %call36(_ZN9benchmark8internal12CheckHandlerD2Ev)
	jirl	$ra, $ra, 0
.LBB21_33:
	pcalau12i	$a0, %pc_hi20(_ZGVZN9benchmark8internal18GetNullLogInstanceEvE8null_log)
	addi.d	$a0, $a0, %pc_lo12(_ZGVZN9benchmark8internal18GetNullLogInstanceEvE8null_log)
	move	$fp, $a1
	pcaddu18i	$ra, %call36(__cxa_guard_acquire)
	jirl	$ra, $ra, 0
	move	$a1, $fp
	addi.w	$a0, $a0, 0
	beqz	$a0, .LBB21_2
# %bb.34:
	pcalau12i	$a0, %pc_hi20(_ZZN9benchmark8internal18GetNullLogInstanceEvE8null_log)
	st.d	$zero, $a0, %pc_lo12(_ZZN9benchmark8internal18GetNullLogInstanceEvE8null_log)
	pcalau12i	$a0, %pc_hi20(_ZGVZN9benchmark8internal18GetNullLogInstanceEvE8null_log)
	addi.d	$a0, $a0, %pc_lo12(_ZGVZN9benchmark8internal18GetNullLogInstanceEvE8null_log)
	pcaddu18i	$ra, %call36(__cxa_guard_release)
	jirl	$ra, $ra, 0
	move	$a1, $fp
	b	.LBB21_2
.LBB21_35:
	pcalau12i	$a0, %pc_hi20(_ZGVZN9benchmark8internal18GetNullLogInstanceEvE8null_log)
	addi.d	$a0, $a0, %pc_lo12(_ZGVZN9benchmark8internal18GetNullLogInstanceEvE8null_log)
	pcaddu18i	$ra, %call36(__cxa_guard_acquire)
	jirl	$ra, $ra, 0
	addi.w	$a0, $a0, 0
	beqz	$a0, .LBB21_17
# %bb.36:
	pcalau12i	$a0, %pc_hi20(_ZZN9benchmark8internal18GetNullLogInstanceEvE8null_log)
	st.d	$zero, $a0, %pc_lo12(_ZZN9benchmark8internal18GetNullLogInstanceEvE8null_log)
	pcalau12i	$a0, %pc_hi20(_ZGVZN9benchmark8internal18GetNullLogInstanceEvE8null_log)
	addi.d	$a0, $a0, %pc_lo12(_ZGVZN9benchmark8internal18GetNullLogInstanceEvE8null_log)
	pcaddu18i	$ra, %call36(__cxa_guard_release)
	jirl	$ra, $ra, 0
	b	.LBB21_17
.LBB21_37:
.Ltmp209:
.Ltmp210:
	addi.d	$a0, $sp, 16
	pcaddu18i	$ra, %call36(_ZN9benchmark8internal12CheckHandlerD2Ev)
	jirl	$ra, $ra, 0
.Ltmp211:
# %bb.38:
.LBB21_39:
.Ltmp212:
	pcaddu18i	$ra, %call36(__clang_call_terminate)
	jirl	$ra, $ra, 0
.LBB21_40:
.Ltmp204:
	ld.d	$a2, $sp, 16
	move	$s0, $a0
	beq	$a2, $fp, .LBB21_42
# %bb.41:                               # %_ZNKSt7__cxx1112basic_stringIcSt11char_traitsIcESaIcEE11_M_is_localEv.exit.i.i43
	ld.d	$a0, $sp, 32
	addi.d	$a1, $a0, 1
	move	$a0, $a2
	pcaddu18i	$ra, %call36(_ZdlPvm)
	jirl	$ra, $ra, 0
.LBB21_42:                              # %_ZNSt7__cxx1112basic_stringIcSt11char_traitsIcESaIcEED2Ev.exit45
	move	$a0, $s0
	pcaddu18i	$ra, %call36(_Unwind_Resume)
	jirl	$ra, $ra, 0
.Lfunc_end21:
	.size	_ZNK7Results7GetTimeENS_13BenchmarkTimeE, .Lfunc_end21-_ZNK7Results7GetTimeENS_13BenchmarkTimeE
	.cfi_endproc
	.section	.gcc_except_table,"a",@progbits
	.p2align	2, 0x0
GCC_except_table21:
.Lexception8:
	.byte	255                             # @LPStart Encoding = omit
	.byte	155                             # @TType Encoding = indirect pcrel sdata4
	.uleb128 .Lttbase2-.Lttbaseref2
.Lttbaseref2:
	.byte	1                               # Call site Encoding = uleb128
	.uleb128 .Lcst_end8-.Lcst_begin8
.Lcst_begin8:
	.uleb128 .Lfunc_begin8-.Lfunc_begin8    # >> Call Site 1 <<
	.uleb128 .Ltmp202-.Lfunc_begin8         #   Call between .Lfunc_begin8 and .Ltmp202
	.byte	0                               #     has no landing pad
	.byte	0                               #   On action: cleanup
	.uleb128 .Ltmp202-.Lfunc_begin8         # >> Call Site 2 <<
	.uleb128 .Ltmp203-.Ltmp202              #   Call between .Ltmp202 and .Ltmp203
	.uleb128 .Ltmp204-.Lfunc_begin8         #     jumps to .Ltmp204
	.byte	0                               #   On action: cleanup
	.uleb128 .Ltmp203-.Lfunc_begin8         # >> Call Site 3 <<
	.uleb128 .Ltmp205-.Ltmp203              #   Call between .Ltmp203 and .Ltmp205
	.byte	0                               #     has no landing pad
	.byte	0                               #   On action: cleanup
	.uleb128 .Ltmp205-.Lfunc_begin8         # >> Call Site 4 <<
	.uleb128 .Ltmp208-.Ltmp205              #   Call between .Ltmp205 and .Ltmp208
	.uleb128 .Ltmp209-.Lfunc_begin8         #     jumps to .Ltmp209
	.byte	0                               #   On action: cleanup
	.uleb128 .Ltmp208-.Lfunc_begin8         # >> Call Site 5 <<
	.uleb128 .Ltmp210-.Ltmp208              #   Call between .Ltmp208 and .Ltmp210
	.byte	0                               #     has no landing pad
	.byte	0                               #   On action: cleanup
	.uleb128 .Ltmp210-.Lfunc_begin8         # >> Call Site 6 <<
	.uleb128 .Ltmp211-.Ltmp210              #   Call between .Ltmp210 and .Ltmp211
	.uleb128 .Ltmp212-.Lfunc_begin8         #     jumps to .Ltmp212
	.byte	1                               #   On action: 1
	.uleb128 .Ltmp211-.Lfunc_begin8         # >> Call Site 7 <<
	.uleb128 .Lfunc_end21-.Ltmp211          #   Call between .Ltmp211 and .Lfunc_end21
	.byte	0                               #     has no landing pad
	.byte	0                               #   On action: cleanup
.Lcst_end8:
	.byte	1                               # >> Action Record 1 <<
                                        #   Catch TypeInfo 1
	.byte	0                               #   No further actions
	.p2align	2, 0x0
                                        # >> Catch TypeInfos <<
	.word	0                               # TypeInfo 1
.Lttbase2:
	.p2align	2, 0x0
                                        # -- End function
	.text
	.hidden	_ZN8TestCaseC2ENSt7__cxx1112basic_stringIcSt11char_traitsIcESaIcEEEi # -- Begin function _ZN8TestCaseC2ENSt7__cxx1112basic_stringIcSt11char_traitsIcESaIcEEEi
	.globl	_ZN8TestCaseC2ENSt7__cxx1112basic_stringIcSt11char_traitsIcESaIcEEEi
	.p2align	5
	.type	_ZN8TestCaseC2ENSt7__cxx1112basic_stringIcSt11char_traitsIcESaIcEEEi,@function
_ZN8TestCaseC2ENSt7__cxx1112basic_stringIcSt11char_traitsIcESaIcEEEi: # @_ZN8TestCaseC2ENSt7__cxx1112basic_stringIcSt11char_traitsIcESaIcEEEi
.Lfunc_begin9:
	.cfi_startproc
	.cfi_personality 155, DW.ref.__gxx_personality_v0
	.cfi_lsda 27, .Lexception9
# %bb.0:
	addi.d	$sp, $sp, -128
	.cfi_def_cfa_offset 128
	st.d	$ra, $sp, 120                   # 8-byte Folded Spill
	st.d	$fp, $sp, 112                   # 8-byte Folded Spill
	st.d	$s0, $sp, 104                   # 8-byte Folded Spill
	st.d	$s1, $sp, 96                    # 8-byte Folded Spill
	st.d	$s2, $sp, 88                    # 8-byte Folded Spill
	st.d	$s3, $sp, 80                    # 8-byte Folded Spill
	st.d	$s4, $sp, 72                    # 8-byte Folded Spill
	.cfi_offset 1, -8
	.cfi_offset 22, -16
	.cfi_offset 23, -24
	.cfi_offset 24, -32
	.cfi_offset 25, -40
	.cfi_offset 26, -48
	.cfi_offset 27, -56
	move	$s1, $a1
	move	$s0, $a0
	addi.d	$fp, $a0, 16
	st.d	$fp, $a0, 0
	ld.d	$a0, $a1, 0
	addi.d	$s3, $a1, 16
	move	$s2, $a2
	beq	$a0, $s3, .LBB22_2
# %bb.1:                                # %_ZNKSt7__cxx1112basic_stringIcSt11char_traitsIcESaIcEE11_M_is_localEv.exit.i
	st.d	$a0, $s0, 0
	ld.d	$a0, $s3, 0
	st.d	$a0, $s0, 16
	b	.LBB22_3
.LBB22_2:
	ld.d	$a0, $s1, 8
	addi.d	$a2, $a0, 1
	move	$a0, $fp
	move	$a1, $s3
	pcaddu18i	$ra, %call36(memcpy)
	jirl	$ra, $ra, 0
.LBB22_3:                               # %_ZNSt7__cxx1112basic_stringIcSt11char_traitsIcESaIcEEC2EOS4_.exit
	ld.d	$a0, $s1, 8
	st.d	$a0, $s0, 8
	st.d	$s3, $s1, 0
	st.d	$zero, $s1, 8
	st.b	$zero, $s1, 16
	st.w	$s2, $s0, 32
	addi.d	$s4, $sp, 56
	ld.d	$s2, $s0, 8
	ld.d	$s3, $s0, 0
	st.d	$s4, $sp, 40
	ori	$a1, $zero, 16
	st.d	$s2, $sp, 8
	move	$a0, $s4
	bltu	$s2, $a1, .LBB22_6
# %bb.4:                                # %.noexc.i
.Ltmp213:
	addi.d	$a0, $sp, 40
	addi.d	$a1, $sp, 8
	move	$a2, $zero
	pcaddu18i	$ra, %call36(_ZNSt7__cxx1112basic_stringIcSt11char_traitsIcESaIcEE9_M_createERmm)
	jirl	$ra, $ra, 0
.Ltmp214:
# %bb.5:                                # %.noexc
	ld.d	$a1, $sp, 8
	st.d	$a0, $sp, 40
	st.d	$a1, $sp, 56
.LBB22_6:                               # %._crit_edge.i.i
	addi.d	$s1, $s0, 40
	beqz	$s2, .LBB22_10
# %bb.7:                                # %._crit_edge.i.i
	ori	$a1, $zero, 1
	bne	$s2, $a1, .LBB22_9
# %bb.8:
	ld.b	$a1, $s3, 0
	st.b	$a1, $a0, 0
	b	.LBB22_10
.LBB22_9:
	move	$a1, $s3
	move	$a2, $s2
	pcaddu18i	$ra, %call36(memcpy)
	jirl	$ra, $ra, 0
.LBB22_10:
	ld.d	$a0, $sp, 8
	ld.d	$a1, $sp, 40
	st.d	$a0, $sp, 48
	stx.b	$zero, $a1, $a0
.Ltmp216:
	addi.d	$a1, $sp, 40
	move	$a0, $s1
	pcaddu18i	$ra, %call36(_ZN8internal12_GLOBAL__N_120PerformSubstitutionsENSt7__cxx1112basic_stringIcSt11char_traitsIcESaIcEEE)
	jirl	$ra, $ra, 0
.Ltmp217:
# %bb.11:
	ld.d	$a0, $sp, 40
	beq	$a0, $s4, .LBB22_13
# %bb.12:                               # %_ZNKSt7__cxx1112basic_stringIcSt11char_traitsIcESaIcEE11_M_is_localEv.exit.i.i
	ld.d	$a1, $sp, 56
	addi.d	$a1, $a1, 1
	pcaddu18i	$ra, %call36(_ZdlPvm)
	jirl	$ra, $ra, 0
.LBB22_13:                              # %_ZNSt7__cxx1112basic_stringIcSt11char_traitsIcESaIcEED2Ev.exit
.Ltmp219:
	ori	$a0, $zero, 56
	pcaddu18i	$ra, %call36(_Znwm)
	jirl	$ra, $ra, 0
.Ltmp220:
# %bb.14:
	move	$s2, $a0
	ori	$a0, $zero, 1
	lu32i.d	$a0, 1
	st.d	$a0, $s2, 8
	pcalau12i	$a0, %pc_hi20(_ZTVSt23_Sp_counted_ptr_inplaceIN9benchmark5RegexESaIvELN9__gnu_cxx12_Lock_policyE2EE+16)
	addi.d	$a0, $a0, %pc_lo12(_ZTVSt23_Sp_counted_ptr_inplaceIN9benchmark5RegexESaIvELN9__gnu_cxx12_Lock_policyE2EE+16)
	st.d	$a0, $s2, 0
	addi.d	$s3, $s2, 16
	st.b	$zero, $s2, 16
	ori	$a0, $zero, 16
	st.w	$a0, $s2, 24
	addi.d	$a0, $s2, 32
	pcaddu18i	$ra, %call36(_ZNSt6localeC1Ev)
	jirl	$ra, $ra, 0
	vrepli.b	$vr0, 0
	vst	$vr0, $s2, 40
	st.d	$s2, $s0, 80
	st.d	$s3, $s0, 72
	addi.d	$s4, $sp, 24
	st.d	$s4, $sp, 8
	st.d	$zero, $sp, 16
	st.b	$zero, $sp, 24
.Ltmp222:
	addi.d	$a2, $sp, 8
	move	$a0, $s3
	move	$a1, $s1
	pcaddu18i	$ra, %call36(_ZN9benchmark5Regex4InitERKNSt7__cxx1112basic_stringIcSt11char_traitsIcESaIcEEEPS6_)
	jirl	$ra, $ra, 0
.Ltmp223:
# %bb.15:
	ld.d	$s2, $sp, 16
	beqz	$s2, .LBB22_18
# %bb.16:
.Ltmp225:
	pcalau12i	$a0, %pc_hi20(.L.str.30)
	addi.d	$a1, $a0, %pc_lo12(.L.str.30)
	pcalau12i	$a0, %pc_hi20(.L.str.1)
	addi.d	$a2, $a0, %pc_lo12(.L.str.1)
	pcalau12i	$a0, %pc_hi20(.L__func__._ZN8TestCaseC2ENSt7__cxx1112basic_stringIcSt11char_traitsIcESaIcEEEi)
	addi.d	$a3, $a0, %pc_lo12(.L__func__._ZN8TestCaseC2ENSt7__cxx1112basic_stringIcSt11char_traitsIcESaIcEEEi)
	addi.d	$a0, $sp, 0
	ori	$a4, $zero, 356
	pcaddu18i	$ra, %call36(_ZN9benchmark8internal12CheckHandlerC2EPKcS3_S3_i)
	jirl	$ra, $ra, 0
.Ltmp226:
# %bb.17:
	ld.d	$s1, $sp, 0
	b	.LBB22_19
.LBB22_18:
	pcalau12i	$a0, %pc_hi20(_ZGVZN9benchmark8internal18GetNullLogInstanceEvE8null_log)
	ld.b	$a0, $a0, %pc_lo12(_ZGVZN9benchmark8internal18GetNullLogInstanceEvE8null_log)
	dbar	20
	pcalau12i	$a1, %pc_hi20(_ZZN9benchmark8internal18GetNullLogInstanceEvE8null_log)
	addi.d	$s1, $a1, %pc_lo12(_ZZN9benchmark8internal18GetNullLogInstanceEvE8null_log)
	beqz	$a0, .LBB22_41
.LBB22_19:                              # %_ZN9benchmark8internal18GetNullLogInstanceEv.exit
	ld.d	$a0, $s1, 0
	beqz	$a0, .LBB22_35
# %bb.20:
.Ltmp227:
	pcalau12i	$a1, %pc_hi20(.L.str.31)
	addi.d	$a1, $a1, %pc_lo12(.L.str.31)
	ori	$a2, $zero, 27
	pcaddu18i	$ra, %call36(_ZSt16__ostream_insertIcSt11char_traitsIcEERSt13basic_ostreamIT_T0_ES6_PKS3_l)
	jirl	$ra, $ra, 0
.Ltmp228:
# %bb.21:                               # %_ZN9benchmark8internallsIA28_cEERNS0_7LogTypeES4_RKT_.exit
	ld.d	$a0, $s1, 0
	beqz	$a0, .LBB22_35
# %bb.22:
	ld.d	$a1, $s0, 40
	ld.d	$a2, $s0, 48
.Ltmp229:
	pcaddu18i	$ra, %call36(_ZSt16__ostream_insertIcSt11char_traitsIcEERSt13basic_ostreamIT_T0_ES6_PKS3_l)
	jirl	$ra, $ra, 0
.Ltmp230:
# %bb.23:                               # %_ZN9benchmark8internallsINSt7__cxx1112basic_stringIcSt11char_traitsIcESaIcEEEEERNS0_7LogTypeES9_RKT_.exit
	ld.d	$a0, $s1, 0
	beqz	$a0, .LBB22_35
# %bb.24:
.Ltmp231:
	pcalau12i	$a1, %pc_hi20(.L.str.32)
	addi.d	$a1, $a1, %pc_lo12(.L.str.32)
	ori	$a2, $zero, 1
	pcaddu18i	$ra, %call36(_ZSt16__ostream_insertIcSt11char_traitsIcEERSt13basic_ostreamIT_T0_ES6_PKS3_l)
	jirl	$ra, $ra, 0
.Ltmp232:
# %bb.25:                               # %_ZN9benchmark8internallsIA2_cEERNS0_7LogTypeES4_RKT_.exit
	ld.d	$a0, $s1, 0
	beqz	$a0, .LBB22_35
# %bb.26:
.Ltmp233:
	pcalau12i	$a1, %pc_hi20(.L.str.33)
	addi.d	$a1, $a1, %pc_lo12(.L.str.33)
	ori	$a2, $zero, 17
	pcaddu18i	$ra, %call36(_ZSt16__ostream_insertIcSt11char_traitsIcEERSt13basic_ostreamIT_T0_ES6_PKS3_l)
	jirl	$ra, $ra, 0
.Ltmp234:
# %bb.27:                               # %_ZN9benchmark8internallsIA18_cEERNS0_7LogTypeES4_RKT_.exit
	ld.d	$a0, $s1, 0
	beqz	$a0, .LBB22_35
# %bb.28:
	ld.d	$a1, $s0, 0
	ld.d	$a2, $s0, 8
.Ltmp235:
	pcaddu18i	$ra, %call36(_ZSt16__ostream_insertIcSt11char_traitsIcEERSt13basic_ostreamIT_T0_ES6_PKS3_l)
	jirl	$ra, $ra, 0
.Ltmp236:
# %bb.29:                               # %_ZN9benchmark8internallsINSt7__cxx1112basic_stringIcSt11char_traitsIcESaIcEEEEERNS0_7LogTypeES9_RKT_.exit30
	ld.d	$a0, $s1, 0
	beqz	$a0, .LBB22_35
# %bb.30:
.Ltmp237:
	pcalau12i	$a1, %pc_hi20(.L.str.32)
	addi.d	$a1, $a1, %pc_lo12(.L.str.32)
	ori	$a2, $zero, 1
	pcaddu18i	$ra, %call36(_ZSt16__ostream_insertIcSt11char_traitsIcEERSt13basic_ostreamIT_T0_ES6_PKS3_l)
	jirl	$ra, $ra, 0
.Ltmp238:
# %bb.31:                               # %_ZN9benchmark8internallsIA2_cEERNS0_7LogTypeES4_RKT_.exit33
	ld.d	$a0, $s1, 0
	beqz	$a0, .LBB22_35
# %bb.32:
.Ltmp239:
	pcalau12i	$a1, %pc_hi20(.L.str.34)
	addi.d	$a1, $a1, %pc_lo12(.L.str.34)
	ori	$a2, $zero, 16
	pcaddu18i	$ra, %call36(_ZSt16__ostream_insertIcSt11char_traitsIcEERSt13basic_ostreamIT_T0_ES6_PKS3_l)
	jirl	$ra, $ra, 0
.Ltmp240:
# %bb.33:                               # %_ZN9benchmark8internallsIA17_cEERNS0_7LogTypeES4_RKT_.exit
	ld.d	$a0, $s1, 0
	beqz	$a0, .LBB22_35
# %bb.34:
	ld.d	$a1, $sp, 8
	ld.d	$a2, $sp, 16
.Ltmp241:
	pcaddu18i	$ra, %call36(_ZSt16__ostream_insertIcSt11char_traitsIcEERSt13basic_ostreamIT_T0_ES6_PKS3_l)
	jirl	$ra, $ra, 0
.Ltmp242:
.LBB22_35:                              # %_ZN9benchmark8internallsINSt7__cxx1112basic_stringIcSt11char_traitsIcESaIcEEEEERNS0_7LogTypeES9_RKT_.exit38
	bnez	$s2, .LBB22_39
# %bb.36:
	ld.d	$a0, $sp, 8
	beq	$a0, $s4, .LBB22_38
# %bb.37:                               # %_ZNKSt7__cxx1112basic_stringIcSt11char_traitsIcESaIcEE11_M_is_localEv.exit.i.i42
	ld.d	$a1, $sp, 24
	addi.d	$a1, $a1, 1
	pcaddu18i	$ra, %call36(_ZdlPvm)
	jirl	$ra, $ra, 0
.LBB22_38:                              # %_ZNSt7__cxx1112basic_stringIcSt11char_traitsIcESaIcEED2Ev.exit44
	ld.d	$s4, $sp, 72                    # 8-byte Folded Reload
	ld.d	$s3, $sp, 80                    # 8-byte Folded Reload
	ld.d	$s2, $sp, 88                    # 8-byte Folded Reload
	ld.d	$s1, $sp, 96                    # 8-byte Folded Reload
	ld.d	$s0, $sp, 104                   # 8-byte Folded Reload
	ld.d	$fp, $sp, 112                   # 8-byte Folded Reload
	ld.d	$ra, $sp, 120                   # 8-byte Folded Reload
	addi.d	$sp, $sp, 128
	ret
.LBB22_39:
.Ltmp247:
	addi.d	$a0, $sp, 0
	pcaddu18i	$ra, %call36(_ZN9benchmark8internal12CheckHandlerD2Ev)
	jirl	$ra, $ra, 0
.Ltmp248:
# %bb.40:
.LBB22_41:
	pcalau12i	$a0, %pc_hi20(_ZGVZN9benchmark8internal18GetNullLogInstanceEvE8null_log)
	addi.d	$a0, $a0, %pc_lo12(_ZGVZN9benchmark8internal18GetNullLogInstanceEvE8null_log)
	pcaddu18i	$ra, %call36(__cxa_guard_acquire)
	jirl	$ra, $ra, 0
	addi.w	$a0, $a0, 0
	beqz	$a0, .LBB22_19
# %bb.42:
	pcalau12i	$a0, %pc_hi20(_ZZN9benchmark8internal18GetNullLogInstanceEvE8null_log)
	addi.d	$s1, $a0, %pc_lo12(_ZZN9benchmark8internal18GetNullLogInstanceEvE8null_log)
	st.d	$zero, $s1, 0
	pcalau12i	$a0, %pc_hi20(_ZGVZN9benchmark8internal18GetNullLogInstanceEvE8null_log)
	addi.d	$a0, $a0, %pc_lo12(_ZGVZN9benchmark8internal18GetNullLogInstanceEvE8null_log)
	pcaddu18i	$ra, %call36(__cxa_guard_release)
	jirl	$ra, $ra, 0
	b	.LBB22_19
.LBB22_43:
.Ltmp215:
	move	$s1, $a0
	b	.LBB22_56
.LBB22_44:
.Ltmp224:
	b	.LBB22_50
.LBB22_45:
.Ltmp221:
	move	$s1, $a0
	b	.LBB22_53
.LBB22_46:
.Ltmp218:
	ld.d	$a2, $sp, 40
	move	$s1, $a0
	beq	$a2, $s4, .LBB22_56
# %bb.47:                               # %_ZNKSt7__cxx1112basic_stringIcSt11char_traitsIcESaIcEE11_M_is_localEv.exit.i.i39
	ld.d	$a0, $sp, 56
	addi.d	$a1, $a0, 1
	move	$a0, $a2
	b	.LBB22_55
.LBB22_48:
.Ltmp249:
	b	.LBB22_50
.LBB22_49:
.Ltmp243:
	bnez	$s2, .LBB22_59
.LBB22_50:
	move	$s1, $a0
	ld.d	$a0, $sp, 8
	addi.d	$s2, $s0, 72
	beq	$a0, $s4, .LBB22_52
# %bb.51:                               # %_ZNKSt7__cxx1112basic_stringIcSt11char_traitsIcESaIcEE11_M_is_localEv.exit.i.i45
	ld.d	$a1, $sp, 24
	addi.d	$a1, $a1, 1
	pcaddu18i	$ra, %call36(_ZdlPvm)
	jirl	$ra, $ra, 0
.LBB22_52:                              # %_ZNSt7__cxx1112basic_stringIcSt11char_traitsIcESaIcEED2Ev.exit47
	move	$a0, $s2
	pcaddu18i	$ra, %call36(_ZNSt12__shared_ptrIN9benchmark5RegexELN9__gnu_cxx12_Lock_policyE2EED2Ev)
	jirl	$ra, $ra, 0
.LBB22_53:
	ld.d	$a0, $s0, 40
	addi.d	$a1, $s0, 56
	beq	$a0, $a1, .LBB22_56
# %bb.54:                               # %_ZNKSt7__cxx1112basic_stringIcSt11char_traitsIcESaIcEE11_M_is_localEv.exit.i.i48
	ld.d	$a1, $a1, 0
	addi.d	$a1, $a1, 1
.LBB22_55:                              # %_ZNSt7__cxx1112basic_stringIcSt11char_traitsIcESaIcEED2Ev.exit41
	pcaddu18i	$ra, %call36(_ZdlPvm)
	jirl	$ra, $ra, 0
.LBB22_56:                              # %_ZNSt7__cxx1112basic_stringIcSt11char_traitsIcESaIcEED2Ev.exit41
	ld.d	$a0, $s0, 0
	beq	$a0, $fp, .LBB22_58
# %bb.57:                               # %_ZNKSt7__cxx1112basic_stringIcSt11char_traitsIcESaIcEE11_M_is_localEv.exit.i.i51
	ld.d	$a1, $fp, 0
	addi.d	$a1, $a1, 1
	pcaddu18i	$ra, %call36(_ZdlPvm)
	jirl	$ra, $ra, 0
.LBB22_58:                              # %_ZNSt7__cxx1112basic_stringIcSt11char_traitsIcESaIcEED2Ev.exit53
	move	$a0, $s1
	pcaddu18i	$ra, %call36(_Unwind_Resume)
	jirl	$ra, $ra, 0
.LBB22_59:
.Ltmp244:
	addi.d	$a0, $sp, 0
	pcaddu18i	$ra, %call36(_ZN9benchmark8internal12CheckHandlerD2Ev)
	jirl	$ra, $ra, 0
.Ltmp245:
# %bb.60:
.LBB22_61:
.Ltmp246:
	pcaddu18i	$ra, %call36(__clang_call_terminate)
	jirl	$ra, $ra, 0
.Lfunc_end22:
	.size	_ZN8TestCaseC2ENSt7__cxx1112basic_stringIcSt11char_traitsIcESaIcEEEi, .Lfunc_end22-_ZN8TestCaseC2ENSt7__cxx1112basic_stringIcSt11char_traitsIcESaIcEEEi
	.cfi_endproc
	.section	.gcc_except_table,"a",@progbits
	.p2align	2, 0x0
GCC_except_table22:
.Lexception9:
	.byte	255                             # @LPStart Encoding = omit
	.byte	155                             # @TType Encoding = indirect pcrel sdata4
	.uleb128 .Lttbase3-.Lttbaseref3
.Lttbaseref3:
	.byte	1                               # Call site Encoding = uleb128
	.uleb128 .Lcst_end9-.Lcst_begin9
.Lcst_begin9:
	.uleb128 .Lfunc_begin9-.Lfunc_begin9    # >> Call Site 1 <<
	.uleb128 .Ltmp213-.Lfunc_begin9         #   Call between .Lfunc_begin9 and .Ltmp213
	.byte	0                               #     has no landing pad
	.byte	0                               #   On action: cleanup
	.uleb128 .Ltmp213-.Lfunc_begin9         # >> Call Site 2 <<
	.uleb128 .Ltmp214-.Ltmp213              #   Call between .Ltmp213 and .Ltmp214
	.uleb128 .Ltmp215-.Lfunc_begin9         #     jumps to .Ltmp215
	.byte	0                               #   On action: cleanup
	.uleb128 .Ltmp214-.Lfunc_begin9         # >> Call Site 3 <<
	.uleb128 .Ltmp216-.Ltmp214              #   Call between .Ltmp214 and .Ltmp216
	.byte	0                               #     has no landing pad
	.byte	0                               #   On action: cleanup
	.uleb128 .Ltmp216-.Lfunc_begin9         # >> Call Site 4 <<
	.uleb128 .Ltmp217-.Ltmp216              #   Call between .Ltmp216 and .Ltmp217
	.uleb128 .Ltmp218-.Lfunc_begin9         #     jumps to .Ltmp218
	.byte	0                               #   On action: cleanup
	.uleb128 .Ltmp217-.Lfunc_begin9         # >> Call Site 5 <<
	.uleb128 .Ltmp219-.Ltmp217              #   Call between .Ltmp217 and .Ltmp219
	.byte	0                               #     has no landing pad
	.byte	0                               #   On action: cleanup
	.uleb128 .Ltmp219-.Lfunc_begin9         # >> Call Site 6 <<
	.uleb128 .Ltmp220-.Ltmp219              #   Call between .Ltmp219 and .Ltmp220
	.uleb128 .Ltmp221-.Lfunc_begin9         #     jumps to .Ltmp221
	.byte	0                               #   On action: cleanup
	.uleb128 .Ltmp220-.Lfunc_begin9         # >> Call Site 7 <<
	.uleb128 .Ltmp222-.Ltmp220              #   Call between .Ltmp220 and .Ltmp222
	.byte	0                               #     has no landing pad
	.byte	0                               #   On action: cleanup
	.uleb128 .Ltmp222-.Lfunc_begin9         # >> Call Site 8 <<
	.uleb128 .Ltmp223-.Ltmp222              #   Call between .Ltmp222 and .Ltmp223
	.uleb128 .Ltmp224-.Lfunc_begin9         #     jumps to .Ltmp224
	.byte	0                               #   On action: cleanup
	.uleb128 .Ltmp225-.Lfunc_begin9         # >> Call Site 9 <<
	.uleb128 .Ltmp226-.Ltmp225              #   Call between .Ltmp225 and .Ltmp226
	.uleb128 .Ltmp249-.Lfunc_begin9         #     jumps to .Ltmp249
	.byte	0                               #   On action: cleanup
	.uleb128 .Ltmp227-.Lfunc_begin9         # >> Call Site 10 <<
	.uleb128 .Ltmp242-.Ltmp227              #   Call between .Ltmp227 and .Ltmp242
	.uleb128 .Ltmp243-.Lfunc_begin9         #     jumps to .Ltmp243
	.byte	0                               #   On action: cleanup
	.uleb128 .Ltmp242-.Lfunc_begin9         # >> Call Site 11 <<
	.uleb128 .Ltmp247-.Ltmp242              #   Call between .Ltmp242 and .Ltmp247
	.byte	0                               #     has no landing pad
	.byte	0                               #   On action: cleanup
	.uleb128 .Ltmp247-.Lfunc_begin9         # >> Call Site 12 <<
	.uleb128 .Ltmp248-.Ltmp247              #   Call between .Ltmp247 and .Ltmp248
	.uleb128 .Ltmp249-.Lfunc_begin9         #     jumps to .Ltmp249
	.byte	0                               #   On action: cleanup
	.uleb128 .Ltmp248-.Lfunc_begin9         # >> Call Site 13 <<
	.uleb128 .Ltmp244-.Ltmp248              #   Call between .Ltmp248 and .Ltmp244
	.byte	0                               #     has no landing pad
	.byte	0                               #   On action: cleanup
	.uleb128 .Ltmp244-.Lfunc_begin9         # >> Call Site 14 <<
	.uleb128 .Ltmp245-.Ltmp244              #   Call between .Ltmp244 and .Ltmp245
	.uleb128 .Ltmp246-.Lfunc_begin9         #     jumps to .Ltmp246
	.byte	1                               #   On action: 1
	.uleb128 .Ltmp245-.Lfunc_begin9         # >> Call Site 15 <<
	.uleb128 .Lfunc_end22-.Ltmp245          #   Call between .Ltmp245 and .Lfunc_end22
	.byte	0                               #     has no landing pad
	.byte	0                               #   On action: cleanup
.Lcst_end9:
	.byte	1                               # >> Action Record 1 <<
                                        #   Catch TypeInfo 1
	.byte	0                               #   No further actions
	.p2align	2, 0x0
                                        # >> Catch TypeInfos <<
	.word	0                               # TypeInfo 1
.Lttbase3:
	.p2align	2, 0x0
                                        # -- End function
	.text
	.p2align	5                               # -- Begin function _ZN8internal12_GLOBAL__N_120PerformSubstitutionsENSt7__cxx1112basic_stringIcSt11char_traitsIcESaIcEEE
	.type	_ZN8internal12_GLOBAL__N_120PerformSubstitutionsENSt7__cxx1112basic_stringIcSt11char_traitsIcESaIcEEE,@function
_ZN8internal12_GLOBAL__N_120PerformSubstitutionsENSt7__cxx1112basic_stringIcSt11char_traitsIcESaIcEEE: # @_ZN8internal12_GLOBAL__N_120PerformSubstitutionsENSt7__cxx1112basic_stringIcSt11char_traitsIcESaIcEEE
	.cfi_startproc
# %bb.0:
	addi.d	$sp, $sp, -64
	.cfi_def_cfa_offset 64
	st.d	$ra, $sp, 56                    # 8-byte Folded Spill
	st.d	$fp, $sp, 48                    # 8-byte Folded Spill
	st.d	$s0, $sp, 40                    # 8-byte Folded Spill
	st.d	$s1, $sp, 32                    # 8-byte Folded Spill
	st.d	$s2, $sp, 24                    # 8-byte Folded Spill
	st.d	$s3, $sp, 16                    # 8-byte Folded Spill
	st.d	$s4, $sp, 8                     # 8-byte Folded Spill
	.cfi_offset 1, -8
	.cfi_offset 22, -16
	.cfi_offset 23, -24
	.cfi_offset 24, -32
	.cfi_offset 25, -40
	.cfi_offset 26, -48
	.cfi_offset 27, -56
	move	$fp, $a1
	move	$s0, $a0
	pcaddu18i	$ra, %call36(_ZN8internal12_GLOBAL__N_116GetSubstitutionsB5cxx11Ev)
	jirl	$ra, $ra, 0
	pcalau12i	$a0, %pc_hi20(_ZZN8internal12_GLOBAL__N_116GetSubstitutionsB5cxx11EvE3mapB5cxx11)
	addi.d	$a0, $a0, %pc_lo12(_ZZN8internal12_GLOBAL__N_116GetSubstitutionsB5cxx11EvE3mapB5cxx11)
	ld.d	$s2, $a0, 0
	ld.d	$s3, $a0, 8
	beq	$s2, $s3, .LBB23_6
# %bb.1:                                # %.preheader.lr.ph
	addi.w	$s4, $zero, -1
	b	.LBB23_3
	.p2align	4, , 16
.LBB23_2:                               # %._crit_edge
                                        #   in Loop: Header=BB23_3 Depth=1
	addi.d	$s2, $s2, 64
	beq	$s2, $s3, .LBB23_6
.LBB23_3:                               # %.preheader
                                        # =>This Loop Header: Depth=1
                                        #     Child Loop BB23_4 Depth 2
	ld.d	$a1, $s2, 0
	ld.d	$a3, $s2, 8
	move	$a0, $fp
	move	$a2, $zero
	pcaddu18i	$ra, %call36(_ZNKSt7__cxx1112basic_stringIcSt11char_traitsIcESaIcEE4findEPKcmm)
	jirl	$ra, $ra, 0
	move	$a6, $a0
	beq	$a0, $s4, .LBB23_2
	.p2align	4, , 16
.LBB23_4:                               #   Parent Loop BB23_3 Depth=1
                                        # =>  This Inner Loop Header: Depth=2
	ld.d	$a3, $fp, 8
	bltu	$a3, $a6, .LBB23_10
# %bb.5:                                # %_ZNSt7__cxx1112basic_stringIcSt11char_traitsIcESaIcEE7replaceEmmRKS4_.exit
                                        #   in Loop: Header=BB23_4 Depth=2
	ld.d	$a4, $s2, 40
	ld.d	$a0, $s2, 8
	add.d	$s1, $a4, $a6
	ld.d	$a5, $s2, 32
	sub.d	$a1, $a3, $a6
	sltu	$a2, $a0, $a1
	masknez	$a1, $a1, $a2
	maskeqz	$a0, $a0, $a2
	or	$a2, $a0, $a1
	move	$a0, $fp
	move	$a1, $a6
	move	$a3, $a5
	pcaddu18i	$ra, %call36(_ZNSt7__cxx1112basic_stringIcSt11char_traitsIcESaIcEE10_M_replaceEmmPKcm)
	jirl	$ra, $ra, 0
	ld.d	$a1, $s2, 0
	ld.d	$a3, $s2, 8
	move	$a0, $fp
	move	$a2, $s1
	pcaddu18i	$ra, %call36(_ZNKSt7__cxx1112basic_stringIcSt11char_traitsIcESaIcEE4findEPKcmm)
	jirl	$ra, $ra, 0
	move	$a6, $a0
	bne	$a0, $s4, .LBB23_4
	b	.LBB23_2
.LBB23_6:                               # %._crit_edge19
	ld.d	$a1, $fp, 0
	addi.d	$a0, $s0, 16
	addi.d	$s1, $fp, 16
	st.d	$a0, $s0, 0
	beq	$a1, $s1, .LBB23_8
# %bb.7:                                # %_ZNKSt7__cxx1112basic_stringIcSt11char_traitsIcESaIcEE11_M_is_localEv.exit.i
	ld.d	$a0, $fp, 16
	ld.d	$s2, $fp, 8
	st.d	$a1, $s0, 0
	st.d	$a0, $s0, 16
	b	.LBB23_9
.LBB23_8:
	ld.d	$s2, $fp, 8
	addi.d	$a2, $s2, 1
	move	$a1, $s1
	pcaddu18i	$ra, %call36(memcpy)
	jirl	$ra, $ra, 0
.LBB23_9:                               # %_ZNSt7__cxx1112basic_stringIcSt11char_traitsIcESaIcEEC2EOS4_.exit
	st.d	$s2, $s0, 8
	st.d	$s1, $fp, 0
	st.d	$zero, $fp, 8
	st.b	$zero, $fp, 16
	ld.d	$s4, $sp, 8                     # 8-byte Folded Reload
	ld.d	$s3, $sp, 16                    # 8-byte Folded Reload
	ld.d	$s2, $sp, 24                    # 8-byte Folded Reload
	ld.d	$s1, $sp, 32                    # 8-byte Folded Reload
	ld.d	$s0, $sp, 40                    # 8-byte Folded Reload
	ld.d	$fp, $sp, 48                    # 8-byte Folded Reload
	ld.d	$ra, $sp, 56                    # 8-byte Folded Reload
	addi.d	$sp, $sp, 64
	ret
.LBB23_10:
	pcalau12i	$a0, %pc_hi20(.L.str.66)
	addi.d	$a0, $a0, %pc_lo12(.L.str.66)
	pcalau12i	$a1, %pc_hi20(.L.str.65)
	addi.d	$a1, $a1, %pc_lo12(.L.str.65)
	move	$a2, $a6
	pcaddu18i	$ra, %call36(_ZSt24__throw_out_of_range_fmtPKcz)
	jirl	$ra, $ra, 0
.Lfunc_end23:
	.size	_ZN8internal12_GLOBAL__N_120PerformSubstitutionsENSt7__cxx1112basic_stringIcSt11char_traitsIcESaIcEEE, .Lfunc_end23-_ZN8internal12_GLOBAL__N_120PerformSubstitutionsENSt7__cxx1112basic_stringIcSt11char_traitsIcESaIcEEE
	.cfi_endproc
                                        # -- End function
	.section	.text._ZN9benchmark5Regex4InitERKNSt7__cxx1112basic_stringIcSt11char_traitsIcESaIcEEEPS6_,"axG",@progbits,_ZN9benchmark5Regex4InitERKNSt7__cxx1112basic_stringIcSt11char_traitsIcESaIcEEEPS6_,comdat
	.hidden	_ZN9benchmark5Regex4InitERKNSt7__cxx1112basic_stringIcSt11char_traitsIcESaIcEEEPS6_ # -- Begin function _ZN9benchmark5Regex4InitERKNSt7__cxx1112basic_stringIcSt11char_traitsIcESaIcEEEPS6_
	.weak	_ZN9benchmark5Regex4InitERKNSt7__cxx1112basic_stringIcSt11char_traitsIcESaIcEEEPS6_
	.p2align	5
	.type	_ZN9benchmark5Regex4InitERKNSt7__cxx1112basic_stringIcSt11char_traitsIcESaIcEEEPS6_,@function
_ZN9benchmark5Regex4InitERKNSt7__cxx1112basic_stringIcSt11char_traitsIcESaIcEEEPS6_: # @_ZN9benchmark5Regex4InitERKNSt7__cxx1112basic_stringIcSt11char_traitsIcESaIcEEEPS6_
.Lfunc_begin10:
	.cfi_startproc
	.cfi_personality 155, DW.ref.__gxx_personality_v0
	.cfi_lsda 27, .Lexception10
# %bb.0:
	addi.d	$sp, $sp, -64
	.cfi_def_cfa_offset 64
	st.d	$ra, $sp, 56                    # 8-byte Folded Spill
	st.d	$fp, $sp, 48                    # 8-byte Folded Spill
	st.d	$s0, $sp, 40                    # 8-byte Folded Spill
	st.d	$s1, $sp, 32                    # 8-byte Folded Spill
	.cfi_offset 1, -8
	.cfi_offset 22, -16
	.cfi_offset 23, -24
	.cfi_offset 24, -32
	move	$s0, $a2
	move	$fp, $a0
.Ltmp250:
	addi.d	$a0, $sp, 0
	ori	$a2, $zero, 64
	pcaddu18i	$ra, %call36(_ZNSt7__cxx1111basic_regexIcNS_12regex_traitsIcEEEC2ISt11char_traitsIcESaIcEEERKNS_12basic_stringIcT_T0_EENSt15regex_constants18syntax_option_typeE)
	jirl	$ra, $ra, 0
.Ltmp251:
# %bb.1:
	ld.w	$a0, $sp, 0
	st.w	$a0, $fp, 8
	addi.d	$a0, $fp, 16
	addi.d	$s0, $sp, 8
	move	$a1, $s0
	pcaddu18i	$ra, %call36(_ZNSt6localeaSERKS_)
	jirl	$ra, $ra, 0
	vld	$vr0, $sp, 16
	ld.d	$s1, $fp, 32
	vrepli.b	$vr1, 0
	vst	$vr1, $sp, 16
	vst	$vr0, $fp, 24
	beqz	$s1, .LBB24_6
# %bb.2:
	ld.d	$a0, $s1, 8
	ori	$a1, $zero, 1
	lu32i.d	$a1, 1
	dbar	20
	bne	$a0, $a1, .LBB24_4
# %bb.3:
	ld.d	$a0, $s1, 0
	st.d	$zero, $s1, 8
	ld.d	$a1, $a0, 16
	move	$a0, $s1
	jirl	$ra, $a1, 0
	ld.d	$a0, $s1, 0
	ld.d	$a1, $a0, 24
	move	$a0, $s1
	jirl	$ra, $a1, 0
	ld.d	$s1, $sp, 24
	bnez	$s1, .LBB24_7
	b	.LBB24_14
.LBB24_4:
	pcalau12i	$a1, %got_pc_hi20(__libc_single_threaded)
	ld.d	$a1, $a1, %got_pc_lo12(__libc_single_threaded)
	ld.bu	$a1, $a1, 0
	beqz	$a1, .LBB24_11
# %bb.5:
	addi.d	$a1, $a0, -1
	st.w	$a1, $s1, 8
	addi.w	$a0, $a0, 0
	ori	$a1, $zero, 1
	beq	$a0, $a1, .LBB24_12
.LBB24_6:                               # %_ZNSt7__cxx1111basic_regexIcNS_12regex_traitsIcEEEaSEOS3_.exit
	ld.d	$s1, $sp, 24
	beqz	$s1, .LBB24_14
.LBB24_7:
	ld.d	$a0, $s1, 8
	ori	$a1, $zero, 1
	lu32i.d	$a1, 1
	dbar	20
	bne	$a0, $a1, .LBB24_9
# %bb.8:
	ld.d	$a0, $s1, 0
	st.d	$zero, $s1, 8
	ld.d	$a1, $a0, 16
	move	$a0, $s1
	jirl	$ra, $a1, 0
	ld.d	$a0, $s1, 0
	ld.d	$a1, $a0, 24
	move	$a0, $s1
	jirl	$ra, $a1, 0
	b	.LBB24_14
.LBB24_9:
	pcalau12i	$a1, %got_pc_hi20(__libc_single_threaded)
	ld.d	$a1, $a1, %got_pc_lo12(__libc_single_threaded)
	ld.bu	$a1, $a1, 0
	beqz	$a1, .LBB24_13
# %bb.10:
	addi.d	$a1, $a0, -1
	st.w	$a1, $s1, 8
	addi.w	$a0, $a0, 0
	ori	$a1, $zero, 1
	bne	$a0, $a1, .LBB24_14
	b	.LBB24_16
.LBB24_11:
	addi.d	$a1, $s1, 8
	addi.w	$a2, $zero, -1
	amadd_db.w	$a0, $a2, $a1
	addi.w	$a0, $a0, 0
	ori	$a1, $zero, 1
	bne	$a0, $a1, .LBB24_6
.LBB24_12:
	move	$a0, $s1
	pcaddu18i	$ra, %call36(_ZNSt16_Sp_counted_baseILN9__gnu_cxx12_Lock_policyE2EE24_M_release_last_use_coldEv)
	jirl	$ra, $ra, 0
	ld.d	$s1, $sp, 24
	bnez	$s1, .LBB24_7
	b	.LBB24_14
.LBB24_13:
	addi.d	$a1, $s1, 8
	addi.w	$a2, $zero, -1
	amadd_db.w	$a0, $a2, $a1
	addi.w	$a0, $a0, 0
	ori	$a1, $zero, 1
	beq	$a0, $a1, .LBB24_16
.LBB24_14:                              # %_ZNSt7__cxx1111basic_regexIcNS_12regex_traitsIcEEED2Ev.exit
	move	$a0, $s0
	pcaddu18i	$ra, %call36(_ZNSt6localeD1Ev)
	jirl	$ra, $ra, 0
	ori	$a0, $zero, 1
	st.b	$a0, $fp, 0
.LBB24_15:
	andi	$a0, $a0, 1
	ld.d	$s1, $sp, 32                    # 8-byte Folded Reload
	ld.d	$s0, $sp, 40                    # 8-byte Folded Reload
	ld.d	$fp, $sp, 48                    # 8-byte Folded Reload
	ld.d	$ra, $sp, 56                    # 8-byte Folded Reload
	addi.d	$sp, $sp, 64
	ret
.LBB24_16:
	move	$a0, $s1
	pcaddu18i	$ra, %call36(_ZNSt16_Sp_counted_baseILN9__gnu_cxx12_Lock_policyE2EE24_M_release_last_use_coldEv)
	jirl	$ra, $ra, 0
	b	.LBB24_14
.LBB24_17:
.Ltmp252:
	addi.w	$a1, $a1, 0
	ori	$a2, $zero, 1
	move	$s1, $a0
	bne	$a1, $a2, .LBB24_22
# %bb.18:
	move	$a0, $s1
	pcaddu18i	$ra, %call36(__cxa_begin_catch)
	jirl	$ra, $ra, 0
	beqz	$s0, .LBB24_20
# %bb.19:
	ld.d	$a1, $a0, 0
	ld.d	$a1, $a1, 16
	jirl	$ra, $a1, 0
	move	$a1, $a0
.Ltmp253:
	move	$a0, $s0
	pcaddu18i	$ra, %call36(_ZNSt7__cxx1112basic_stringIcSt11char_traitsIcESaIcEEaSEPKc)
	jirl	$ra, $ra, 0
.Ltmp254:
.LBB24_20:
	pcaddu18i	$ra, %call36(__cxa_end_catch)
	jirl	$ra, $ra, 0
	ld.b	$a0, $fp, 0
	b	.LBB24_15
.LBB24_21:
.Ltmp255:
	move	$s1, $a0
.Ltmp256:
	pcaddu18i	$ra, %call36(__cxa_end_catch)
	jirl	$ra, $ra, 0
.Ltmp257:
.LBB24_22:
	move	$a0, $s1
	pcaddu18i	$ra, %call36(_Unwind_Resume)
	jirl	$ra, $ra, 0
.LBB24_23:
.Ltmp258:
	pcaddu18i	$ra, %call36(__clang_call_terminate)
	jirl	$ra, $ra, 0
.Lfunc_end24:
	.size	_ZN9benchmark5Regex4InitERKNSt7__cxx1112basic_stringIcSt11char_traitsIcESaIcEEEPS6_, .Lfunc_end24-_ZN9benchmark5Regex4InitERKNSt7__cxx1112basic_stringIcSt11char_traitsIcESaIcEEEPS6_
	.cfi_endproc
	.section	.gcc_except_table._ZN9benchmark5Regex4InitERKNSt7__cxx1112basic_stringIcSt11char_traitsIcESaIcEEEPS6_,"aG",@progbits,_ZN9benchmark5Regex4InitERKNSt7__cxx1112basic_stringIcSt11char_traitsIcESaIcEEEPS6_,comdat
	.p2align	2, 0x0
GCC_except_table24:
.Lexception10:
	.byte	255                             # @LPStart Encoding = omit
	.byte	155                             # @TType Encoding = indirect pcrel sdata4
	.uleb128 .Lttbase4-.Lttbaseref4
.Lttbaseref4:
	.byte	1                               # Call site Encoding = uleb128
	.uleb128 .Lcst_end10-.Lcst_begin10
.Lcst_begin10:
	.uleb128 .Ltmp250-.Lfunc_begin10        # >> Call Site 1 <<
	.uleb128 .Ltmp251-.Ltmp250              #   Call between .Ltmp250 and .Ltmp251
	.uleb128 .Ltmp252-.Lfunc_begin10        #     jumps to .Ltmp252
	.byte	3                               #   On action: 2
	.uleb128 .Ltmp251-.Lfunc_begin10        # >> Call Site 2 <<
	.uleb128 .Ltmp253-.Ltmp251              #   Call between .Ltmp251 and .Ltmp253
	.byte	0                               #     has no landing pad
	.byte	0                               #   On action: cleanup
	.uleb128 .Ltmp253-.Lfunc_begin10        # >> Call Site 3 <<
	.uleb128 .Ltmp254-.Ltmp253              #   Call between .Ltmp253 and .Ltmp254
	.uleb128 .Ltmp255-.Lfunc_begin10        #     jumps to .Ltmp255
	.byte	0                               #   On action: cleanup
	.uleb128 .Ltmp254-.Lfunc_begin10        # >> Call Site 4 <<
	.uleb128 .Ltmp256-.Ltmp254              #   Call between .Ltmp254 and .Ltmp256
	.byte	0                               #     has no landing pad
	.byte	0                               #   On action: cleanup
	.uleb128 .Ltmp256-.Lfunc_begin10        # >> Call Site 5 <<
	.uleb128 .Ltmp257-.Ltmp256              #   Call between .Ltmp256 and .Ltmp257
	.uleb128 .Ltmp258-.Lfunc_begin10        #     jumps to .Ltmp258
	.byte	5                               #   On action: 3
	.uleb128 .Ltmp257-.Lfunc_begin10        # >> Call Site 6 <<
	.uleb128 .Lfunc_end24-.Ltmp257          #   Call between .Ltmp257 and .Lfunc_end24
	.byte	0                               #     has no landing pad
	.byte	0                               #   On action: cleanup
.Lcst_end10:
	.byte	0                               # >> Action Record 1 <<
                                        #   Cleanup
	.byte	0                               #   No further actions
	.byte	1                               # >> Action Record 2 <<
                                        #   Catch TypeInfo 1
	.byte	125                             #   Continue to action 1
	.byte	2                               # >> Action Record 3 <<
                                        #   Catch TypeInfo 2
	.byte	0                               #   No further actions
	.p2align	2, 0x0
                                        # >> Catch TypeInfos <<
	.word	0                               # TypeInfo 2
.Ltmp259:                               # TypeInfo 1
	.word	.L_ZTISt11regex_error.DW.stub-.Ltmp259
.Lttbase4:
	.p2align	2, 0x0
                                        # -- End function
	.text
	.hidden	_Z8AddCases10TestCaseIDSt16initializer_listI8TestCaseE # -- Begin function _Z8AddCases10TestCaseIDSt16initializer_listI8TestCaseE
	.globl	_Z8AddCases10TestCaseIDSt16initializer_listI8TestCaseE
	.p2align	5
	.type	_Z8AddCases10TestCaseIDSt16initializer_listI8TestCaseE,@function
_Z8AddCases10TestCaseIDSt16initializer_listI8TestCaseE: # @_Z8AddCases10TestCaseIDSt16initializer_listI8TestCaseE
	.cfi_startproc
# %bb.0:
	addi.d	$sp, $sp, -32
	.cfi_def_cfa_offset 32
	st.d	$ra, $sp, 24                    # 8-byte Folded Spill
	st.d	$fp, $sp, 16                    # 8-byte Folded Spill
	st.d	$s0, $sp, 8                     # 8-byte Folded Spill
	st.d	$s1, $sp, 0                     # 8-byte Folded Spill
	.cfi_offset 1, -8
	.cfi_offset 22, -16
	.cfi_offset 23, -24
	.cfi_offset 24, -32
	pcalau12i	$a3, %pc_hi20(_ZGVZN8internal12_GLOBAL__N_115GetTestCaseListE10TestCaseIDE5lists)
	ld.b	$a3, $a3, %pc_lo12(_ZGVZN8internal12_GLOBAL__N_115GetTestCaseListE10TestCaseIDE5lists)
	move	$fp, $a1
	dbar	20
	beqz	$a3, .LBB25_2
.LBB25_1:                               # %_ZN8internal12_GLOBAL__N_115GetTestCaseListE10TestCaseID.exit
	bstrpick.d	$a0, $a0, 31, 0
	slli.d	$a1, $a0, 4
	alsl.d	$a0, $a0, $a1, 3
	pcalau12i	$a1, %pc_hi20(_ZZN8internal12_GLOBAL__N_115GetTestCaseListE10TestCaseIDE5lists)
	addi.d	$a1, $a1, %pc_lo12(_ZZN8internal12_GLOBAL__N_115GetTestCaseListE10TestCaseIDE5lists)
	add.d	$a0, $a1, $a0
	ld.d	$a1, $a0, 8
	ori	$a3, $zero, 88
	mul.d	$a2, $a2, $a3
	add.d	$a3, $fp, $a2
	move	$a2, $fp
	move	$a4, $zero
	pcaddu18i	$ra, %call36(_ZNSt6vectorI8TestCaseSaIS0_EE15_M_range_insertIPKS0_EEvN9__gnu_cxx17__normal_iteratorIPS0_S2_EET_SA_St20forward_iterator_tag)
	jirl	$ra, $ra, 0
	move	$a0, $zero
	ld.d	$s1, $sp, 0                     # 8-byte Folded Reload
	ld.d	$s0, $sp, 8                     # 8-byte Folded Reload
	ld.d	$fp, $sp, 16                    # 8-byte Folded Reload
	ld.d	$ra, $sp, 24                    # 8-byte Folded Reload
	addi.d	$sp, $sp, 32
	ret
.LBB25_2:
	pcalau12i	$a1, %pc_hi20(_ZGVZN8internal12_GLOBAL__N_115GetTestCaseListE10TestCaseIDE5lists)
	addi.d	$a1, $a1, %pc_lo12(_ZGVZN8internal12_GLOBAL__N_115GetTestCaseListE10TestCaseIDE5lists)
	move	$s0, $a0
	move	$a0, $a1
	move	$s1, $a2
	pcaddu18i	$ra, %call36(__cxa_guard_acquire)
	jirl	$ra, $ra, 0
	move	$a2, $s1
	move	$a1, $a0
	move	$a0, $s0
	addi.w	$a1, $a1, 0
	beqz	$a1, .LBB25_1
# %bb.3:                                # %.preheader.preheader.i
	pcalau12i	$a0, %pc_hi20(_ZZN8internal12_GLOBAL__N_115GetTestCaseListE10TestCaseIDE5lists)
	addi.d	$a0, $a0, %pc_lo12(_ZZN8internal12_GLOBAL__N_115GetTestCaseListE10TestCaseIDE5lists)
	ori	$a2, $zero, 144
	move	$a1, $zero
	pcaddu18i	$ra, %call36(memset)
	jirl	$ra, $ra, 0
	pcalau12i	$a0, %pc_hi20(__cxx_global_array_dtor)
	addi.d	$a0, $a0, %pc_lo12(__cxx_global_array_dtor)
	pcalau12i	$a1, %pc_hi20(__dso_handle)
	addi.d	$a2, $a1, %pc_lo12(__dso_handle)
	move	$a1, $zero
	pcaddu18i	$ra, %call36(__cxa_atexit)
	jirl	$ra, $ra, 0
	pcalau12i	$a0, %pc_hi20(_ZGVZN8internal12_GLOBAL__N_115GetTestCaseListE10TestCaseIDE5lists)
	addi.d	$a0, $a0, %pc_lo12(_ZGVZN8internal12_GLOBAL__N_115GetTestCaseListE10TestCaseIDE5lists)
	pcaddu18i	$ra, %call36(__cxa_guard_release)
	jirl	$ra, $ra, 0
	move	$a0, $s0
	move	$a2, $s1
	b	.LBB25_1
.Lfunc_end25:
	.size	_Z8AddCases10TestCaseIDSt16initializer_listI8TestCaseE, .Lfunc_end25-_Z8AddCases10TestCaseIDSt16initializer_listI8TestCaseE
	.cfi_endproc
                                        # -- End function
	.hidden	_Z16SetSubstitutionsSt16initializer_listISt4pairINSt7__cxx1112basic_stringIcSt11char_traitsIcESaIcEEES6_EE # -- Begin function _Z16SetSubstitutionsSt16initializer_listISt4pairINSt7__cxx1112basic_stringIcSt11char_traitsIcESaIcEEES6_EE
	.globl	_Z16SetSubstitutionsSt16initializer_listISt4pairINSt7__cxx1112basic_stringIcSt11char_traitsIcESaIcEEES6_EE
	.p2align	5
	.type	_Z16SetSubstitutionsSt16initializer_listISt4pairINSt7__cxx1112basic_stringIcSt11char_traitsIcESaIcEEES6_EE,@function
_Z16SetSubstitutionsSt16initializer_listISt4pairINSt7__cxx1112basic_stringIcSt11char_traitsIcESaIcEEES6_EE: # @_Z16SetSubstitutionsSt16initializer_listISt4pairINSt7__cxx1112basic_stringIcSt11char_traitsIcESaIcEEES6_EE
.Lfunc_begin11:
	.cfi_startproc
	.cfi_personality 155, DW.ref.__gxx_personality_v0
	.cfi_lsda 27, .Lexception11
# %bb.0:
	addi.d	$sp, $sp, -240
	.cfi_def_cfa_offset 240
	st.d	$ra, $sp, 232                   # 8-byte Folded Spill
	st.d	$fp, $sp, 224                   # 8-byte Folded Spill
	st.d	$s0, $sp, 216                   # 8-byte Folded Spill
	st.d	$s1, $sp, 208                   # 8-byte Folded Spill
	st.d	$s2, $sp, 200                   # 8-byte Folded Spill
	st.d	$s3, $sp, 192                   # 8-byte Folded Spill
	st.d	$s4, $sp, 184                   # 8-byte Folded Spill
	st.d	$s5, $sp, 176                   # 8-byte Folded Spill
	st.d	$s6, $sp, 168                   # 8-byte Folded Spill
	st.d	$s7, $sp, 160                   # 8-byte Folded Spill
	st.d	$s8, $sp, 152                   # 8-byte Folded Spill
	.cfi_offset 1, -8
	.cfi_offset 22, -16
	.cfi_offset 23, -24
	.cfi_offset 24, -32
	.cfi_offset 25, -40
	.cfi_offset 26, -48
	.cfi_offset 27, -56
	.cfi_offset 28, -64
	.cfi_offset 29, -72
	.cfi_offset 30, -80
	.cfi_offset 31, -88
	move	$s0, $a1
	move	$fp, $a0
	pcaddu18i	$ra, %call36(_ZN8internal12_GLOBAL__N_116GetSubstitutionsB5cxx11Ev)
	jirl	$ra, $ra, 0
	beqz	$s0, .LBB26_60
# %bb.1:                                # %.lr.ph63
	slli.d	$a0, $s0, 6
	add.d	$a0, $fp, $a0
	st.d	$a0, $sp, 8                     # 8-byte Folded Spill
	addi.d	$s5, $sp, 32
	addi.d	$s0, $sp, 128
	addi.d	$s7, $sp, 64
	addi.d	$s1, $sp, 96
	pcalau12i	$a0, %pc_hi20(_ZZN8internal12_GLOBAL__N_116GetSubstitutionsB5cxx11EvE3mapB5cxx11)
	addi.d	$s2, $a0, %pc_lo12(_ZZN8internal12_GLOBAL__N_116GetSubstitutionsB5cxx11EvE3mapB5cxx11)
	b	.LBB26_3
	.p2align	4, , 16
.LBB26_2:                               # %_ZNSt4pairINSt7__cxx1112basic_stringIcSt11char_traitsIcESaIcEEES5_ED2Ev.exit
                                        #   in Loop: Header=BB26_3 Depth=1
	addi.d	$fp, $fp, 64
	ld.d	$a0, $sp, 8                     # 8-byte Folded Reload
	beq	$fp, $a0, .LBB26_60
.LBB26_3:                               # =>This Loop Header: Depth=1
                                        #     Child Loop BB26_24 Depth 2
	addi.d	$a0, $sp, 80
	move	$a1, $fp
	pcaddu18i	$ra, %call36(_ZNSt4pairINSt7__cxx1112basic_stringIcSt11char_traitsIcESaIcEEES5_EC2ERKS6_)
	jirl	$ra, $ra, 0
	ld.d	$s3, $sp, 120
	ld.d	$s4, $sp, 112
	st.d	$s5, $sp, 16
	st.d	$s3, $sp, 144
	move	$a0, $s5
	ori	$a1, $zero, 16
	bltu	$s3, $a1, .LBB26_6
# %bb.4:                                # %.noexc.i
                                        #   in Loop: Header=BB26_3 Depth=1
.Ltmp260:
	addi.d	$a0, $sp, 16
	addi.d	$a1, $sp, 144
	move	$a2, $zero
	pcaddu18i	$ra, %call36(_ZNSt7__cxx1112basic_stringIcSt11char_traitsIcESaIcEE9_M_createERmm)
	jirl	$ra, $ra, 0
.Ltmp261:
# %bb.5:                                # %.noexc
                                        #   in Loop: Header=BB26_3 Depth=1
	ld.d	$a1, $sp, 144
	st.d	$a0, $sp, 16
	st.d	$a1, $sp, 32
.LBB26_6:                               # %._crit_edge.i.i
                                        #   in Loop: Header=BB26_3 Depth=1
	beqz	$s3, .LBB26_10
# %bb.7:                                # %._crit_edge.i.i
                                        #   in Loop: Header=BB26_3 Depth=1
	ori	$a1, $zero, 1
	bne	$s3, $a1, .LBB26_9
# %bb.8:                                #   in Loop: Header=BB26_3 Depth=1
	ld.b	$a1, $s4, 0
	st.b	$a1, $a0, 0
	b	.LBB26_10
	.p2align	4, , 16
.LBB26_9:                               #   in Loop: Header=BB26_3 Depth=1
	move	$a1, $s4
	move	$a2, $s3
	pcaddu18i	$ra, %call36(memcpy)
	jirl	$ra, $ra, 0
.LBB26_10:                              #   in Loop: Header=BB26_3 Depth=1
	ld.d	$a0, $sp, 144
	ld.d	$a1, $sp, 16
	st.d	$a0, $sp, 24
	stx.b	$zero, $a1, $a0
.Ltmp263:
	addi.d	$a0, $sp, 48
	addi.d	$a1, $sp, 16
	pcaddu18i	$ra, %call36(_ZN8internal12_GLOBAL__N_120PerformSubstitutionsENSt7__cxx1112basic_stringIcSt11char_traitsIcESaIcEEE)
	jirl	$ra, $ra, 0
.Ltmp264:
# %bb.11:                               #   in Loop: Header=BB26_3 Depth=1
	ld.d	$a0, $sp, 112
	beq	$a0, $s0, .LBB26_15
# %bb.12:                               # %_ZNKSt7__cxx1112basic_stringIcSt11char_traitsIcESaIcEE11_M_is_localEv.exit.thread.i
                                        #   in Loop: Header=BB26_3 Depth=1
	ld.d	$a1, $sp, 48
	beq	$a1, $s7, .LBB26_34
# %bb.13:                               # %_ZNKSt7__cxx1112basic_stringIcSt11char_traitsIcESaIcEE11_M_is_localEv.exit23.thread25.i
                                        #   in Loop: Header=BB26_3 Depth=1
	vld	$vr0, $sp, 56
	ld.d	$a2, $sp, 128
	st.d	$a1, $sp, 112
	vst	$vr0, $sp, 120
	beqz	$a0, .LBB26_17
# %bb.14:                               #   in Loop: Header=BB26_3 Depth=1
	st.d	$a0, $sp, 48
	st.d	$a2, $sp, 64
	st.d	$zero, $sp, 56
	st.b	$zero, $a0, 0
	ld.d	$a0, $sp, 48
	bne	$a0, $s7, .LBB26_18
	b	.LBB26_19
	.p2align	4, , 16
.LBB26_15:                              # %_ZNKSt7__cxx1112basic_stringIcSt11char_traitsIcESaIcEE11_M_is_localEv.exit.i
                                        #   in Loop: Header=BB26_3 Depth=1
	ld.d	$a1, $sp, 48
	beq	$a1, $s7, .LBB26_34
# %bb.16:                               # %.thread.i
                                        #   in Loop: Header=BB26_3 Depth=1
	vld	$vr0, $sp, 56
	st.d	$a1, $sp, 112
	vst	$vr0, $sp, 120
.LBB26_17:                              #   in Loop: Header=BB26_3 Depth=1
	st.d	$s7, $sp, 48
	move	$a0, $s7
	st.d	$zero, $sp, 56
	st.b	$zero, $a0, 0
	ld.d	$a0, $sp, 48
	beq	$a0, $s7, .LBB26_19
.LBB26_18:                              # %_ZNKSt7__cxx1112basic_stringIcSt11char_traitsIcESaIcEE11_M_is_localEv.exit.i.i
                                        #   in Loop: Header=BB26_3 Depth=1
	ld.d	$a1, $sp, 64
	addi.d	$a1, $a1, 1
	pcaddu18i	$ra, %call36(_ZdlPvm)
	jirl	$ra, $ra, 0
.LBB26_19:                              # %_ZNSt7__cxx1112basic_stringIcSt11char_traitsIcESaIcEED2Ev.exit
                                        #   in Loop: Header=BB26_3 Depth=1
	ld.d	$a0, $sp, 16
	beq	$a0, $s5, .LBB26_21
# %bb.20:                               # %_ZNKSt7__cxx1112basic_stringIcSt11char_traitsIcESaIcEE11_M_is_localEv.exit.i.i27
                                        #   in Loop: Header=BB26_3 Depth=1
	ld.d	$a1, $sp, 32
	addi.d	$a1, $a1, 1
	pcaddu18i	$ra, %call36(_ZdlPvm)
	jirl	$ra, $ra, 0
.LBB26_21:                              # %_ZNSt7__cxx1112basic_stringIcSt11char_traitsIcESaIcEED2Ev.exit29
                                        #   in Loop: Header=BB26_3 Depth=1
	ld.d	$a0, $s2, 0
	ld.d	$s8, $s2, 8
	beq	$a0, $s8, .LBB26_31
# %bb.22:                               # %.lr.ph
                                        #   in Loop: Header=BB26_3 Depth=1
	ld.d	$s3, $sp, 88
	ld.d	$s4, $sp, 80
	addi.d	$s6, $a0, 48
	b	.LBB26_24
	.p2align	4, , 16
.LBB26_23:                              # %_ZSteqIcSt11char_traitsIcESaIcEEbRKNSt7__cxx1112basic_stringIT_T0_T1_EESA_.exit.thread47
                                        #   in Loop: Header=BB26_24 Depth=2
	addi.d	$a0, $s6, 16
	addi.d	$s6, $s6, 64
	beq	$a0, $s8, .LBB26_31
.LBB26_24:                              #   Parent Loop BB26_3 Depth=1
                                        # =>  This Inner Loop Header: Depth=2
	ld.d	$a0, $s6, -40
	bne	$a0, $s3, .LBB26_23
# %bb.25:                               #   in Loop: Header=BB26_24 Depth=2
	beqz	$s3, .LBB26_27
# %bb.26:                               # %_ZSteqIcSt11char_traitsIcESaIcEEbRKNSt7__cxx1112basic_stringIT_T0_T1_EESA_.exit
                                        #   in Loop: Header=BB26_24 Depth=2
	ld.d	$a0, $s6, -48
	move	$a1, $s4
	move	$a2, $s3
	pcaddu18i	$ra, %call36(bcmp)
	jirl	$ra, $ra, 0
	bnez	$a0, .LBB26_23
.LBB26_27:                              # %_ZSteqIcSt11char_traitsIcESaIcEEbRKNSt7__cxx1112basic_stringIT_T0_T1_EESA_.exit.thread
                                        #   in Loop: Header=BB26_3 Depth=1
	ld.d	$a0, $s6, -16
	beq	$s6, $a0, .LBB26_49
# %bb.28:                               # %_ZNKSt7__cxx1112basic_stringIcSt11char_traitsIcESaIcEE11_M_is_localEv.exit.thread.i33
                                        #   in Loop: Header=BB26_3 Depth=1
	ld.d	$a1, $sp, 112
	beq	$a1, $s0, .LBB26_52
# %bb.29:                               # %_ZNKSt7__cxx1112basic_stringIcSt11char_traitsIcESaIcEE11_M_is_localEv.exit23.thread25.i34
                                        #   in Loop: Header=BB26_3 Depth=1
	ld.d	$a2, $sp, 120
	st.d	$a1, $s6, -16
	st.d	$a2, $s6, -8
	ld.d	$a2, $sp, 128
	ld.d	$a1, $s6, 0
	st.d	$a2, $s6, 0
	beqz	$a0, .LBB26_51
# %bb.30:                               #   in Loop: Header=BB26_3 Depth=1
	st.d	$a0, $sp, 112
	st.d	$a1, $sp, 128
	b	.LBB26_58
	.p2align	4, , 16
.LBB26_31:                              # %._crit_edge
                                        #   in Loop: Header=BB26_3 Depth=1
	ld.d	$a0, $s2, 16
	beq	$s8, $a0, .LBB26_37
# %bb.32:                               #   in Loop: Header=BB26_3 Depth=1
	addi.d	$a0, $s8, 16
	st.d	$a0, $s8, 0
	ld.d	$a1, $sp, 80
	beq	$a1, $s1, .LBB26_38
# %bb.33:                               # %_ZNKSt7__cxx1112basic_stringIcSt11char_traitsIcESaIcEE11_M_is_localEv.exit.i.i.i.i
                                        #   in Loop: Header=BB26_3 Depth=1
	st.d	$a1, $s8, 0
	ld.d	$a0, $sp, 96
	ld.d	$s3, $sp, 88
	st.d	$a0, $s8, 16
	b	.LBB26_39
	.p2align	4, , 16
.LBB26_34:                              #   in Loop: Header=BB26_3 Depth=1
	ld.d	$a2, $sp, 56
	beqz	$a2, .LBB26_48
# %bb.35:                               #   in Loop: Header=BB26_3 Depth=1
	ori	$a3, $zero, 1
	bne	$a2, $a3, .LBB26_47
# %bb.36:                               #   in Loop: Header=BB26_3 Depth=1
	ld.b	$a1, $a1, 0
	st.b	$a1, $a0, 0
	b	.LBB26_48
	.p2align	4, , 16
.LBB26_37:                              #   in Loop: Header=BB26_3 Depth=1
.Ltmp266:
	addi.d	$a1, $sp, 80
	move	$a0, $s2
	pcaddu18i	$ra, %call36(_ZNSt6vectorISt4pairINSt7__cxx1112basic_stringIcSt11char_traitsIcESaIcEEES6_ESaIS7_EE17_M_realloc_appendIJS7_EEEvDpOT_)
	jirl	$ra, $ra, 0
.Ltmp267:
	b	.LBB26_43
.LBB26_38:                              #   in Loop: Header=BB26_3 Depth=1
	ld.d	$s3, $sp, 88
	addi.d	$a2, $s3, 1
	move	$a1, $s1
	pcaddu18i	$ra, %call36(memcpy)
	jirl	$ra, $ra, 0
.LBB26_39:                              # %_ZNSt7__cxx1112basic_stringIcSt11char_traitsIcESaIcEEC2EOS4_.exit.i.i.i
                                        #   in Loop: Header=BB26_3 Depth=1
	addi.d	$a0, $s8, 48
	st.d	$a0, $s8, 32
	ld.d	$a1, $sp, 112
	st.d	$s3, $s8, 8
	st.d	$s1, $sp, 80
	st.d	$zero, $sp, 88
	st.b	$zero, $sp, 96
	beq	$a1, $s0, .LBB26_41
# %bb.40:                               # %_ZNKSt7__cxx1112basic_stringIcSt11char_traitsIcESaIcEE11_M_is_localEv.exit.i4.i.i.i
                                        #   in Loop: Header=BB26_3 Depth=1
	st.d	$a1, $s8, 32
	ld.d	$a0, $sp, 128
	ld.d	$s3, $sp, 120
	st.d	$a0, $s8, 48
	b	.LBB26_42
.LBB26_41:                              #   in Loop: Header=BB26_3 Depth=1
	ld.d	$s3, $sp, 120
	addi.d	$a2, $s3, 1
	move	$a1, $s0
	pcaddu18i	$ra, %call36(memcpy)
	jirl	$ra, $ra, 0
.LBB26_42:                              # %_ZNSt4pairINSt7__cxx1112basic_stringIcSt11char_traitsIcESaIcEEES5_EC2EOS6_.exit.i.i
                                        #   in Loop: Header=BB26_3 Depth=1
	st.d	$s3, $s8, 40
	st.d	$s0, $sp, 112
	st.d	$zero, $sp, 120
	st.b	$zero, $sp, 128
	addi.d	$a0, $s8, 64
	st.d	$a0, $s2, 8
.LBB26_43:                              # %_ZNSt6vectorISt4pairINSt7__cxx1112basic_stringIcSt11char_traitsIcESaIcEEES6_ESaIS7_EE9push_backEOS7_.exit
                                        #   in Loop: Header=BB26_3 Depth=1
	ld.d	$a0, $sp, 112
	beq	$a0, $s0, .LBB26_45
.LBB26_44:                              # %_ZNKSt7__cxx1112basic_stringIcSt11char_traitsIcESaIcEE11_M_is_localEv.exit.i.i.i
                                        #   in Loop: Header=BB26_3 Depth=1
	ld.d	$a1, $sp, 128
	addi.d	$a1, $a1, 1
	pcaddu18i	$ra, %call36(_ZdlPvm)
	jirl	$ra, $ra, 0
.LBB26_45:                              # %_ZNSt7__cxx1112basic_stringIcSt11char_traitsIcESaIcEED2Ev.exit.i
                                        #   in Loop: Header=BB26_3 Depth=1
	ld.d	$a0, $sp, 80
	beq	$a0, $s1, .LBB26_2
# %bb.46:                               # %_ZNKSt7__cxx1112basic_stringIcSt11char_traitsIcESaIcEE11_M_is_localEv.exit.i.i1.i
                                        #   in Loop: Header=BB26_3 Depth=1
	ld.d	$a1, $sp, 96
	addi.d	$a1, $a1, 1
	pcaddu18i	$ra, %call36(_ZdlPvm)
	jirl	$ra, $ra, 0
	b	.LBB26_2
.LBB26_47:                              #   in Loop: Header=BB26_3 Depth=1
	pcaddu18i	$ra, %call36(memcpy)
	jirl	$ra, $ra, 0
.LBB26_48:                              # %_ZNSt7__cxx1112basic_stringIcSt11char_traitsIcESaIcEE7_S_copyEPcPKcm.exit.i
                                        #   in Loop: Header=BB26_3 Depth=1
	ld.d	$a0, $sp, 56
	ld.d	$a1, $sp, 112
	st.d	$a0, $sp, 120
	stx.b	$zero, $a1, $a0
	ld.d	$a0, $sp, 48
	st.d	$zero, $sp, 56
	st.b	$zero, $a0, 0
	ld.d	$a0, $sp, 48
	bne	$a0, $s7, .LBB26_18
	b	.LBB26_19
.LBB26_49:                              # %_ZNKSt7__cxx1112basic_stringIcSt11char_traitsIcESaIcEE11_M_is_localEv.exit.i38
                                        #   in Loop: Header=BB26_3 Depth=1
	ld.d	$a1, $sp, 112
	beq	$a1, $s0, .LBB26_52
# %bb.50:                               # %.thread.i39
                                        #   in Loop: Header=BB26_3 Depth=1
	ld.d	$a0, $sp, 120
	st.d	$a1, $s6, -16
	st.d	$a0, $s6, -8
	ld.d	$a0, $sp, 128
	st.d	$a0, $s6, 0
.LBB26_51:                              #   in Loop: Header=BB26_3 Depth=1
	st.d	$s0, $sp, 112
	move	$a0, $s0
	b	.LBB26_58
.LBB26_52:                              #   in Loop: Header=BB26_3 Depth=1
	addi.d	$a2, $s6, -48
	addi.d	$a3, $sp, 80
	beq	$a2, $a3, .LBB26_59
# %bb.53:                               #   in Loop: Header=BB26_3 Depth=1
	ld.d	$a2, $sp, 120
	beqz	$a2, .LBB26_57
# %bb.54:                               #   in Loop: Header=BB26_3 Depth=1
	ori	$a3, $zero, 1
	bne	$a2, $a3, .LBB26_56
# %bb.55:                               #   in Loop: Header=BB26_3 Depth=1
	ld.b	$a1, $a1, 0
	st.b	$a1, $a0, 0
	b	.LBB26_57
.LBB26_56:                              #   in Loop: Header=BB26_3 Depth=1
	pcaddu18i	$ra, %call36(memcpy)
	jirl	$ra, $ra, 0
.LBB26_57:                              # %_ZNSt7__cxx1112basic_stringIcSt11char_traitsIcESaIcEE7_S_copyEPcPKcm.exit.i36
                                        #   in Loop: Header=BB26_3 Depth=1
	ld.d	$a0, $sp, 120
	ld.d	$a1, $s6, -16
	st.d	$a0, $s6, -8
	stx.b	$zero, $a1, $a0
	ld.d	$a0, $sp, 112
.LBB26_58:                              # %.thread50
                                        #   in Loop: Header=BB26_3 Depth=1
	st.d	$zero, $sp, 120
	st.b	$zero, $a0, 0
	ld.d	$a0, $sp, 112
	bne	$a0, $s0, .LBB26_44
	b	.LBB26_45
.LBB26_59:                              #   in Loop: Header=BB26_3 Depth=1
	move	$a0, $a1
	b	.LBB26_58
.LBB26_60:                              # %._crit_edge64
	move	$a0, $zero
	ld.d	$s8, $sp, 152                   # 8-byte Folded Reload
	ld.d	$s7, $sp, 160                   # 8-byte Folded Reload
	ld.d	$s6, $sp, 168                   # 8-byte Folded Reload
	ld.d	$s5, $sp, 176                   # 8-byte Folded Reload
	ld.d	$s4, $sp, 184                   # 8-byte Folded Reload
	ld.d	$s3, $sp, 192                   # 8-byte Folded Reload
	ld.d	$s2, $sp, 200                   # 8-byte Folded Reload
	ld.d	$s1, $sp, 208                   # 8-byte Folded Reload
	ld.d	$s0, $sp, 216                   # 8-byte Folded Reload
	ld.d	$fp, $sp, 224                   # 8-byte Folded Reload
	ld.d	$ra, $sp, 232                   # 8-byte Folded Reload
	addi.d	$sp, $sp, 240
	ret
.LBB26_61:
.Ltmp268:
	b	.LBB26_63
.LBB26_62:
.Ltmp262:
.LBB26_63:
	move	$fp, $a0
	addi.d	$a0, $sp, 80
	pcaddu18i	$ra, %call36(_ZNSt4pairINSt7__cxx1112basic_stringIcSt11char_traitsIcESaIcEEES5_ED2Ev)
	jirl	$ra, $ra, 0
	move	$a0, $fp
	pcaddu18i	$ra, %call36(_Unwind_Resume)
	jirl	$ra, $ra, 0
.LBB26_64:
.Ltmp265:
	ld.d	$a2, $sp, 16
	move	$fp, $a0
	beq	$a2, $s5, .LBB26_66
# %bb.65:                               # %_ZNKSt7__cxx1112basic_stringIcSt11char_traitsIcESaIcEE11_M_is_localEv.exit.i.i30
	ld.d	$a0, $sp, 32
	addi.d	$a1, $a0, 1
	move	$a0, $a2
	pcaddu18i	$ra, %call36(_ZdlPvm)
	jirl	$ra, $ra, 0
.LBB26_66:
	addi.d	$a0, $sp, 80
	pcaddu18i	$ra, %call36(_ZNSt4pairINSt7__cxx1112basic_stringIcSt11char_traitsIcESaIcEEES5_ED2Ev)
	jirl	$ra, $ra, 0
	move	$a0, $fp
	pcaddu18i	$ra, %call36(_Unwind_Resume)
	jirl	$ra, $ra, 0
.Lfunc_end26:
	.size	_Z16SetSubstitutionsSt16initializer_listISt4pairINSt7__cxx1112basic_stringIcSt11char_traitsIcESaIcEEES6_EE, .Lfunc_end26-_Z16SetSubstitutionsSt16initializer_listISt4pairINSt7__cxx1112basic_stringIcSt11char_traitsIcESaIcEEES6_EE
	.cfi_endproc
	.section	.gcc_except_table,"a",@progbits
	.p2align	2, 0x0
GCC_except_table26:
.Lexception11:
	.byte	255                             # @LPStart Encoding = omit
	.byte	255                             # @TType Encoding = omit
	.byte	1                               # Call site Encoding = uleb128
	.uleb128 .Lcst_end11-.Lcst_begin11
.Lcst_begin11:
	.uleb128 .Lfunc_begin11-.Lfunc_begin11  # >> Call Site 1 <<
	.uleb128 .Ltmp260-.Lfunc_begin11        #   Call between .Lfunc_begin11 and .Ltmp260
	.byte	0                               #     has no landing pad
	.byte	0                               #   On action: cleanup
	.uleb128 .Ltmp260-.Lfunc_begin11        # >> Call Site 2 <<
	.uleb128 .Ltmp261-.Ltmp260              #   Call between .Ltmp260 and .Ltmp261
	.uleb128 .Ltmp262-.Lfunc_begin11        #     jumps to .Ltmp262
	.byte	0                               #   On action: cleanup
	.uleb128 .Ltmp261-.Lfunc_begin11        # >> Call Site 3 <<
	.uleb128 .Ltmp263-.Ltmp261              #   Call between .Ltmp261 and .Ltmp263
	.byte	0                               #     has no landing pad
	.byte	0                               #   On action: cleanup
	.uleb128 .Ltmp263-.Lfunc_begin11        # >> Call Site 4 <<
	.uleb128 .Ltmp264-.Ltmp263              #   Call between .Ltmp263 and .Ltmp264
	.uleb128 .Ltmp265-.Lfunc_begin11        #     jumps to .Ltmp265
	.byte	0                               #   On action: cleanup
	.uleb128 .Ltmp264-.Lfunc_begin11        # >> Call Site 5 <<
	.uleb128 .Ltmp266-.Ltmp264              #   Call between .Ltmp264 and .Ltmp266
	.byte	0                               #     has no landing pad
	.byte	0                               #   On action: cleanup
	.uleb128 .Ltmp266-.Lfunc_begin11        # >> Call Site 6 <<
	.uleb128 .Ltmp267-.Ltmp266              #   Call between .Ltmp266 and .Ltmp267
	.uleb128 .Ltmp268-.Lfunc_begin11        #     jumps to .Ltmp268
	.byte	0                               #   On action: cleanup
	.uleb128 .Ltmp267-.Lfunc_begin11        # >> Call Site 7 <<
	.uleb128 .Lfunc_end26-.Ltmp267          #   Call between .Ltmp267 and .Lfunc_end26
	.byte	0                               #     has no landing pad
	.byte	0                               #   On action: cleanup
.Lcst_end11:
	.p2align	2, 0x0
                                        # -- End function
	.text
	.p2align	5                               # -- Begin function _ZN8internal12_GLOBAL__N_116GetSubstitutionsB5cxx11Ev
	.type	_ZN8internal12_GLOBAL__N_116GetSubstitutionsB5cxx11Ev,@function
_ZN8internal12_GLOBAL__N_116GetSubstitutionsB5cxx11Ev: # @_ZN8internal12_GLOBAL__N_116GetSubstitutionsB5cxx11Ev
.Lfunc_begin12:
	.cfi_startproc
	.cfi_personality 155, DW.ref.__gxx_personality_v0
	.cfi_lsda 27, .Lexception12
# %bb.0:
	addi.d	$sp, $sp, -2032
	.cfi_def_cfa_offset 2032
	st.d	$ra, $sp, 2024                  # 8-byte Folded Spill
	st.d	$fp, $sp, 2016                  # 8-byte Folded Spill
	st.d	$s0, $sp, 2008                  # 8-byte Folded Spill
	st.d	$s1, $sp, 2000                  # 8-byte Folded Spill
	st.d	$s2, $sp, 1992                  # 8-byte Folded Spill
	.cfi_offset 1, -8
	.cfi_offset 22, -16
	.cfi_offset 23, -24
	.cfi_offset 24, -32
	.cfi_offset 25, -40
	addi.d	$sp, $sp, -2048
	addi.d	$sp, $sp, -80
	.cfi_def_cfa_offset 4160
	pcalau12i	$a0, %pc_hi20(_ZGVZN8internal12_GLOBAL__N_116GetSubstitutionsB5cxx11EvE11safe_dec_reB5cxx11)
	ld.b	$a0, $a0, %pc_lo12(_ZGVZN8internal12_GLOBAL__N_116GetSubstitutionsB5cxx11EvE11safe_dec_reB5cxx11)
	dbar	20
	beqz	$a0, .LBB27_5
.LBB27_1:
	pcalau12i	$a0, %pc_hi20(_ZGVZN8internal12_GLOBAL__N_116GetSubstitutionsB5cxx11EvE7time_reB5cxx11)
	ld.b	$a0, $a0, %pc_lo12(_ZGVZN8internal12_GLOBAL__N_116GetSubstitutionsB5cxx11EvE7time_reB5cxx11)
	dbar	20
	beqz	$a0, .LBB27_8
.LBB27_2:
	pcalau12i	$a0, %pc_hi20(_ZGVZN8internal12_GLOBAL__N_116GetSubstitutionsB5cxx11EvE13percentage_reB5cxx11)
	ld.b	$a0, $a0, %pc_lo12(_ZGVZN8internal12_GLOBAL__N_116GetSubstitutionsB5cxx11EvE13percentage_reB5cxx11)
	dbar	20
	beqz	$a0, .LBB27_11
.LBB27_3:
	pcalau12i	$a0, %pc_hi20(_ZGVZN8internal12_GLOBAL__N_116GetSubstitutionsB5cxx11EvE3mapB5cxx11)
	ld.b	$a0, $a0, %pc_lo12(_ZGVZN8internal12_GLOBAL__N_116GetSubstitutionsB5cxx11EvE3mapB5cxx11)
	dbar	20
	beqz	$a0, .LBB27_14
.LBB27_4:
	addi.d	$sp, $sp, 2032
	addi.d	$sp, $sp, 96
	ld.d	$s2, $sp, 1992                  # 8-byte Folded Reload
	ld.d	$s1, $sp, 2000                  # 8-byte Folded Reload
	ld.d	$s0, $sp, 2008                  # 8-byte Folded Reload
	ld.d	$fp, $sp, 2016                  # 8-byte Folded Reload
	ld.d	$ra, $sp, 2024                  # 8-byte Folded Reload
	addi.d	$sp, $sp, 2032
	ret
.LBB27_5:
	pcalau12i	$a0, %pc_hi20(_ZGVZN8internal12_GLOBAL__N_116GetSubstitutionsB5cxx11EvE11safe_dec_reB5cxx11)
	addi.d	$fp, $a0, %pc_lo12(_ZGVZN8internal12_GLOBAL__N_116GetSubstitutionsB5cxx11EvE11safe_dec_reB5cxx11)
	move	$a0, $fp
	pcaddu18i	$ra, %call36(__cxa_guard_acquire)
	jirl	$ra, $ra, 0
	addi.w	$a0, $a0, 0
	beqz	$a0, .LBB27_1
# %bb.6:
.Ltmp269:
	pcalau12i	$a0, %pc_hi20(_ZZN8internal12_GLOBAL__N_116GetSubstitutionsB5cxx11EvE11safe_dec_reB5cxx11)
	addi.d	$a0, $a0, %pc_lo12(_ZZN8internal12_GLOBAL__N_116GetSubstitutionsB5cxx11EvE11safe_dec_reB5cxx11)
	pcalau12i	$a1, %pc_hi20(.L.str.218)
	addi.d	$a1, $a1, %pc_lo12(.L.str.218)
	ori	$a2, $zero, 2520
	add.d	$a2, $sp, $a2
	pcaddu18i	$ra, %call36(_ZNSt7__cxx1112basic_stringIcSt11char_traitsIcESaIcEEC2IS3_EEPKcRKS3_)
	jirl	$ra, $ra, 0
.Ltmp270:
# %bb.7:
	pcalau12i	$a0, %got_pc_hi20(_ZNSt7__cxx1112basic_stringIcSt11char_traitsIcESaIcEED2Ev)
	ld.d	$a0, $a0, %got_pc_lo12(_ZNSt7__cxx1112basic_stringIcSt11char_traitsIcESaIcEED2Ev)
	pcalau12i	$a1, %pc_hi20(_ZZN8internal12_GLOBAL__N_116GetSubstitutionsB5cxx11EvE11safe_dec_reB5cxx11)
	addi.d	$a1, $a1, %pc_lo12(_ZZN8internal12_GLOBAL__N_116GetSubstitutionsB5cxx11EvE11safe_dec_reB5cxx11)
	pcalau12i	$a2, %pc_hi20(__dso_handle)
	addi.d	$a2, $a2, %pc_lo12(__dso_handle)
	pcaddu18i	$ra, %call36(__cxa_atexit)
	jirl	$ra, $ra, 0
