	.file	"user_counters_test.cc"
                                        # Start of file scope inline assembly
	.globl	_ZSt21ios_base_library_initv

                                        # End of file scope inline assembly
	.section	.text._ZN8TestCaseD2Ev,"axG",@progbits,_ZN8TestCaseD2Ev,comdat
	.hidden	_ZN8TestCaseD2Ev                # -- Begin function _ZN8TestCaseD2Ev
	.weak	_ZN8TestCaseD2Ev
	.p2align	5
	.type	_ZN8TestCaseD2Ev,@function
_ZN8TestCaseD2Ev:                       # @_ZN8TestCaseD2Ev
	.cfi_startproc
# %bb.0:
	addi.d	$sp, $sp, -32
	.cfi_def_cfa_offset 32
	st.d	$ra, $sp, 24                    # 8-byte Folded Spill
	st.d	$fp, $sp, 16                    # 8-byte Folded Spill
	st.d	$s0, $sp, 8                     # 8-byte Folded Spill
	.cfi_offset 1, -8
	.cfi_offset 22, -16
	.cfi_offset 23, -24
	move	$fp, $a0
	ld.d	$s0, $a0, 80
	beqz	$s0, .LBB0_5
# %bb.1:
	ld.d	$a0, $s0, 8
	ori	$a1, $zero, 1
	lu32i.d	$a1, 1
	dbar	20
	bne	$a0, $a1, .LBB0_3
# %bb.2:
	ld.d	$a0, $s0, 0
	st.d	$zero, $s0, 8
	ld.d	$a1, $a0, 16
	move	$a0, $s0
	jirl	$ra, $a1, 0
	ld.d	$a0, $s0, 0
	ld.d	$a1, $a0, 24
	move	$a0, $s0
	jirl	$ra, $a1, 0
	ld.d	$a0, $fp, 40
	addi.d	$a1, $fp, 56
	bne	$a0, $a1, .LBB0_6
	b	.LBB0_7
.LBB0_3:
	pcalau12i	$a1, %got_pc_hi20(__libc_single_threaded)
	ld.d	$a1, $a1, %got_pc_lo12(__libc_single_threaded)
	ld.bu	$a1, $a1, 0
	beqz	$a1, .LBB0_10
# %bb.4:
	addi.d	$a1, $a0, -1
	st.w	$a1, $s0, 8
	addi.w	$a0, $a0, 0
	ori	$a1, $zero, 1
	beq	$a0, $a1, .LBB0_11
.LBB0_5:                                # %_ZNSt12__shared_ptrIN9benchmark5RegexELN9__gnu_cxx12_Lock_policyE2EED2Ev.exit
	ld.d	$a0, $fp, 40
	addi.d	$a1, $fp, 56
	beq	$a0, $a1, .LBB0_7
.LBB0_6:                                # %_ZNKSt7__cxx1112basic_stringIcSt11char_traitsIcESaIcEE11_M_is_localEv.exit.i.i
	ld.d	$a1, $a1, 0
	addi.d	$a1, $a1, 1
	pcaddu18i	$ra, %call36(_ZdlPvm)
	jirl	$ra, $ra, 0
.LBB0_7:                                # %_ZNSt7__cxx1112basic_stringIcSt11char_traitsIcESaIcEED2Ev.exit
	ld.d	$a0, $fp, 0
	addi.d	$a1, $fp, 16
	beq	$a0, $a1, .LBB0_9
# %bb.8:                                # %_ZNKSt7__cxx1112basic_stringIcSt11char_traitsIcESaIcEE11_M_is_localEv.exit.i.i1
	ld.d	$a1, $a1, 0
	addi.d	$a1, $a1, 1
	ld.d	$s0, $sp, 8                     # 8-byte Folded Reload
	ld.d	$fp, $sp, 16                    # 8-byte Folded Reload
	ld.d	$ra, $sp, 24                    # 8-byte Folded Reload
	addi.d	$sp, $sp, 32
	pcaddu18i	$t8, %call36(_ZdlPvm)
	jr	$t8
.LBB0_9:                                # %_ZNSt7__cxx1112basic_stringIcSt11char_traitsIcESaIcEED2Ev.exit3
	ld.d	$s0, $sp, 8                     # 8-byte Folded Reload
	ld.d	$fp, $sp, 16                    # 8-byte Folded Reload
	ld.d	$ra, $sp, 24                    # 8-byte Folded Reload
	addi.d	$sp, $sp, 32
	ret
.LBB0_10:
	addi.d	$a1, $s0, 8
	addi.w	$a2, $zero, -1
	amadd_db.w	$a0, $a2, $a1
	addi.w	$a0, $a0, 0
	ori	$a1, $zero, 1
	bne	$a0, $a1, .LBB0_5
.LBB0_11:
	move	$a0, $s0
	pcaddu18i	$ra, %call36(_ZNSt16_Sp_counted_baseILN9__gnu_cxx12_Lock_policyE2EE24_M_release_last_use_coldEv)
	jirl	$ra, $ra, 0
	ld.d	$a0, $fp, 40
	addi.d	$a1, $fp, 56
	bne	$a0, $a1, .LBB0_6
	b	.LBB0_7
.Lfunc_end0:
	.size	_ZN8TestCaseD2Ev, .Lfunc_end0-_ZN8TestCaseD2Ev
	.cfi_endproc
                                        # -- End function
	.text
	.hidden	_Z18BM_Counters_SimpleRN9benchmark5StateE # -- Begin function _Z18BM_Counters_SimpleRN9benchmark5StateE
	.globl	_Z18BM_Counters_SimpleRN9benchmark5StateE
	.p2align	5
	.type	_Z18BM_Counters_SimpleRN9benchmark5StateE,@function
_Z18BM_Counters_SimpleRN9benchmark5StateE: # @_Z18BM_Counters_SimpleRN9benchmark5StateE
.Lfunc_begin0:
	.cfi_startproc
	.cfi_personality 155, DW.ref.__gxx_personality_v0
	.cfi_lsda 27, .Lexception0
# %bb.0:                                # %_ZN9benchmark5State13StateIteratorC2EPS0_.exit
	addi.d	$sp, $sp, -80
	.cfi_def_cfa_offset 80
	st.d	$ra, $sp, 72                    # 8-byte Folded Spill
	st.d	$fp, $sp, 64                    # 8-byte Folded Spill
	st.d	$s0, $sp, 56                    # 8-byte Folded Spill
	st.d	$s1, $sp, 48                    # 8-byte Folded Spill
	fst.d	$fs0, $sp, 40                   # 8-byte Folded Spill
	.cfi_offset 1, -8
	.cfi_offset 22, -16
	.cfi_offset 23, -24
	.cfi_offset 24, -32
	.cfi_offset 56, -40
	move	$s0, $a0
	ld.w	$s1, $a0, 28
	ld.d	$fp, $a0, 16
	pcaddu18i	$ra, %call36(_ZN9benchmark5State16StartKeepRunningEv)
	jirl	$ra, $ra, 0
	bnez	$s1, .LBB1_3
# %bb.1:                                # %_ZN9benchmark5State13StateIteratorC2EPS0_.exit
	beqz	$fp, .LBB1_3
# %bb.2:                                # %_ZN9benchmark5State13StateIteratorppEv.exit.preheader
	srai.d	$a0, $fp, 63
	andn	$a0, $fp, $a0
	addi.d	$a1, $fp, -1
	bgeu	$a1, $a0, .LBB1_13
.LBB1_3:                                # %._crit_edge.i.i
	move	$a0, $s0
	pcaddu18i	$ra, %call36(_ZN9benchmark5State17FinishKeepRunningEv)
	jirl	$ra, $ra, 0
	addi.d	$fp, $s0, 64
	pcalau12i	$a0, %pc_hi20(.L.str.5)
	addi.d	$a0, $a0, %pc_lo12(.L.str.5)
	ld.h	$a1, $a0, 0
	ld.b	$a0, $a0, 2
	addi.d	$s1, $sp, 24
	st.d	$s1, $sp, 8
	st.h	$a1, $sp, 24
	st.b	$a0, $sp, 26
	ori	$a0, $zero, 3
	st.d	$a0, $sp, 16
	st.b	$zero, $sp, 27
.Ltmp0:
	addi.d	$a1, $sp, 8
	move	$a0, $fp
	pcaddu18i	$ra, %call36(_ZNSt3mapINSt7__cxx1112basic_stringIcSt11char_traitsIcESaIcEEEN9benchmark7CounterESt4lessIS5_ESaISt4pairIKS5_S7_EEEixEOS5_)
	jirl	$ra, $ra, 0
.Ltmp1:
# %bb.4:
	lu52i.d	$a1, $zero, 1023
	st.d	$a1, $a0, 0
	ld.d	$a2, $sp, 8
	ori	$a1, $zero, 0
	lu32i.d	$a1, 1000
	st.d	$a1, $a0, 8
	beq	$a2, $s1, .LBB1_6
# %bb.5:                                # %_ZNKSt7__cxx1112basic_stringIcSt11char_traitsIcESaIcEE11_M_is_localEv.exit.i.i
	ld.d	$a0, $sp, 24
	addi.d	$a1, $a0, 1
	move	$a0, $a2
	pcaddu18i	$ra, %call36(_ZdlPvm)
	jirl	$ra, $ra, 0
.LBB1_6:                                # %_ZNSt7__cxx1112basic_stringIcSt11char_traitsIcESaIcEED2Ev.exit
	ld.bu	$a0, $s0, 24
	beqz	$a0, .LBB1_12
# %bb.7:
	ld.d	$a0, $s0, 16
	ld.d	$a1, $s0, 0
	ld.d	$a2, $s0, 8
	sub.d	$a0, $a0, $a1
	add.d	$a0, $a0, $a2
	movgr2fr.d	$fa0, $a0
	ffint.d.l	$fa0, $fa0
	fadd.d	$fs0, $fa0, $fa0
.LBB1_8:                                # %_ZNK9benchmark5State10iterationsEv.exit
	pcalau12i	$a0, %pc_hi20(.L.str.6)
	addi.d	$a0, $a0, %pc_lo12(.L.str.6)
	ld.h	$a1, $a0, 0
	ld.b	$a0, $a0, 2
	st.d	$s1, $sp, 8
	st.h	$a1, $sp, 24
	st.b	$a0, $sp, 26
	ori	$a0, $zero, 3
	st.d	$a0, $sp, 16
	st.b	$zero, $sp, 27
.Ltmp3:
	addi.d	$a1, $sp, 8
	move	$a0, $fp
	pcaddu18i	$ra, %call36(_ZNSt3mapINSt7__cxx1112basic_stringIcSt11char_traitsIcESaIcEEEN9benchmark7CounterESt4lessIS5_ESaISt4pairIKS5_S7_EEEixEOS5_)
	jirl	$ra, $ra, 0
.Ltmp4:
# %bb.9:
	fst.d	$fs0, $a0, 0
	ld.d	$a2, $sp, 8
	ori	$a1, $zero, 0
	lu32i.d	$a1, 1000
	st.d	$a1, $a0, 8
	beq	$a2, $s1, .LBB1_11
# %bb.10:                               # %_ZNKSt7__cxx1112basic_stringIcSt11char_traitsIcESaIcEE11_M_is_localEv.exit.i.i27
	ld.d	$a0, $sp, 24
	addi.d	$a1, $a0, 1
	move	$a0, $a2
	pcaddu18i	$ra, %call36(_ZdlPvm)
	jirl	$ra, $ra, 0
.LBB1_11:                               # %_ZNSt7__cxx1112basic_stringIcSt11char_traitsIcESaIcEED2Ev.exit29
	fld.d	$fs0, $sp, 40                   # 8-byte Folded Reload
	ld.d	$s1, $sp, 48                    # 8-byte Folded Reload
	ld.d	$s0, $sp, 56                    # 8-byte Folded Reload
	ld.d	$fp, $sp, 64                    # 8-byte Folded Reload
	ld.d	$ra, $sp, 72                    # 8-byte Folded Reload
	addi.d	$sp, $sp, 80
	ret
.LBB1_12:
	movgr2fr.d	$fs0, $zero
	b	.LBB1_8
.LBB1_13:
	pcalau12i	$a0, %pc_hi20(.L.str.198)
	addi.d	$a0, $a0, %pc_lo12(.L.str.198)
	pcalau12i	$a1, %pc_hi20(.L.str.199)
	addi.d	$a1, $a1, %pc_lo12(.L.str.199)
	pcalau12i	$a2, %pc_hi20(.L__PRETTY_FUNCTION__._ZN9benchmark5State13StateIteratorppEv)
	addi.d	$a3, $a2, %pc_lo12(.L__PRETTY_FUNCTION__._ZN9benchmark5State13StateIteratorppEv)
	ori	$a2, $zero, 1134
	pcaddu18i	$ra, %call36(__assert_fail)
	jirl	$ra, $ra, 0
.LBB1_14:
.Ltmp5:
	b	.LBB1_16
.LBB1_15:
.Ltmp2:
.LBB1_16:
	ld.d	$a2, $sp, 8
	move	$fp, $a0
	beq	$a2, $s1, .LBB1_18
# %bb.17:                               # %_ZNKSt7__cxx1112basic_stringIcSt11char_traitsIcESaIcEE11_M_is_localEv.exit.i.i33
	ld.d	$a0, $sp, 24
	addi.d	$a1, $a0, 1
	move	$a0, $a2
	pcaddu18i	$ra, %call36(_ZdlPvm)
	jirl	$ra, $ra, 0
.LBB1_18:
	move	$a0, $fp
	pcaddu18i	$ra, %call36(_Unwind_Resume)
	jirl	$ra, $ra, 0
.Lfunc_end1:
	.size	_Z18BM_Counters_SimpleRN9benchmark5StateE, .Lfunc_end1-_Z18BM_Counters_SimpleRN9benchmark5StateE
	.cfi_endproc
	.section	.gcc_except_table,"a",@progbits
	.p2align	2, 0x0
GCC_except_table1:
.Lexception0:
	.byte	255                             # @LPStart Encoding = omit
	.byte	255                             # @TType Encoding = omit
	.byte	1                               # Call site Encoding = uleb128
	.uleb128 .Lcst_end0-.Lcst_begin0
.Lcst_begin0:
	.uleb128 .Lfunc_begin0-.Lfunc_begin0    # >> Call Site 1 <<
	.uleb128 .Ltmp0-.Lfunc_begin0           #   Call between .Lfunc_begin0 and .Ltmp0
	.byte	0                               #     has no landing pad
	.byte	0                               #   On action: cleanup
	.uleb128 .Ltmp0-.Lfunc_begin0           # >> Call Site 2 <<
	.uleb128 .Ltmp1-.Ltmp0                  #   Call between .Ltmp0 and .Ltmp1
	.uleb128 .Ltmp2-.Lfunc_begin0           #     jumps to .Ltmp2
	.byte	0                               #   On action: cleanup
	.uleb128 .Ltmp1-.Lfunc_begin0           # >> Call Site 3 <<
	.uleb128 .Ltmp3-.Ltmp1                  #   Call between .Ltmp1 and .Ltmp3
	.byte	0                               #     has no landing pad
	.byte	0                               #   On action: cleanup
	.uleb128 .Ltmp3-.Lfunc_begin0           # >> Call Site 4 <<
	.uleb128 .Ltmp4-.Ltmp3                  #   Call between .Ltmp3 and .Ltmp4
	.uleb128 .Ltmp5-.Lfunc_begin0           #     jumps to .Ltmp5
	.byte	0                               #   On action: cleanup
	.uleb128 .Ltmp4-.Lfunc_begin0           # >> Call Site 5 <<
	.uleb128 .Lfunc_end1-.Ltmp4             #   Call between .Ltmp4 and .Lfunc_end1
	.byte	0                               #     has no landing pad
	.byte	0                               #   On action: cleanup
.Lcst_end0:
	.p2align	2, 0x0
                                        # -- End function
	.section	.text._ZNSt3mapINSt7__cxx1112basic_stringIcSt11char_traitsIcESaIcEEEN9benchmark7CounterESt4lessIS5_ESaISt4pairIKS5_S7_EEEixEOS5_,"axG",@progbits,_ZNSt3mapINSt7__cxx1112basic_stringIcSt11char_traitsIcESaIcEEEN9benchmark7CounterESt4lessIS5_ESaISt4pairIKS5_S7_EEEixEOS5_,comdat
	.hidden	_ZNSt3mapINSt7__cxx1112basic_stringIcSt11char_traitsIcESaIcEEEN9benchmark7CounterESt4lessIS5_ESaISt4pairIKS5_S7_EEEixEOS5_ # -- Begin function _ZNSt3mapINSt7__cxx1112basic_stringIcSt11char_traitsIcESaIcEEEN9benchmark7CounterESt4lessIS5_ESaISt4pairIKS5_S7_EEEixEOS5_
	.weak	_ZNSt3mapINSt7__cxx1112basic_stringIcSt11char_traitsIcESaIcEEEN9benchmark7CounterESt4lessIS5_ESaISt4pairIKS5_S7_EEEixEOS5_
	.p2align	5
	.type	_ZNSt3mapINSt7__cxx1112basic_stringIcSt11char_traitsIcESaIcEEEN9benchmark7CounterESt4lessIS5_ESaISt4pairIKS5_S7_EEEixEOS5_,@function
_ZNSt3mapINSt7__cxx1112basic_stringIcSt11char_traitsIcESaIcEEEN9benchmark7CounterESt4lessIS5_ESaISt4pairIKS5_S7_EEEixEOS5_: # @_ZNSt3mapINSt7__cxx1112basic_stringIcSt11char_traitsIcESaIcEEEN9benchmark7CounterESt4lessIS5_ESaISt4pairIKS5_S7_EEEixEOS5_
	.cfi_startproc
# %bb.0:
	addi.d	$sp, $sp, -128
	.cfi_def_cfa_offset 128
	st.d	$ra, $sp, 120                   # 8-byte Folded Spill
	st.d	$fp, $sp, 112                   # 8-byte Folded Spill
	st.d	$s0, $sp, 104                   # 8-byte Folded Spill
	st.d	$s1, $sp, 96                    # 8-byte Folded Spill
	st.d	$s2, $sp, 88                    # 8-byte Folded Spill
	st.d	$s3, $sp, 80                    # 8-byte Folded Spill
	st.d	$s4, $sp, 72                    # 8-byte Folded Spill
	st.d	$s5, $sp, 64                    # 8-byte Folded Spill
	st.d	$s6, $sp, 56                    # 8-byte Folded Spill
	st.d	$s7, $sp, 48                    # 8-byte Folded Spill
	st.d	$s8, $sp, 40                    # 8-byte Folded Spill
	.cfi_offset 1, -8
	.cfi_offset 22, -16
	.cfi_offset 23, -24
	.cfi_offset 24, -32
	.cfi_offset 25, -40
	.cfi_offset 26, -48
	.cfi_offset 27, -56
	.cfi_offset 28, -64
	.cfi_offset 29, -72
	.cfi_offset 30, -80
	.cfi_offset 31, -88
	move	$s0, $a0
	ld.d	$s7, $a0, 16
	move	$s8, $a1
	addi.d	$s2, $a0, 8
	beqz	$s7, .LBB2_11
# %bb.1:                                # %.lr.ph.i.i.i
	st.d	$s0, $sp, 16                    # 8-byte Folded Spill
	ld.d	$s6, $s8, 8
	st.d	$s8, $sp, 8                     # 8-byte Folded Spill
	ld.d	$s3, $s8, 0
	lu12i.w	$s5, -524288
	lu12i.w	$a0, 524287
	ori	$s4, $a0, 4095
	ori	$s8, $zero, 16
	ori	$s0, $zero, 24
	move	$s1, $s2
	b	.LBB2_4
	.p2align	4, , 16
.LBB2_2:                                # %_ZNSt11char_traitsIcE7compareEPKcS2_m.exit.thread.i.i.i.i.i.i
                                        #   in Loop: Header=BB2_4 Depth=1
	sub.d	$a0, $fp, $s6
	slt	$a1, $s5, $a0
	maskeqz	$a0, $a0, $a1
	masknez	$a1, $s5, $a1
	or	$a0, $a0, $a1
	slt	$a1, $a0, $s4
	maskeqz	$a0, $a0, $a1
	masknez	$a1, $s4, $a1
	or	$a0, $a0, $a1
.LBB2_3:                                # %_ZNKSt4lessINSt7__cxx1112basic_stringIcSt11char_traitsIcESaIcEEEEclERKS5_S8_.exit.i.i.i
                                        #   in Loop: Header=BB2_4 Depth=1
	addi.w	$a0, $a0, 0
	slti	$a0, $a0, 0
	masknez	$a1, $s7, $a0
	masknez	$a2, $s8, $a0
	maskeqz	$a3, $s0, $a0
	or	$a2, $a3, $a2
	ldx.d	$s7, $s7, $a2
	maskeqz	$a0, $s1, $a0
	or	$s1, $a0, $a1
	beqz	$s7, .LBB2_6
.LBB2_4:                                # =>This Inner Loop Header: Depth=1
	ld.d	$fp, $s7, 40
	sltu	$a0, $s6, $fp
	masknez	$a1, $fp, $a0
	maskeqz	$a0, $s6, $a0
	or	$a2, $a0, $a1
	beqz	$a2, .LBB2_2
# %bb.5:                                # %_ZNSt11char_traitsIcE7compareEPKcS2_m.exit.i.i.i.i.i.i
                                        #   in Loop: Header=BB2_4 Depth=1
	ld.d	$a0, $s7, 32
	move	$a1, $s3
	pcaddu18i	$ra, %call36(memcmp)
	jirl	$ra, $ra, 0
	bnez	$a0, .LBB2_3
	b	.LBB2_2
.LBB2_6:                                # %_ZNSt3mapINSt7__cxx1112basic_stringIcSt11char_traitsIcESaIcEEEN9benchmark7CounterESt4lessIS5_ESaISt4pairIKS5_S7_EEE11lower_boundERSB_.exit
	ld.d	$s0, $sp, 16                    # 8-byte Folded Reload
	ld.d	$s8, $sp, 8                     # 8-byte Folded Reload
	beq	$s1, $s2, .LBB2_11
# %bb.7:
	ld.d	$fp, $s1, 40
	sltu	$a0, $fp, $s6
	masknez	$a1, $s6, $a0
	maskeqz	$a0, $fp, $a0
	or	$a2, $a0, $a1
	beqz	$a2, .LBB2_9
# %bb.8:                                # %_ZNSt11char_traitsIcE7compareEPKcS2_m.exit.i.i.i
	ld.d	$a1, $s1, 32
	move	$a0, $s3
	pcaddu18i	$ra, %call36(memcmp)
	jirl	$ra, $ra, 0
	bnez	$a0, .LBB2_10
.LBB2_9:                                # %_ZNSt11char_traitsIcE7compareEPKcS2_m.exit.thread.i.i.i
	sub.d	$a0, $s6, $fp
	slt	$a1, $s5, $a0
	maskeqz	$a0, $a0, $a1
	masknez	$a1, $s5, $a1
	or	$a0, $a0, $a1
	slt	$a1, $a0, $s4
	maskeqz	$a0, $a0, $a1
	masknez	$a1, $s4, $a1
	or	$a0, $a0, $a1
.LBB2_10:                               # %_ZNKSt4lessINSt7__cxx1112basic_stringIcSt11char_traitsIcESaIcEEEEclERKS5_S8_.exit
	addi.w	$a0, $a0, 0
	move	$s2, $s1
	bgez	$a0, .LBB2_12
.LBB2_11:                               # %.critedge
	st.d	$s8, $sp, 32
	pcalau12i	$a0, %pc_hi20(_ZSt19piecewise_construct)
	addi.d	$a2, $a0, %pc_lo12(_ZSt19piecewise_construct)
	addi.d	$a3, $sp, 32
	addi.d	$a4, $sp, 31
	move	$a0, $s0
	move	$a1, $s2
	pcaddu18i	$ra, %call36(_ZNSt8_Rb_treeINSt7__cxx1112basic_stringIcSt11char_traitsIcESaIcEEESt4pairIKS5_N9benchmark7CounterEESt10_Select1stISA_ESt4lessIS5_ESaISA_EE22_M_emplace_hint_uniqueIJRKSt21piecewise_construct_tSt5tupleIJOS5_EESL_IJEEEEESt17_Rb_tree_iteratorISA_ESt23_Rb_tree_const_iteratorISA_EDpOT_)
	jirl	$ra, $ra, 0
	move	$s1, $a0
.LBB2_12:
	addi.d	$a0, $s1, 64
	ld.d	$s8, $sp, 40                    # 8-byte Folded Reload
	ld.d	$s7, $sp, 48                    # 8-byte Folded Reload
	ld.d	$s6, $sp, 56                    # 8-byte Folded Reload
	ld.d	$s5, $sp, 64                    # 8-byte Folded Reload
	ld.d	$s4, $sp, 72                    # 8-byte Folded Reload
	ld.d	$s3, $sp, 80                    # 8-byte Folded Reload
	ld.d	$s2, $sp, 88                    # 8-byte Folded Reload
	ld.d	$s1, $sp, 96                    # 8-byte Folded Reload
	ld.d	$s0, $sp, 104                   # 8-byte Folded Reload
	ld.d	$fp, $sp, 112                   # 8-byte Folded Reload
	ld.d	$ra, $sp, 120                   # 8-byte Folded Reload
	addi.d	$sp, $sp, 128
	ret
.Lfunc_end2:
	.size	_ZNSt3mapINSt7__cxx1112basic_stringIcSt11char_traitsIcESaIcEEEN9benchmark7CounterESt4lessIS5_ESaISt4pairIKS5_S7_EEEixEOS5_, .Lfunc_end2-_ZNSt3mapINSt7__cxx1112basic_stringIcSt11char_traitsIcESaIcEEEN9benchmark7CounterESt4lessIS5_ESaISt4pairIKS5_S7_EEEixEOS5_
	.cfi_endproc
                                        # -- End function
	.section	.rodata.cst8,"aM",@progbits,8
	.p2align	3, 0x0                          # -- Begin function _Z11CheckSimpleRK7Results
.LCPI3_0:
	.dword	0x3f50624dd2f1a9fc              # double 0.001
.LCPI3_1:
	.dword	0x3fb999999999999a              # double 0.10000000000000001
.LCPI3_2:
	.dword	0x3ee4f8b588e368f1              # double 1.0000000000000001E-5
.LCPI3_3:
	.dword	0x4059000000000000              # double 100
	.text
	.hidden	_Z11CheckSimpleRK7Results
	.globl	_Z11CheckSimpleRK7Results
	.p2align	5
	.type	_Z11CheckSimpleRK7Results,@function
_Z11CheckSimpleRK7Results:              # @_Z11CheckSimpleRK7Results
.Lfunc_begin1:
	.cfi_startproc
	.cfi_personality 155, DW.ref.__gxx_personality_v0
	.cfi_lsda 27, .Lexception1
# %bb.0:                                # %._crit_edge.i.i
	addi.d	$sp, $sp, -256
	.cfi_def_cfa_offset 256
	st.d	$ra, $sp, 248                   # 8-byte Folded Spill
	st.d	$fp, $sp, 240                   # 8-byte Folded Spill
	st.d	$s0, $sp, 232                   # 8-byte Folded Spill
	st.d	$s1, $sp, 224                   # 8-byte Folded Spill
	st.d	$s2, $sp, 216                   # 8-byte Folded Spill
	st.d	$s3, $sp, 208                   # 8-byte Folded Spill
	st.d	$s4, $sp, 200                   # 8-byte Folded Spill
	st.d	$s5, $sp, 192                   # 8-byte Folded Spill
	st.d	$s6, $sp, 184                   # 8-byte Folded Spill
	fst.d	$fs0, $sp, 176                  # 8-byte Folded Spill
	fst.d	$fs1, $sp, 168                  # 8-byte Folded Spill
	fst.d	$fs2, $sp, 160                  # 8-byte Folded Spill
	fst.d	$fs3, $sp, 152                  # 8-byte Folded Spill
	.cfi_offset 1, -8
	.cfi_offset 22, -16
	.cfi_offset 23, -24
	.cfi_offset 24, -32
	.cfi_offset 25, -40
	.cfi_offset 26, -48
	.cfi_offset 27, -56
	.cfi_offset 28, -64
	.cfi_offset 29, -72
	.cfi_offset 56, -80
	.cfi_offset 57, -88
	.cfi_offset 58, -96
	.cfi_offset 59, -104
	move	$fp, $a0
	pcaddu18i	$ra, %call36(_ZNK7Results13NumIterationsEv)
	jirl	$ra, $ra, 0
	fmov.d	$fs0, $fa0
	pcalau12i	$a0, %pc_hi20(.L.str.5)
	addi.d	$a0, $a0, %pc_lo12(.L.str.5)
	ld.h	$s4, $a0, 0
	ld.b	$s5, $a0, 2
	addi.d	$s0, $sp, 136
	st.d	$s0, $sp, 120
	st.h	$s4, $sp, 136
	st.b	$s5, $sp, 138
	ori	$a0, $zero, 3
	st.d	$a0, $sp, 128
	st.b	$zero, $sp, 139
.Ltmp6:
	addi.d	$a1, $sp, 120
	move	$a0, $fp
	pcaddu18i	$ra, %call36(_ZNK7Results5GetAsIdEET_RKNSt7__cxx1112basic_stringIcSt11char_traitsIcESaIcEEE)
	jirl	$ra, $ra, 0
.Ltmp7:
# %bb.1:
	ftintrz.w.d	$fa0, $fa0
	movfr2gr.s	$s2, $fa0
	ori	$a0, $zero, 1
	bne	$s2, $a0, .LBB3_5
# %bb.2:
	pcalau12i	$a0, %pc_hi20(_ZGVZN9benchmark8internal18GetNullLogInstanceEvE8null_log)
	ld.b	$a0, $a0, %pc_lo12(_ZGVZN9benchmark8internal18GetNullLogInstanceEvE8null_log)
	dbar	20
	pcalau12i	$a1, %pc_hi20(_ZZN9benchmark8internal18GetNullLogInstanceEvE8null_log)
	addi.d	$s3, $a1, %pc_lo12(_ZZN9benchmark8internal18GetNullLogInstanceEvE8null_log)
	bnez	$a0, .LBB3_7
# %bb.3:
	pcalau12i	$a0, %pc_hi20(_ZGVZN9benchmark8internal18GetNullLogInstanceEvE8null_log)
	addi.d	$a0, $a0, %pc_lo12(_ZGVZN9benchmark8internal18GetNullLogInstanceEvE8null_log)
	pcaddu18i	$ra, %call36(__cxa_guard_acquire)
	jirl	$ra, $ra, 0
	addi.w	$a0, $a0, 0
	beqz	$a0, .LBB3_7
# %bb.4:
	pcalau12i	$a0, %pc_hi20(_ZZN9benchmark8internal18GetNullLogInstanceEvE8null_log)
	addi.d	$s3, $a0, %pc_lo12(_ZZN9benchmark8internal18GetNullLogInstanceEvE8null_log)
	st.d	$zero, $s3, 0
	pcalau12i	$a0, %pc_hi20(_ZGVZN9benchmark8internal18GetNullLogInstanceEvE8null_log)
	addi.d	$a0, $a0, %pc_lo12(_ZGVZN9benchmark8internal18GetNullLogInstanceEvE8null_log)
	pcaddu18i	$ra, %call36(__cxa_guard_release)
	jirl	$ra, $ra, 0
	b	.LBB3_7
.LBB3_5:
.Ltmp9:
	pcalau12i	$a0, %pc_hi20(.L.str.29)
	addi.d	$a1, $a0, %pc_lo12(.L.str.29)
	pcalau12i	$a0, %pc_hi20(.L.str.30)
	addi.d	$a2, $a0, %pc_lo12(.L.str.30)
	pcalau12i	$a0, %pc_hi20(.L__func__._Z11CheckSimpleRK7Results)
	addi.d	$a3, $a0, %pc_lo12(.L__func__._Z11CheckSimpleRK7Results)
	addi.d	$a0, $sp, 112
	ori	$a4, $zero, 54
	pcaddu18i	$ra, %call36(_ZN9benchmark8internal12CheckHandlerC2EPKcS3_S3_i)
	jirl	$ra, $ra, 0
.Ltmp10:
# %bb.6:
	ld.d	$s3, $sp, 112
.LBB3_7:                                # %_ZN9benchmark8internal18GetNullLogInstanceEv.exit
	ld.d	$a0, $s3, 0
	beqz	$a0, .LBB3_39
# %bb.8:
.Ltmp11:
	pcalau12i	$a1, %pc_hi20(.L.str.31)
	addi.d	$a1, $a1, %pc_lo12(.L.str.31)
	ori	$a2, $zero, 1
	pcaddu18i	$ra, %call36(_ZSt16__ostream_insertIcSt11char_traitsIcEERSt13basic_ostreamIT_T0_ES6_PKS3_l)
	jirl	$ra, $ra, 0
.Ltmp12:
# %bb.9:                                # %_ZN9benchmark8internallsIA2_cEERNS0_7LogTypeES4_RKT_.exit
	ld.d	$a0, $s3, 0
	beqz	$a0, .LBB3_39
# %bb.10:
.Ltmp13:
	pcalau12i	$a1, %pc_hi20(.L.str.30)
	addi.d	$a1, $a1, %pc_lo12(.L.str.30)
	ori	$a2, $zero, 131
	pcaddu18i	$ra, %call36(_ZSt16__ostream_insertIcSt11char_traitsIcEERSt13basic_ostreamIT_T0_ES6_PKS3_l)
	jirl	$ra, $ra, 0
.Ltmp14:
# %bb.11:                               # %_ZN9benchmark8internallsIA132_cEERNS0_7LogTypeES4_RKT_.exit
	ld.d	$a0, $s3, 0
	beqz	$a0, .LBB3_39
# %bb.12:
.Ltmp15:
	pcalau12i	$a1, %pc_hi20(.L.str.32)
	addi.d	$a1, $a1, %pc_lo12(.L.str.32)
	ori	$a2, $zero, 1
	pcaddu18i	$ra, %call36(_ZSt16__ostream_insertIcSt11char_traitsIcEERSt13basic_ostreamIT_T0_ES6_PKS3_l)
	jirl	$ra, $ra, 0
.Ltmp16:
# %bb.13:                               # %_ZN9benchmark8internallsIA2_cEERNS0_7LogTypeES4_RKT_.exit94
	ld.d	$a0, $s3, 0
	beqz	$a0, .LBB3_39
# %bb.14:
.Ltmp18:
	ori	$a1, $zero, 54
	pcaddu18i	$ra, %call36(_ZNSolsEi)
	jirl	$ra, $ra, 0
.Ltmp19:
# %bb.15:                               # %_ZN9benchmark8internallsIiEERNS0_7LogTypeES3_RKT_.exit
	ld.d	$a0, $s3, 0
	beqz	$a0, .LBB3_39
# %bb.16:
.Ltmp20:
	pcalau12i	$a1, %pc_hi20(.L.str.33)
	addi.d	$a1, $a1, %pc_lo12(.L.str.33)
	ori	$a2, $zero, 2
	pcaddu18i	$ra, %call36(_ZSt16__ostream_insertIcSt11char_traitsIcEERSt13basic_ostreamIT_T0_ES6_PKS3_l)
	jirl	$ra, $ra, 0
.Ltmp21:
# %bb.17:                               # %_ZN9benchmark8internallsIA3_cEERNS0_7LogTypeES4_RKT_.exit
	ld.d	$a0, $s3, 0
	beqz	$a0, .LBB3_39
# %bb.18:
	ld.d	$a1, $fp, 0
	ld.d	$a2, $fp, 8
.Ltmp22:
	pcaddu18i	$ra, %call36(_ZSt16__ostream_insertIcSt11char_traitsIcEERSt13basic_ostreamIT_T0_ES6_PKS3_l)
	jirl	$ra, $ra, 0
.Ltmp23:
# %bb.19:                               # %_ZN9benchmark8internallsINSt7__cxx1112basic_stringIcSt11char_traitsIcESaIcEEEEERNS0_7LogTypeES9_RKT_.exit
	ld.d	$a0, $s3, 0
	beqz	$a0, .LBB3_39
# %bb.20:
.Ltmp24:
	pcalau12i	$a1, %pc_hi20(.L.str.34)
	addi.d	$a1, $a1, %pc_lo12(.L.str.34)
	ori	$a2, $zero, 2
	pcaddu18i	$ra, %call36(_ZSt16__ostream_insertIcSt11char_traitsIcEERSt13basic_ostreamIT_T0_ES6_PKS3_l)
	jirl	$ra, $ra, 0
.Ltmp25:
# %bb.21:                               # %_ZN9benchmark8internallsIA3_cEERNS0_7LogTypeES4_RKT_.exit103
	ld.d	$a0, $s3, 0
	beqz	$a0, .LBB3_39
# %bb.22:
.Ltmp26:
	pcalau12i	$a1, %pc_hi20(.L.str.30)
	addi.d	$a1, $a1, %pc_lo12(.L.str.30)
	ori	$a2, $zero, 131
	pcaddu18i	$ra, %call36(_ZSt16__ostream_insertIcSt11char_traitsIcEERSt13basic_ostreamIT_T0_ES6_PKS3_l)
	jirl	$ra, $ra, 0
.Ltmp27:
# %bb.23:                               # %_ZN9benchmark8internallsIA132_cEERNS0_7LogTypeES4_RKT_.exit106
	ld.d	$a0, $s3, 0
	beqz	$a0, .LBB3_39
# %bb.24:
.Ltmp28:
	pcalau12i	$a1, %pc_hi20(.L.str.32)
	addi.d	$a1, $a1, %pc_lo12(.L.str.32)
	ori	$a2, $zero, 1
	pcaddu18i	$ra, %call36(_ZSt16__ostream_insertIcSt11char_traitsIcEERSt13basic_ostreamIT_T0_ES6_PKS3_l)
	jirl	$ra, $ra, 0
.Ltmp29:
# %bb.25:                               # %_ZN9benchmark8internallsIA2_cEERNS0_7LogTypeES4_RKT_.exit109
	ld.d	$a0, $s3, 0
	beqz	$a0, .LBB3_39
# %bb.26:
.Ltmp31:
	ori	$a1, $zero, 54
	pcaddu18i	$ra, %call36(_ZNSolsEi)
	jirl	$ra, $ra, 0
.Ltmp32:
# %bb.27:                               # %_ZN9benchmark8internallsIiEERNS0_7LogTypeES3_RKT_.exit112
	ld.d	$a0, $s3, 0
	beqz	$a0, .LBB3_39
# %bb.28:
.Ltmp33:
	pcalau12i	$a1, %pc_hi20(.L.str.33)
	addi.d	$a1, $a1, %pc_lo12(.L.str.33)
	ori	$a2, $zero, 2
	pcaddu18i	$ra, %call36(_ZSt16__ostream_insertIcSt11char_traitsIcEERSt13basic_ostreamIT_T0_ES6_PKS3_l)
	jirl	$ra, $ra, 0
.Ltmp34:
# %bb.29:                               # %_ZN9benchmark8internallsIA3_cEERNS0_7LogTypeES4_RKT_.exit115
	ld.d	$a0, $s3, 0
	beqz	$a0, .LBB3_39
# %bb.30:
.Ltmp35:
	pcalau12i	$a1, %pc_hi20(.L.str.35)
	addi.d	$a1, $a1, %pc_lo12(.L.str.35)
	ori	$a2, $zero, 10
	pcaddu18i	$ra, %call36(_ZSt16__ostream_insertIcSt11char_traitsIcEERSt13basic_ostreamIT_T0_ES6_PKS3_l)
	jirl	$ra, $ra, 0
.Ltmp36:
# %bb.31:                               # %_ZN9benchmark8internallsIA11_cEERNS0_7LogTypeES4_RKT_.exit
	ld.d	$a0, $s3, 0
	beqz	$a0, .LBB3_39
# %bb.32:
.Ltmp37:
	pcalau12i	$a1, %pc_hi20(.L.str.36)
	addi.d	$a1, $a1, %pc_lo12(.L.str.36)
	ori	$a2, $zero, 3
	pcaddu18i	$ra, %call36(_ZSt16__ostream_insertIcSt11char_traitsIcEERSt13basic_ostreamIT_T0_ES6_PKS3_l)
	jirl	$ra, $ra, 0
.Ltmp38:
# %bb.33:                               # %_ZN9benchmark8internallsIA4_cEERNS0_7LogTypeES4_RKT_.exit
	ld.d	$a0, $s3, 0
	beqz	$a0, .LBB3_39
# %bb.34:
.Ltmp39:
	pcalau12i	$a1, %pc_hi20(.L.str.37)
	addi.d	$a1, $a1, %pc_lo12(.L.str.37)
	ori	$a2, $zero, 1
	pcaddu18i	$ra, %call36(_ZSt16__ostream_insertIcSt11char_traitsIcEERSt13basic_ostreamIT_T0_ES6_PKS3_l)
	jirl	$ra, $ra, 0
.Ltmp40:
# %bb.35:                               # %_ZN9benchmark8internallsIA2_cEERNS0_7LogTypeES4_RKT_.exit122
	ld.d	$a0, $s3, 0
	beqz	$a0, .LBB3_39
# %bb.36:
.Ltmp41:
	pcalau12i	$a1, %pc_hi20(.L.str.5)
	addi.d	$a1, $a1, %pc_lo12(.L.str.5)
	ori	$a2, $zero, 3
	pcaddu18i	$ra, %call36(_ZSt16__ostream_insertIcSt11char_traitsIcEERSt13basic_ostreamIT_T0_ES6_PKS3_l)
	jirl	$ra, $ra, 0
.Ltmp42:
# %bb.37:                               # %_ZN9benchmark8internallsIA4_cEERNS0_7LogTypeES4_RKT_.exit125
	ld.d	$a0, $s3, 0
	beqz	$a0, .LBB3_39
# %bb.38:
.Ltmp43:
	pcalau12i	$a1, %pc_hi20(.L.str.38)
	addi.d	$a1, $a1, %pc_lo12(.L.str.38)
	ori	$a2, $zero, 1
	pcaddu18i	$ra, %call36(_ZSt16__ostream_insertIcSt11char_traitsIcEERSt13basic_ostreamIT_T0_ES6_PKS3_l)
	jirl	$ra, $ra, 0
.Ltmp44:
.LBB3_39:                               # %_ZN9benchmark8internallsIA2_cEERNS0_7LogTypeES4_RKT_.exit128
	addi.d	$s1, $sp, 96
	st.d	$s1, $sp, 80
	st.h	$s4, $sp, 96
	st.b	$s5, $sp, 98
	ori	$a0, $zero, 3
	st.d	$a0, $sp, 88
	st.b	$zero, $sp, 99
.Ltmp46:
	addi.d	$a1, $sp, 80
	move	$a0, $fp
	pcaddu18i	$ra, %call36(_ZNK7Results5GetAsIdEET_RKNSt7__cxx1112basic_stringIcSt11char_traitsIcESaIcEEE)
	jirl	$ra, $ra, 0
.Ltmp47:
# %bb.40:
	ld.d	$a0, $s3, 0
	beqz	$a0, .LBB3_48
# %bb.41:
	ftintrz.w.d	$fa0, $fa0
	movfr2gr.s	$a1, $fa0
.Ltmp48:
	pcaddu18i	$ra, %call36(_ZNSolsEi)
	jirl	$ra, $ra, 0
.Ltmp49:
# %bb.42:                               # %_ZN9benchmark8internallsIiEERNS0_7LogTypeES3_RKT_.exit137
	ld.d	$a0, $s3, 0
	beqz	$a0, .LBB3_48
# %bb.43:
.Ltmp50:
	pcalau12i	$a1, %pc_hi20(.L.str.39)
	addi.d	$a1, $a1, %pc_lo12(.L.str.39)
	ori	$a2, $zero, 13
	pcaddu18i	$ra, %call36(_ZSt16__ostream_insertIcSt11char_traitsIcEERSt13basic_ostreamIT_T0_ES6_PKS3_l)
	jirl	$ra, $ra, 0
.Ltmp51:
# %bb.44:                               # %_ZN9benchmark8internallsIA14_cEERNS0_7LogTypeES4_RKT_.exit
	ld.d	$a0, $s3, 0
	beqz	$a0, .LBB3_48
# %bb.45:
.Ltmp53:
	ori	$a1, $zero, 1
	pcaddu18i	$ra, %call36(_ZNSolsEi)
	jirl	$ra, $ra, 0
.Ltmp54:
# %bb.46:                               # %_ZN9benchmark8internallsIiEERNS0_7LogTypeES3_RKT_.exit142
	ld.d	$a0, $s3, 0
	beqz	$a0, .LBB3_48
# %bb.47:
.Ltmp55:
	pcalau12i	$a1, %pc_hi20(.L.str.31)
	addi.d	$a1, $a1, %pc_lo12(.L.str.31)
	ori	$a2, $zero, 1
	pcaddu18i	$ra, %call36(_ZSt16__ostream_insertIcSt11char_traitsIcEERSt13basic_ostreamIT_T0_ES6_PKS3_l)
	jirl	$ra, $ra, 0
.Ltmp56:
.LBB3_48:                               # %_ZN9benchmark8internallsIA2_cEERNS0_7LogTypeES4_RKT_.exit145
	ld.d	$a0, $sp, 80
	beq	$a0, $s1, .LBB3_50
# %bb.49:                               # %_ZNKSt7__cxx1112basic_stringIcSt11char_traitsIcESaIcEE11_M_is_localEv.exit.i.i
	ld.d	$a1, $sp, 96
	addi.d	$a1, $a1, 1
	pcaddu18i	$ra, %call36(_ZdlPvm)
	jirl	$ra, $ra, 0
.LBB3_50:                               # %_ZNSt7__cxx1112basic_stringIcSt11char_traitsIcESaIcEED2Ev.exit
	ori	$a0, $zero, 1
	bne	$s2, $a0, .LBB3_139
# %bb.51:
	ld.d	$a0, $sp, 120
	beq	$a0, $s0, .LBB3_53
# %bb.52:                               # %_ZNKSt7__cxx1112basic_stringIcSt11char_traitsIcESaIcEE11_M_is_localEv.exit.i.i149
	ld.d	$a1, $sp, 136
	addi.d	$a1, $a1, 1
	pcaddu18i	$ra, %call36(_ZdlPvm)
	jirl	$ra, $ra, 0
.LBB3_53:                               # %_ZNSt7__cxx1112basic_stringIcSt11char_traitsIcESaIcEED2Ev.exit151
	pcalau12i	$a0, %pc_hi20(.L.str.6)
	addi.d	$a0, $a0, %pc_lo12(.L.str.6)
	ld.h	$s2, $a0, 0
	ld.b	$s3, $a0, 2
	st.d	$s0, $sp, 120
	st.h	$s2, $sp, 136
	st.b	$s3, $sp, 138
	ori	$a0, $zero, 3
	st.d	$a0, $sp, 128
	st.b	$zero, $sp, 139
.Ltmp61:
	addi.d	$a1, $sp, 120
	move	$a0, $fp
	pcaddu18i	$ra, %call36(_ZNK7Results5GetAsIdEET_RKNSt7__cxx1112basic_stringIcSt11char_traitsIcESaIcEEE)
	jirl	$ra, $ra, 0
.Ltmp62:
# %bb.54:                               # %_ZNK7Results12GetCounterAsIdEET_RKNSt7__cxx1112basic_stringIcSt11char_traitsIcESaIcEEE.exit
	vldi	$vr1, -896
	pcalau12i	$a0, %pc_hi20(.LCPI3_0)
	fld.d	$fa2, $a0, %pc_lo12(.LCPI3_0)
	fmadd.d	$fa0, $fs0, $fa1, $fa0
	fabs.d	$fs3, $fa0
	fadd.d	$fs2, $fs0, $fs0
	fmul.d	$fs1, $fs2, $fa2
	fcmp.cule.d	$fcc0, $fs1, $fs3
	bceqz	$fcc0, .LBB3_57
# %bb.55:
.Ltmp64:
	pcalau12i	$a0, %pc_hi20(.L.str.40)
	addi.d	$a1, $a0, %pc_lo12(.L.str.40)
	pcalau12i	$a0, %pc_hi20(.L.str.30)
	addi.d	$a2, $a0, %pc_lo12(.L.str.30)
	pcalau12i	$a0, %pc_hi20(.L__func__._Z11CheckSimpleRK7Results)
	addi.d	$a3, $a0, %pc_lo12(.L__func__._Z11CheckSimpleRK7Results)
	addi.d	$a0, $sp, 72
	ori	$a4, $zero, 56
	pcaddu18i	$ra, %call36(_ZN9benchmark8internal12CheckHandlerC2EPKcS3_S3_i)
	jirl	$ra, $ra, 0
.Ltmp65:
# %bb.56:
	ld.d	$s4, $sp, 72
	b	.LBB3_58
.LBB3_57:
	pcalau12i	$a0, %pc_hi20(_ZGVZN9benchmark8internal18GetNullLogInstanceEvE8null_log)
	ld.b	$a0, $a0, %pc_lo12(_ZGVZN9benchmark8internal18GetNullLogInstanceEvE8null_log)
	dbar	20
	pcalau12i	$a1, %pc_hi20(_ZZN9benchmark8internal18GetNullLogInstanceEvE8null_log)
	addi.d	$s4, $a1, %pc_lo12(_ZZN9benchmark8internal18GetNullLogInstanceEvE8null_log)
	beqz	$a0, .LBB3_143
.LBB3_58:                               # %_ZN9benchmark8internal18GetNullLogInstanceEv.exit158
	ld.d	$a0, $s4, 0
	beqz	$a0, .LBB3_90
# %bb.59:
.Ltmp66:
	pcalau12i	$a1, %pc_hi20(.L.str.31)
	addi.d	$a1, $a1, %pc_lo12(.L.str.31)
	ori	$a2, $zero, 1
	pcaddu18i	$ra, %call36(_ZSt16__ostream_insertIcSt11char_traitsIcEERSt13basic_ostreamIT_T0_ES6_PKS3_l)
	jirl	$ra, $ra, 0
.Ltmp67:
# %bb.60:                               # %_ZN9benchmark8internallsIA2_cEERNS0_7LogTypeES4_RKT_.exit161
	ld.d	$a0, $s4, 0
	beqz	$a0, .LBB3_90
# %bb.61:
.Ltmp68:
	pcalau12i	$a1, %pc_hi20(.L.str.30)
	addi.d	$a1, $a1, %pc_lo12(.L.str.30)
	ori	$a2, $zero, 131
	pcaddu18i	$ra, %call36(_ZSt16__ostream_insertIcSt11char_traitsIcEERSt13basic_ostreamIT_T0_ES6_PKS3_l)
	jirl	$ra, $ra, 0
.Ltmp69:
# %bb.62:                               # %_ZN9benchmark8internallsIA132_cEERNS0_7LogTypeES4_RKT_.exit164
	ld.d	$a0, $s4, 0
	beqz	$a0, .LBB3_90
# %bb.63:
.Ltmp70:
	pcalau12i	$a1, %pc_hi20(.L.str.32)
	addi.d	$a1, $a1, %pc_lo12(.L.str.32)
	ori	$a2, $zero, 1
	pcaddu18i	$ra, %call36(_ZSt16__ostream_insertIcSt11char_traitsIcEERSt13basic_ostreamIT_T0_ES6_PKS3_l)
	jirl	$ra, $ra, 0
.Ltmp71:
# %bb.64:                               # %_ZN9benchmark8internallsIA2_cEERNS0_7LogTypeES4_RKT_.exit167
	ld.d	$a0, $s4, 0
	beqz	$a0, .LBB3_90
# %bb.65:
.Ltmp73:
	ori	$a1, $zero, 56
	pcaddu18i	$ra, %call36(_ZNSolsEi)
	jirl	$ra, $ra, 0
.Ltmp74:
# %bb.66:                               # %_ZN9benchmark8internallsIiEERNS0_7LogTypeES3_RKT_.exit170
	ld.d	$a0, $s4, 0
	beqz	$a0, .LBB3_90
# %bb.67:
.Ltmp75:
	pcalau12i	$a1, %pc_hi20(.L.str.33)
	addi.d	$a1, $a1, %pc_lo12(.L.str.33)
	ori	$a2, $zero, 2
	pcaddu18i	$ra, %call36(_ZSt16__ostream_insertIcSt11char_traitsIcEERSt13basic_ostreamIT_T0_ES6_PKS3_l)
	jirl	$ra, $ra, 0
.Ltmp76:
# %bb.68:                               # %_ZN9benchmark8internallsIA3_cEERNS0_7LogTypeES4_RKT_.exit173
	ld.d	$a0, $s4, 0
	beqz	$a0, .LBB3_90
# %bb.69:
	ld.d	$a1, $fp, 0
	ld.d	$a2, $fp, 8
.Ltmp77:
	pcaddu18i	$ra, %call36(_ZSt16__ostream_insertIcSt11char_traitsIcEERSt13basic_ostreamIT_T0_ES6_PKS3_l)
	jirl	$ra, $ra, 0
.Ltmp78:
# %bb.70:                               # %_ZN9benchmark8internallsINSt7__cxx1112basic_stringIcSt11char_traitsIcESaIcEEEEERNS0_7LogTypeES9_RKT_.exit176
	ld.d	$a0, $s4, 0
	beqz	$a0, .LBB3_90
# %bb.71:
.Ltmp79:
	pcalau12i	$a1, %pc_hi20(.L.str.34)
	addi.d	$a1, $a1, %pc_lo12(.L.str.34)
	ori	$a2, $zero, 2
	pcaddu18i	$ra, %call36(_ZSt16__ostream_insertIcSt11char_traitsIcEERSt13basic_ostreamIT_T0_ES6_PKS3_l)
	jirl	$ra, $ra, 0
.Ltmp80:
# %bb.72:                               # %_ZN9benchmark8internallsIA3_cEERNS0_7LogTypeES4_RKT_.exit179
	ld.d	$a0, $s4, 0
	beqz	$a0, .LBB3_90
# %bb.73:
.Ltmp81:
	pcalau12i	$a1, %pc_hi20(.L.str.30)
	addi.d	$a1, $a1, %pc_lo12(.L.str.30)
	ori	$a2, $zero, 131
	pcaddu18i	$ra, %call36(_ZSt16__ostream_insertIcSt11char_traitsIcEERSt13basic_ostreamIT_T0_ES6_PKS3_l)
	jirl	$ra, $ra, 0
.Ltmp82:
# %bb.74:                               # %_ZN9benchmark8internallsIA132_cEERNS0_7LogTypeES4_RKT_.exit182
	ld.d	$a0, $s4, 0
	beqz	$a0, .LBB3_90
# %bb.75:
.Ltmp83:
	pcalau12i	$a1, %pc_hi20(.L.str.32)
	addi.d	$a1, $a1, %pc_lo12(.L.str.32)
	ori	$a2, $zero, 1
	pcaddu18i	$ra, %call36(_ZSt16__ostream_insertIcSt11char_traitsIcEERSt13basic_ostreamIT_T0_ES6_PKS3_l)
	jirl	$ra, $ra, 0
.Ltmp84:
# %bb.76:                               # %_ZN9benchmark8internallsIA2_cEERNS0_7LogTypeES4_RKT_.exit185
	ld.d	$a0, $s4, 0
	beqz	$a0, .LBB3_90
# %bb.77:
.Ltmp86:
	ori	$a1, $zero, 56
	pcaddu18i	$ra, %call36(_ZNSolsEi)
	jirl	$ra, $ra, 0
.Ltmp87:
# %bb.78:                               # %_ZN9benchmark8internallsIiEERNS0_7LogTypeES3_RKT_.exit188
	ld.d	$a0, $s4, 0
	beqz	$a0, .LBB3_90
# %bb.79:
.Ltmp88:
	pcalau12i	$a1, %pc_hi20(.L.str.33)
	addi.d	$a1, $a1, %pc_lo12(.L.str.33)
	ori	$a2, $zero, 2
	pcaddu18i	$ra, %call36(_ZSt16__ostream_insertIcSt11char_traitsIcEERSt13basic_ostreamIT_T0_ES6_PKS3_l)
	jirl	$ra, $ra, 0
.Ltmp89:
# %bb.80:                               # %_ZN9benchmark8internallsIA3_cEERNS0_7LogTypeES4_RKT_.exit191
	ld.d	$a0, $s4, 0
	beqz	$a0, .LBB3_90
# %bb.81:
.Ltmp90:
	pcalau12i	$a1, %pc_hi20(.L.str.35)
	addi.d	$a1, $a1, %pc_lo12(.L.str.35)
	ori	$a2, $zero, 10
	pcaddu18i	$ra, %call36(_ZSt16__ostream_insertIcSt11char_traitsIcEERSt13basic_ostreamIT_T0_ES6_PKS3_l)
	jirl	$ra, $ra, 0
.Ltmp91:
# %bb.82:                               # %_ZN9benchmark8internallsIA11_cEERNS0_7LogTypeES4_RKT_.exit194
	ld.d	$a0, $s4, 0
	beqz	$a0, .LBB3_90
# %bb.83:
.Ltmp92:
	pcalau12i	$a1, %pc_hi20(.L.str.41)
	addi.d	$a1, $a1, %pc_lo12(.L.str.41)
	ori	$a2, $zero, 6
	pcaddu18i	$ra, %call36(_ZSt16__ostream_insertIcSt11char_traitsIcEERSt13basic_ostreamIT_T0_ES6_PKS3_l)
	jirl	$ra, $ra, 0
.Ltmp93:
# %bb.84:                               # %_ZN9benchmark8internallsIA7_cEERNS0_7LogTypeES4_RKT_.exit
	ld.d	$a0, $s4, 0
	beqz	$a0, .LBB3_90
# %bb.85:
.Ltmp94:
	pcalau12i	$a1, %pc_hi20(.L.str.37)
	addi.d	$a1, $a1, %pc_lo12(.L.str.37)
	ori	$a2, $zero, 1
	pcaddu18i	$ra, %call36(_ZSt16__ostream_insertIcSt11char_traitsIcEERSt13basic_ostreamIT_T0_ES6_PKS3_l)
	jirl	$ra, $ra, 0
.Ltmp95:
# %bb.86:                               # %_ZN9benchmark8internallsIA2_cEERNS0_7LogTypeES4_RKT_.exit199
	ld.d	$a0, $s4, 0
	beqz	$a0, .LBB3_90
# %bb.87:
.Ltmp96:
	pcalau12i	$a1, %pc_hi20(.L.str.6)
	addi.d	$a1, $a1, %pc_lo12(.L.str.6)
	ori	$a2, $zero, 3
	pcaddu18i	$ra, %call36(_ZSt16__ostream_insertIcSt11char_traitsIcEERSt13basic_ostreamIT_T0_ES6_PKS3_l)
	jirl	$ra, $ra, 0
.Ltmp97:
# %bb.88:                               # %_ZN9benchmark8internallsIA4_cEERNS0_7LogTypeES4_RKT_.exit202
	ld.d	$a0, $s4, 0
	beqz	$a0, .LBB3_90
# %bb.89:
.Ltmp98:
	pcalau12i	$a1, %pc_hi20(.L.str.38)
	addi.d	$a1, $a1, %pc_lo12(.L.str.38)
	ori	$a2, $zero, 1
	pcaddu18i	$ra, %call36(_ZSt16__ostream_insertIcSt11char_traitsIcEERSt13basic_ostreamIT_T0_ES6_PKS3_l)
	jirl	$ra, $ra, 0
.Ltmp99:
.LBB3_90:                               # %_ZN9benchmark8internallsIA2_cEERNS0_7LogTypeES4_RKT_.exit205
	st.d	$s1, $sp, 80
	st.h	$s2, $sp, 96
	st.b	$s3, $sp, 98
	ori	$a0, $zero, 3
	st.d	$a0, $sp, 88
	st.b	$zero, $sp, 99
.Ltmp101:
	addi.d	$a1, $sp, 80
	move	$a0, $fp
	pcaddu18i	$ra, %call36(_ZNK7Results5GetAsIdEET_RKNSt7__cxx1112basic_stringIcSt11char_traitsIcESaIcEEE)
	jirl	$ra, $ra, 0
.Ltmp102:
# %bb.91:                               # %_ZNK7Results12GetCounterAsIdEET_RKNSt7__cxx1112basic_stringIcSt11char_traitsIcESaIcEEE.exit211
	ld.d	$a0, $s4, 0
	beqz	$a0, .LBB3_119
# %bb.92:
.Ltmp103:
	pcaddu18i	$ra, %call36(_ZNSo9_M_insertIdEERSoT_)
	jirl	$ra, $ra, 0
.Ltmp104:
# %bb.93:                               # %_ZN9benchmark8internallsIdEERNS0_7LogTypeES3_RKT_.exit
	ld.d	$a0, $s4, 0
	beqz	$a0, .LBB3_119
# %bb.94:
.Ltmp105:
	pcalau12i	$a1, %pc_hi20(.L.str.39)
	addi.d	$a1, $a1, %pc_lo12(.L.str.39)
	ori	$a2, $zero, 13
	pcaddu18i	$ra, %call36(_ZSt16__ostream_insertIcSt11char_traitsIcEERSt13basic_ostreamIT_T0_ES6_PKS3_l)
	jirl	$ra, $ra, 0
.Ltmp106:
# %bb.95:                               # %_ZN9benchmark8internallsIA14_cEERNS0_7LogTypeES4_RKT_.exit216
	ld.d	$a0, $s4, 0
	beqz	$a0, .LBB3_119
# %bb.96:
.Ltmp108:
	fmov.d	$fa0, $fs2
	pcaddu18i	$ra, %call36(_ZNSo9_M_insertIdEERSoT_)
	jirl	$ra, $ra, 0
.Ltmp109:
# %bb.97:                               # %_ZN9benchmark8internallsIdEERNS0_7LogTypeES3_RKT_.exit219
	ld.d	$a0, $s4, 0
	beqz	$a0, .LBB3_119
# %bb.98:
.Ltmp110:
	pcalau12i	$a1, %pc_hi20(.L.str.31)
	addi.d	$a1, $a1, %pc_lo12(.L.str.31)
	ori	$a2, $zero, 1
	pcaddu18i	$ra, %call36(_ZSt16__ostream_insertIcSt11char_traitsIcEERSt13basic_ostreamIT_T0_ES6_PKS3_l)
	jirl	$ra, $ra, 0
.Ltmp111:
# %bb.99:                               # %_ZN9benchmark8internallsIA2_cEERNS0_7LogTypeES4_RKT_.exit222
	ld.d	$a0, $s4, 0
	beqz	$a0, .LBB3_119
# %bb.100:
.Ltmp112:
	pcalau12i	$a1, %pc_hi20(.L.str.30)
	addi.d	$a1, $a1, %pc_lo12(.L.str.30)
	ori	$a2, $zero, 131
	pcaddu18i	$ra, %call36(_ZSt16__ostream_insertIcSt11char_traitsIcEERSt13basic_ostreamIT_T0_ES6_PKS3_l)
	jirl	$ra, $ra, 0
.Ltmp113:
# %bb.101:                              # %_ZN9benchmark8internallsIA132_cEERNS0_7LogTypeES4_RKT_.exit225
	ld.d	$a0, $s4, 0
	beqz	$a0, .LBB3_119
# %bb.102:
.Ltmp114:
	pcalau12i	$a1, %pc_hi20(.L.str.32)
	addi.d	$a1, $a1, %pc_lo12(.L.str.32)
	ori	$a2, $zero, 1
	pcaddu18i	$ra, %call36(_ZSt16__ostream_insertIcSt11char_traitsIcEERSt13basic_ostreamIT_T0_ES6_PKS3_l)
	jirl	$ra, $ra, 0
.Ltmp115:
# %bb.103:                              # %_ZN9benchmark8internallsIA2_cEERNS0_7LogTypeES4_RKT_.exit228
	ld.d	$a0, $s4, 0
	beqz	$a0, .LBB3_119
# %bb.104:
.Ltmp117:
	ori	$a1, $zero, 56
	pcaddu18i	$ra, %call36(_ZNSolsEi)
	jirl	$ra, $ra, 0
.Ltmp118:
# %bb.105:                              # %_ZN9benchmark8internallsIiEERNS0_7LogTypeES3_RKT_.exit231
	ld.d	$a0, $s4, 0
	beqz	$a0, .LBB3_119
# %bb.106:
.Ltmp119:
	pcalau12i	$a1, %pc_hi20(.L.str.33)
	addi.d	$a1, $a1, %pc_lo12(.L.str.33)
	ori	$a2, $zero, 2
	pcaddu18i	$ra, %call36(_ZSt16__ostream_insertIcSt11char_traitsIcEERSt13basic_ostreamIT_T0_ES6_PKS3_l)
	jirl	$ra, $ra, 0
.Ltmp120:
# %bb.107:                              # %_ZN9benchmark8internallsIA3_cEERNS0_7LogTypeES4_RKT_.exit234
	ld.d	$a0, $s4, 0
	beqz	$a0, .LBB3_119
# %bb.108:
.Ltmp121:
	pcalau12i	$a1, %pc_hi20(.L.str.42)
	addi.d	$a1, $a1, %pc_lo12(.L.str.42)
	ori	$a2, $zero, 18
	pcaddu18i	$ra, %call36(_ZSt16__ostream_insertIcSt11char_traitsIcEERSt13basic_ostreamIT_T0_ES6_PKS3_l)
	jirl	$ra, $ra, 0
.Ltmp122:
# %bb.109:                              # %_ZN9benchmark8internallsIA19_cEERNS0_7LogTypeES4_RKT_.exit
	ld.d	$a0, $s4, 0
	beqz	$a0, .LBB3_119
# %bb.110:
.Ltmp124:
	fmov.d	$fa0, $fs1
	pcaddu18i	$ra, %call36(_ZNSo9_M_insertIdEERSoT_)
	jirl	$ra, $ra, 0
.Ltmp125:
# %bb.111:                              # %_ZN9benchmark8internallsIdEERNS0_7LogTypeES3_RKT_.exit239
	ld.d	$a0, $s4, 0
	beqz	$a0, .LBB3_119
# %bb.112:
.Ltmp126:
	pcalau12i	$a1, %pc_hi20(.L.str.43)
	addi.d	$a1, $a1, %pc_lo12(.L.str.43)
	ori	$a2, $zero, 2
	pcaddu18i	$ra, %call36(_ZSt16__ostream_insertIcSt11char_traitsIcEERSt13basic_ostreamIT_T0_ES6_PKS3_l)
	jirl	$ra, $ra, 0
.Ltmp127:
# %bb.113:                              # %_ZN9benchmark8internallsIA3_cEERNS0_7LogTypeES4_RKT_.exit242
	ld.d	$a0, $s4, 0
	beqz	$a0, .LBB3_119
# %bb.114:
.Ltmp129:
	pcalau12i	$a1, %pc_hi20(.LCPI3_1)
	fld.d	$fa0, $a1, %pc_lo12(.LCPI3_1)
	pcaddu18i	$ra, %call36(_ZNSo9_M_insertIdEERSoT_)
	jirl	$ra, $ra, 0
.Ltmp130:
# %bb.115:                              # %_ZN9benchmark8internallsIdEERNS0_7LogTypeES3_RKT_.exit245
	ld.d	$a0, $s4, 0
	beqz	$a0, .LBB3_119
# %bb.116:
.Ltmp131:
	pcalau12i	$a1, %pc_hi20(.L.str.44)
	addi.d	$a1, $a1, %pc_lo12(.L.str.44)
	ori	$a2, $zero, 4
	pcaddu18i	$ra, %call36(_ZSt16__ostream_insertIcSt11char_traitsIcEERSt13basic_ostreamIT_T0_ES6_PKS3_l)
	jirl	$ra, $ra, 0
.Ltmp132:
# %bb.117:                              # %_ZN9benchmark8internallsIA5_cEERNS0_7LogTypeES4_RKT_.exit
	ld.d	$a0, $s4, 0
	beqz	$a0, .LBB3_119
# %bb.118:
.Ltmp133:
	pcalau12i	$a1, %pc_hi20(.L.str.45)
	addi.d	$a1, $a1, %pc_lo12(.L.str.45)
	ori	$a2, $zero, 14
	pcaddu18i	$ra, %call36(_ZSt16__ostream_insertIcSt11char_traitsIcEERSt13basic_ostreamIT_T0_ES6_PKS3_l)
	jirl	$ra, $ra, 0
.Ltmp134:
.LBB3_119:                              # %_ZN9benchmark8internallsIA15_cEERNS0_7LogTypeES4_RKT_.exit
	addi.d	$s5, $sp, 56
	st.d	$s5, $sp, 40
	st.h	$s2, $sp, 56
	st.b	$s3, $sp, 58
	ori	$a0, $zero, 3
	st.d	$a0, $sp, 48
	st.b	$zero, $sp, 59
.Ltmp136:
	addi.d	$a1, $sp, 40
	move	$a0, $fp
	pcaddu18i	$ra, %call36(_ZNK7Results5GetAsIdEET_RKNSt7__cxx1112basic_stringIcSt11char_traitsIcESaIcEEE)
	jirl	$ra, $ra, 0
.Ltmp137:
# %bb.120:                              # %_ZNK7Results12GetCounterAsIdEET_RKNSt7__cxx1112basic_stringIcSt11char_traitsIcESaIcEEE.exit255
	ld.d	$a0, $s4, 0
	beqz	$a0, .LBB3_124
# %bb.121:
	vldi	$vr1, -896
	fmadd.d	$fa0, $fs0, $fa1, $fa0
.Ltmp138:
	pcaddu18i	$ra, %call36(_ZNSo9_M_insertIdEERSoT_)
	jirl	$ra, $ra, 0
.Ltmp139:
# %bb.122:                              # %_ZN9benchmark8internallsIdEERNS0_7LogTypeES3_RKT_.exit258
	ld.d	$a0, $s4, 0
	beqz	$a0, .LBB3_124
# %bb.123:
.Ltmp140:
	pcalau12i	$a1, %pc_hi20(.L.str.43)
	addi.d	$a1, $a1, %pc_lo12(.L.str.43)
	ori	$a2, $zero, 2
	pcaddu18i	$ra, %call36(_ZSt16__ostream_insertIcSt11char_traitsIcEERSt13basic_ostreamIT_T0_ES6_PKS3_l)
	jirl	$ra, $ra, 0
.Ltmp141:
.LBB3_124:                              # %_ZN9benchmark8internallsIA3_cEERNS0_7LogTypeES4_RKT_.exit261
	addi.d	$s6, $sp, 24
	st.d	$s6, $sp, 8
	st.h	$s2, $sp, 24
	st.b	$s3, $sp, 26
	ori	$a0, $zero, 3
	st.d	$a0, $sp, 16
	st.b	$zero, $sp, 27
.Ltmp143:
	addi.d	$a1, $sp, 8
	move	$a0, $fp
	pcaddu18i	$ra, %call36(_ZNK7Results5GetAsIdEET_RKNSt7__cxx1112basic_stringIcSt11char_traitsIcESaIcEEE)
	jirl	$ra, $ra, 0
.Ltmp144:
# %bb.125:                              # %_ZNK7Results12GetCounterAsIdEET_RKNSt7__cxx1112basic_stringIcSt11char_traitsIcESaIcEEE.exit267
	ld.d	$a0, $s4, 0
	beqz	$a0, .LBB3_129
# %bb.126:
	vldi	$vr1, -896
	fmadd.d	$fa0, $fs0, $fa1, $fa0
	pcalau12i	$a1, %pc_hi20(.LCPI3_2)
	fld.d	$fa1, $a1, %pc_lo12(.LCPI3_2)
	fabs.d	$fa2, $fs2
	pcalau12i	$a1, %pc_hi20(.LCPI3_3)
	fld.d	$fa3, $a1, %pc_lo12(.LCPI3_3)
	fcmp.clt.d	$fcc0, $fa1, $fa2
	fsel	$fa1, $fa1, $fs2, $fcc0
	fdiv.d	$fa0, $fa0, $fa1
	fmul.d	$fa0, $fa0, $fa3
.Ltmp145:
	pcaddu18i	$ra, %call36(_ZNSo9_M_insertIdEERSoT_)
	jirl	$ra, $ra, 0
.Ltmp146:
# %bb.127:                              # %_ZN9benchmark8internallsIdEERNS0_7LogTypeES3_RKT_.exit270
	ld.d	$a0, $s4, 0
	beqz	$a0, .LBB3_129
# %bb.128:
.Ltmp147:
	pcalau12i	$a1, %pc_hi20(.L.str.46)
	addi.d	$a1, $a1, %pc_lo12(.L.str.46)
	ori	$a2, $zero, 2
	pcaddu18i	$ra, %call36(_ZSt16__ostream_insertIcSt11char_traitsIcEERSt13basic_ostreamIT_T0_ES6_PKS3_l)
	jirl	$ra, $ra, 0
.Ltmp148:
.LBB3_129:                              # %_ZN9benchmark8internallsIA3_cEERNS0_7LogTypeES4_RKT_.exit273
	ld.d	$a0, $sp, 8
	beq	$a0, $s6, .LBB3_131
# %bb.130:                              # %_ZNKSt7__cxx1112basic_stringIcSt11char_traitsIcESaIcEE11_M_is_localEv.exit.i.i274
	ld.d	$a1, $sp, 24
	addi.d	$a1, $a1, 1
	pcaddu18i	$ra, %call36(_ZdlPvm)
	jirl	$ra, $ra, 0
.LBB3_131:                              # %_ZNSt7__cxx1112basic_stringIcSt11char_traitsIcESaIcEED2Ev.exit276
	ld.d	$a0, $sp, 40
	beq	$a0, $s5, .LBB3_133
# %bb.132:                              # %_ZNKSt7__cxx1112basic_stringIcSt11char_traitsIcESaIcEE11_M_is_localEv.exit.i.i277
	ld.d	$a1, $sp, 56
	addi.d	$a1, $a1, 1
	pcaddu18i	$ra, %call36(_ZdlPvm)
	jirl	$ra, $ra, 0
.LBB3_133:                              # %_ZNSt7__cxx1112basic_stringIcSt11char_traitsIcESaIcEED2Ev.exit279
	ld.d	$a0, $sp, 80
	beq	$a0, $s1, .LBB3_135
# %bb.134:                              # %_ZNKSt7__cxx1112basic_stringIcSt11char_traitsIcESaIcEE11_M_is_localEv.exit.i.i280
	ld.d	$a1, $sp, 96
	addi.d	$a1, $a1, 1
	pcaddu18i	$ra, %call36(_ZdlPvm)
	jirl	$ra, $ra, 0
.LBB3_135:                              # %_ZNSt7__cxx1112basic_stringIcSt11char_traitsIcESaIcEED2Ev.exit282
	fcmp.clt.d	$fcc0, $fs3, $fs1
	bceqz	$fcc0, .LBB3_141
# %bb.136:
	ld.d	$a0, $sp, 120
	beq	$a0, $s0, .LBB3_138
# %bb.137:                              # %_ZNKSt7__cxx1112basic_stringIcSt11char_traitsIcESaIcEE11_M_is_localEv.exit.i.i295
	ld.d	$a1, $sp, 136
	addi.d	$a1, $a1, 1
	pcaddu18i	$ra, %call36(_ZdlPvm)
	jirl	$ra, $ra, 0
.LBB3_138:                              # %_ZNSt7__cxx1112basic_stringIcSt11char_traitsIcESaIcEED2Ev.exit297
	fld.d	$fs3, $sp, 152                  # 8-byte Folded Reload
	fld.d	$fs2, $sp, 160                  # 8-byte Folded Reload
	fld.d	$fs1, $sp, 168                  # 8-byte Folded Reload
	fld.d	$fs0, $sp, 176                  # 8-byte Folded Reload
	ld.d	$s6, $sp, 184                   # 8-byte Folded Reload
	ld.d	$s5, $sp, 192                   # 8-byte Folded Reload
	ld.d	$s4, $sp, 200                   # 8-byte Folded Reload
	ld.d	$s3, $sp, 208                   # 8-byte Folded Reload
	ld.d	$s2, $sp, 216                   # 8-byte Folded Reload
	ld.d	$s1, $sp, 224                   # 8-byte Folded Reload
	ld.d	$s0, $sp, 232                   # 8-byte Folded Reload
	ld.d	$fp, $sp, 240                   # 8-byte Folded Reload
	ld.d	$ra, $sp, 248                   # 8-byte Folded Reload
	addi.d	$sp, $sp, 256
	ret
.LBB3_139:
.Ltmp58:
	addi.d	$a0, $sp, 112
	pcaddu18i	$ra, %call36(_ZN9benchmark8internal12CheckHandlerD2Ev)
	jirl	$ra, $ra, 0
.Ltmp59:
# %bb.140:
.LBB3_141:
.Ltmp153:
	addi.d	$a0, $sp, 72
	pcaddu18i	$ra, %call36(_ZN9benchmark8internal12CheckHandlerD2Ev)
	jirl	$ra, $ra, 0
.Ltmp154:
# %bb.142:
.LBB3_143:
	pcalau12i	$a0, %pc_hi20(_ZGVZN9benchmark8internal18GetNullLogInstanceEvE8null_log)
	addi.d	$a0, $a0, %pc_lo12(_ZGVZN9benchmark8internal18GetNullLogInstanceEvE8null_log)
	pcaddu18i	$ra, %call36(__cxa_guard_acquire)
	jirl	$ra, $ra, 0
	addi.w	$a0, $a0, 0
	beqz	$a0, .LBB3_58
# %bb.144:
	pcalau12i	$a0, %pc_hi20(_ZZN9benchmark8internal18GetNullLogInstanceEvE8null_log)
	addi.d	$s4, $a0, %pc_lo12(_ZZN9benchmark8internal18GetNullLogInstanceEvE8null_log)
	st.d	$zero, $s4, 0
	pcalau12i	$a0, %pc_hi20(_ZGVZN9benchmark8internal18GetNullLogInstanceEvE8null_log)
	addi.d	$a0, $a0, %pc_lo12(_ZGVZN9benchmark8internal18GetNullLogInstanceEvE8null_log)
	pcaddu18i	$ra, %call36(__cxa_guard_release)
	jirl	$ra, $ra, 0
	b	.LBB3_58
.LBB3_145:
.Ltmp135:
	move	$fp, $a0
	ld.d	$a0, $sp, 80
	beq	$a0, $s1, .LBB3_166
	b	.LBB3_173
.LBB3_146:
.Ltmp128:
	move	$fp, $a0
	ld.d	$a0, $sp, 80
	beq	$a0, $s1, .LBB3_166
	b	.LBB3_173
.LBB3_147:
.Ltmp100:
	b	.LBB3_157
.LBB3_148:
.Ltmp45:
	b	.LBB3_159
.LBB3_149:
.Ltmp123:
	move	$fp, $a0
	ld.d	$a0, $sp, 80
	beq	$a0, $s1, .LBB3_166
	b	.LBB3_173
.LBB3_150:
.Ltmp85:
	b	.LBB3_157
.LBB3_151:
.Ltmp30:
	b	.LBB3_159
.LBB3_152:
.Ltmp57:
	b	.LBB3_175
.LBB3_153:
.Ltmp116:
	move	$fp, $a0
	ld.d	$a0, $sp, 80
	beq	$a0, $s1, .LBB3_166
	b	.LBB3_173
.LBB3_154:
.Ltmp63:
	b	.LBB3_162
.LBB3_155:
.Ltmp8:
	b	.LBB3_162
.LBB3_156:
.Ltmp72:
.LBB3_157:
	move	$fp, $a0
	fcmp.clt.d	$fcc0, $fs3, $fs1
	addi.d	$a0, $sp, 72
	bceqz	$fcc0, .LBB3_167
	b	.LBB3_178
.LBB3_158:
.Ltmp17:
.LBB3_159:
	move	$fp, $a0
	b	.LBB3_177
.LBB3_160:
.Ltmp155:
	b	.LBB3_162
.LBB3_161:
.Ltmp60:
.LBB3_162:
	move	$fp, $a0
	b	.LBB3_178
.LBB3_163:
.Ltmp149:
	ld.d	$a2, $sp, 8
	move	$fp, $a0
	bne	$a2, $s6, .LBB3_169
# %bb.164:
	ld.d	$a0, $sp, 40
	bne	$a0, $s5, .LBB3_171
.LBB3_165:
	ld.d	$a0, $sp, 80
	bne	$a0, $s1, .LBB3_173
.LBB3_166:
	fcmp.clt.d	$fcc0, $fs3, $fs1
	addi.d	$a0, $sp, 72
	bcnez	$fcc0, .LBB3_178
.LBB3_167:                              # %.invoke
.Ltmp150:
	pcaddu18i	$ra, %call36(_ZN9benchmark8internal12CheckHandlerD2Ev)
	jirl	$ra, $ra, 0
.Ltmp151:
# %bb.168:                              # %.cont
.LBB3_169:                              # %_ZNKSt7__cxx1112basic_stringIcSt11char_traitsIcESaIcEE11_M_is_localEv.exit.i.i286
	ld.d	$a0, $sp, 24
	addi.d	$a1, $a0, 1
	move	$a0, $a2
	pcaddu18i	$ra, %call36(_ZdlPvm)
	jirl	$ra, $ra, 0
	ld.d	$a0, $sp, 40
	beq	$a0, $s5, .LBB3_165
	b	.LBB3_171
.LBB3_170:
.Ltmp142:
	move	$fp, $a0
	ld.d	$a0, $sp, 40
	beq	$a0, $s5, .LBB3_165
.LBB3_171:                              # %_ZNKSt7__cxx1112basic_stringIcSt11char_traitsIcESaIcEE11_M_is_localEv.exit.i.i289
	ld.d	$a1, $sp, 56
	addi.d	$a1, $a1, 1
	pcaddu18i	$ra, %call36(_ZdlPvm)
	jirl	$ra, $ra, 0
	ld.d	$a0, $sp, 80
	beq	$a0, $s1, .LBB3_166
	b	.LBB3_173
.LBB3_172:
.Ltmp107:
	move	$fp, $a0
	ld.d	$a0, $sp, 80
	beq	$a0, $s1, .LBB3_166
.LBB3_173:                              # %_ZNKSt7__cxx1112basic_stringIcSt11char_traitsIcESaIcEE11_M_is_localEv.exit.i.i292
	ld.d	$a1, $sp, 96
	addi.d	$a1, $a1, 1
	pcaddu18i	$ra, %call36(_ZdlPvm)
	jirl	$ra, $ra, 0
	fcmp.clt.d	$fcc0, $fs3, $fs1
	addi.d	$a0, $sp, 72
	bceqz	$fcc0, .LBB3_167
	b	.LBB3_178
.LBB3_174:
.Ltmp52:
.LBB3_175:
	move	$fp, $a0
	ld.d	$a0, $sp, 80
	beq	$a0, $s1, .LBB3_177
# %bb.176:                              # %_ZNKSt7__cxx1112basic_stringIcSt11char_traitsIcESaIcEE11_M_is_localEv.exit.i.i146
	ld.d	$a1, $sp, 96
	addi.d	$a1, $a1, 1
	pcaddu18i	$ra, %call36(_ZdlPvm)
	jirl	$ra, $ra, 0
.LBB3_177:
	ori	$a1, $zero, 1
	addi.d	$a0, $sp, 112
	bne	$s2, $a1, .LBB3_167
.LBB3_178:
	ld.d	$a0, $sp, 120
	beq	$a0, $s0, .LBB3_180
# %bb.179:                              # %_ZNKSt7__cxx1112basic_stringIcSt11char_traitsIcESaIcEE11_M_is_localEv.exit.i.i298
	ld.d	$a1, $sp, 136
	addi.d	$a1, $a1, 1
	pcaddu18i	$ra, %call36(_ZdlPvm)
	jirl	$ra, $ra, 0
.LBB3_180:
	move	$a0, $fp
	pcaddu18i	$ra, %call36(_Unwind_Resume)
	jirl	$ra, $ra, 0
.LBB3_181:
.Ltmp152:
	pcaddu18i	$ra, %call36(__clang_call_terminate)
	jirl	$ra, $ra, 0
.Lfunc_end3:
	.size	_Z11CheckSimpleRK7Results, .Lfunc_end3-_Z11CheckSimpleRK7Results
	.cfi_endproc
	.section	.gcc_except_table,"a",@progbits
	.p2align	2, 0x0
GCC_except_table3:
.Lexception1:
	.byte	255                             # @LPStart Encoding = omit
	.byte	155                             # @TType Encoding = indirect pcrel sdata4
	.uleb128 .Lttbase0-.Lttbaseref0
.Lttbaseref0:
	.byte	1                               # Call site Encoding = uleb128
	.uleb128 .Lcst_end1-.Lcst_begin1
.Lcst_begin1:
	.uleb128 .Lfunc_begin1-.Lfunc_begin1    # >> Call Site 1 <<
	.uleb128 .Ltmp6-.Lfunc_begin1           #   Call between .Lfunc_begin1 and .Ltmp6
	.byte	0                               #     has no landing pad
	.byte	0                               #   On action: cleanup
	.uleb128 .Ltmp6-.Lfunc_begin1           # >> Call Site 2 <<
	.uleb128 .Ltmp7-.Ltmp6                  #   Call between .Ltmp6 and .Ltmp7
	.uleb128 .Ltmp8-.Lfunc_begin1           #     jumps to .Ltmp8
	.byte	0                               #   On action: cleanup
	.uleb128 .Ltmp7-.Lfunc_begin1           # >> Call Site 3 <<
	.uleb128 .Ltmp9-.Ltmp7                  #   Call between .Ltmp7 and .Ltmp9
	.byte	0                               #     has no landing pad
	.byte	0                               #   On action: cleanup
	.uleb128 .Ltmp9-.Lfunc_begin1           # >> Call Site 4 <<
	.uleb128 .Ltmp10-.Ltmp9                 #   Call between .Ltmp9 and .Ltmp10
	.uleb128 .Ltmp60-.Lfunc_begin1          #     jumps to .Ltmp60
	.byte	0                               #   On action: cleanup
	.uleb128 .Ltmp11-.Lfunc_begin1          # >> Call Site 5 <<
	.uleb128 .Ltmp16-.Ltmp11                #   Call between .Ltmp11 and .Ltmp16
	.uleb128 .Ltmp17-.Lfunc_begin1          #     jumps to .Ltmp17
	.byte	0                               #   On action: cleanup
	.uleb128 .Ltmp18-.Lfunc_begin1          # >> Call Site 6 <<
	.uleb128 .Ltmp29-.Ltmp18                #   Call between .Ltmp18 and .Ltmp29
	.uleb128 .Ltmp30-.Lfunc_begin1          #     jumps to .Ltmp30
	.byte	0                               #   On action: cleanup
	.uleb128 .Ltmp31-.Lfunc_begin1          # >> Call Site 7 <<
	.uleb128 .Ltmp44-.Ltmp31                #   Call between .Ltmp31 and .Ltmp44
	.uleb128 .Ltmp45-.Lfunc_begin1          #     jumps to .Ltmp45
	.byte	0                               #   On action: cleanup
	.uleb128 .Ltmp46-.Lfunc_begin1          # >> Call Site 8 <<
	.uleb128 .Ltmp51-.Ltmp46                #   Call between .Ltmp46 and .Ltmp51
	.uleb128 .Ltmp52-.Lfunc_begin1          #     jumps to .Ltmp52
	.byte	0                               #   On action: cleanup
	.uleb128 .Ltmp53-.Lfunc_begin1          # >> Call Site 9 <<
	.uleb128 .Ltmp56-.Ltmp53                #   Call between .Ltmp53 and .Ltmp56
	.uleb128 .Ltmp57-.Lfunc_begin1          #     jumps to .Ltmp57
	.byte	0                               #   On action: cleanup
	.uleb128 .Ltmp56-.Lfunc_begin1          # >> Call Site 10 <<
	.uleb128 .Ltmp61-.Ltmp56                #   Call between .Ltmp56 and .Ltmp61
	.byte	0                               #     has no landing pad
	.byte	0                               #   On action: cleanup
	.uleb128 .Ltmp61-.Lfunc_begin1          # >> Call Site 11 <<
	.uleb128 .Ltmp62-.Ltmp61                #   Call between .Ltmp61 and .Ltmp62
	.uleb128 .Ltmp63-.Lfunc_begin1          #     jumps to .Ltmp63
	.byte	0                               #   On action: cleanup
	.uleb128 .Ltmp64-.Lfunc_begin1          # >> Call Site 12 <<
	.uleb128 .Ltmp65-.Ltmp64                #   Call between .Ltmp64 and .Ltmp65
	.uleb128 .Ltmp155-.Lfunc_begin1         #     jumps to .Ltmp155
	.byte	0                               #   On action: cleanup
	.uleb128 .Ltmp66-.Lfunc_begin1          # >> Call Site 13 <<
	.uleb128 .Ltmp71-.Ltmp66                #   Call between .Ltmp66 and .Ltmp71
	.uleb128 .Ltmp72-.Lfunc_begin1          #     jumps to .Ltmp72
	.byte	0                               #   On action: cleanup
	.uleb128 .Ltmp73-.Lfunc_begin1          # >> Call Site 14 <<
	.uleb128 .Ltmp84-.Ltmp73                #   Call between .Ltmp73 and .Ltmp84
	.uleb128 .Ltmp85-.Lfunc_begin1          #     jumps to .Ltmp85
	.byte	0                               #   On action: cleanup
	.uleb128 .Ltmp86-.Lfunc_begin1          # >> Call Site 15 <<
	.uleb128 .Ltmp99-.Ltmp86                #   Call between .Ltmp86 and .Ltmp99
	.uleb128 .Ltmp100-.Lfunc_begin1         #     jumps to .Ltmp100
	.byte	0                               #   On action: cleanup
	.uleb128 .Ltmp101-.Lfunc_begin1         # >> Call Site 16 <<
	.uleb128 .Ltmp106-.Ltmp101              #   Call between .Ltmp101 and .Ltmp106
	.uleb128 .Ltmp107-.Lfunc_begin1         #     jumps to .Ltmp107
	.byte	0                               #   On action: cleanup
	.uleb128 .Ltmp108-.Lfunc_begin1         # >> Call Site 17 <<
	.uleb128 .Ltmp115-.Ltmp108              #   Call between .Ltmp108 and .Ltmp115
	.uleb128 .Ltmp116-.Lfunc_begin1         #     jumps to .Ltmp116
	.byte	0                               #   On action: cleanup
	.uleb128 .Ltmp117-.Lfunc_begin1         # >> Call Site 18 <<
	.uleb128 .Ltmp122-.Ltmp117              #   Call between .Ltmp117 and .Ltmp122
	.uleb128 .Ltmp123-.Lfunc_begin1         #     jumps to .Ltmp123
	.byte	0                               #   On action: cleanup
	.uleb128 .Ltmp124-.Lfunc_begin1         # >> Call Site 19 <<
	.uleb128 .Ltmp127-.Ltmp124              #   Call between .Ltmp124 and .Ltmp127
	.uleb128 .Ltmp128-.Lfunc_begin1         #     jumps to .Ltmp128
	.byte	0                               #   On action: cleanup
	.uleb128 .Ltmp129-.Lfunc_begin1         # >> Call Site 20 <<
	.uleb128 .Ltmp134-.Ltmp129              #   Call between .Ltmp129 and .Ltmp134
	.uleb128 .Ltmp135-.Lfunc_begin1         #     jumps to .Ltmp135
	.byte	0                               #   On action: cleanup
	.uleb128 .Ltmp136-.Lfunc_begin1         # >> Call Site 21 <<
	.uleb128 .Ltmp141-.Ltmp136              #   Call between .Ltmp136 and .Ltmp141
	.uleb128 .Ltmp142-.Lfunc_begin1         #     jumps to .Ltmp142
	.byte	0                               #   On action: cleanup
	.uleb128 .Ltmp143-.Lfunc_begin1         # >> Call Site 22 <<
	.uleb128 .Ltmp148-.Ltmp143              #   Call between .Ltmp143 and .Ltmp148
	.uleb128 .Ltmp149-.Lfunc_begin1         #     jumps to .Ltmp149
	.byte	0                               #   On action: cleanup
	.uleb128 .Ltmp148-.Lfunc_begin1         # >> Call Site 23 <<
	.uleb128 .Ltmp58-.Ltmp148               #   Call between .Ltmp148 and .Ltmp58
	.byte	0                               #     has no landing pad
	.byte	0                               #   On action: cleanup
	.uleb128 .Ltmp58-.Lfunc_begin1          # >> Call Site 24 <<
	.uleb128 .Ltmp59-.Ltmp58                #   Call between .Ltmp58 and .Ltmp59
	.uleb128 .Ltmp60-.Lfunc_begin1          #     jumps to .Ltmp60
	.byte	0                               #   On action: cleanup
	.uleb128 .Ltmp153-.Lfunc_begin1         # >> Call Site 25 <<
	.uleb128 .Ltmp154-.Ltmp153              #   Call between .Ltmp153 and .Ltmp154
	.uleb128 .Ltmp155-.Lfunc_begin1         #     jumps to .Ltmp155
	.byte	0                               #   On action: cleanup
	.uleb128 .Ltmp154-.Lfunc_begin1         # >> Call Site 26 <<
	.uleb128 .Ltmp150-.Ltmp154              #   Call between .Ltmp154 and .Ltmp150
	.byte	0                               #     has no landing pad
	.byte	0                               #   On action: cleanup
	.uleb128 .Ltmp150-.Lfunc_begin1         # >> Call Site 27 <<
	.uleb128 .Ltmp151-.Ltmp150              #   Call between .Ltmp150 and .Ltmp151
	.uleb128 .Ltmp152-.Lfunc_begin1         #     jumps to .Ltmp152
	.byte	1                               #   On action: 1
	.uleb128 .Ltmp151-.Lfunc_begin1         # >> Call Site 28 <<
	.uleb128 .Lfunc_end3-.Ltmp151           #   Call between .Ltmp151 and .Lfunc_end3
	.byte	0                               #     has no landing pad
	.byte	0                               #   On action: cleanup
.Lcst_end1:
	.byte	1                               # >> Action Record 1 <<
                                        #   Catch TypeInfo 1
	.byte	0                               #   No further actions
	.p2align	2, 0x0
                                        # >> Catch TypeInfos <<
	.word	0                               # TypeInfo 1
.Lttbase0:
	.p2align	2, 0x0
                                        # -- End function
	.section	.text._ZN9benchmark8internal12CheckHandlerC2EPKcS3_S3_i,"axG",@progbits,_ZN9benchmark8internal12CheckHandlerC2EPKcS3_S3_i,comdat
	.hidden	_ZN9benchmark8internal12CheckHandlerC2EPKcS3_S3_i # -- Begin function _ZN9benchmark8internal12CheckHandlerC2EPKcS3_S3_i
	.weak	_ZN9benchmark8internal12CheckHandlerC2EPKcS3_S3_i
	.p2align	5
	.type	_ZN9benchmark8internal12CheckHandlerC2EPKcS3_S3_i,@function
_ZN9benchmark8internal12CheckHandlerC2EPKcS3_S3_i: # @_ZN9benchmark8internal12CheckHandlerC2EPKcS3_S3_i
	.cfi_startproc
# %bb.0:
	addi.d	$sp, $sp, -64
	.cfi_def_cfa_offset 64
	st.d	$ra, $sp, 56                    # 8-byte Folded Spill
	st.d	$fp, $sp, 48                    # 8-byte Folded Spill
	st.d	$s0, $sp, 40                    # 8-byte Folded Spill
	st.d	$s1, $sp, 32                    # 8-byte Folded Spill
	st.d	$s2, $sp, 24                    # 8-byte Folded Spill
	st.d	$s3, $sp, 16                    # 8-byte Folded Spill
	st.d	$s4, $sp, 8                     # 8-byte Folded Spill
	.cfi_offset 1, -8
	.cfi_offset 22, -16
	.cfi_offset 23, -24
	.cfi_offset 24, -32
	.cfi_offset 25, -40
	.cfi_offset 26, -48
	.cfi_offset 27, -56
	pcalau12i	$a5, %pc_hi20(_ZGVZN9benchmark8internal19GetErrorLogInstanceEvE9error_log)
	ld.b	$a5, $a5, %pc_lo12(_ZGVZN9benchmark8internal19GetErrorLogInstanceEvE9error_log)
	move	$s1, $a4
	move	$s0, $a3
	move	$fp, $a1
	dbar	20
	pcalau12i	$a1, %pc_hi20(_ZZN9benchmark8internal19GetErrorLogInstanceEvE9error_log)
	addi.d	$s4, $a1, %pc_lo12(_ZZN9benchmark8internal19GetErrorLogInstanceEvE9error_log)
	beqz	$a5, .LBB4_18
.LBB4_1:                                # %_ZN9benchmark8internal19GetErrorLogInstanceEv.exit
	ld.d	$s2, $s4, 0
	st.d	$s4, $a0, 0
	beqz	$s2, .LBB4_17
# %bb.2:
	beqz	$a2, .LBB4_4
# %bb.3:
	move	$a0, $a2
	move	$s3, $a2
	pcaddu18i	$ra, %call36(strlen)
	jirl	$ra, $ra, 0
	move	$a2, $a0
	move	$a0, $s2
	move	$a1, $s3
	pcaddu18i	$ra, %call36(_ZSt16__ostream_insertIcSt11char_traitsIcEERSt13basic_ostreamIT_T0_ES6_PKS3_l)
	jirl	$ra, $ra, 0
	ld.d	$a0, $s4, 0
	bnez	$a0, .LBB4_5
	b	.LBB4_17
.LBB4_4:
	ld.d	$a0, $s2, 0
	ld.d	$a0, $a0, -24
	add.d	$a0, $s2, $a0
	ld.w	$a1, $a0, 32
	ori	$a1, $a1, 1
	pcaddu18i	$ra, %call36(_ZNSt9basic_iosIcSt11char_traitsIcEE5clearESt12_Ios_Iostate)
	jirl	$ra, $ra, 0
	ld.d	$a0, $s4, 0
	beqz	$a0, .LBB4_17
.LBB4_5:                                # %_ZN9benchmark8internallsIA2_cEERNS0_7LogTypeES4_RKT_.exit
	pcalau12i	$a1, %pc_hi20(.L.str.32)
	addi.d	$a1, $a1, %pc_lo12(.L.str.32)
	ori	$a2, $zero, 1
	pcaddu18i	$ra, %call36(_ZSt16__ostream_insertIcSt11char_traitsIcEERSt13basic_ostreamIT_T0_ES6_PKS3_l)
	jirl	$ra, $ra, 0
	ld.d	$a0, $s4, 0
	beqz	$a0, .LBB4_17
# %bb.6:                                # %_ZN9benchmark8internallsIiEERNS0_7LogTypeES3_RKT_.exit
	move	$a1, $s1
	pcaddu18i	$ra, %call36(_ZNSolsEi)
	jirl	$ra, $ra, 0
	ld.d	$a0, $s4, 0
	beqz	$a0, .LBB4_17
# %bb.7:                                # %_ZN9benchmark8internallsIA3_cEERNS0_7LogTypeES4_RKT_.exit
	pcalau12i	$a1, %pc_hi20(.L.str.33)
	addi.d	$a1, $a1, %pc_lo12(.L.str.33)
	ori	$a2, $zero, 2
	pcaddu18i	$ra, %call36(_ZSt16__ostream_insertIcSt11char_traitsIcEERSt13basic_ostreamIT_T0_ES6_PKS3_l)
	jirl	$ra, $ra, 0
	ld.d	$s1, $s4, 0
	beqz	$s1, .LBB4_17
# %bb.8:
	beqz	$s0, .LBB4_10
# %bb.9:
	move	$a0, $s0
	pcaddu18i	$ra, %call36(strlen)
	jirl	$ra, $ra, 0
	move	$a2, $a0
	move	$a0, $s1
	move	$a1, $s0
	pcaddu18i	$ra, %call36(_ZSt16__ostream_insertIcSt11char_traitsIcEERSt13basic_ostreamIT_T0_ES6_PKS3_l)
	jirl	$ra, $ra, 0
	ld.d	$a0, $s4, 0
	bnez	$a0, .LBB4_11
	b	.LBB4_17
.LBB4_10:
	ld.d	$a0, $s1, 0
	ld.d	$a0, $a0, -24
	add.d	$a0, $s1, $a0
	ld.w	$a1, $a0, 32
	ori	$a1, $a1, 1
	pcaddu18i	$ra, %call36(_ZNSt9basic_iosIcSt11char_traitsIcEE5clearESt12_Ios_Iostate)
	jirl	$ra, $ra, 0
	ld.d	$a0, $s4, 0
	beqz	$a0, .LBB4_17
.LBB4_11:                               # %_ZN9benchmark8internallsIA10_cEERNS0_7LogTypeES4_RKT_.exit
	pcalau12i	$a1, %pc_hi20(.L.str.200)
	addi.d	$a1, $a1, %pc_lo12(.L.str.200)
	ori	$a2, $zero, 9
	pcaddu18i	$ra, %call36(_ZSt16__ostream_insertIcSt11char_traitsIcEERSt13basic_ostreamIT_T0_ES6_PKS3_l)
	jirl	$ra, $ra, 0
	ld.d	$s0, $s4, 0
	beqz	$s0, .LBB4_17
# %bb.12:
	beqz	$fp, .LBB4_14
# %bb.13:
	move	$a0, $fp
	pcaddu18i	$ra, %call36(strlen)
	jirl	$ra, $ra, 0
	move	$a2, $a0
	move	$a0, $s0
	move	$a1, $fp
	pcaddu18i	$ra, %call36(_ZSt16__ostream_insertIcSt11char_traitsIcEERSt13basic_ostreamIT_T0_ES6_PKS3_l)
	jirl	$ra, $ra, 0
	b	.LBB4_15
.LBB4_14:
	ld.d	$a0, $s0, 0
	ld.d	$a0, $a0, -24
	add.d	$a0, $s0, $a0
	ld.w	$a1, $a0, 32
	ori	$a1, $a1, 1
	pcaddu18i	$ra, %call36(_ZNSt9basic_iosIcSt11char_traitsIcEE5clearESt12_Ios_Iostate)
	jirl	$ra, $ra, 0
.LBB4_15:                               # %_ZN9benchmark8internallsIPKcEERNS0_7LogTypeES5_RKT_.exit11
	ld.d	$a0, $s4, 0
	beqz	$a0, .LBB4_17
# %bb.16:
	pcalau12i	$a1, %pc_hi20(.L.str.201)
	addi.d	$a1, $a1, %pc_lo12(.L.str.201)
	ori	$a2, $zero, 10
	ld.d	$s4, $sp, 8                     # 8-byte Folded Reload
	ld.d	$s3, $sp, 16                    # 8-byte Folded Reload
	ld.d	$s2, $sp, 24                    # 8-byte Folded Reload
	ld.d	$s1, $sp, 32                    # 8-byte Folded Reload
	ld.d	$s0, $sp, 40                    # 8-byte Folded Reload
	ld.d	$fp, $sp, 48                    # 8-byte Folded Reload
	ld.d	$ra, $sp, 56                    # 8-byte Folded Reload
	addi.d	$sp, $sp, 64
	pcaddu18i	$t8, %call36(_ZSt16__ostream_insertIcSt11char_traitsIcEERSt13basic_ostreamIT_T0_ES6_PKS3_l)
	jr	$t8
.LBB4_17:                               # %_ZN9benchmark8internallsIA11_cEERNS0_7LogTypeES4_RKT_.exit
	ld.d	$s4, $sp, 8                     # 8-byte Folded Reload
	ld.d	$s3, $sp, 16                    # 8-byte Folded Reload
	ld.d	$s2, $sp, 24                    # 8-byte Folded Reload
	ld.d	$s1, $sp, 32                    # 8-byte Folded Reload
	ld.d	$s0, $sp, 40                    # 8-byte Folded Reload
	ld.d	$fp, $sp, 48                    # 8-byte Folded Reload
	ld.d	$ra, $sp, 56                    # 8-byte Folded Reload
	addi.d	$sp, $sp, 64
	ret
.LBB4_18:
	pcalau12i	$a1, %pc_hi20(_ZGVZN9benchmark8internal19GetErrorLogInstanceEvE9error_log)
	addi.d	$a1, $a1, %pc_lo12(_ZGVZN9benchmark8internal19GetErrorLogInstanceEvE9error_log)
	move	$s2, $a0
	move	$a0, $a1
	move	$s3, $a2
	pcaddu18i	$ra, %call36(__cxa_guard_acquire)
	jirl	$ra, $ra, 0
	move	$a2, $s3
	move	$a1, $a0
	move	$a0, $s2
	addi.w	$a1, $a1, 0
	beqz	$a1, .LBB4_1
# %bb.19:
	pcalau12i	$a0, %got_pc_hi20(_ZSt4clog)
	ld.d	$a0, $a0, %got_pc_lo12(_ZSt4clog)
	st.d	$a0, $s4, 0
	pcalau12i	$a0, %pc_hi20(_ZGVZN9benchmark8internal19GetErrorLogInstanceEvE9error_log)
	addi.d	$a0, $a0, %pc_lo12(_ZGVZN9benchmark8internal19GetErrorLogInstanceEvE9error_log)
	pcaddu18i	$ra, %call36(__cxa_guard_release)
	jirl	$ra, $ra, 0
	move	$a0, $s2
	move	$a2, $s3
	b	.LBB4_1
.Lfunc_end4:
	.size	_ZN9benchmark8internal12CheckHandlerC2EPKcS3_S3_i, .Lfunc_end4-_ZN9benchmark8internal12CheckHandlerC2EPKcS3_S3_i
	.cfi_endproc
                                        # -- End function
	.section	.text._ZN9benchmark8internal12CheckHandlerD2Ev,"axG",@progbits,_ZN9benchmark8internal12CheckHandlerD2Ev,comdat
	.hidden	_ZN9benchmark8internal12CheckHandlerD2Ev # -- Begin function _ZN9benchmark8internal12CheckHandlerD2Ev
	.weak	_ZN9benchmark8internal12CheckHandlerD2Ev
	.p2align	5
	.type	_ZN9benchmark8internal12CheckHandlerD2Ev,@function
_ZN9benchmark8internal12CheckHandlerD2Ev: # @_ZN9benchmark8internal12CheckHandlerD2Ev
	.cfi_startproc
# %bb.0:
	addi.d	$sp, $sp, -32
	.cfi_def_cfa_offset 32
	st.d	$ra, $sp, 24                    # 8-byte Folded Spill
	st.d	$fp, $sp, 16                    # 8-byte Folded Spill
	st.d	$s0, $sp, 8                     # 8-byte Folded Spill
	.cfi_offset 1, -8
	.cfi_offset 22, -16
	.cfi_offset 23, -24
	ld.d	$a0, $a0, 0
	ld.d	$fp, $a0, 0
	beqz	$fp, .LBB5_7
# %bb.1:
	ld.d	$a0, $fp, 0
	ld.d	$a0, $a0, -24
	add.d	$a0, $fp, $a0
	ld.d	$s0, $a0, 240
	bnez	$s0, .LBB5_3
# %bb.2:
	pcaddu18i	$ra, %call36(_ZSt16__throw_bad_castv)
	jirl	$ra, $ra, 0
.LBB5_3:                                # %_ZSt13__check_facetISt5ctypeIcEERKT_PS3_.exit.i.i
	ld.bu	$a0, $s0, 56
	bnez	$a0, .LBB5_5
# %bb.4:
	move	$a0, $s0
	pcaddu18i	$ra, %call36(_ZNKSt5ctypeIcE13_M_widen_initEv)
	jirl	$ra, $ra, 0
	ld.d	$a0, $s0, 0
	ld.d	$a2, $a0, 48
	ori	$a1, $zero, 10
	move	$a0, $s0
	jirl	$ra, $a2, 0
	b	.LBB5_6
.LBB5_5:
	ld.bu	$a0, $s0, 67
.LBB5_6:                                # %_ZSt4endlIcSt11char_traitsIcEERSt13basic_ostreamIT_T0_ES6_.exit
	ext.w.b	$a1, $a0
	move	$a0, $fp
	pcaddu18i	$ra, %call36(_ZNSo3putEc)
	jirl	$ra, $ra, 0
	pcaddu18i	$ra, %call36(_ZNSo5flushEv)
	jirl	$ra, $ra, 0
.LBB5_7:                                # %_ZN9benchmark8internallsERNS0_7LogTypeEPFRSoS3_E.exit
	pcaddu18i	$ra, %call36(_ZN9benchmark8internal16CallAbortHandlerEv)
	jirl	$ra, $ra, 0
.Lfunc_end5:
	.size	_ZN9benchmark8internal12CheckHandlerD2Ev, .Lfunc_end5-_ZN9benchmark8internal12CheckHandlerD2Ev
	.cfi_endproc
                                        # -- End function
	.section	.text.__clang_call_terminate,"axG",@progbits,__clang_call_terminate,comdat
	.hidden	__clang_call_terminate          # -- Begin function __clang_call_terminate
	.weak	__clang_call_terminate
	.p2align	5
	.type	__clang_call_terminate,@function
__clang_call_terminate:                 # @__clang_call_terminate
# %bb.0:
	addi.d	$sp, $sp, -16
	st.d	$ra, $sp, 8                     # 8-byte Folded Spill
	pcaddu18i	$ra, %call36(__cxa_begin_catch)
	jirl	$ra, $ra, 0
	pcaddu18i	$ra, %call36(_ZSt9terminatev)
	jirl	$ra, $ra, 0
.Lfunc_end6:
	.size	__clang_call_terminate, .Lfunc_end6-__clang_call_terminate
                                        # -- End function
	.text
	.hidden	_Z33BM_Counters_WithBytesAndItemsPSecRN9benchmark5StateE # -- Begin function _Z33BM_Counters_WithBytesAndItemsPSecRN9benchmark5StateE
	.globl	_Z33BM_Counters_WithBytesAndItemsPSecRN9benchmark5StateE
	.p2align	5
	.type	_Z33BM_Counters_WithBytesAndItemsPSecRN9benchmark5StateE,@function
_Z33BM_Counters_WithBytesAndItemsPSecRN9benchmark5StateE: # @_Z33BM_Counters_WithBytesAndItemsPSecRN9benchmark5StateE
.Lfunc_begin2:
	.cfi_startproc
	.cfi_personality 155, DW.ref.__gxx_personality_v0
	.cfi_lsda 27, .Lexception2
# %bb.0:                                # %_ZN9benchmark5State13StateIteratorC2EPS0_.exit
	addi.d	$sp, $sp, -80
	.cfi_def_cfa_offset 80
	st.d	$ra, $sp, 72                    # 8-byte Folded Spill
	st.d	$fp, $sp, 64                    # 8-byte Folded Spill
	st.d	$s0, $sp, 56                    # 8-byte Folded Spill
	st.d	$s1, $sp, 48                    # 8-byte Folded Spill
	.cfi_offset 1, -8
	.cfi_offset 22, -16
	.cfi_offset 23, -24
	.cfi_offset 24, -32
	move	$fp, $a0
	ld.w	$s1, $a0, 28
	ld.d	$s0, $a0, 16
	pcaddu18i	$ra, %call36(_ZN9benchmark5State16StartKeepRunningEv)
	jirl	$ra, $ra, 0
	bnez	$s1, .LBB7_7
# %bb.1:                                # %_ZN9benchmark5State13StateIteratorC2EPS0_.exit
	beqz	$s0, .LBB7_7
# %bb.2:
	movgr2fr.d	$fa0, $zero
	addi.d	$a0, $sp, 8
	.p2align	4, , 16
.LBB7_3:                                # =>This Inner Loop Header: Depth=1
	ld.bu	$a1, $fp, 24
	fmov.d	$fa1, $fa0
	beqz	$a1, .LBB7_5
# %bb.4:                                #   in Loop: Header=BB7_3 Depth=1
	ld.d	$a1, $fp, 16
	ld.d	$a2, $fp, 0
	ld.d	$a3, $fp, 8
	sub.d	$a1, $a1, $a2
	add.d	$a1, $a1, $a3
	movgr2fr.d	$fa1, $a1
	ffint.d.l	$fa1, $fa1
	fmul.d	$fa1, $fa1, $fa1
.LBB7_5:                                # %_ZNK9benchmark5State10iterationsEv.exit
                                        #   in Loop: Header=BB7_3 Depth=1
	fst.d	$fa1, $sp, 8
	#APP
	#NO_APP
	blez	$s0, .LBB7_22
# %bb.6:                                #   in Loop: Header=BB7_3 Depth=1
	addi.d	$s0, $s0, -1
	bnez	$s0, .LBB7_3
.LBB7_7:                                # %._crit_edge.i.i
	move	$a0, $fp
	pcaddu18i	$ra, %call36(_ZN9benchmark5State17FinishKeepRunningEv)
	jirl	$ra, $ra, 0
	addi.d	$fp, $fp, 64
	pcalau12i	$a0, %pc_hi20(.L.str.5)
	addi.d	$a0, $a0, %pc_lo12(.L.str.5)
	ld.h	$a1, $a0, 0
	ld.b	$a0, $a0, 2
	addi.d	$s0, $sp, 24
	st.d	$s0, $sp, 8
	st.h	$a1, $sp, 24
	st.b	$a0, $sp, 26
	ori	$a0, $zero, 3
	st.d	$a0, $sp, 16
	st.b	$zero, $sp, 27
.Ltmp156:
	addi.d	$a1, $sp, 8
	move	$a0, $fp
	pcaddu18i	$ra, %call36(_ZNSt3mapINSt7__cxx1112basic_stringIcSt11char_traitsIcESaIcEEEN9benchmark7CounterESt4lessIS5_ESaISt4pairIKS5_S7_EEEixEOS5_)
	jirl	$ra, $ra, 0
.Ltmp157:
# %bb.8:
	lu52i.d	$a1, $zero, 1023
	st.d	$a1, $a0, 0
	ld.d	$a2, $sp, 8
	ori	$a1, $zero, 0
	lu32i.d	$a1, 1000
	st.d	$a1, $a0, 8
	beq	$a2, $s0, .LBB7_10
# %bb.9:                                # %_ZNKSt7__cxx1112basic_stringIcSt11char_traitsIcESaIcEE11_M_is_localEv.exit.i.i
	ld.d	$a0, $sp, 24
	addi.d	$a1, $a0, 1
	move	$a0, $a2
	pcaddu18i	$ra, %call36(_ZdlPvm)
	jirl	$ra, $ra, 0
.LBB7_10:                               # %_ZNSt7__cxx1112basic_stringIcSt11char_traitsIcESaIcEED2Ev.exit
	pcalau12i	$a0, %pc_hi20(_ZN12_GLOBAL__N_110num_calls1E)
	ld.w	$a1, $a0, %pc_lo12(_ZN12_GLOBAL__N_110num_calls1E)
	addi.w	$s1, $a1, 1
	pcalau12i	$a1, %pc_hi20(.L.str.6)
	addi.d	$a1, $a1, %pc_lo12(.L.str.6)
	ld.h	$a2, $a1, 0
	ld.b	$a1, $a1, 2
	st.w	$s1, $a0, %pc_lo12(_ZN12_GLOBAL__N_110num_calls1E)
	st.d	$s0, $sp, 8
	st.h	$a2, $sp, 24
	st.b	$a1, $sp, 26
	ori	$a0, $zero, 3
	st.d	$a0, $sp, 16
	st.b	$zero, $sp, 27
.Ltmp159:
	addi.d	$a1, $sp, 8
	move	$a0, $fp
	pcaddu18i	$ra, %call36(_ZNSt3mapINSt7__cxx1112basic_stringIcSt11char_traitsIcESaIcEEEN9benchmark7CounterESt4lessIS5_ESaISt4pairIKS5_S7_EEEixEOS5_)
	jirl	$ra, $ra, 0
.Ltmp160:
# %bb.11:
	movgr2fr.w	$fa0, $s1
	ffint.d.w	$fa0, $fa0
	fst.d	$fa0, $a0, 0
	ld.d	$a2, $sp, 8
	ori	$a1, $zero, 0
	lu32i.d	$a1, 1000
	st.d	$a1, $a0, 8
	beq	$a2, $s0, .LBB7_13
# %bb.12:                               # %_ZNKSt7__cxx1112basic_stringIcSt11char_traitsIcESaIcEE11_M_is_localEv.exit.i.i33
	ld.d	$a0, $sp, 24
	addi.d	$a1, $a0, 1
	move	$a0, $a2
	pcaddu18i	$ra, %call36(_ZdlPvm)
	jirl	$ra, $ra, 0
.LBB7_13:                               # %_ZNSt7__cxx1112basic_stringIcSt11char_traitsIcESaIcEED2Ev.exit35
	st.d	$s0, $sp, 8
	ori	$a0, $zero, 16
	st.d	$a0, $sp, 40
.Ltmp162:
	addi.d	$a0, $sp, 8
	addi.d	$a1, $sp, 40
	move	$a2, $zero
	pcaddu18i	$ra, %call36(_ZNSt7__cxx1112basic_stringIcSt11char_traitsIcESaIcEE9_M_createERmm)
	jirl	$ra, $ra, 0
.Ltmp163:
# %bb.14:                               # %.noexc38
	ld.d	$a1, $sp, 40
	pcalau12i	$a2, %pc_hi20(.L.str.62)
	vld	$vr0, $a2, %pc_lo12(.L.str.62)
	st.d	$a0, $sp, 8
	st.d	$a1, $sp, 24
	vst	$vr0, $a0, 0
	ld.d	$a0, $sp, 8
	st.d	$a1, $sp, 16
	stx.b	$zero, $a0, $a1
.Ltmp165:
	addi.d	$a1, $sp, 8
	move	$a0, $fp
	pcaddu18i	$ra, %call36(_ZNSt3mapINSt7__cxx1112basic_stringIcSt11char_traitsIcESaIcEEEN9benchmark7CounterESt4lessIS5_ESaISt4pairIKS5_S7_EEEixEOS5_)
	jirl	$ra, $ra, 0
.Ltmp166:
# %bb.15:                               # %_ZN9benchmark5State17SetBytesProcessedEl.exit
	ori	$a1, $zero, 0
	lu32i.d	$a1, 442368
	lu52i.d	$a1, $a1, 1031
	st.d	$a1, $a0, 0
	ld.d	$a2, $sp, 8
	ori	$a1, $zero, 1
	lu32i.d	$a1, 1024
	st.d	$a1, $a0, 8
	beq	$a2, $s0, .LBB7_17
# %bb.16:                               # %_ZNKSt7__cxx1112basic_stringIcSt11char_traitsIcESaIcEE11_M_is_localEv.exit.i.i43
	ld.d	$a0, $sp, 24
	addi.d	$a1, $a0, 1
	move	$a0, $a2
	pcaddu18i	$ra, %call36(_ZdlPvm)
	jirl	$ra, $ra, 0
.LBB7_17:                               # %_ZNSt7__cxx1112basic_stringIcSt11char_traitsIcESaIcEED2Ev.exit45
	st.d	$s0, $sp, 8
	ori	$a0, $zero, 16
	st.d	$a0, $sp, 40
.Ltmp168:
	addi.d	$a0, $sp, 8
	addi.d	$a1, $sp, 40
	move	$a2, $zero
	pcaddu18i	$ra, %call36(_ZNSt7__cxx1112basic_stringIcSt11char_traitsIcESaIcEE9_M_createERmm)
	jirl	$ra, $ra, 0
.Ltmp169:
# %bb.18:                               # %.noexc48
	ld.d	$a1, $sp, 40
	pcalau12i	$a2, %pc_hi20(.L.str.64)
	vld	$vr0, $a2, %pc_lo12(.L.str.64)
	st.d	$a0, $sp, 8
	st.d	$a1, $sp, 24
	vst	$vr0, $a0, 0
	ld.d	$a0, $sp, 8
	st.d	$a1, $sp, 16
	stx.b	$zero, $a0, $a1
.Ltmp171:
	addi.d	$a1, $sp, 8
	move	$a0, $fp
	pcaddu18i	$ra, %call36(_ZNSt3mapINSt7__cxx1112basic_stringIcSt11char_traitsIcESaIcEEEN9benchmark7CounterESt4lessIS5_ESaISt4pairIKS5_S7_EEEixEOS5_)
	jirl	$ra, $ra, 0
.Ltmp172:
# %bb.19:                               # %_ZN9benchmark5State17SetItemsProcessedEl.exit
	ori	$a1, $zero, 0
	lu32i.d	$a1, 180224
	lu52i.d	$a1, $a1, 1030
	st.d	$a1, $a0, 0
	ld.d	$a2, $sp, 8
	ori	$a1, $zero, 1
	lu32i.d	$a1, 1000
	st.d	$a1, $a0, 8
	beq	$a2, $s0, .LBB7_21
# %bb.20:                               # %_ZNKSt7__cxx1112basic_stringIcSt11char_traitsIcESaIcEE11_M_is_localEv.exit.i.i53
	ld.d	$a0, $sp, 24
	addi.d	$a1, $a0, 1
	move	$a0, $a2
	pcaddu18i	$ra, %call36(_ZdlPvm)
	jirl	$ra, $ra, 0
.LBB7_21:                               # %_ZNSt7__cxx1112basic_stringIcSt11char_traitsIcESaIcEED2Ev.exit55
	ld.d	$s1, $sp, 48                    # 8-byte Folded Reload
	ld.d	$s0, $sp, 56                    # 8-byte Folded Reload
	ld.d	$fp, $sp, 64                    # 8-byte Folded Reload
	ld.d	$ra, $sp, 72                    # 8-byte Folded Reload
	addi.d	$sp, $sp, 80
	ret
.LBB7_22:
	pcalau12i	$a0, %pc_hi20(.L.str.198)
	addi.d	$a0, $a0, %pc_lo12(.L.str.198)
	pcalau12i	$a1, %pc_hi20(.L.str.199)
	addi.d	$a1, $a1, %pc_lo12(.L.str.199)
	pcalau12i	$a2, %pc_hi20(.L__PRETTY_FUNCTION__._ZN9benchmark5State13StateIteratorppEv)
	addi.d	$a3, $a2, %pc_lo12(.L__PRETTY_FUNCTION__._ZN9benchmark5State13StateIteratorppEv)
	ori	$a2, $zero, 1134
	pcaddu18i	$ra, %call36(__assert_fail)
	jirl	$ra, $ra, 0
.LBB7_23:
.Ltmp173:
	b	.LBB7_29
.LBB7_24:
.Ltmp170:
	pcaddu18i	$ra, %call36(_Unwind_Resume)
	jirl	$ra, $ra, 0
.LBB7_25:
.Ltmp167:
	b	.LBB7_29
.LBB7_26:
.Ltmp164:
	pcaddu18i	$ra, %call36(_Unwind_Resume)
	jirl	$ra, $ra, 0
.LBB7_27:
.Ltmp161:
	b	.LBB7_29
.LBB7_28:
.Ltmp158:
.LBB7_29:
	ld.d	$a2, $sp, 8
	move	$fp, $a0
	beq	$a2, $s0, .LBB7_31
# %bb.30:                               # %_ZNKSt7__cxx1112basic_stringIcSt11char_traitsIcESaIcEE11_M_is_localEv.exit.i.i56
	ld.d	$a0, $sp, 24
	addi.d	$a1, $a0, 1
	move	$a0, $a2
	pcaddu18i	$ra, %call36(_ZdlPvm)
	jirl	$ra, $ra, 0
.LBB7_31:                               # %common.resume
	move	$a0, $fp
	pcaddu18i	$ra, %call36(_Unwind_Resume)
	jirl	$ra, $ra, 0
.Lfunc_end7:
	.size	_Z33BM_Counters_WithBytesAndItemsPSecRN9benchmark5StateE, .Lfunc_end7-_Z33BM_Counters_WithBytesAndItemsPSecRN9benchmark5StateE
	.cfi_endproc
	.section	.gcc_except_table,"a",@progbits
	.p2align	2, 0x0
GCC_except_table7:
.Lexception2:
	.byte	255                             # @LPStart Encoding = omit
	.byte	255                             # @TType Encoding = omit
	.byte	1                               # Call site Encoding = uleb128
	.uleb128 .Lcst_end2-.Lcst_begin2
.Lcst_begin2:
	.uleb128 .Lfunc_begin2-.Lfunc_begin2    # >> Call Site 1 <<
	.uleb128 .Ltmp156-.Lfunc_begin2         #   Call between .Lfunc_begin2 and .Ltmp156
	.byte	0                               #     has no landing pad
	.byte	0                               #   On action: cleanup
	.uleb128 .Ltmp156-.Lfunc_begin2         # >> Call Site 2 <<
	.uleb128 .Ltmp157-.Ltmp156              #   Call between .Ltmp156 and .Ltmp157
	.uleb128 .Ltmp158-.Lfunc_begin2         #     jumps to .Ltmp158
	.byte	0                               #   On action: cleanup
	.uleb128 .Ltmp157-.Lfunc_begin2         # >> Call Site 3 <<
	.uleb128 .Ltmp159-.Ltmp157              #   Call between .Ltmp157 and .Ltmp159
	.byte	0                               #     has no landing pad
	.byte	0                               #   On action: cleanup
	.uleb128 .Ltmp159-.Lfunc_begin2         # >> Call Site 4 <<
	.uleb128 .Ltmp160-.Ltmp159              #   Call between .Ltmp159 and .Ltmp160
	.uleb128 .Ltmp161-.Lfunc_begin2         #     jumps to .Ltmp161
	.byte	0                               #   On action: cleanup
	.uleb128 .Ltmp160-.Lfunc_begin2         # >> Call Site 5 <<
	.uleb128 .Ltmp162-.Ltmp160              #   Call between .Ltmp160 and .Ltmp162
	.byte	0                               #     has no landing pad
	.byte	0                               #   On action: cleanup
	.uleb128 .Ltmp162-.Lfunc_begin2         # >> Call Site 6 <<
	.uleb128 .Ltmp163-.Ltmp162              #   Call between .Ltmp162 and .Ltmp163
	.uleb128 .Ltmp164-.Lfunc_begin2         #     jumps to .Ltmp164
	.byte	0                               #   On action: cleanup
	.uleb128 .Ltmp165-.Lfunc_begin2         # >> Call Site 7 <<
	.uleb128 .Ltmp166-.Ltmp165              #   Call between .Ltmp165 and .Ltmp166
	.uleb128 .Ltmp167-.Lfunc_begin2         #     jumps to .Ltmp167
	.byte	0                               #   On action: cleanup
	.uleb128 .Ltmp166-.Lfunc_begin2         # >> Call Site 8 <<
	.uleb128 .Ltmp168-.Ltmp166              #   Call between .Ltmp166 and .Ltmp168
	.byte	0                               #     has no landing pad
	.byte	0                               #   On action: cleanup
	.uleb128 .Ltmp168-.Lfunc_begin2         # >> Call Site 9 <<
	.uleb128 .Ltmp169-.Ltmp168              #   Call between .Ltmp168 and .Ltmp169
	.uleb128 .Ltmp170-.Lfunc_begin2         #     jumps to .Ltmp170
	.byte	0                               #   On action: cleanup
	.uleb128 .Ltmp171-.Lfunc_begin2         # >> Call Site 10 <<
	.uleb128 .Ltmp172-.Ltmp171              #   Call between .Ltmp171 and .Ltmp172
	.uleb128 .Ltmp173-.Lfunc_begin2         #     jumps to .Ltmp173
	.byte	0                               #   On action: cleanup
	.uleb128 .Ltmp172-.Lfunc_begin2         # >> Call Site 11 <<
	.uleb128 .Lfunc_end7-.Ltmp172           #   Call between .Ltmp172 and .Lfunc_end7
	.byte	0                               #     has no landing pad
	.byte	0                               #   On action: cleanup
.Lcst_end2:
	.p2align	2, 0x0
                                        # -- End function
	.section	.rodata.cst8,"aM",@progbits,8
	.p2align	3, 0x0                          # -- Begin function _Z22CheckBytesAndItemsPSecRK7Results
.LCPI8_0:
	.dword	0x4076c00000000000              # double 364
.LCPI8_1:
	.dword	0x3f50624dd2f1a9fc              # double 0.001
.LCPI8_2:
	.dword	0x3fb999999999999a              # double 0.10000000000000001
.LCPI8_3:
	.dword	0x3ee4f8b588e368f1              # double 1.0000000000000001E-5
.LCPI8_4:
	.dword	0x4059000000000000              # double 100
.LCPI8_5:
	.dword	0x4062c00000000000              # double 150
	.text
	.hidden	_Z22CheckBytesAndItemsPSecRK7Results
	.globl	_Z22CheckBytesAndItemsPSecRK7Results
	.p2align	5
	.type	_Z22CheckBytesAndItemsPSecRK7Results,@function
_Z22CheckBytesAndItemsPSecRK7Results:   # @_Z22CheckBytesAndItemsPSecRK7Results
.Lfunc_begin3:
	.cfi_startproc
	.cfi_personality 155, DW.ref.__gxx_personality_v0
	.cfi_lsda 27, .Lexception3
# %bb.0:                                # %._crit_edge.i.i
	addi.d	$sp, $sp, -304
	.cfi_def_cfa_offset 304
	st.d	$ra, $sp, 296                   # 8-byte Folded Spill
	st.d	$fp, $sp, 288                   # 8-byte Folded Spill
	st.d	$s0, $sp, 280                   # 8-byte Folded Spill
	st.d	$s1, $sp, 272                   # 8-byte Folded Spill
	st.d	$s2, $sp, 264                   # 8-byte Folded Spill
	st.d	$s3, $sp, 256                   # 8-byte Folded Spill
	st.d	$s4, $sp, 248                   # 8-byte Folded Spill
	st.d	$s5, $sp, 240                   # 8-byte Folded Spill
	st.d	$s6, $sp, 232                   # 8-byte Folded Spill
	st.d	$s7, $sp, 224                   # 8-byte Folded Spill
	fst.d	$fs0, $sp, 216                  # 8-byte Folded Spill
	fst.d	$fs1, $sp, 208                  # 8-byte Folded Spill
	fst.d	$fs2, $sp, 200                  # 8-byte Folded Spill
	fst.d	$fs3, $sp, 192                  # 8-byte Folded Spill
	fst.d	$fs4, $sp, 184                  # 8-byte Folded Spill
	.cfi_offset 1, -8
	.cfi_offset 22, -16
	.cfi_offset 23, -24
	.cfi_offset 24, -32
	.cfi_offset 25, -40
	.cfi_offset 26, -48
	.cfi_offset 27, -56
	.cfi_offset 28, -64
	.cfi_offset 29, -72
	.cfi_offset 30, -80
	.cfi_offset 56, -88
	.cfi_offset 57, -96
	.cfi_offset 58, -104
	.cfi_offset 59, -112
	.cfi_offset 60, -120
	move	$fp, $a0
	pcaddu18i	$ra, %call36(_ZNK7Results13NumIterationsEv)
	jirl	$ra, $ra, 0
	fmov.d	$fs0, $fa0
	move	$a0, $fp
	move	$a1, $zero
	pcaddu18i	$ra, %call36(_ZNK7Results7GetTimeENS_13BenchmarkTimeE)
	jirl	$ra, $ra, 0
	fmov.d	$fs1, $fa0
	pcalau12i	$a0, %pc_hi20(.L.str.5)
	addi.d	$a0, $a0, %pc_lo12(.L.str.5)
	ld.h	$s4, $a0, 0
	ld.b	$s5, $a0, 2
	addi.d	$s0, $sp, 160
	st.d	$s0, $sp, 144
	st.h	$s4, $sp, 160
	st.b	$s5, $sp, 162
	ori	$a0, $zero, 3
	st.d	$a0, $sp, 152
	st.b	$zero, $sp, 163
.Ltmp174:
	addi.d	$a1, $sp, 144
	move	$a0, $fp
	pcaddu18i	$ra, %call36(_ZNK7Results5GetAsIdEET_RKNSt7__cxx1112basic_stringIcSt11char_traitsIcESaIcEEE)
	jirl	$ra, $ra, 0
.Ltmp175:
# %bb.1:
	ftintrz.w.d	$fa0, $fa0
	movfr2gr.s	$s2, $fa0
	ori	$a0, $zero, 1
	bne	$s2, $a0, .LBB8_5
# %bb.2:
	pcalau12i	$a0, %pc_hi20(_ZGVZN9benchmark8internal18GetNullLogInstanceEvE8null_log)
	ld.b	$a0, $a0, %pc_lo12(_ZGVZN9benchmark8internal18GetNullLogInstanceEvE8null_log)
	dbar	20
	pcalau12i	$a1, %pc_hi20(_ZZN9benchmark8internal18GetNullLogInstanceEvE8null_log)
	addi.d	$s3, $a1, %pc_lo12(_ZZN9benchmark8internal18GetNullLogInstanceEvE8null_log)
	bnez	$a0, .LBB8_7
# %bb.3:
	pcalau12i	$a0, %pc_hi20(_ZGVZN9benchmark8internal18GetNullLogInstanceEvE8null_log)
	addi.d	$a0, $a0, %pc_lo12(_ZGVZN9benchmark8internal18GetNullLogInstanceEvE8null_log)
	pcaddu18i	$ra, %call36(__cxa_guard_acquire)
	jirl	$ra, $ra, 0
	addi.w	$a0, $a0, 0
	beqz	$a0, .LBB8_7
# %bb.4:
	pcalau12i	$a0, %pc_hi20(_ZZN9benchmark8internal18GetNullLogInstanceEvE8null_log)
	addi.d	$s3, $a0, %pc_lo12(_ZZN9benchmark8internal18GetNullLogInstanceEvE8null_log)
	st.d	$zero, $s3, 0
	pcalau12i	$a0, %pc_hi20(_ZGVZN9benchmark8internal18GetNullLogInstanceEvE8null_log)
	addi.d	$a0, $a0, %pc_lo12(_ZGVZN9benchmark8internal18GetNullLogInstanceEvE8null_log)
	pcaddu18i	$ra, %call36(__cxa_guard_release)
	jirl	$ra, $ra, 0
	b	.LBB8_7
.LBB8_5:
.Ltmp177:
	pcalau12i	$a0, %pc_hi20(.L.str.29)
	addi.d	$a1, $a0, %pc_lo12(.L.str.29)
	pcalau12i	$a0, %pc_hi20(.L.str.30)
	addi.d	$a2, $a0, %pc_lo12(.L.str.30)
	pcalau12i	$a0, %pc_hi20(.L__func__._Z22CheckBytesAndItemsPSecRK7Results)
	addi.d	$a3, $a0, %pc_lo12(.L__func__._Z22CheckBytesAndItemsPSecRK7Results)
	addi.d	$a0, $sp, 136
	ori	$a4, $zero, 106
	pcaddu18i	$ra, %call36(_ZN9benchmark8internal12CheckHandlerC2EPKcS3_S3_i)
	jirl	$ra, $ra, 0
.Ltmp178:
# %bb.6:
	ld.d	$s3, $sp, 136
.LBB8_7:                                # %_ZN9benchmark8internal18GetNullLogInstanceEv.exit
	ld.d	$a0, $s3, 0
	beqz	$a0, .LBB8_39
# %bb.8:
.Ltmp179:
	pcalau12i	$a1, %pc_hi20(.L.str.31)
	addi.d	$a1, $a1, %pc_lo12(.L.str.31)
	ori	$a2, $zero, 1
	pcaddu18i	$ra, %call36(_ZSt16__ostream_insertIcSt11char_traitsIcEERSt13basic_ostreamIT_T0_ES6_PKS3_l)
	jirl	$ra, $ra, 0
.Ltmp180:
# %bb.9:                                # %_ZN9benchmark8internallsIA2_cEERNS0_7LogTypeES4_RKT_.exit
	ld.d	$a0, $s3, 0
	beqz	$a0, .LBB8_39
# %bb.10:
.Ltmp181:
	pcalau12i	$a1, %pc_hi20(.L.str.30)
	addi.d	$a1, $a1, %pc_lo12(.L.str.30)
	ori	$a2, $zero, 131
	pcaddu18i	$ra, %call36(_ZSt16__ostream_insertIcSt11char_traitsIcEERSt13basic_ostreamIT_T0_ES6_PKS3_l)
	jirl	$ra, $ra, 0
.Ltmp182:
# %bb.11:                               # %_ZN9benchmark8internallsIA132_cEERNS0_7LogTypeES4_RKT_.exit
	ld.d	$a0, $s3, 0
	beqz	$a0, .LBB8_39
# %bb.12:
.Ltmp183:
	pcalau12i	$a1, %pc_hi20(.L.str.32)
	addi.d	$a1, $a1, %pc_lo12(.L.str.32)
	ori	$a2, $zero, 1
	pcaddu18i	$ra, %call36(_ZSt16__ostream_insertIcSt11char_traitsIcEERSt13basic_ostreamIT_T0_ES6_PKS3_l)
	jirl	$ra, $ra, 0
.Ltmp184:
# %bb.13:                               # %_ZN9benchmark8internallsIA2_cEERNS0_7LogTypeES4_RKT_.exit178
	ld.d	$a0, $s3, 0
	beqz	$a0, .LBB8_39
# %bb.14:
.Ltmp186:
	ori	$a1, $zero, 106
	pcaddu18i	$ra, %call36(_ZNSolsEi)
	jirl	$ra, $ra, 0
.Ltmp187:
# %bb.15:                               # %_ZN9benchmark8internallsIiEERNS0_7LogTypeES3_RKT_.exit
	ld.d	$a0, $s3, 0
	beqz	$a0, .LBB8_39
# %bb.16:
.Ltmp188:
	pcalau12i	$a1, %pc_hi20(.L.str.33)
	addi.d	$a1, $a1, %pc_lo12(.L.str.33)
	ori	$a2, $zero, 2
	pcaddu18i	$ra, %call36(_ZSt16__ostream_insertIcSt11char_traitsIcEERSt13basic_ostreamIT_T0_ES6_PKS3_l)
	jirl	$ra, $ra, 0
.Ltmp189:
# %bb.17:                               # %_ZN9benchmark8internallsIA3_cEERNS0_7LogTypeES4_RKT_.exit
	ld.d	$a0, $s3, 0
	beqz	$a0, .LBB8_39
# %bb.18:
	ld.d	$a1, $fp, 0
	ld.d	$a2, $fp, 8
.Ltmp190:
	pcaddu18i	$ra, %call36(_ZSt16__ostream_insertIcSt11char_traitsIcEERSt13basic_ostreamIT_T0_ES6_PKS3_l)
	jirl	$ra, $ra, 0
.Ltmp191:
# %bb.19:                               # %_ZN9benchmark8internallsINSt7__cxx1112basic_stringIcSt11char_traitsIcESaIcEEEEERNS0_7LogTypeES9_RKT_.exit
	ld.d	$a0, $s3, 0
	beqz	$a0, .LBB8_39
# %bb.20:
.Ltmp192:
	pcalau12i	$a1, %pc_hi20(.L.str.34)
	addi.d	$a1, $a1, %pc_lo12(.L.str.34)
	ori	$a2, $zero, 2
	pcaddu18i	$ra, %call36(_ZSt16__ostream_insertIcSt11char_traitsIcEERSt13basic_ostreamIT_T0_ES6_PKS3_l)
	jirl	$ra, $ra, 0
.Ltmp193:
# %bb.21:                               # %_ZN9benchmark8internallsIA3_cEERNS0_7LogTypeES4_RKT_.exit187
	ld.d	$a0, $s3, 0
	beqz	$a0, .LBB8_39
# %bb.22:
.Ltmp194:
	pcalau12i	$a1, %pc_hi20(.L.str.30)
	addi.d	$a1, $a1, %pc_lo12(.L.str.30)
	ori	$a2, $zero, 131
	pcaddu18i	$ra, %call36(_ZSt16__ostream_insertIcSt11char_traitsIcEERSt13basic_ostreamIT_T0_ES6_PKS3_l)
	jirl	$ra, $ra, 0
.Ltmp195:
# %bb.23:                               # %_ZN9benchmark8internallsIA132_cEERNS0_7LogTypeES4_RKT_.exit190
	ld.d	$a0, $s3, 0
	beqz	$a0, .LBB8_39
# %bb.24:
.Ltmp196:
	pcalau12i	$a1, %pc_hi20(.L.str.32)
	addi.d	$a1, $a1, %pc_lo12(.L.str.32)
	ori	$a2, $zero, 1
	pcaddu18i	$ra, %call36(_ZSt16__ostream_insertIcSt11char_traitsIcEERSt13basic_ostreamIT_T0_ES6_PKS3_l)
	jirl	$ra, $ra, 0
.Ltmp197:
# %bb.25:                               # %_ZN9benchmark8internallsIA2_cEERNS0_7LogTypeES4_RKT_.exit193
	ld.d	$a0, $s3, 0
	beqz	$a0, .LBB8_39
# %bb.26:
.Ltmp199:
	ori	$a1, $zero, 106
	pcaddu18i	$ra, %call36(_ZNSolsEi)
	jirl	$ra, $ra, 0
.Ltmp200:
# %bb.27:                               # %_ZN9benchmark8internallsIiEERNS0_7LogTypeES3_RKT_.exit196
	ld.d	$a0, $s3, 0
	beqz	$a0, .LBB8_39
# %bb.28:
.Ltmp201:
	pcalau12i	$a1, %pc_hi20(.L.str.33)
	addi.d	$a1, $a1, %pc_lo12(.L.str.33)
	ori	$a2, $zero, 2
	pcaddu18i	$ra, %call36(_ZSt16__ostream_insertIcSt11char_traitsIcEERSt13basic_ostreamIT_T0_ES6_PKS3_l)
	jirl	$ra, $ra, 0
.Ltmp202:
# %bb.29:                               # %_ZN9benchmark8internallsIA3_cEERNS0_7LogTypeES4_RKT_.exit199
	ld.d	$a0, $s3, 0
	beqz	$a0, .LBB8_39
# %bb.30:
.Ltmp203:
	pcalau12i	$a1, %pc_hi20(.L.str.35)
	addi.d	$a1, $a1, %pc_lo12(.L.str.35)
	ori	$a2, $zero, 10
	pcaddu18i	$ra, %call36(_ZSt16__ostream_insertIcSt11char_traitsIcEERSt13basic_ostreamIT_T0_ES6_PKS3_l)
	jirl	$ra, $ra, 0
.Ltmp204:
# %bb.31:                               # %_ZN9benchmark8internallsIA11_cEERNS0_7LogTypeES4_RKT_.exit
	ld.d	$a0, $s3, 0
	beqz	$a0, .LBB8_39
# %bb.32:
.Ltmp205:
	pcalau12i	$a1, %pc_hi20(.L.str.36)
	addi.d	$a1, $a1, %pc_lo12(.L.str.36)
	ori	$a2, $zero, 3
	pcaddu18i	$ra, %call36(_ZSt16__ostream_insertIcSt11char_traitsIcEERSt13basic_ostreamIT_T0_ES6_PKS3_l)
	jirl	$ra, $ra, 0
.Ltmp206:
# %bb.33:                               # %_ZN9benchmark8internallsIA4_cEERNS0_7LogTypeES4_RKT_.exit
	ld.d	$a0, $s3, 0
	beqz	$a0, .LBB8_39
# %bb.34:
.Ltmp207:
	pcalau12i	$a1, %pc_hi20(.L.str.37)
	addi.d	$a1, $a1, %pc_lo12(.L.str.37)
	ori	$a2, $zero, 1
	pcaddu18i	$ra, %call36(_ZSt16__ostream_insertIcSt11char_traitsIcEERSt13basic_ostreamIT_T0_ES6_PKS3_l)
	jirl	$ra, $ra, 0
.Ltmp208:
# %bb.35:                               # %_ZN9benchmark8internallsIA2_cEERNS0_7LogTypeES4_RKT_.exit206
	ld.d	$a0, $s3, 0
	beqz	$a0, .LBB8_39
# %bb.36:
.Ltmp209:
	pcalau12i	$a1, %pc_hi20(.L.str.5)
	addi.d	$a1, $a1, %pc_lo12(.L.str.5)
	ori	$a2, $zero, 3
	pcaddu18i	$ra, %call36(_ZSt16__ostream_insertIcSt11char_traitsIcEERSt13basic_ostreamIT_T0_ES6_PKS3_l)
	jirl	$ra, $ra, 0
.Ltmp210:
# %bb.37:                               # %_ZN9benchmark8internallsIA4_cEERNS0_7LogTypeES4_RKT_.exit209
	ld.d	$a0, $s3, 0
	beqz	$a0, .LBB8_39
# %bb.38:
.Ltmp211:
	pcalau12i	$a1, %pc_hi20(.L.str.38)
	addi.d	$a1, $a1, %pc_lo12(.L.str.38)
	ori	$a2, $zero, 1
	pcaddu18i	$ra, %call36(_ZSt16__ostream_insertIcSt11char_traitsIcEERSt13basic_ostreamIT_T0_ES6_PKS3_l)
	jirl	$ra, $ra, 0
.Ltmp212:
.LBB8_39:                               # %_ZN9benchmark8internallsIA2_cEERNS0_7LogTypeES4_RKT_.exit212
	addi.d	$s1, $sp, 120
	st.d	$s1, $sp, 104
	st.h	$s4, $sp, 120
	st.b	$s5, $sp, 122
	ori	$a0, $zero, 3
	st.d	$a0, $sp, 112
	st.b	$zero, $sp, 123
.Ltmp214:
	addi.d	$a1, $sp, 104
	move	$a0, $fp
	pcaddu18i	$ra, %call36(_ZNK7Results5GetAsIdEET_RKNSt7__cxx1112basic_stringIcSt11char_traitsIcESaIcEEE)
	jirl	$ra, $ra, 0
.Ltmp215:
# %bb.40:
	ld.d	$a0, $s3, 0
	beqz	$a0, .LBB8_48
# %bb.41:
	ftintrz.w.d	$fa0, $fa0
	movfr2gr.s	$a1, $fa0
.Ltmp216:
	pcaddu18i	$ra, %call36(_ZNSolsEi)
	jirl	$ra, $ra, 0
.Ltmp217:
# %bb.42:                               # %_ZN9benchmark8internallsIiEERNS0_7LogTypeES3_RKT_.exit221
	ld.d	$a0, $s3, 0
	beqz	$a0, .LBB8_48
# %bb.43:
.Ltmp218:
	pcalau12i	$a1, %pc_hi20(.L.str.39)
	addi.d	$a1, $a1, %pc_lo12(.L.str.39)
	ori	$a2, $zero, 13
	pcaddu18i	$ra, %call36(_ZSt16__ostream_insertIcSt11char_traitsIcEERSt13basic_ostreamIT_T0_ES6_PKS3_l)
	jirl	$ra, $ra, 0
.Ltmp219:
# %bb.44:                               # %_ZN9benchmark8internallsIA14_cEERNS0_7LogTypeES4_RKT_.exit
	ld.d	$a0, $s3, 0
	beqz	$a0, .LBB8_48
# %bb.45:
.Ltmp221:
	ori	$a1, $zero, 1
	pcaddu18i	$ra, %call36(_ZNSolsEi)
	jirl	$ra, $ra, 0
.Ltmp222:
# %bb.46:                               # %_ZN9benchmark8internallsIiEERNS0_7LogTypeES3_RKT_.exit226
	ld.d	$a0, $s3, 0
	beqz	$a0, .LBB8_48
# %bb.47:
.Ltmp223:
	pcalau12i	$a1, %pc_hi20(.L.str.31)
	addi.d	$a1, $a1, %pc_lo12(.L.str.31)
	ori	$a2, $zero, 1
	pcaddu18i	$ra, %call36(_ZSt16__ostream_insertIcSt11char_traitsIcEERSt13basic_ostreamIT_T0_ES6_PKS3_l)
	jirl	$ra, $ra, 0
.Ltmp224:
.LBB8_48:                               # %_ZN9benchmark8internallsIA2_cEERNS0_7LogTypeES4_RKT_.exit229
	ld.d	$a0, $sp, 104
	beq	$a0, $s1, .LBB8_50
# %bb.49:                               # %_ZNKSt7__cxx1112basic_stringIcSt11char_traitsIcESaIcEE11_M_is_localEv.exit.i.i
	ld.d	$a1, $sp, 120
	addi.d	$a1, $a1, 1
	pcaddu18i	$ra, %call36(_ZdlPvm)
	jirl	$ra, $ra, 0
.LBB8_50:                               # %_ZNSt7__cxx1112basic_stringIcSt11char_traitsIcESaIcEED2Ev.exit
	ori	$a0, $zero, 1
	bne	$s2, $a0, .LBB8_285
# %bb.51:
	ld.d	$a0, $sp, 144
	beq	$a0, $s0, .LBB8_53
# %bb.52:                               # %_ZNKSt7__cxx1112basic_stringIcSt11char_traitsIcESaIcEE11_M_is_localEv.exit.i.i233
	ld.d	$a1, $sp, 160
	addi.d	$a1, $a1, 1
	pcaddu18i	$ra, %call36(_ZdlPvm)
	jirl	$ra, $ra, 0
.LBB8_53:                               # %_ZNSt7__cxx1112basic_stringIcSt11char_traitsIcESaIcEED2Ev.exit235
	pcalau12i	$a0, %pc_hi20(.L.str.6)
	addi.d	$a0, $a0, %pc_lo12(.L.str.6)
	ld.h	$s6, $a0, 0
	ld.b	$s7, $a0, 2
	st.d	$s0, $sp, 144
	st.h	$s6, $sp, 160
	st.b	$s7, $sp, 162
	ori	$a0, $zero, 3
	st.d	$a0, $sp, 152
	st.b	$zero, $sp, 163
.Ltmp229:
	addi.d	$a1, $sp, 144
	move	$a0, $fp
	pcaddu18i	$ra, %call36(_ZNK7Results5GetAsIdEET_RKNSt7__cxx1112basic_stringIcSt11char_traitsIcESaIcEEE)
	jirl	$ra, $ra, 0
.Ltmp230:
# %bb.54:
	pcalau12i	$s4, %pc_hi20(_ZN12_GLOBAL__N_110num_calls1E)
	ld.w	$s2, $s4, %pc_lo12(_ZN12_GLOBAL__N_110num_calls1E)
	ftintrz.w.d	$fa0, $fa0
	movfr2gr.s	$s3, $fa0
	bne	$s2, $s3, .LBB8_58
# %bb.55:
	pcalau12i	$a0, %pc_hi20(_ZGVZN9benchmark8internal18GetNullLogInstanceEvE8null_log)
	ld.b	$a0, $a0, %pc_lo12(_ZGVZN9benchmark8internal18GetNullLogInstanceEvE8null_log)
	dbar	20
	pcalau12i	$a1, %pc_hi20(_ZZN9benchmark8internal18GetNullLogInstanceEvE8null_log)
	addi.d	$s5, $a1, %pc_lo12(_ZZN9benchmark8internal18GetNullLogInstanceEvE8null_log)
	bnez	$a0, .LBB8_60
# %bb.56:
	pcalau12i	$a0, %pc_hi20(_ZGVZN9benchmark8internal18GetNullLogInstanceEvE8null_log)
	addi.d	$a0, $a0, %pc_lo12(_ZGVZN9benchmark8internal18GetNullLogInstanceEvE8null_log)
	pcaddu18i	$ra, %call36(__cxa_guard_acquire)
	jirl	$ra, $ra, 0
	addi.w	$a0, $a0, 0
	beqz	$a0, .LBB8_60
# %bb.57:
	pcalau12i	$a0, %pc_hi20(_ZZN9benchmark8internal18GetNullLogInstanceEvE8null_log)
	addi.d	$s5, $a0, %pc_lo12(_ZZN9benchmark8internal18GetNullLogInstanceEvE8null_log)
	st.d	$zero, $s5, 0
	pcalau12i	$a0, %pc_hi20(_ZGVZN9benchmark8internal18GetNullLogInstanceEvE8null_log)
	addi.d	$a0, $a0, %pc_lo12(_ZGVZN9benchmark8internal18GetNullLogInstanceEvE8null_log)
	pcaddu18i	$ra, %call36(__cxa_guard_release)
	jirl	$ra, $ra, 0
	b	.LBB8_60
.LBB8_58:
.Ltmp232:
	pcalau12i	$a0, %pc_hi20(.L.str.61)
	addi.d	$a1, $a0, %pc_lo12(.L.str.61)
	pcalau12i	$a0, %pc_hi20(.L.str.30)
	addi.d	$a2, $a0, %pc_lo12(.L.str.30)
	pcalau12i	$a0, %pc_hi20(.L__func__._Z22CheckBytesAndItemsPSecRK7Results)
	addi.d	$a3, $a0, %pc_lo12(.L__func__._Z22CheckBytesAndItemsPSecRK7Results)
	addi.d	$a0, $sp, 96
	ori	$a4, $zero, 107
	pcaddu18i	$ra, %call36(_ZN9benchmark8internal12CheckHandlerC2EPKcS3_S3_i)
	jirl	$ra, $ra, 0
.Ltmp233:
# %bb.59:
	ld.d	$s5, $sp, 96
.LBB8_60:                               # %_ZN9benchmark8internal18GetNullLogInstanceEv.exit243
	ld.d	$a0, $s5, 0
	beqz	$a0, .LBB8_92
# %bb.61:
.Ltmp234:
	pcalau12i	$a1, %pc_hi20(.L.str.31)
	addi.d	$a1, $a1, %pc_lo12(.L.str.31)
	ori	$a2, $zero, 1
	pcaddu18i	$ra, %call36(_ZSt16__ostream_insertIcSt11char_traitsIcEERSt13basic_ostreamIT_T0_ES6_PKS3_l)
	jirl	$ra, $ra, 0
.Ltmp235:
# %bb.62:                               # %_ZN9benchmark8internallsIA2_cEERNS0_7LogTypeES4_RKT_.exit246
	ld.d	$a0, $s5, 0
	beqz	$a0, .LBB8_92
# %bb.63:
.Ltmp236:
	pcalau12i	$a1, %pc_hi20(.L.str.30)
	addi.d	$a1, $a1, %pc_lo12(.L.str.30)
	ori	$a2, $zero, 131
	pcaddu18i	$ra, %call36(_ZSt16__ostream_insertIcSt11char_traitsIcEERSt13basic_ostreamIT_T0_ES6_PKS3_l)
	jirl	$ra, $ra, 0
.Ltmp237:
# %bb.64:                               # %_ZN9benchmark8internallsIA132_cEERNS0_7LogTypeES4_RKT_.exit249
	ld.d	$a0, $s5, 0
	beqz	$a0, .LBB8_92
# %bb.65:
.Ltmp238:
	pcalau12i	$a1, %pc_hi20(.L.str.32)
	addi.d	$a1, $a1, %pc_lo12(.L.str.32)
	ori	$a2, $zero, 1
	pcaddu18i	$ra, %call36(_ZSt16__ostream_insertIcSt11char_traitsIcEERSt13basic_ostreamIT_T0_ES6_PKS3_l)
	jirl	$ra, $ra, 0
.Ltmp239:
# %bb.66:                               # %_ZN9benchmark8internallsIA2_cEERNS0_7LogTypeES4_RKT_.exit252
	ld.d	$a0, $s5, 0
	beqz	$a0, .LBB8_92
# %bb.67:
.Ltmp241:
	ori	$a1, $zero, 107
	pcaddu18i	$ra, %call36(_ZNSolsEi)
	jirl	$ra, $ra, 0
.Ltmp242:
# %bb.68:                               # %_ZN9benchmark8internallsIiEERNS0_7LogTypeES3_RKT_.exit255
	ld.d	$a0, $s5, 0
	beqz	$a0, .LBB8_92
# %bb.69:
.Ltmp243:
	pcalau12i	$a1, %pc_hi20(.L.str.33)
	addi.d	$a1, $a1, %pc_lo12(.L.str.33)
	ori	$a2, $zero, 2
	pcaddu18i	$ra, %call36(_ZSt16__ostream_insertIcSt11char_traitsIcEERSt13basic_ostreamIT_T0_ES6_PKS3_l)
	jirl	$ra, $ra, 0
.Ltmp244:
# %bb.70:                               # %_ZN9benchmark8internallsIA3_cEERNS0_7LogTypeES4_RKT_.exit258
	ld.d	$a0, $s5, 0
	beqz	$a0, .LBB8_92
# %bb.71:
	ld.d	$a1, $fp, 0
	ld.d	$a2, $fp, 8
.Ltmp245:
	pcaddu18i	$ra, %call36(_ZSt16__ostream_insertIcSt11char_traitsIcEERSt13basic_ostreamIT_T0_ES6_PKS3_l)
	jirl	$ra, $ra, 0
.Ltmp246:
# %bb.72:                               # %_ZN9benchmark8internallsINSt7__cxx1112basic_stringIcSt11char_traitsIcESaIcEEEEERNS0_7LogTypeES9_RKT_.exit261
	ld.d	$a0, $s5, 0
	beqz	$a0, .LBB8_92
# %bb.73:
.Ltmp247:
	pcalau12i	$a1, %pc_hi20(.L.str.34)
	addi.d	$a1, $a1, %pc_lo12(.L.str.34)
	ori	$a2, $zero, 2
	pcaddu18i	$ra, %call36(_ZSt16__ostream_insertIcSt11char_traitsIcEERSt13basic_ostreamIT_T0_ES6_PKS3_l)
	jirl	$ra, $ra, 0
.Ltmp248:
# %bb.74:                               # %_ZN9benchmark8internallsIA3_cEERNS0_7LogTypeES4_RKT_.exit264
	ld.d	$a0, $s5, 0
	beqz	$a0, .LBB8_92
# %bb.75:
.Ltmp249:
	pcalau12i	$a1, %pc_hi20(.L.str.30)
	addi.d	$a1, $a1, %pc_lo12(.L.str.30)
	ori	$a2, $zero, 131
	pcaddu18i	$ra, %call36(_ZSt16__ostream_insertIcSt11char_traitsIcEERSt13basic_ostreamIT_T0_ES6_PKS3_l)
	jirl	$ra, $ra, 0
.Ltmp250:
# %bb.76:                               # %_ZN9benchmark8internallsIA132_cEERNS0_7LogTypeES4_RKT_.exit267
	ld.d	$a0, $s5, 0
	beqz	$a0, .LBB8_92
# %bb.77:
.Ltmp251:
	pcalau12i	$a1, %pc_hi20(.L.str.32)
	addi.d	$a1, $a1, %pc_lo12(.L.str.32)
	ori	$a2, $zero, 1
	pcaddu18i	$ra, %call36(_ZSt16__ostream_insertIcSt11char_traitsIcEERSt13basic_ostreamIT_T0_ES6_PKS3_l)
	jirl	$ra, $ra, 0
.Ltmp252:
# %bb.78:                               # %_ZN9benchmark8internallsIA2_cEERNS0_7LogTypeES4_RKT_.exit270
	ld.d	$a0, $s5, 0
	beqz	$a0, .LBB8_92
# %bb.79:
.Ltmp254:
	ori	$a1, $zero, 107
	pcaddu18i	$ra, %call36(_ZNSolsEi)
	jirl	$ra, $ra, 0
.Ltmp255:
# %bb.80:                               # %_ZN9benchmark8internallsIiEERNS0_7LogTypeES3_RKT_.exit273
	ld.d	$a0, $s5, 0
	beqz	$a0, .LBB8_92
# %bb.81:
.Ltmp256:
	pcalau12i	$a1, %pc_hi20(.L.str.33)
	addi.d	$a1, $a1, %pc_lo12(.L.str.33)
	ori	$a2, $zero, 2
	pcaddu18i	$ra, %call36(_ZSt16__ostream_insertIcSt11char_traitsIcEERSt13basic_ostreamIT_T0_ES6_PKS3_l)
	jirl	$ra, $ra, 0
.Ltmp257:
# %bb.82:                               # %_ZN9benchmark8internallsIA3_cEERNS0_7LogTypeES4_RKT_.exit276
	ld.d	$a0, $s5, 0
	beqz	$a0, .LBB8_92
# %bb.83:
.Ltmp258:
	pcalau12i	$a1, %pc_hi20(.L.str.35)
	addi.d	$a1, $a1, %pc_lo12(.L.str.35)
	ori	$a2, $zero, 10
	pcaddu18i	$ra, %call36(_ZSt16__ostream_insertIcSt11char_traitsIcEERSt13basic_ostreamIT_T0_ES6_PKS3_l)
	jirl	$ra, $ra, 0
.Ltmp259:
# %bb.84:                               # %_ZN9benchmark8internallsIA11_cEERNS0_7LogTypeES4_RKT_.exit279
	ld.d	$a0, $s5, 0
	beqz	$a0, .LBB8_92
# %bb.85:
.Ltmp260:
	pcalau12i	$a1, %pc_hi20(.L.str.36)
	addi.d	$a1, $a1, %pc_lo12(.L.str.36)
	ori	$a2, $zero, 3
	pcaddu18i	$ra, %call36(_ZSt16__ostream_insertIcSt11char_traitsIcEERSt13basic_ostreamIT_T0_ES6_PKS3_l)
	jirl	$ra, $ra, 0
.Ltmp261:
# %bb.86:                               # %_ZN9benchmark8internallsIA4_cEERNS0_7LogTypeES4_RKT_.exit282
	ld.d	$a0, $s5, 0
	beqz	$a0, .LBB8_92
# %bb.87:
.Ltmp262:
	pcalau12i	$a1, %pc_hi20(.L.str.37)
	addi.d	$a1, $a1, %pc_lo12(.L.str.37)
	ori	$a2, $zero, 1
	pcaddu18i	$ra, %call36(_ZSt16__ostream_insertIcSt11char_traitsIcEERSt13basic_ostreamIT_T0_ES6_PKS3_l)
	jirl	$ra, $ra, 0
.Ltmp263:
# %bb.88:                               # %_ZN9benchmark8internallsIA2_cEERNS0_7LogTypeES4_RKT_.exit285
	ld.d	$a0, $s5, 0
	beqz	$a0, .LBB8_92
# %bb.89:
.Ltmp264:
	pcalau12i	$a1, %pc_hi20(.L.str.6)
	addi.d	$a1, $a1, %pc_lo12(.L.str.6)
	ori	$a2, $zero, 3
	pcaddu18i	$ra, %call36(_ZSt16__ostream_insertIcSt11char_traitsIcEERSt13basic_ostreamIT_T0_ES6_PKS3_l)
	jirl	$ra, $ra, 0
.Ltmp265:
# %bb.90:                               # %_ZN9benchmark8internallsIA4_cEERNS0_7LogTypeES4_RKT_.exit288
	ld.d	$a0, $s5, 0
	beqz	$a0, .LBB8_92
# %bb.91:
.Ltmp266:
	pcalau12i	$a1, %pc_hi20(.L.str.38)
	addi.d	$a1, $a1, %pc_lo12(.L.str.38)
	ori	$a2, $zero, 1
	pcaddu18i	$ra, %call36(_ZSt16__ostream_insertIcSt11char_traitsIcEERSt13basic_ostreamIT_T0_ES6_PKS3_l)
	jirl	$ra, $ra, 0
.Ltmp267:
.LBB8_92:                               # %_ZN9benchmark8internallsIA2_cEERNS0_7LogTypeES4_RKT_.exit291
	st.d	$s1, $sp, 104
	st.h	$s6, $sp, 120
	st.b	$s7, $sp, 122
	ori	$a0, $zero, 3
	st.d	$a0, $sp, 112
	st.b	$zero, $sp, 123
.Ltmp269:
	addi.d	$a1, $sp, 104
	move	$a0, $fp
	pcaddu18i	$ra, %call36(_ZNK7Results5GetAsIdEET_RKNSt7__cxx1112basic_stringIcSt11char_traitsIcESaIcEEE)
	jirl	$ra, $ra, 0
.Ltmp270:
# %bb.93:
	ld.d	$a0, $s5, 0
	beqz	$a0, .LBB8_101
# %bb.94:
	ftintrz.w.d	$fa0, $fa0
	movfr2gr.s	$a1, $fa0
.Ltmp271:
	pcaddu18i	$ra, %call36(_ZNSolsEi)
	jirl	$ra, $ra, 0
.Ltmp272:
# %bb.95:                               # %_ZN9benchmark8internallsIiEERNS0_7LogTypeES3_RKT_.exit300
	ld.d	$a0, $s5, 0
	beqz	$a0, .LBB8_101
# %bb.96:
.Ltmp273:
	pcalau12i	$a1, %pc_hi20(.L.str.39)
	addi.d	$a1, $a1, %pc_lo12(.L.str.39)
	ori	$a2, $zero, 13
	pcaddu18i	$ra, %call36(_ZSt16__ostream_insertIcSt11char_traitsIcEERSt13basic_ostreamIT_T0_ES6_PKS3_l)
	jirl	$ra, $ra, 0
.Ltmp274:
# %bb.97:                               # %_ZN9benchmark8internallsIA14_cEERNS0_7LogTypeES4_RKT_.exit303
	ld.d	$a0, $s5, 0
	beqz	$a0, .LBB8_101
# %bb.98:
	ld.w	$a1, $s4, %pc_lo12(_ZN12_GLOBAL__N_110num_calls1E)
.Ltmp275:
	pcaddu18i	$ra, %call36(_ZNSolsEi)
	jirl	$ra, $ra, 0
.Ltmp276:
# %bb.99:                               # %_ZN9benchmark8internallsIiEERNS0_7LogTypeES3_RKT_.exit306
	ld.d	$a0, $s5, 0
	beqz	$a0, .LBB8_101
# %bb.100:
.Ltmp277:
	pcalau12i	$a1, %pc_hi20(.L.str.31)
	addi.d	$a1, $a1, %pc_lo12(.L.str.31)
	ori	$a2, $zero, 1
	pcaddu18i	$ra, %call36(_ZSt16__ostream_insertIcSt11char_traitsIcEERSt13basic_ostreamIT_T0_ES6_PKS3_l)
	jirl	$ra, $ra, 0
.Ltmp278:
.LBB8_101:                              # %_ZN9benchmark8internallsIA2_cEERNS0_7LogTypeES4_RKT_.exit309
	ld.d	$a0, $sp, 104
	beq	$a0, $s1, .LBB8_103
# %bb.102:                              # %_ZNKSt7__cxx1112basic_stringIcSt11char_traitsIcESaIcEE11_M_is_localEv.exit.i.i310
	ld.d	$a1, $sp, 120
	addi.d	$a1, $a1, 1
	pcaddu18i	$ra, %call36(_ZdlPvm)
	jirl	$ra, $ra, 0
.LBB8_103:                              # %_ZNSt7__cxx1112basic_stringIcSt11char_traitsIcESaIcEED2Ev.exit312
	bne	$s2, $s3, .LBB8_287
# %bb.104:
	ld.d	$a0, $sp, 144
	beq	$a0, $s0, .LBB8_106
# %bb.105:                              # %_ZNKSt7__cxx1112basic_stringIcSt11char_traitsIcESaIcEE11_M_is_localEv.exit.i.i319
	ld.d	$a1, $sp, 160
	addi.d	$a1, $a1, 1
	pcaddu18i	$ra, %call36(_ZdlPvm)
	jirl	$ra, $ra, 0
.LBB8_106:                              # %_ZNSt7__cxx1112basic_stringIcSt11char_traitsIcESaIcEED2Ev.exit321
	st.d	$s0, $sp, 144
	ori	$a0, $zero, 16
	st.d	$a0, $sp, 104
.Ltmp283:
	addi.d	$a0, $sp, 144
	addi.d	$a1, $sp, 104
	move	$a2, $zero
	pcaddu18i	$ra, %call36(_ZNSt7__cxx1112basic_stringIcSt11char_traitsIcESaIcEE9_M_createERmm)
	jirl	$ra, $ra, 0
.Ltmp284:
# %bb.107:                              # %.noexc324
	ld.d	$a1, $sp, 104
	pcalau12i	$s4, %pc_hi20(.L.str.62)
	vld	$vr0, $s4, %pc_lo12(.L.str.62)
	st.d	$a0, $sp, 144
	st.d	$a1, $sp, 160
	vst	$vr0, $a0, 0
	ld.d	$a0, $sp, 144
	st.d	$a1, $sp, 152
	stx.b	$zero, $a0, $a1
.Ltmp286:
	addi.d	$a1, $sp, 144
	move	$a0, $fp
	pcaddu18i	$ra, %call36(_ZNK7Results5GetAsIdEET_RKNSt7__cxx1112basic_stringIcSt11char_traitsIcESaIcEEE)
	jirl	$ra, $ra, 0
.Ltmp287:
# %bb.108:
	pcalau12i	$a0, %pc_hi20(.LCPI8_0)
	fld.d	$fa1, $a0, %pc_lo12(.LCPI8_0)
	fmul.d	$fs2, $fs0, $fs1
	pcalau12i	$a0, %pc_hi20(.LCPI8_1)
	fld.d	$fs3, $a0, %pc_lo12(.LCPI8_1)
	fdiv.d	$fs1, $fa1, $fs2
	fsub.d	$fa0, $fa0, $fs1
	fabs.d	$fs4, $fa0
	fmul.d	$fs0, $fs1, $fs3
	fcmp.cule.d	$fcc0, $fs0, $fs4
	movcf2gr	$a0, $fcc0
	st.d	$a0, $sp, 8
	bceqz	$fcc0, .LBB8_111
# %bb.109:
.Ltmp289:
	pcalau12i	$a0, %pc_hi20(.L.str.63)
	addi.d	$a1, $a0, %pc_lo12(.L.str.63)
	pcalau12i	$a0, %pc_hi20(.L.str.30)
	addi.d	$a2, $a0, %pc_lo12(.L.str.30)
	pcalau12i	$a0, %pc_hi20(.L__func__._Z22CheckBytesAndItemsPSecRK7Results)
	addi.d	$a3, $a0, %pc_lo12(.L__func__._Z22CheckBytesAndItemsPSecRK7Results)
	addi.d	$a0, $sp, 88
	ori	$a4, $zero, 109
	pcaddu18i	$ra, %call36(_ZN9benchmark8internal12CheckHandlerC2EPKcS3_S3_i)
	jirl	$ra, $ra, 0
.Ltmp290:
# %bb.110:
	ld.d	$s6, $sp, 88
	b	.LBB8_112
.LBB8_111:
	pcalau12i	$a0, %pc_hi20(_ZGVZN9benchmark8internal18GetNullLogInstanceEvE8null_log)
	ld.b	$a0, $a0, %pc_lo12(_ZGVZN9benchmark8internal18GetNullLogInstanceEvE8null_log)
	dbar	20
	pcalau12i	$a1, %pc_hi20(_ZZN9benchmark8internal18GetNullLogInstanceEvE8null_log)
	addi.d	$s6, $a1, %pc_lo12(_ZZN9benchmark8internal18GetNullLogInstanceEvE8null_log)
	beqz	$a0, .LBB8_293
.LBB8_112:                              # %_ZN9benchmark8internal18GetNullLogInstanceEv.exit327
	ld.d	$a0, $s6, 0
	beqz	$a0, .LBB8_144
# %bb.113:
.Ltmp291:
	pcalau12i	$a1, %pc_hi20(.L.str.31)
	addi.d	$a1, $a1, %pc_lo12(.L.str.31)
	ori	$a2, $zero, 1
	pcaddu18i	$ra, %call36(_ZSt16__ostream_insertIcSt11char_traitsIcEERSt13basic_ostreamIT_T0_ES6_PKS3_l)
	jirl	$ra, $ra, 0
.Ltmp292:
# %bb.114:                              # %_ZN9benchmark8internallsIA2_cEERNS0_7LogTypeES4_RKT_.exit330
	ld.d	$a0, $s6, 0
	beqz	$a0, .LBB8_144
# %bb.115:
.Ltmp293:
	pcalau12i	$a1, %pc_hi20(.L.str.30)
	addi.d	$a1, $a1, %pc_lo12(.L.str.30)
	ori	$a2, $zero, 131
	pcaddu18i	$ra, %call36(_ZSt16__ostream_insertIcSt11char_traitsIcEERSt13basic_ostreamIT_T0_ES6_PKS3_l)
	jirl	$ra, $ra, 0
.Ltmp294:
# %bb.116:                              # %_ZN9benchmark8internallsIA132_cEERNS0_7LogTypeES4_RKT_.exit333
	ld.d	$a0, $s6, 0
	beqz	$a0, .LBB8_144
# %bb.117:
.Ltmp295:
	pcalau12i	$a1, %pc_hi20(.L.str.32)
	addi.d	$a1, $a1, %pc_lo12(.L.str.32)
	ori	$a2, $zero, 1
	pcaddu18i	$ra, %call36(_ZSt16__ostream_insertIcSt11char_traitsIcEERSt13basic_ostreamIT_T0_ES6_PKS3_l)
	jirl	$ra, $ra, 0
.Ltmp296:
# %bb.118:                              # %_ZN9benchmark8internallsIA2_cEERNS0_7LogTypeES4_RKT_.exit336
	ld.d	$a0, $s6, 0
	beqz	$a0, .LBB8_144
# %bb.119:
.Ltmp298:
	ori	$a1, $zero, 109
	pcaddu18i	$ra, %call36(_ZNSolsEi)
	jirl	$ra, $ra, 0
.Ltmp299:
# %bb.120:                              # %_ZN9benchmark8internallsIiEERNS0_7LogTypeES3_RKT_.exit339
	ld.d	$a0, $s6, 0
	beqz	$a0, .LBB8_144
# %bb.121:
.Ltmp300:
	pcalau12i	$a1, %pc_hi20(.L.str.33)
	addi.d	$a1, $a1, %pc_lo12(.L.str.33)
	ori	$a2, $zero, 2
	pcaddu18i	$ra, %call36(_ZSt16__ostream_insertIcSt11char_traitsIcEERSt13basic_ostreamIT_T0_ES6_PKS3_l)
	jirl	$ra, $ra, 0
.Ltmp301:
# %bb.122:                              # %_ZN9benchmark8internallsIA3_cEERNS0_7LogTypeES4_RKT_.exit342
	ld.d	$a0, $s6, 0
	beqz	$a0, .LBB8_144
# %bb.123:
	ld.d	$a1, $fp, 0
	ld.d	$a2, $fp, 8
.Ltmp302:
	pcaddu18i	$ra, %call36(_ZSt16__ostream_insertIcSt11char_traitsIcEERSt13basic_ostreamIT_T0_ES6_PKS3_l)
	jirl	$ra, $ra, 0
.Ltmp303:
# %bb.124:                              # %_ZN9benchmark8internallsINSt7__cxx1112basic_stringIcSt11char_traitsIcESaIcEEEEERNS0_7LogTypeES9_RKT_.exit345
	ld.d	$a0, $s6, 0
	beqz	$a0, .LBB8_144
# %bb.125:
.Ltmp304:
	pcalau12i	$a1, %pc_hi20(.L.str.34)
	addi.d	$a1, $a1, %pc_lo12(.L.str.34)
	ori	$a2, $zero, 2
	pcaddu18i	$ra, %call36(_ZSt16__ostream_insertIcSt11char_traitsIcEERSt13basic_ostreamIT_T0_ES6_PKS3_l)
	jirl	$ra, $ra, 0
.Ltmp305:
# %bb.126:                              # %_ZN9benchmark8internallsIA3_cEERNS0_7LogTypeES4_RKT_.exit348
	ld.d	$a0, $s6, 0
	beqz	$a0, .LBB8_144
# %bb.127:
.Ltmp306:
	pcalau12i	$a1, %pc_hi20(.L.str.30)
	addi.d	$a1, $a1, %pc_lo12(.L.str.30)
	ori	$a2, $zero, 131
	pcaddu18i	$ra, %call36(_ZSt16__ostream_insertIcSt11char_traitsIcEERSt13basic_ostreamIT_T0_ES6_PKS3_l)
	jirl	$ra, $ra, 0
.Ltmp307:
# %bb.128:                              # %_ZN9benchmark8internallsIA132_cEERNS0_7LogTypeES4_RKT_.exit351
	ld.d	$a0, $s6, 0
	beqz	$a0, .LBB8_144
# %bb.129:
.Ltmp308:
	pcalau12i	$a1, %pc_hi20(.L.str.32)
	addi.d	$a1, $a1, %pc_lo12(.L.str.32)
	ori	$a2, $zero, 1
	pcaddu18i	$ra, %call36(_ZSt16__ostream_insertIcSt11char_traitsIcEERSt13basic_ostreamIT_T0_ES6_PKS3_l)
	jirl	$ra, $ra, 0
.Ltmp309:
# %bb.130:                              # %_ZN9benchmark8internallsIA2_cEERNS0_7LogTypeES4_RKT_.exit354
	ld.d	$a0, $s6, 0
	beqz	$a0, .LBB8_144
# %bb.131:
.Ltmp311:
	ori	$a1, $zero, 109
	pcaddu18i	$ra, %call36(_ZNSolsEi)
	jirl	$ra, $ra, 0
.Ltmp312:
# %bb.132:                              # %_ZN9benchmark8internallsIiEERNS0_7LogTypeES3_RKT_.exit357
	ld.d	$a0, $s6, 0
	beqz	$a0, .LBB8_144
# %bb.133:
.Ltmp313:
	pcalau12i	$a1, %pc_hi20(.L.str.33)
	addi.d	$a1, $a1, %pc_lo12(.L.str.33)
	ori	$a2, $zero, 2
	pcaddu18i	$ra, %call36(_ZSt16__ostream_insertIcSt11char_traitsIcEERSt13basic_ostreamIT_T0_ES6_PKS3_l)
	jirl	$ra, $ra, 0
.Ltmp314:
# %bb.134:                              # %_ZN9benchmark8internallsIA3_cEERNS0_7LogTypeES4_RKT_.exit360
	ld.d	$a0, $s6, 0
	beqz	$a0, .LBB8_144
# %bb.135:
.Ltmp315:
	pcalau12i	$a1, %pc_hi20(.L.str.35)
	addi.d	$a1, $a1, %pc_lo12(.L.str.35)
	ori	$a2, $zero, 10
	pcaddu18i	$ra, %call36(_ZSt16__ostream_insertIcSt11char_traitsIcEERSt13basic_ostreamIT_T0_ES6_PKS3_l)
	jirl	$ra, $ra, 0
.Ltmp316:
# %bb.136:                              # %_ZN9benchmark8internallsIA11_cEERNS0_7LogTypeES4_RKT_.exit363
	ld.d	$a0, $s6, 0
	beqz	$a0, .LBB8_144
# %bb.137:
.Ltmp317:
	pcalau12i	$a1, %pc_hi20(.L.str.41)
	addi.d	$a1, $a1, %pc_lo12(.L.str.41)
	ori	$a2, $zero, 6
	pcaddu18i	$ra, %call36(_ZSt16__ostream_insertIcSt11char_traitsIcEERSt13basic_ostreamIT_T0_ES6_PKS3_l)
	jirl	$ra, $ra, 0
.Ltmp318:
# %bb.138:                              # %_ZN9benchmark8internallsIA7_cEERNS0_7LogTypeES4_RKT_.exit
	ld.d	$a0, $s6, 0
	beqz	$a0, .LBB8_144
# %bb.139:
.Ltmp319:
	pcalau12i	$a1, %pc_hi20(.L.str.37)
	addi.d	$a1, $a1, %pc_lo12(.L.str.37)
	ori	$a2, $zero, 1
	pcaddu18i	$ra, %call36(_ZSt16__ostream_insertIcSt11char_traitsIcEERSt13basic_ostreamIT_T0_ES6_PKS3_l)
	jirl	$ra, $ra, 0
.Ltmp320:
# %bb.140:                              # %_ZN9benchmark8internallsIA2_cEERNS0_7LogTypeES4_RKT_.exit368
	ld.d	$a0, $s6, 0
	beqz	$a0, .LBB8_144
# %bb.141:
.Ltmp321:
	pcalau12i	$a1, %pc_hi20(.L.str.62)
	addi.d	$a1, $a1, %pc_lo12(.L.str.62)
	ori	$a2, $zero, 16
	pcaddu18i	$ra, %call36(_ZSt16__ostream_insertIcSt11char_traitsIcEERSt13basic_ostreamIT_T0_ES6_PKS3_l)
	jirl	$ra, $ra, 0
.Ltmp322:
# %bb.142:                              # %_ZN9benchmark8internallsIA17_cEERNS0_7LogTypeES4_RKT_.exit
	ld.d	$a0, $s6, 0
	beqz	$a0, .LBB8_144
# %bb.143:
.Ltmp323:
	pcalau12i	$a1, %pc_hi20(.L.str.38)
	addi.d	$a1, $a1, %pc_lo12(.L.str.38)
	ori	$a2, $zero, 1
	pcaddu18i	$ra, %call36(_ZSt16__ostream_insertIcSt11char_traitsIcEERSt13basic_ostreamIT_T0_ES6_PKS3_l)
	jirl	$ra, $ra, 0
.Ltmp324:
.LBB8_144:                              # %_ZN9benchmark8internallsIA2_cEERNS0_7LogTypeES4_RKT_.exit373
	st.d	$s1, $sp, 104
	ori	$a0, $zero, 16
	st.d	$a0, $sp, 56
.Ltmp326:
	addi.d	$a0, $sp, 104
	addi.d	$a1, $sp, 56
	move	$a2, $zero
	pcaddu18i	$ra, %call36(_ZNSt7__cxx1112basic_stringIcSt11char_traitsIcESaIcEE9_M_createERmm)
	jirl	$ra, $ra, 0
.Ltmp327:
# %bb.145:                              # %.noexc376
	ld.d	$a1, $sp, 56
	vld	$vr0, $s4, %pc_lo12(.L.str.62)
	st.d	$a0, $sp, 104
	st.d	$a1, $sp, 120
	vst	$vr0, $a0, 0
	ld.d	$a0, $sp, 104
	st.d	$a1, $sp, 112
	stx.b	$zero, $a0, $a1
.Ltmp329:
	addi.d	$a1, $sp, 104
	move	$a0, $fp
	pcaddu18i	$ra, %call36(_ZNK7Results5GetAsIdEET_RKNSt7__cxx1112basic_stringIcSt11char_traitsIcESaIcEEE)
	jirl	$ra, $ra, 0
.Ltmp330:
# %bb.146:
	ld.d	$a0, $s6, 0
	beqz	$a0, .LBB8_174
# %bb.147:
.Ltmp331:
	pcaddu18i	$ra, %call36(_ZNSo9_M_insertIdEERSoT_)
	jirl	$ra, $ra, 0
.Ltmp332:
# %bb.148:                              # %_ZN9benchmark8internallsIdEERNS0_7LogTypeES3_RKT_.exit
	ld.d	$a0, $s6, 0
	beqz	$a0, .LBB8_174
# %bb.149:
.Ltmp333:
	pcalau12i	$a1, %pc_hi20(.L.str.39)
	addi.d	$a1, $a1, %pc_lo12(.L.str.39)
	ori	$a2, $zero, 13
	pcaddu18i	$ra, %call36(_ZSt16__ostream_insertIcSt11char_traitsIcEERSt13basic_ostreamIT_T0_ES6_PKS3_l)
	jirl	$ra, $ra, 0
.Ltmp334:
# %bb.150:                              # %_ZN9benchmark8internallsIA14_cEERNS0_7LogTypeES4_RKT_.exit382
	ld.d	$a0, $s6, 0
	beqz	$a0, .LBB8_174
# %bb.151:
.Ltmp336:
	fmov.d	$fa0, $fs1
	pcaddu18i	$ra, %call36(_ZNSo9_M_insertIdEERSoT_)
	jirl	$ra, $ra, 0
.Ltmp337:
# %bb.152:                              # %_ZN9benchmark8internallsIdEERNS0_7LogTypeES3_RKT_.exit385
	ld.d	$a0, $s6, 0
	beqz	$a0, .LBB8_174
# %bb.153:
.Ltmp338:
	pcalau12i	$a1, %pc_hi20(.L.str.31)
	addi.d	$a1, $a1, %pc_lo12(.L.str.31)
	ori	$a2, $zero, 1
	pcaddu18i	$ra, %call36(_ZSt16__ostream_insertIcSt11char_traitsIcEERSt13basic_ostreamIT_T0_ES6_PKS3_l)
	jirl	$ra, $ra, 0
.Ltmp339:
# %bb.154:                              # %_ZN9benchmark8internallsIA2_cEERNS0_7LogTypeES4_RKT_.exit388
	ld.d	$a0, $s6, 0
	beqz	$a0, .LBB8_174
# %bb.155:
.Ltmp340:
	pcalau12i	$a1, %pc_hi20(.L.str.30)
	addi.d	$a1, $a1, %pc_lo12(.L.str.30)
	ori	$a2, $zero, 131
	pcaddu18i	$ra, %call36(_ZSt16__ostream_insertIcSt11char_traitsIcEERSt13basic_ostreamIT_T0_ES6_PKS3_l)
	jirl	$ra, $ra, 0
.Ltmp341:
# %bb.156:                              # %_ZN9benchmark8internallsIA132_cEERNS0_7LogTypeES4_RKT_.exit391
	ld.d	$a0, $s6, 0
	beqz	$a0, .LBB8_174
# %bb.157:
.Ltmp342:
	pcalau12i	$a1, %pc_hi20(.L.str.32)
	addi.d	$a1, $a1, %pc_lo12(.L.str.32)
	ori	$a2, $zero, 1
	pcaddu18i	$ra, %call36(_ZSt16__ostream_insertIcSt11char_traitsIcEERSt13basic_ostreamIT_T0_ES6_PKS3_l)
	jirl	$ra, $ra, 0
.Ltmp343:
# %bb.158:                              # %_ZN9benchmark8internallsIA2_cEERNS0_7LogTypeES4_RKT_.exit394
	ld.d	$a0, $s6, 0
	beqz	$a0, .LBB8_174
# %bb.159:
.Ltmp345:
	ori	$a1, $zero, 109
	pcaddu18i	$ra, %call36(_ZNSolsEi)
	jirl	$ra, $ra, 0
.Ltmp346:
# %bb.160:                              # %_ZN9benchmark8internallsIiEERNS0_7LogTypeES3_RKT_.exit397
	ld.d	$a0, $s6, 0
	beqz	$a0, .LBB8_174
# %bb.161:
.Ltmp347:
	pcalau12i	$a1, %pc_hi20(.L.str.33)
	addi.d	$a1, $a1, %pc_lo12(.L.str.33)
	ori	$a2, $zero, 2
	pcaddu18i	$ra, %call36(_ZSt16__ostream_insertIcSt11char_traitsIcEERSt13basic_ostreamIT_T0_ES6_PKS3_l)
	jirl	$ra, $ra, 0
.Ltmp348:
# %bb.162:                              # %_ZN9benchmark8internallsIA3_cEERNS0_7LogTypeES4_RKT_.exit400
	ld.d	$a0, $s6, 0
	beqz	$a0, .LBB8_174
# %bb.163:
.Ltmp349:
	pcalau12i	$a1, %pc_hi20(.L.str.42)
	addi.d	$a1, $a1, %pc_lo12(.L.str.42)
	ori	$a2, $zero, 18
	pcaddu18i	$ra, %call36(_ZSt16__ostream_insertIcSt11char_traitsIcEERSt13basic_ostreamIT_T0_ES6_PKS3_l)
	jirl	$ra, $ra, 0
.Ltmp350:
# %bb.164:                              # %_ZN9benchmark8internallsIA19_cEERNS0_7LogTypeES4_RKT_.exit
	ld.d	$a0, $s6, 0
	beqz	$a0, .LBB8_174
# %bb.165:
.Ltmp352:
	fmov.d	$fa0, $fs0
	pcaddu18i	$ra, %call36(_ZNSo9_M_insertIdEERSoT_)
	jirl	$ra, $ra, 0
.Ltmp353:
# %bb.166:                              # %_ZN9benchmark8internallsIdEERNS0_7LogTypeES3_RKT_.exit405
	ld.d	$a0, $s6, 0
	beqz	$a0, .LBB8_174
# %bb.167:
.Ltmp354:
	pcalau12i	$a1, %pc_hi20(.L.str.43)
	addi.d	$a1, $a1, %pc_lo12(.L.str.43)
	ori	$a2, $zero, 2
	pcaddu18i	$ra, %call36(_ZSt16__ostream_insertIcSt11char_traitsIcEERSt13basic_ostreamIT_T0_ES6_PKS3_l)
	jirl	$ra, $ra, 0
.Ltmp355:
# %bb.168:                              # %_ZN9benchmark8internallsIA3_cEERNS0_7LogTypeES4_RKT_.exit408
	ld.d	$a0, $s6, 0
	beqz	$a0, .LBB8_174
# %bb.169:
.Ltmp357:
	pcalau12i	$a1, %pc_hi20(.LCPI8_2)
	fld.d	$fa0, $a1, %pc_lo12(.LCPI8_2)
	pcaddu18i	$ra, %call36(_ZNSo9_M_insertIdEERSoT_)
	jirl	$ra, $ra, 0
.Ltmp358:
# %bb.170:                              # %_ZN9benchmark8internallsIdEERNS0_7LogTypeES3_RKT_.exit411
	ld.d	$a0, $s6, 0
	beqz	$a0, .LBB8_174
# %bb.171:
.Ltmp359:
	pcalau12i	$a1, %pc_hi20(.L.str.44)
	addi.d	$a1, $a1, %pc_lo12(.L.str.44)
	ori	$a2, $zero, 4
	pcaddu18i	$ra, %call36(_ZSt16__ostream_insertIcSt11char_traitsIcEERSt13basic_ostreamIT_T0_ES6_PKS3_l)
	jirl	$ra, $ra, 0
.Ltmp360:
# %bb.172:                              # %_ZN9benchmark8internallsIA5_cEERNS0_7LogTypeES4_RKT_.exit
	ld.d	$a0, $s6, 0
	beqz	$a0, .LBB8_174
# %bb.173:
.Ltmp361:
	pcalau12i	$a1, %pc_hi20(.L.str.45)
	addi.d	$a1, $a1, %pc_lo12(.L.str.45)
	ori	$a2, $zero, 14
	pcaddu18i	$ra, %call36(_ZSt16__ostream_insertIcSt11char_traitsIcEERSt13basic_ostreamIT_T0_ES6_PKS3_l)
	jirl	$ra, $ra, 0
.Ltmp362:
.LBB8_174:                              # %_ZN9benchmark8internallsIA15_cEERNS0_7LogTypeES4_RKT_.exit
	addi.d	$s2, $sp, 72
	st.d	$s2, $sp, 56
	ori	$a0, $zero, 16
	st.d	$a0, $sp, 24
.Ltmp364:
	addi.d	$a0, $sp, 56
	addi.d	$a1, $sp, 24
	move	$a2, $zero
	pcaddu18i	$ra, %call36(_ZNSt7__cxx1112basic_stringIcSt11char_traitsIcESaIcEE9_M_createERmm)
	jirl	$ra, $ra, 0
.Ltmp365:
# %bb.175:                              # %.noexc418
	ld.d	$a1, $sp, 24
	vld	$vr0, $s4, %pc_lo12(.L.str.62)
	st.d	$a0, $sp, 56
	st.d	$a1, $sp, 72
	vst	$vr0, $a0, 0
	ld.d	$a0, $sp, 56
	st.d	$a1, $sp, 64
	stx.b	$zero, $a0, $a1
.Ltmp367:
	addi.d	$a1, $sp, 56
	move	$a0, $fp
	pcaddu18i	$ra, %call36(_ZNK7Results5GetAsIdEET_RKNSt7__cxx1112basic_stringIcSt11char_traitsIcESaIcEEE)
	jirl	$ra, $ra, 0
.Ltmp368:
# %bb.176:
	ld.d	$a0, $s6, 0
	beqz	$a0, .LBB8_180
# %bb.177:
	fsub.d	$fa0, $fa0, $fs1
.Ltmp369:
	pcaddu18i	$ra, %call36(_ZNSo9_M_insertIdEERSoT_)
	jirl	$ra, $ra, 0
.Ltmp370:
# %bb.178:                              # %_ZN9benchmark8internallsIdEERNS0_7LogTypeES3_RKT_.exit422
	ld.d	$a0, $s6, 0
	beqz	$a0, .LBB8_180
# %bb.179:
.Ltmp371:
	pcalau12i	$a1, %pc_hi20(.L.str.43)
	addi.d	$a1, $a1, %pc_lo12(.L.str.43)
	ori	$a2, $zero, 2
	pcaddu18i	$ra, %call36(_ZSt16__ostream_insertIcSt11char_traitsIcEERSt13basic_ostreamIT_T0_ES6_PKS3_l)
	jirl	$ra, $ra, 0
.Ltmp372:
.LBB8_180:                              # %_ZN9benchmark8internallsIA3_cEERNS0_7LogTypeES4_RKT_.exit425
	addi.d	$s3, $sp, 40
	st.d	$s3, $sp, 24
	ori	$a0, $zero, 16
	st.d	$a0, $sp, 176
.Ltmp374:
	addi.d	$a0, $sp, 24
	addi.d	$a1, $sp, 176
	move	$a2, $zero
	pcaddu18i	$ra, %call36(_ZNSt7__cxx1112basic_stringIcSt11char_traitsIcESaIcEE9_M_createERmm)
	jirl	$ra, $ra, 0
.Ltmp375:
# %bb.181:                              # %.noexc428
	ld.d	$a1, $sp, 176
	vld	$vr0, $s4, %pc_lo12(.L.str.62)
	st.d	$a0, $sp, 24
	st.d	$a1, $sp, 40
	vst	$vr0, $a0, 0
	ld.d	$a0, $sp, 24
	st.d	$a1, $sp, 32
	stx.b	$zero, $a0, $a1
.Ltmp377:
	addi.d	$a1, $sp, 24
	move	$a0, $fp
	pcaddu18i	$ra, %call36(_ZNK7Results5GetAsIdEET_RKNSt7__cxx1112basic_stringIcSt11char_traitsIcESaIcEEE)
	jirl	$ra, $ra, 0
.Ltmp378:
# %bb.182:
	ld.d	$a0, $s6, 0
	pcalau12i	$s5, %pc_hi20(.LCPI8_3)
	pcalau12i	$s4, %pc_hi20(.LCPI8_4)
	beqz	$a0, .LBB8_186
# %bb.183:
	fld.d	$fa1, $s5, %pc_lo12(.LCPI8_3)
	fsub.d	$fa0, $fa0, $fs1
	fabs.d	$fa2, $fs1
	fld.d	$fa3, $s4, %pc_lo12(.LCPI8_4)
	fcmp.clt.d	$fcc0, $fa1, $fa2
	fsel	$fa1, $fa1, $fs1, $fcc0
	fdiv.d	$fa0, $fa0, $fa1
	fmul.d	$fa0, $fa0, $fa3
.Ltmp379:
	pcaddu18i	$ra, %call36(_ZNSo9_M_insertIdEERSoT_)
	jirl	$ra, $ra, 0
.Ltmp380:
# %bb.184:                              # %_ZN9benchmark8internallsIdEERNS0_7LogTypeES3_RKT_.exit432
	ld.d	$a0, $s6, 0
	beqz	$a0, .LBB8_186
# %bb.185:
.Ltmp381:
	pcalau12i	$a1, %pc_hi20(.L.str.46)
	addi.d	$a1, $a1, %pc_lo12(.L.str.46)
	ori	$a2, $zero, 2
	pcaddu18i	$ra, %call36(_ZSt16__ostream_insertIcSt11char_traitsIcEERSt13basic_ostreamIT_T0_ES6_PKS3_l)
	jirl	$ra, $ra, 0
.Ltmp382:
.LBB8_186:                              # %_ZN9benchmark8internallsIA3_cEERNS0_7LogTypeES4_RKT_.exit435
	ld.d	$a0, $sp, 24
	beq	$a0, $s3, .LBB8_188
# %bb.187:                              # %_ZNKSt7__cxx1112basic_stringIcSt11char_traitsIcESaIcEE11_M_is_localEv.exit.i.i436
	ld.d	$a1, $sp, 40
	addi.d	$a1, $a1, 1
	pcaddu18i	$ra, %call36(_ZdlPvm)
	jirl	$ra, $ra, 0
.LBB8_188:                              # %_ZNSt7__cxx1112basic_stringIcSt11char_traitsIcESaIcEED2Ev.exit438
	ld.d	$a0, $sp, 56
	beq	$a0, $s2, .LBB8_190
# %bb.189:                              # %_ZNKSt7__cxx1112basic_stringIcSt11char_traitsIcESaIcEE11_M_is_localEv.exit.i.i439
	ld.d	$a1, $sp, 72
	addi.d	$a1, $a1, 1
	pcaddu18i	$ra, %call36(_ZdlPvm)
	jirl	$ra, $ra, 0
.LBB8_190:                              # %_ZNSt7__cxx1112basic_stringIcSt11char_traitsIcESaIcEED2Ev.exit441
	ld.d	$a0, $sp, 104
	beq	$a0, $s1, .LBB8_192
# %bb.191:                              # %_ZNKSt7__cxx1112basic_stringIcSt11char_traitsIcESaIcEE11_M_is_localEv.exit.i.i442
	ld.d	$a1, $sp, 120
	addi.d	$a1, $a1, 1
	pcaddu18i	$ra, %call36(_ZdlPvm)
	jirl	$ra, $ra, 0
.LBB8_192:                              # %_ZNSt7__cxx1112basic_stringIcSt11char_traitsIcESaIcEED2Ev.exit444
	fcmp.clt.d	$fcc0, $fs4, $fs0
	bceqz	$fcc0, .LBB8_289
# %bb.193:
	ld.d	$a0, $sp, 144
	beq	$a0, $s0, .LBB8_195
# %bb.194:                              # %_ZNKSt7__cxx1112basic_stringIcSt11char_traitsIcESaIcEE11_M_is_localEv.exit.i.i457
	ld.d	$a1, $sp, 160
	addi.d	$a1, $a1, 1
	pcaddu18i	$ra, %call36(_ZdlPvm)
	jirl	$ra, $ra, 0
.LBB8_195:                              # %_ZNSt7__cxx1112basic_stringIcSt11char_traitsIcESaIcEED2Ev.exit459
	st.d	$s0, $sp, 144
	ori	$a0, $zero, 16
	st.d	$a0, $sp, 104
.Ltmp384:
	addi.d	$a0, $sp, 144
	addi.d	$a1, $sp, 104
	move	$a2, $zero
	pcaddu18i	$ra, %call36(_ZNSt7__cxx1112basic_stringIcSt11char_traitsIcESaIcEE9_M_createERmm)
	jirl	$ra, $ra, 0
.Ltmp385:
# %bb.196:                              # %.noexc462
	ld.d	$a1, $sp, 104
	pcalau12i	$s6, %pc_hi20(.L.str.64)
	vld	$vr0, $s6, %pc_lo12(.L.str.64)
	st.d	$a0, $sp, 144
	st.d	$a1, $sp, 160
	vst	$vr0, $a0, 0
	ld.d	$a0, $sp, 144
	st.d	$a1, $sp, 152
	stx.b	$zero, $a0, $a1
.Ltmp387:
	addi.d	$a1, $sp, 144
	move	$a0, $fp
	pcaddu18i	$ra, %call36(_ZNK7Results5GetAsIdEET_RKNSt7__cxx1112basic_stringIcSt11char_traitsIcESaIcEEE)
	jirl	$ra, $ra, 0
.Ltmp388:
# %bb.197:
	pcalau12i	$a0, %pc_hi20(.LCPI8_5)
	fld.d	$fa1, $a0, %pc_lo12(.LCPI8_5)
	fdiv.d	$fs1, $fa1, $fs2
	fsub.d	$fa0, $fa0, $fs1
	fabs.d	$fs2, $fa0
	fmul.d	$fs0, $fs1, $fs3
	fcmp.cule.d	$fcc0, $fs0, $fs2
	bceqz	$fcc0, .LBB8_200
# %bb.198:
.Ltmp390:
	pcalau12i	$a0, %pc_hi20(.L.str.65)
	addi.d	$a1, $a0, %pc_lo12(.L.str.65)
	pcalau12i	$a0, %pc_hi20(.L.str.30)
	addi.d	$a2, $a0, %pc_lo12(.L.str.30)
	pcalau12i	$a0, %pc_hi20(.L__func__._Z22CheckBytesAndItemsPSecRK7Results)
	addi.d	$a3, $a0, %pc_lo12(.L__func__._Z22CheckBytesAndItemsPSecRK7Results)
	addi.d	$a0, $sp, 16
	ori	$a4, $zero, 110
	pcaddu18i	$ra, %call36(_ZN9benchmark8internal12CheckHandlerC2EPKcS3_S3_i)
	jirl	$ra, $ra, 0
.Ltmp391:
# %bb.199:
	ld.d	$s7, $sp, 16
	b	.LBB8_201
.LBB8_200:
	pcalau12i	$a0, %pc_hi20(_ZGVZN9benchmark8internal18GetNullLogInstanceEvE8null_log)
	ld.b	$a0, $a0, %pc_lo12(_ZGVZN9benchmark8internal18GetNullLogInstanceEvE8null_log)
	dbar	20
	pcalau12i	$a1, %pc_hi20(_ZZN9benchmark8internal18GetNullLogInstanceEvE8null_log)
	addi.d	$s7, $a1, %pc_lo12(_ZZN9benchmark8internal18GetNullLogInstanceEvE8null_log)
	beqz	$a0, .LBB8_295
.LBB8_201:                              # %_ZN9benchmark8internal18GetNullLogInstanceEv.exit465
	ld.d	$a0, $s7, 0
	beqz	$a0, .LBB8_233
# %bb.202:
.Ltmp392:
	pcalau12i	$a1, %pc_hi20(.L.str.31)
	addi.d	$a1, $a1, %pc_lo12(.L.str.31)
	ori	$a2, $zero, 1
	pcaddu18i	$ra, %call36(_ZSt16__ostream_insertIcSt11char_traitsIcEERSt13basic_ostreamIT_T0_ES6_PKS3_l)
	jirl	$ra, $ra, 0
.Ltmp393:
# %bb.203:                              # %_ZN9benchmark8internallsIA2_cEERNS0_7LogTypeES4_RKT_.exit468
	ld.d	$a0, $s7, 0
	beqz	$a0, .LBB8_233
# %bb.204:
.Ltmp394:
	pcalau12i	$a1, %pc_hi20(.L.str.30)
	addi.d	$a1, $a1, %pc_lo12(.L.str.30)
	ori	$a2, $zero, 131
	pcaddu18i	$ra, %call36(_ZSt16__ostream_insertIcSt11char_traitsIcEERSt13basic_ostreamIT_T0_ES6_PKS3_l)
	jirl	$ra, $ra, 0
.Ltmp395:
# %bb.205:                              # %_ZN9benchmark8internallsIA132_cEERNS0_7LogTypeES4_RKT_.exit471
	ld.d	$a0, $s7, 0
	beqz	$a0, .LBB8_233
# %bb.206:
.Ltmp396:
	pcalau12i	$a1, %pc_hi20(.L.str.32)
	addi.d	$a1, $a1, %pc_lo12(.L.str.32)
	ori	$a2, $zero, 1
	pcaddu18i	$ra, %call36(_ZSt16__ostream_insertIcSt11char_traitsIcEERSt13basic_ostreamIT_T0_ES6_PKS3_l)
	jirl	$ra, $ra, 0
.Ltmp397:
# %bb.207:                              # %_ZN9benchmark8internallsIA2_cEERNS0_7LogTypeES4_RKT_.exit474
	ld.d	$a0, $s7, 0
	beqz	$a0, .LBB8_233
# %bb.208:
.Ltmp399:
	ori	$a1, $zero, 110
	pcaddu18i	$ra, %call36(_ZNSolsEi)
	jirl	$ra, $ra, 0
.Ltmp400:
# %bb.209:                              # %_ZN9benchmark8internallsIiEERNS0_7LogTypeES3_RKT_.exit477
	ld.d	$a0, $s7, 0
	beqz	$a0, .LBB8_233
# %bb.210:
.Ltmp401:
	pcalau12i	$a1, %pc_hi20(.L.str.33)
	addi.d	$a1, $a1, %pc_lo12(.L.str.33)
	ori	$a2, $zero, 2
	pcaddu18i	$ra, %call36(_ZSt16__ostream_insertIcSt11char_traitsIcEERSt13basic_ostreamIT_T0_ES6_PKS3_l)
	jirl	$ra, $ra, 0
.Ltmp402:
# %bb.211:                              # %_ZN9benchmark8internallsIA3_cEERNS0_7LogTypeES4_RKT_.exit480
	ld.d	$a0, $s7, 0
	beqz	$a0, .LBB8_233
# %bb.212:
	ld.d	$a1, $fp, 0
	ld.d	$a2, $fp, 8
.Ltmp403:
	pcaddu18i	$ra, %call36(_ZSt16__ostream_insertIcSt11char_traitsIcEERSt13basic_ostreamIT_T0_ES6_PKS3_l)
	jirl	$ra, $ra, 0
.Ltmp404:
# %bb.213:                              # %_ZN9benchmark8internallsINSt7__cxx1112basic_stringIcSt11char_traitsIcESaIcEEEEERNS0_7LogTypeES9_RKT_.exit483
	ld.d	$a0, $s7, 0
	beqz	$a0, .LBB8_233
# %bb.214:
.Ltmp405:
	pcalau12i	$a1, %pc_hi20(.L.str.34)
	addi.d	$a1, $a1, %pc_lo12(.L.str.34)
	ori	$a2, $zero, 2
	pcaddu18i	$ra, %call36(_ZSt16__ostream_insertIcSt11char_traitsIcEERSt13basic_ostreamIT_T0_ES6_PKS3_l)
	jirl	$ra, $ra, 0
.Ltmp406:
# %bb.215:                              # %_ZN9benchmark8internallsIA3_cEERNS0_7LogTypeES4_RKT_.exit486
	ld.d	$a0, $s7, 0
	beqz	$a0, .LBB8_233
# %bb.216:
.Ltmp407:
	pcalau12i	$a1, %pc_hi20(.L.str.30)
	addi.d	$a1, $a1, %pc_lo12(.L.str.30)
	ori	$a2, $zero, 131
	pcaddu18i	$ra, %call36(_ZSt16__ostream_insertIcSt11char_traitsIcEERSt13basic_ostreamIT_T0_ES6_PKS3_l)
	jirl	$ra, $ra, 0
.Ltmp408:
# %bb.217:                              # %_ZN9benchmark8internallsIA132_cEERNS0_7LogTypeES4_RKT_.exit489
	ld.d	$a0, $s7, 0
	beqz	$a0, .LBB8_233
# %bb.218:
.Ltmp409:
	pcalau12i	$a1, %pc_hi20(.L.str.32)
	addi.d	$a1, $a1, %pc_lo12(.L.str.32)
	ori	$a2, $zero, 1
	pcaddu18i	$ra, %call36(_ZSt16__ostream_insertIcSt11char_traitsIcEERSt13basic_ostreamIT_T0_ES6_PKS3_l)
	jirl	$ra, $ra, 0
.Ltmp410:
# %bb.219:                              # %_ZN9benchmark8internallsIA2_cEERNS0_7LogTypeES4_RKT_.exit492
	ld.d	$a0, $s7, 0
	beqz	$a0, .LBB8_233
# %bb.220:
.Ltmp412:
	ori	$a1, $zero, 110
	pcaddu18i	$ra, %call36(_ZNSolsEi)
	jirl	$ra, $ra, 0
.Ltmp413:
# %bb.221:                              # %_ZN9benchmark8internallsIiEERNS0_7LogTypeES3_RKT_.exit495
	ld.d	$a0, $s7, 0
	beqz	$a0, .LBB8_233
# %bb.222:
.Ltmp414:
	pcalau12i	$a1, %pc_hi20(.L.str.33)
	addi.d	$a1, $a1, %pc_lo12(.L.str.33)
	ori	$a2, $zero, 2
	pcaddu18i	$ra, %call36(_ZSt16__ostream_insertIcSt11char_traitsIcEERSt13basic_ostreamIT_T0_ES6_PKS3_l)
	jirl	$ra, $ra, 0
.Ltmp415:
# %bb.223:                              # %_ZN9benchmark8internallsIA3_cEERNS0_7LogTypeES4_RKT_.exit498
	ld.d	$a0, $s7, 0
	beqz	$a0, .LBB8_233
# %bb.224:
.Ltmp416:
	pcalau12i	$a1, %pc_hi20(.L.str.35)
	addi.d	$a1, $a1, %pc_lo12(.L.str.35)
	ori	$a2, $zero, 10
	pcaddu18i	$ra, %call36(_ZSt16__ostream_insertIcSt11char_traitsIcEERSt13basic_ostreamIT_T0_ES6_PKS3_l)
	jirl	$ra, $ra, 0
.Ltmp417:
# %bb.225:                              # %_ZN9benchmark8internallsIA11_cEERNS0_7LogTypeES4_RKT_.exit501
	ld.d	$a0, $s7, 0
	beqz	$a0, .LBB8_233
# %bb.226:
.Ltmp418:
	pcalau12i	$a1, %pc_hi20(.L.str.41)
	addi.d	$a1, $a1, %pc_lo12(.L.str.41)
	ori	$a2, $zero, 6
	pcaddu18i	$ra, %call36(_ZSt16__ostream_insertIcSt11char_traitsIcEERSt13basic_ostreamIT_T0_ES6_PKS3_l)
	jirl	$ra, $ra, 0
.Ltmp419:
# %bb.227:                              # %_ZN9benchmark8internallsIA7_cEERNS0_7LogTypeES4_RKT_.exit504
	ld.d	$a0, $s7, 0
	beqz	$a0, .LBB8_233
# %bb.228:
.Ltmp420:
	pcalau12i	$a1, %pc_hi20(.L.str.37)
	addi.d	$a1, $a1, %pc_lo12(.L.str.37)
	ori	$a2, $zero, 1
	pcaddu18i	$ra, %call36(_ZSt16__ostream_insertIcSt11char_traitsIcEERSt13basic_ostreamIT_T0_ES6_PKS3_l)
	jirl	$ra, $ra, 0
.Ltmp421:
# %bb.229:                              # %_ZN9benchmark8internallsIA2_cEERNS0_7LogTypeES4_RKT_.exit507
	ld.d	$a0, $s7, 0
	beqz	$a0, .LBB8_233
# %bb.230:
.Ltmp422:
	pcalau12i	$a1, %pc_hi20(.L.str.64)
	addi.d	$a1, $a1, %pc_lo12(.L.str.64)
	ori	$a2, $zero, 16
	pcaddu18i	$ra, %call36(_ZSt16__ostream_insertIcSt11char_traitsIcEERSt13basic_ostreamIT_T0_ES6_PKS3_l)
	jirl	$ra, $ra, 0
.Ltmp423:
# %bb.231:                              # %_ZN9benchmark8internallsIA17_cEERNS0_7LogTypeES4_RKT_.exit510
	ld.d	$a0, $s7, 0
	beqz	$a0, .LBB8_233
# %bb.232:
.Ltmp424:
	pcalau12i	$a1, %pc_hi20(.L.str.38)
	addi.d	$a1, $a1, %pc_lo12(.L.str.38)
	ori	$a2, $zero, 1
	pcaddu18i	$ra, %call36(_ZSt16__ostream_insertIcSt11char_traitsIcEERSt13basic_ostreamIT_T0_ES6_PKS3_l)
	jirl	$ra, $ra, 0
.Ltmp425:
.LBB8_233:                              # %_ZN9benchmark8internallsIA2_cEERNS0_7LogTypeES4_RKT_.exit513
	st.d	$s1, $sp, 104
	ori	$a0, $zero, 16
	st.d	$a0, $sp, 56
.Ltmp427:
	addi.d	$a0, $sp, 104
	addi.d	$a1, $sp, 56
	move	$a2, $zero
	pcaddu18i	$ra, %call36(_ZNSt7__cxx1112basic_stringIcSt11char_traitsIcESaIcEE9_M_createERmm)
	jirl	$ra, $ra, 0
.Ltmp428:
# %bb.234:                              # %.noexc516
	ld.d	$a1, $sp, 56
	vld	$vr0, $s6, %pc_lo12(.L.str.64)
	st.d	$a0, $sp, 104
	st.d	$a1, $sp, 120
	vst	$vr0, $a0, 0
	ld.d	$a0, $sp, 104
	st.d	$a1, $sp, 112
	stx.b	$zero, $a0, $a1
.Ltmp430:
	addi.d	$a1, $sp, 104
	move	$a0, $fp
	pcaddu18i	$ra, %call36(_ZNK7Results5GetAsIdEET_RKNSt7__cxx1112basic_stringIcSt11char_traitsIcESaIcEEE)
	jirl	$ra, $ra, 0
.Ltmp431:
# %bb.235:
	ld.d	$a0, $s7, 0
	beqz	$a0, .LBB8_263
# %bb.236:
.Ltmp432:
	pcaddu18i	$ra, %call36(_ZNSo9_M_insertIdEERSoT_)
	jirl	$ra, $ra, 0
.Ltmp433:
# %bb.237:                              # %_ZN9benchmark8internallsIdEERNS0_7LogTypeES3_RKT_.exit520
	ld.d	$a0, $s7, 0
	beqz	$a0, .LBB8_263
# %bb.238:
.Ltmp434:
	pcalau12i	$a1, %pc_hi20(.L.str.39)
	addi.d	$a1, $a1, %pc_lo12(.L.str.39)
	ori	$a2, $zero, 13
	pcaddu18i	$ra, %call36(_ZSt16__ostream_insertIcSt11char_traitsIcEERSt13basic_ostreamIT_T0_ES6_PKS3_l)
	jirl	$ra, $ra, 0
.Ltmp435:
# %bb.239:                              # %_ZN9benchmark8internallsIA14_cEERNS0_7LogTypeES4_RKT_.exit523
	ld.d	$a0, $s7, 0
	beqz	$a0, .LBB8_263
# %bb.240:
.Ltmp437:
	fmov.d	$fa0, $fs1
	pcaddu18i	$ra, %call36(_ZNSo9_M_insertIdEERSoT_)
	jirl	$ra, $ra, 0
.Ltmp438:
# %bb.241:                              # %_ZN9benchmark8internallsIdEERNS0_7LogTypeES3_RKT_.exit526
	ld.d	$a0, $s7, 0
	beqz	$a0, .LBB8_263
# %bb.242:
.Ltmp439:
	pcalau12i	$a1, %pc_hi20(.L.str.31)
	addi.d	$a1, $a1, %pc_lo12(.L.str.31)
	ori	$a2, $zero, 1
	pcaddu18i	$ra, %call36(_ZSt16__ostream_insertIcSt11char_traitsIcEERSt13basic_ostreamIT_T0_ES6_PKS3_l)
	jirl	$ra, $ra, 0
.Ltmp440:
# %bb.243:                              # %_ZN9benchmark8internallsIA2_cEERNS0_7LogTypeES4_RKT_.exit529
	ld.d	$a0, $s7, 0
	beqz	$a0, .LBB8_263
# %bb.244:
.Ltmp441:
	pcalau12i	$a1, %pc_hi20(.L.str.30)
	addi.d	$a1, $a1, %pc_lo12(.L.str.30)
	ori	$a2, $zero, 131
	pcaddu18i	$ra, %call36(_ZSt16__ostream_insertIcSt11char_traitsIcEERSt13basic_ostreamIT_T0_ES6_PKS3_l)
	jirl	$ra, $ra, 0
.Ltmp442:
# %bb.245:                              # %_ZN9benchmark8internallsIA132_cEERNS0_7LogTypeES4_RKT_.exit532
	ld.d	$a0, $s7, 0
	beqz	$a0, .LBB8_263
# %bb.246:
.Ltmp443:
	pcalau12i	$a1, %pc_hi20(.L.str.32)
	addi.d	$a1, $a1, %pc_lo12(.L.str.32)
	ori	$a2, $zero, 1
	pcaddu18i	$ra, %call36(_ZSt16__ostream_insertIcSt11char_traitsIcEERSt13basic_ostreamIT_T0_ES6_PKS3_l)
	jirl	$ra, $ra, 0
.Ltmp444:
# %bb.247:                              # %_ZN9benchmark8internallsIA2_cEERNS0_7LogTypeES4_RKT_.exit535
	ld.d	$a0, $s7, 0
	beqz	$a0, .LBB8_263
# %bb.248:
.Ltmp446:
	ori	$a1, $zero, 110
	pcaddu18i	$ra, %call36(_ZNSolsEi)
	jirl	$ra, $ra, 0
.Ltmp447:
# %bb.249:                              # %_ZN9benchmark8internallsIiEERNS0_7LogTypeES3_RKT_.exit538
	ld.d	$a0, $s7, 0
	beqz	$a0, .LBB8_263
# %bb.250:
.Ltmp448:
	pcalau12i	$a1, %pc_hi20(.L.str.33)
	addi.d	$a1, $a1, %pc_lo12(.L.str.33)
	ori	$a2, $zero, 2
	pcaddu18i	$ra, %call36(_ZSt16__ostream_insertIcSt11char_traitsIcEERSt13basic_ostreamIT_T0_ES6_PKS3_l)
	jirl	$ra, $ra, 0
.Ltmp449:
# %bb.251:                              # %_ZN9benchmark8internallsIA3_cEERNS0_7LogTypeES4_RKT_.exit541
	ld.d	$a0, $s7, 0
	beqz	$a0, .LBB8_263
# %bb.252:
.Ltmp450:
	pcalau12i	$a1, %pc_hi20(.L.str.42)
	addi.d	$a1, $a1, %pc_lo12(.L.str.42)
	ori	$a2, $zero, 18
	pcaddu18i	$ra, %call36(_ZSt16__ostream_insertIcSt11char_traitsIcEERSt13basic_ostreamIT_T0_ES6_PKS3_l)
	jirl	$ra, $ra, 0
.Ltmp451:
# %bb.253:                              # %_ZN9benchmark8internallsIA19_cEERNS0_7LogTypeES4_RKT_.exit544
	ld.d	$a0, $s7, 0
	beqz	$a0, .LBB8_263
# %bb.254:
.Ltmp453:
	fmov.d	$fa0, $fs0
	pcaddu18i	$ra, %call36(_ZNSo9_M_insertIdEERSoT_)
	jirl	$ra, $ra, 0
.Ltmp454:
# %bb.255:                              # %_ZN9benchmark8internallsIdEERNS0_7LogTypeES3_RKT_.exit547
	ld.d	$a0, $s7, 0
	beqz	$a0, .LBB8_263
# %bb.256:
.Ltmp455:
	pcalau12i	$a1, %pc_hi20(.L.str.43)
	addi.d	$a1, $a1, %pc_lo12(.L.str.43)
	ori	$a2, $zero, 2
	pcaddu18i	$ra, %call36(_ZSt16__ostream_insertIcSt11char_traitsIcEERSt13basic_ostreamIT_T0_ES6_PKS3_l)
	jirl	$ra, $ra, 0
.Ltmp456:
# %bb.257:                              # %_ZN9benchmark8internallsIA3_cEERNS0_7LogTypeES4_RKT_.exit550
	ld.d	$a0, $s7, 0
	beqz	$a0, .LBB8_263
# %bb.258:
.Ltmp458:
	pcalau12i	$a1, %pc_hi20(.LCPI8_2)
	fld.d	$fa0, $a1, %pc_lo12(.LCPI8_2)
	pcaddu18i	$ra, %call36(_ZNSo9_M_insertIdEERSoT_)
	jirl	$ra, $ra, 0
.Ltmp459:
# %bb.259:                              # %_ZN9benchmark8internallsIdEERNS0_7LogTypeES3_RKT_.exit553
	ld.d	$a0, $s7, 0
	beqz	$a0, .LBB8_263
# %bb.260:
.Ltmp460:
	pcalau12i	$a1, %pc_hi20(.L.str.44)
	addi.d	$a1, $a1, %pc_lo12(.L.str.44)
	ori	$a2, $zero, 4
	pcaddu18i	$ra, %call36(_ZSt16__ostream_insertIcSt11char_traitsIcEERSt13basic_ostreamIT_T0_ES6_PKS3_l)
	jirl	$ra, $ra, 0
.Ltmp461:
# %bb.261:                              # %_ZN9benchmark8internallsIA5_cEERNS0_7LogTypeES4_RKT_.exit556
	ld.d	$a0, $s7, 0
	beqz	$a0, .LBB8_263
# %bb.262:
.Ltmp462:
	pcalau12i	$a1, %pc_hi20(.L.str.45)
	addi.d	$a1, $a1, %pc_lo12(.L.str.45)
	ori	$a2, $zero, 14
	pcaddu18i	$ra, %call36(_ZSt16__ostream_insertIcSt11char_traitsIcEERSt13basic_ostreamIT_T0_ES6_PKS3_l)
	jirl	$ra, $ra, 0
.Ltmp463:
.LBB8_263:                              # %_ZN9benchmark8internallsIA15_cEERNS0_7LogTypeES4_RKT_.exit559
	st.d	$s2, $sp, 56
	ori	$a0, $zero, 16
	st.d	$a0, $sp, 24
.Ltmp465:
	addi.d	$a0, $sp, 56
	addi.d	$a1, $sp, 24
	move	$a2, $zero
	pcaddu18i	$ra, %call36(_ZNSt7__cxx1112basic_stringIcSt11char_traitsIcESaIcEE9_M_createERmm)
	jirl	$ra, $ra, 0
.Ltmp466:
# %bb.264:                              # %.noexc562
	ld.d	$a1, $sp, 24
	vld	$vr0, $s6, %pc_lo12(.L.str.64)
	st.d	$a0, $sp, 56
	st.d	$a1, $sp, 72
	vst	$vr0, $a0, 0
	ld.d	$a0, $sp, 56
	st.d	$a1, $sp, 64
	stx.b	$zero, $a0, $a1
.Ltmp468:
	addi.d	$a1, $sp, 56
	move	$a0, $fp
	pcaddu18i	$ra, %call36(_ZNK7Results5GetAsIdEET_RKNSt7__cxx1112basic_stringIcSt11char_traitsIcESaIcEEE)
	jirl	$ra, $ra, 0
.Ltmp469:
# %bb.265:
	ld.d	$a0, $s7, 0
	beqz	$a0, .LBB8_269
# %bb.266:
	fsub.d	$fa0, $fa0, $fs1
.Ltmp470:
	pcaddu18i	$ra, %call36(_ZNSo9_M_insertIdEERSoT_)
	jirl	$ra, $ra, 0
.Ltmp471:
# %bb.267:                              # %_ZN9benchmark8internallsIdEERNS0_7LogTypeES3_RKT_.exit566
	ld.d	$a0, $s7, 0
	beqz	$a0, .LBB8_269
# %bb.268:
.Ltmp472:
	pcalau12i	$a1, %pc_hi20(.L.str.43)
	addi.d	$a1, $a1, %pc_lo12(.L.str.43)
	ori	$a2, $zero, 2
	pcaddu18i	$ra, %call36(_ZSt16__ostream_insertIcSt11char_traitsIcEERSt13basic_ostreamIT_T0_ES6_PKS3_l)
	jirl	$ra, $ra, 0
.Ltmp473:
.LBB8_269:                              # %_ZN9benchmark8internallsIA3_cEERNS0_7LogTypeES4_RKT_.exit569
	st.d	$s3, $sp, 24
	ori	$a0, $zero, 16
	st.d	$a0, $sp, 176
.Ltmp475:
	addi.d	$a0, $sp, 24
	addi.d	$a1, $sp, 176
	move	$a2, $zero
	pcaddu18i	$ra, %call36(_ZNSt7__cxx1112basic_stringIcSt11char_traitsIcESaIcEE9_M_createERmm)
	jirl	$ra, $ra, 0
.Ltmp476:
# %bb.270:                              # %.noexc572
	ld.d	$a1, $sp, 176
	vld	$vr0, $s6, %pc_lo12(.L.str.64)
	st.d	$a0, $sp, 24
	st.d	$a1, $sp, 40
	vst	$vr0, $a0, 0
	ld.d	$a0, $sp, 24
	st.d	$a1, $sp, 32
	stx.b	$zero, $a0, $a1
.Ltmp478:
	addi.d	$a1, $sp, 24
	move	$a0, $fp
	pcaddu18i	$ra, %call36(_ZNK7Results5GetAsIdEET_RKNSt7__cxx1112basic_stringIcSt11char_traitsIcESaIcEEE)
	jirl	$ra, $ra, 0
.Ltmp479:
# %bb.271:
	ld.d	$a0, $s7, 0
	beqz	$a0, .LBB8_275
# %bb.272:
	fld.d	$fa1, $s5, %pc_lo12(.LCPI8_3)
	fsub.d	$fa0, $fa0, $fs1
	fabs.d	$fa2, $fs1
	fld.d	$fa3, $s4, %pc_lo12(.LCPI8_4)
	fcmp.clt.d	$fcc0, $fa1, $fa2
	fsel	$fa1, $fa1, $fs1, $fcc0
	fdiv.d	$fa0, $fa0, $fa1
	fmul.d	$fa0, $fa0, $fa3
.Ltmp480:
	pcaddu18i	$ra, %call36(_ZNSo9_M_insertIdEERSoT_)
	jirl	$ra, $ra, 0
.Ltmp481:
# %bb.273:                              # %_ZN9benchmark8internallsIdEERNS0_7LogTypeES3_RKT_.exit576
	ld.d	$a0, $s7, 0
	beqz	$a0, .LBB8_275
# %bb.274:
.Ltmp482:
	pcalau12i	$a1, %pc_hi20(.L.str.46)
	addi.d	$a1, $a1, %pc_lo12(.L.str.46)
	ori	$a2, $zero, 2
	pcaddu18i	$ra, %call36(_ZSt16__ostream_insertIcSt11char_traitsIcEERSt13basic_ostreamIT_T0_ES6_PKS3_l)
	jirl	$ra, $ra, 0
.Ltmp483:
.LBB8_275:                              # %_ZN9benchmark8internallsIA3_cEERNS0_7LogTypeES4_RKT_.exit579
	ld.d	$a0, $sp, 24
	beq	$a0, $s3, .LBB8_277
# %bb.276:                              # %_ZNKSt7__cxx1112basic_stringIcSt11char_traitsIcESaIcEE11_M_is_localEv.exit.i.i580
	ld.d	$a1, $sp, 40
	addi.d	$a1, $a1, 1
	pcaddu18i	$ra, %call36(_ZdlPvm)
	jirl	$ra, $ra, 0
.LBB8_277:                              # %_ZNSt7__cxx1112basic_stringIcSt11char_traitsIcESaIcEED2Ev.exit582
	ld.d	$a0, $sp, 56
	beq	$a0, $s2, .LBB8_279
# %bb.278:                              # %_ZNKSt7__cxx1112basic_stringIcSt11char_traitsIcESaIcEE11_M_is_localEv.exit.i.i583
	ld.d	$a1, $sp, 72
	addi.d	$a1, $a1, 1
	pcaddu18i	$ra, %call36(_ZdlPvm)
	jirl	$ra, $ra, 0
.LBB8_279:                              # %_ZNSt7__cxx1112basic_stringIcSt11char_traitsIcESaIcEED2Ev.exit585
	ld.d	$a0, $sp, 104
	beq	$a0, $s1, .LBB8_281
# %bb.280:                              # %_ZNKSt7__cxx1112basic_stringIcSt11char_traitsIcESaIcEE11_M_is_localEv.exit.i.i586
	ld.d	$a1, $sp, 120
	addi.d	$a1, $a1, 1
	pcaddu18i	$ra, %call36(_ZdlPvm)
	jirl	$ra, $ra, 0
.LBB8_281:                              # %_ZNSt7__cxx1112basic_stringIcSt11char_traitsIcESaIcEED2Ev.exit588
	fcmp.clt.d	$fcc0, $fs2, $fs0
	bceqz	$fcc0, .LBB8_291
# %bb.282:
	ld.d	$a0, $sp, 144
	beq	$a0, $s0, .LBB8_284
# %bb.283:                              # %_ZNKSt7__cxx1112basic_stringIcSt11char_traitsIcESaIcEE11_M_is_localEv.exit.i.i601
	ld.d	$a1, $sp, 160
	addi.d	$a1, $a1, 1
	pcaddu18i	$ra, %call36(_ZdlPvm)
	jirl	$ra, $ra, 0
.LBB8_284:                              # %_ZNSt7__cxx1112basic_stringIcSt11char_traitsIcESaIcEED2Ev.exit603
	fld.d	$fs4, $sp, 184                  # 8-byte Folded Reload
	fld.d	$fs3, $sp, 192                  # 8-byte Folded Reload
	fld.d	$fs2, $sp, 200                  # 8-byte Folded Reload
	fld.d	$fs1, $sp, 208                  # 8-byte Folded Reload
	fld.d	$fs0, $sp, 216                  # 8-byte Folded Reload
	ld.d	$s7, $sp, 224                   # 8-byte Folded Reload
	ld.d	$s6, $sp, 232                   # 8-byte Folded Reload
	ld.d	$s5, $sp, 240                   # 8-byte Folded Reload
	ld.d	$s4, $sp, 248                   # 8-byte Folded Reload
	ld.d	$s3, $sp, 256                   # 8-byte Folded Reload
	ld.d	$s2, $sp, 264                   # 8-byte Folded Reload
	ld.d	$s1, $sp, 272                   # 8-byte Folded Reload
	ld.d	$s0, $sp, 280                   # 8-byte Folded Reload
	ld.d	$fp, $sp, 288                   # 8-byte Folded Reload
	ld.d	$ra, $sp, 296                   # 8-byte Folded Reload
	addi.d	$sp, $sp, 304
	ret
.LBB8_285:
.Ltmp226:
	addi.d	$a0, $sp, 136
	pcaddu18i	$ra, %call36(_ZN9benchmark8internal12CheckHandlerD2Ev)
	jirl	$ra, $ra, 0
.Ltmp227:
# %bb.286:
.LBB8_287:
.Ltmp280:
	addi.d	$a0, $sp, 96
	pcaddu18i	$ra, %call36(_ZN9benchmark8internal12CheckHandlerD2Ev)
	jirl	$ra, $ra, 0
.Ltmp281:
# %bb.288:
.LBB8_289:
.Ltmp491:
	addi.d	$a0, $sp, 88
	pcaddu18i	$ra, %call36(_ZN9benchmark8internal12CheckHandlerD2Ev)
	jirl	$ra, $ra, 0
.Ltmp492:
# %bb.290:
.LBB8_291:
.Ltmp488:
	addi.d	$a0, $sp, 16
	pcaddu18i	$ra, %call36(_ZN9benchmark8internal12CheckHandlerD2Ev)
	jirl	$ra, $ra, 0
.Ltmp489:
# %bb.292:
.LBB8_293:
	pcalau12i	$a0, %pc_hi20(_ZGVZN9benchmark8internal18GetNullLogInstanceEvE8null_log)
	addi.d	$a0, $a0, %pc_lo12(_ZGVZN9benchmark8internal18GetNullLogInstanceEvE8null_log)
	pcaddu18i	$ra, %call36(__cxa_guard_acquire)
	jirl	$ra, $ra, 0
	addi.w	$a0, $a0, 0
	beqz	$a0, .LBB8_112
# %bb.294:
	pcalau12i	$a0, %pc_hi20(_ZZN9benchmark8internal18GetNullLogInstanceEvE8null_log)
	addi.d	$s6, $a0, %pc_lo12(_ZZN9benchmark8internal18GetNullLogInstanceEvE8null_log)
	st.d	$zero, $s6, 0
	pcalau12i	$a0, %pc_hi20(_ZGVZN9benchmark8internal18GetNullLogInstanceEvE8null_log)
	addi.d	$a0, $a0, %pc_lo12(_ZGVZN9benchmark8internal18GetNullLogInstanceEvE8null_log)
	pcaddu18i	$ra, %call36(__cxa_guard_release)
	jirl	$ra, $ra, 0
	b	.LBB8_112
.LBB8_295:
	pcalau12i	$a0, %pc_hi20(_ZGVZN9benchmark8internal18GetNullLogInstanceEvE8null_log)
	addi.d	$a0, $a0, %pc_lo12(_ZGVZN9benchmark8internal18GetNullLogInstanceEvE8null_log)
	pcaddu18i	$ra, %call36(__cxa_guard_acquire)
	jirl	$ra, $ra, 0
	addi.w	$a0, $a0, 0
	beqz	$a0, .LBB8_201
# %bb.296:
	pcalau12i	$a0, %pc_hi20(_ZZN9benchmark8internal18GetNullLogInstanceEvE8null_log)
	addi.d	$s7, $a0, %pc_lo12(_ZZN9benchmark8internal18GetNullLogInstanceEvE8null_log)
	st.d	$zero, $s7, 0
	pcalau12i	$a0, %pc_hi20(_ZGVZN9benchmark8internal18GetNullLogInstanceEvE8null_log)
	addi.d	$a0, $a0, %pc_lo12(_ZGVZN9benchmark8internal18GetNullLogInstanceEvE8null_log)
	pcaddu18i	$ra, %call36(__cxa_guard_release)
	jirl	$ra, $ra, 0
	b	.LBB8_201
.LBB8_297:
.Ltmp464:
	move	$fp, $a0
	ld.d	$a0, $sp, 104
	beq	$a0, $s1, .LBB8_342
	b	.LBB8_350
.LBB8_298:
.Ltmp363:
	move	$fp, $a0
	ld.d	$a0, $sp, 104
	bne	$a0, $s1, .LBB8_354
	b	.LBB8_355
.LBB8_299:
.Ltmp457:
	move	$fp, $a0
	ld.d	$a0, $sp, 104
	beq	$a0, $s1, .LBB8_342
	b	.LBB8_350
.LBB8_300:
.Ltmp356:
	move	$fp, $a0
	ld.d	$a0, $sp, 104
	bne	$a0, $s1, .LBB8_354
	b	.LBB8_355
.LBB8_301:
.Ltmp426:
	b	.LBB8_327
.LBB8_302:
.Ltmp325:
	b	.LBB8_329
.LBB8_303:
.Ltmp268:
	b	.LBB8_331
.LBB8_304:
.Ltmp213:
	b	.LBB8_333
.LBB8_305:
.Ltmp452:
	move	$fp, $a0
	ld.d	$a0, $sp, 104
	beq	$a0, $s1, .LBB8_342
	b	.LBB8_350
.LBB8_306:
.Ltmp351:
	move	$fp, $a0
	ld.d	$a0, $sp, 104
	bne	$a0, $s1, .LBB8_354
	b	.LBB8_355
.LBB8_307:
.Ltmp411:
	b	.LBB8_327
.LBB8_308:
.Ltmp310:
	b	.LBB8_329
.LBB8_309:
.Ltmp253:
	b	.LBB8_331
.LBB8_310:
.Ltmp198:
	b	.LBB8_333
.LBB8_311:
.Ltmp225:
	b	.LBB8_363
.LBB8_312:
.Ltmp445:
	move	$fp, $a0
	ld.d	$a0, $sp, 104
	beq	$a0, $s1, .LBB8_342
	b	.LBB8_350
.LBB8_313:
.Ltmp344:
	move	$fp, $a0
	ld.d	$a0, $sp, 104
	bne	$a0, $s1, .LBB8_354
	b	.LBB8_355
.LBB8_314:
.Ltmp477:
	move	$fp, $a0
	ld.d	$a0, $sp, 56
	beq	$a0, $s2, .LBB8_341
	b	.LBB8_348
.LBB8_315:
.Ltmp467:
	move	$fp, $a0
	ld.d	$a0, $sp, 104
	beq	$a0, $s1, .LBB8_342
	b	.LBB8_350
.LBB8_316:
.Ltmp429:
	b	.LBB8_327
.LBB8_317:
.Ltmp389:
	b	.LBB8_338
.LBB8_318:
.Ltmp386:
	pcaddu18i	$ra, %call36(_Unwind_Resume)
	jirl	$ra, $ra, 0
.LBB8_319:
.Ltmp376:
	move	$fp, $a0
	ld.d	$a0, $sp, 56
	beq	$a0, $s2, .LBB8_353
	b	.LBB8_360
.LBB8_320:
.Ltmp366:
	move	$fp, $a0
	ld.d	$a0, $sp, 104
	bne	$a0, $s1, .LBB8_354
	b	.LBB8_355
.LBB8_321:
.Ltmp328:
	b	.LBB8_329
.LBB8_322:
.Ltmp288:
	b	.LBB8_338
.LBB8_323:
.Ltmp285:
	pcaddu18i	$ra, %call36(_Unwind_Resume)
	jirl	$ra, $ra, 0
.LBB8_324:
.Ltmp231:
	b	.LBB8_338
.LBB8_325:
.Ltmp176:
	b	.LBB8_338
.LBB8_326:
.Ltmp398:
.LBB8_327:
	move	$fp, $a0
	fcmp.clt.d	$fcc0, $fs2, $fs0
	addi.d	$a0, $sp, 16
	bcnez	$fcc0, .LBB8_343
	b	.LBB8_356
.LBB8_328:
.Ltmp297:
.LBB8_329:
	move	$fp, $a0
	b	.LBB8_355
.LBB8_330:
.Ltmp240:
.LBB8_331:
	move	$fp, $a0
	b	.LBB8_368
.LBB8_332:
.Ltmp185:
.LBB8_333:
	move	$fp, $a0
	b	.LBB8_365
.LBB8_334:
.Ltmp490:
	b	.LBB8_338
.LBB8_335:
.Ltmp493:
	b	.LBB8_338
.LBB8_336:
.Ltmp282:
	b	.LBB8_338
.LBB8_337:
.Ltmp228:
.LBB8_338:
	move	$fp, $a0
	b	.LBB8_343
.LBB8_339:
.Ltmp484:
	ld.d	$a2, $sp, 24
	move	$fp, $a0
	bne	$a2, $s3, .LBB8_346
# %bb.340:
	ld.d	$a0, $sp, 56
	bne	$a0, $s2, .LBB8_348
.LBB8_341:
	ld.d	$a0, $sp, 104
	bne	$a0, $s1, .LBB8_350
.LBB8_342:
	fcmp.clt.d	$fcc0, $fs2, $fs0
	addi.d	$a0, $sp, 16
	bceqz	$fcc0, .LBB8_356
.LBB8_343:
	ld.d	$a0, $sp, 144
	beq	$a0, $s0, .LBB8_345
# %bb.344:                              # %_ZNKSt7__cxx1112basic_stringIcSt11char_traitsIcESaIcEE11_M_is_localEv.exit.i.i604
	ld.d	$a1, $sp, 160
	addi.d	$a1, $a1, 1
	pcaddu18i	$ra, %call36(_ZdlPvm)
	jirl	$ra, $ra, 0
.LBB8_345:
	move	$a0, $fp
	pcaddu18i	$ra, %call36(_Unwind_Resume)
	jirl	$ra, $ra, 0
.LBB8_346:                              # %_ZNKSt7__cxx1112basic_stringIcSt11char_traitsIcESaIcEE11_M_is_localEv.exit.i.i592
	ld.d	$a0, $sp, 40
	addi.d	$a1, $a0, 1
	move	$a0, $a2
	pcaddu18i	$ra, %call36(_ZdlPvm)
	jirl	$ra, $ra, 0
	ld.d	$a0, $sp, 56
	beq	$a0, $s2, .LBB8_341
	b	.LBB8_348
.LBB8_347:
.Ltmp474:
	move	$fp, $a0
	ld.d	$a0, $sp, 56
	beq	$a0, $s2, .LBB8_341
.LBB8_348:                              # %_ZNKSt7__cxx1112basic_stringIcSt11char_traitsIcESaIcEE11_M_is_localEv.exit.i.i595
	ld.d	$a1, $sp, 72
	addi.d	$a1, $a1, 1
	pcaddu18i	$ra, %call36(_ZdlPvm)
	jirl	$ra, $ra, 0
	ld.d	$a0, $sp, 104
	beq	$a0, $s1, .LBB8_342
	b	.LBB8_350
.LBB8_349:
.Ltmp436:
	move	$fp, $a0
	ld.d	$a0, $sp, 104
	beq	$a0, $s1, .LBB8_342
.LBB8_350:                              # %_ZNKSt7__cxx1112basic_stringIcSt11char_traitsIcESaIcEE11_M_is_localEv.exit.i.i598
	ld.d	$a1, $sp, 120
	addi.d	$a1, $a1, 1
	pcaddu18i	$ra, %call36(_ZdlPvm)
	jirl	$ra, $ra, 0
	fcmp.clt.d	$fcc0, $fs2, $fs0
	addi.d	$a0, $sp, 16
	bcnez	$fcc0, .LBB8_343
	b	.LBB8_356
.LBB8_351:
.Ltmp383:
	ld.d	$a2, $sp, 24
	move	$fp, $a0
	bne	$a2, $s3, .LBB8_358
# %bb.352:
	ld.d	$a0, $sp, 56
	bne	$a0, $s2, .LBB8_360
.LBB8_353:
	ld.d	$a0, $sp, 104
	beq	$a0, $s1, .LBB8_355
.LBB8_354:                              # %_ZNKSt7__cxx1112basic_stringIcSt11char_traitsIcESaIcEE11_M_is_localEv.exit.i.i454
	ld.d	$a1, $sp, 120
	addi.d	$a1, $a1, 1
	pcaddu18i	$ra, %call36(_ZdlPvm)
	jirl	$ra, $ra, 0
.LBB8_355:
	addi.d	$a0, $sp, 88
	ld.d	$a1, $sp, 8
	movgr2cf	$fcc0, $a1
	bceqz	$fcc0, .LBB8_343
.LBB8_356:                              # %.invoke
.Ltmp485:
	pcaddu18i	$ra, %call36(_ZN9benchmark8internal12CheckHandlerD2Ev)
	jirl	$ra, $ra, 0
.Ltmp486:
# %bb.357:                              # %.cont
.LBB8_358:                              # %_ZNKSt7__cxx1112basic_stringIcSt11char_traitsIcESaIcEE11_M_is_localEv.exit.i.i448
	ld.d	$a0, $sp, 40
	addi.d	$a1, $a0, 1
	move	$a0, $a2
	pcaddu18i	$ra, %call36(_ZdlPvm)
	jirl	$ra, $ra, 0
	ld.d	$a0, $sp, 56
	beq	$a0, $s2, .LBB8_353
	b	.LBB8_360
.LBB8_359:
.Ltmp373:
	move	$fp, $a0
	ld.d	$a0, $sp, 56
	beq	$a0, $s2, .LBB8_353
.LBB8_360:                              # %_ZNKSt7__cxx1112basic_stringIcSt11char_traitsIcESaIcEE11_M_is_localEv.exit.i.i451
	ld.d	$a1, $sp, 72
	addi.d	$a1, $a1, 1
	pcaddu18i	$ra, %call36(_ZdlPvm)
	jirl	$ra, $ra, 0
	ld.d	$a0, $sp, 104
	bne	$a0, $s1, .LBB8_354
	b	.LBB8_355
.LBB8_361:
.Ltmp335:
	move	$fp, $a0
	ld.d	$a0, $sp, 104
	bne	$a0, $s1, .LBB8_354
	b	.LBB8_355
.LBB8_362:
.Ltmp220:
.LBB8_363:
	move	$fp, $a0
	ld.d	$a0, $sp, 104
	beq	$a0, $s1, .LBB8_365
# %bb.364:                              # %_ZNKSt7__cxx1112basic_stringIcSt11char_traitsIcESaIcEE11_M_is_localEv.exit.i.i230
	ld.d	$a1, $sp, 120
	addi.d	$a1, $a1, 1
	pcaddu18i	$ra, %call36(_ZdlPvm)
	jirl	$ra, $ra, 0
.LBB8_365:
	ori	$a1, $zero, 1
	addi.d	$a0, $sp, 136
	beq	$s2, $a1, .LBB8_343
	b	.LBB8_356
.LBB8_366:
.Ltmp279:
	ld.d	$a2, $sp, 104
	move	$fp, $a0
	beq	$a2, $s1, .LBB8_368
# %bb.367:                              # %_ZNKSt7__cxx1112basic_stringIcSt11char_traitsIcESaIcEE11_M_is_localEv.exit.i.i316
	ld.d	$a0, $sp, 120
	addi.d	$a1, $a0, 1
	move	$a0, $a2
	pcaddu18i	$ra, %call36(_ZdlPvm)
	jirl	$ra, $ra, 0
.LBB8_368:
	addi.d	$a0, $sp, 96
	beq	$s2, $s3, .LBB8_343
	b	.LBB8_356
.LBB8_369:
.Ltmp487:
	pcaddu18i	$ra, %call36(__clang_call_terminate)
	jirl	$ra, $ra, 0
.Lfunc_end8:
	.size	_Z22CheckBytesAndItemsPSecRK7Results, .Lfunc_end8-_Z22CheckBytesAndItemsPSecRK7Results
	.cfi_endproc
	.section	.gcc_except_table,"a",@progbits
	.p2align	2, 0x0
GCC_except_table8:
.Lexception3:
	.byte	255                             # @LPStart Encoding = omit
	.byte	155                             # @TType Encoding = indirect pcrel sdata4
	.uleb128 .Lttbase1-.Lttbaseref1
.Lttbaseref1:
	.byte	1                               # Call site Encoding = uleb128
	.uleb128 .Lcst_end3-.Lcst_begin3
.Lcst_begin3:
	.uleb128 .Lfunc_begin3-.Lfunc_begin3    # >> Call Site 1 <<
	.uleb128 .Ltmp174-.Lfunc_begin3         #   Call between .Lfunc_begin3 and .Ltmp174
	.byte	0                               #     has no landing pad
	.byte	0                               #   On action: cleanup
	.uleb128 .Ltmp174-.Lfunc_begin3         # >> Call Site 2 <<
	.uleb128 .Ltmp175-.Ltmp174              #   Call between .Ltmp174 and .Ltmp175
	.uleb128 .Ltmp176-.Lfunc_begin3         #     jumps to .Ltmp176
	.byte	0                               #   On action: cleanup
	.uleb128 .Ltmp175-.Lfunc_begin3         # >> Call Site 3 <<
	.uleb128 .Ltmp177-.Ltmp175              #   Call between .Ltmp175 and .Ltmp177
	.byte	0                               #     has no landing pad
	.byte	0                               #   On action: cleanup
	.uleb128 .Ltmp177-.Lfunc_begin3         # >> Call Site 4 <<
	.uleb128 .Ltmp178-.Ltmp177              #   Call between .Ltmp177 and .Ltmp178
	.uleb128 .Ltmp228-.Lfunc_begin3         #     jumps to .Ltmp228
	.byte	0                               #   On action: cleanup
	.uleb128 .Ltmp179-.Lfunc_begin3         # >> Call Site 5 <<
	.uleb128 .Ltmp184-.Ltmp179              #   Call between .Ltmp179 and .Ltmp184
	.uleb128 .Ltmp185-.Lfunc_begin3         #     jumps to .Ltmp185
	.byte	0                               #   On action: cleanup
	.uleb128 .Ltmp186-.Lfunc_begin3         # >> Call Site 6 <<
	.uleb128 .Ltmp197-.Ltmp186              #   Call between .Ltmp186 and .Ltmp197
	.uleb128 .Ltmp198-.Lfunc_begin3         #     jumps to .Ltmp198
	.byte	0                               #   On action: cleanup
	.uleb128 .Ltmp199-.Lfunc_begin3         # >> Call Site 7 <<
	.uleb128 .Ltmp212-.Ltmp199              #   Call between .Ltmp199 and .Ltmp212
	.uleb128 .Ltmp213-.Lfunc_begin3         #     jumps to .Ltmp213
	.byte	0                               #   On action: cleanup
	.uleb128 .Ltmp214-.Lfunc_begin3         # >> Call Site 8 <<
	.uleb128 .Ltmp219-.Ltmp214              #   Call between .Ltmp214 and .Ltmp219
	.uleb128 .Ltmp220-.Lfunc_begin3         #     jumps to .Ltmp220
	.byte	0                               #   On action: cleanup
	.uleb128 .Ltmp221-.Lfunc_begin3         # >> Call Site 9 <<
	.uleb128 .Ltmp224-.Ltmp221              #   Call between .Ltmp221 and .Ltmp224
	.uleb128 .Ltmp225-.Lfunc_begin3         #     jumps to .Ltmp225
	.byte	0                               #   On action: cleanup
	.uleb128 .Ltmp224-.Lfunc_begin3         # >> Call Site 10 <<
	.uleb128 .Ltmp229-.Ltmp224              #   Call between .Ltmp224 and .Ltmp229
	.byte	0                               #     has no landing pad
	.byte	0                               #   On action: cleanup
	.uleb128 .Ltmp229-.Lfunc_begin3         # >> Call Site 11 <<
	.uleb128 .Ltmp230-.Ltmp229              #   Call between .Ltmp229 and .Ltmp230
	.uleb128 .Ltmp231-.Lfunc_begin3         #     jumps to .Ltmp231
	.byte	0                               #   On action: cleanup
	.uleb128 .Ltmp230-.Lfunc_begin3         # >> Call Site 12 <<
	.uleb128 .Ltmp232-.Ltmp230              #   Call between .Ltmp230 and .Ltmp232
	.byte	0                               #     has no landing pad
	.byte	0                               #   On action: cleanup
	.uleb128 .Ltmp232-.Lfunc_begin3         # >> Call Site 13 <<
	.uleb128 .Ltmp233-.Ltmp232              #   Call between .Ltmp232 and .Ltmp233
	.uleb128 .Ltmp282-.Lfunc_begin3         #     jumps to .Ltmp282
	.byte	0                               #   On action: cleanup
	.uleb128 .Ltmp234-.Lfunc_begin3         # >> Call Site 14 <<
	.uleb128 .Ltmp239-.Ltmp234              #   Call between .Ltmp234 and .Ltmp239
	.uleb128 .Ltmp240-.Lfunc_begin3         #     jumps to .Ltmp240
	.byte	0                               #   On action: cleanup
	.uleb128 .Ltmp241-.Lfunc_begin3         # >> Call Site 15 <<
	.uleb128 .Ltmp252-.Ltmp241              #   Call between .Ltmp241 and .Ltmp252
	.uleb128 .Ltmp253-.Lfunc_begin3         #     jumps to .Ltmp253
	.byte	0                               #   On action: cleanup
	.uleb128 .Ltmp254-.Lfunc_begin3         # >> Call Site 16 <<
	.uleb128 .Ltmp267-.Ltmp254              #   Call between .Ltmp254 and .Ltmp267
	.uleb128 .Ltmp268-.Lfunc_begin3         #     jumps to .Ltmp268
	.byte	0                               #   On action: cleanup
	.uleb128 .Ltmp269-.Lfunc_begin3         # >> Call Site 17 <<
	.uleb128 .Ltmp278-.Ltmp269              #   Call between .Ltmp269 and .Ltmp278
	.uleb128 .Ltmp279-.Lfunc_begin3         #     jumps to .Ltmp279
	.byte	0                               #   On action: cleanup
	.uleb128 .Ltmp278-.Lfunc_begin3         # >> Call Site 18 <<
	.uleb128 .Ltmp283-.Ltmp278              #   Call between .Ltmp278 and .Ltmp283
	.byte	0                               #     has no landing pad
	.byte	0                               #   On action: cleanup
	.uleb128 .Ltmp283-.Lfunc_begin3         # >> Call Site 19 <<
	.uleb128 .Ltmp284-.Ltmp283              #   Call between .Ltmp283 and .Ltmp284
	.uleb128 .Ltmp285-.Lfunc_begin3         #     jumps to .Ltmp285
	.byte	0                               #   On action: cleanup
	.uleb128 .Ltmp286-.Lfunc_begin3         # >> Call Site 20 <<
	.uleb128 .Ltmp287-.Ltmp286              #   Call between .Ltmp286 and .Ltmp287
	.uleb128 .Ltmp288-.Lfunc_begin3         #     jumps to .Ltmp288
	.byte	0                               #   On action: cleanup
	.uleb128 .Ltmp289-.Lfunc_begin3         # >> Call Site 21 <<
	.uleb128 .Ltmp290-.Ltmp289              #   Call between .Ltmp289 and .Ltmp290
	.uleb128 .Ltmp493-.Lfunc_begin3         #     jumps to .Ltmp493
	.byte	0                               #   On action: cleanup
	.uleb128 .Ltmp291-.Lfunc_begin3         # >> Call Site 22 <<
	.uleb128 .Ltmp296-.Ltmp291              #   Call between .Ltmp291 and .Ltmp296
	.uleb128 .Ltmp297-.Lfunc_begin3         #     jumps to .Ltmp297
	.byte	0                               #   On action: cleanup
	.uleb128 .Ltmp298-.Lfunc_begin3         # >> Call Site 23 <<
	.uleb128 .Ltmp309-.Ltmp298              #   Call between .Ltmp298 and .Ltmp309
	.uleb128 .Ltmp310-.Lfunc_begin3         #     jumps to .Ltmp310
	.byte	0                               #   On action: cleanup
	.uleb128 .Ltmp311-.Lfunc_begin3         # >> Call Site 24 <<
	.uleb128 .Ltmp324-.Ltmp311              #   Call between .Ltmp311 and .Ltmp324
	.uleb128 .Ltmp325-.Lfunc_begin3         #     jumps to .Ltmp325
	.byte	0                               #   On action: cleanup
	.uleb128 .Ltmp326-.Lfunc_begin3         # >> Call Site 25 <<
	.uleb128 .Ltmp327-.Ltmp326              #   Call between .Ltmp326 and .Ltmp327
	.uleb128 .Ltmp328-.Lfunc_begin3         #     jumps to .Ltmp328
	.byte	0                               #   On action: cleanup
	.uleb128 .Ltmp329-.Lfunc_begin3         # >> Call Site 26 <<
	.uleb128 .Ltmp334-.Ltmp329              #   Call between .Ltmp329 and .Ltmp334
	.uleb128 .Ltmp335-.Lfunc_begin3         #     jumps to .Ltmp335
	.byte	0                               #   On action: cleanup
	.uleb128 .Ltmp336-.Lfunc_begin3         # >> Call Site 27 <<
	.uleb128 .Ltmp343-.Ltmp336              #   Call between .Ltmp336 and .Ltmp343
	.uleb128 .Ltmp344-.Lfunc_begin3         #     jumps to .Ltmp344
	.byte	0                               #   On action: cleanup
	.uleb128 .Ltmp345-.Lfunc_begin3         # >> Call Site 28 <<
	.uleb128 .Ltmp350-.Ltmp345              #   Call between .Ltmp345 and .Ltmp350
	.uleb128 .Ltmp351-.Lfunc_begin3         #     jumps to .Ltmp351
	.byte	0                               #   On action: cleanup
	.uleb128 .Ltmp352-.Lfunc_begin3         # >> Call Site 29 <<
	.uleb128 .Ltmp355-.Ltmp352              #   Call between .Ltmp352 and .Ltmp355
	.uleb128 .Ltmp356-.Lfunc_begin3         #     jumps to .Ltmp356
	.byte	0                               #   On action: cleanup
	.uleb128 .Ltmp357-.Lfunc_begin3         # >> Call Site 30 <<
	.uleb128 .Ltmp362-.Ltmp357              #   Call between .Ltmp357 and .Ltmp362
	.uleb128 .Ltmp363-.Lfunc_begin3         #     jumps to .Ltmp363
	.byte	0                               #   On action: cleanup
	.uleb128 .Ltmp364-.Lfunc_begin3         # >> Call Site 31 <<
	.uleb128 .Ltmp365-.Ltmp364              #   Call between .Ltmp364 and .Ltmp365
	.uleb128 .Ltmp366-.Lfunc_begin3         #     jumps to .Ltmp366
	.byte	0                               #   On action: cleanup
	.uleb128 .Ltmp367-.Lfunc_begin3         # >> Call Site 32 <<
	.uleb128 .Ltmp372-.Ltmp367              #   Call between .Ltmp367 and .Ltmp372
	.uleb128 .Ltmp373-.Lfunc_begin3         #     jumps to .Ltmp373
	.byte	0                               #   On action: cleanup
	.uleb128 .Ltmp374-.Lfunc_begin3         # >> Call Site 33 <<
	.uleb128 .Ltmp375-.Ltmp374              #   Call between .Ltmp374 and .Ltmp375
	.uleb128 .Ltmp376-.Lfunc_begin3         #     jumps to .Ltmp376
	.byte	0                               #   On action: cleanup
	.uleb128 .Ltmp377-.Lfunc_begin3         # >> Call Site 34 <<
	.uleb128 .Ltmp382-.Ltmp377              #   Call between .Ltmp377 and .Ltmp382
	.uleb128 .Ltmp383-.Lfunc_begin3         #     jumps to .Ltmp383
	.byte	0                               #   On action: cleanup
	.uleb128 .Ltmp382-.Lfunc_begin3         # >> Call Site 35 <<
	.uleb128 .Ltmp384-.Ltmp382              #   Call between .Ltmp382 and .Ltmp384
	.byte	0                               #     has no landing pad
	.byte	0                               #   On action: cleanup
	.uleb128 .Ltmp384-.Lfunc_begin3         # >> Call Site 36 <<
	.uleb128 .Ltmp385-.Ltmp384              #   Call between .Ltmp384 and .Ltmp385
	.uleb128 .Ltmp386-.Lfunc_begin3         #     jumps to .Ltmp386
	.byte	0                               #   On action: cleanup
	.uleb128 .Ltmp387-.Lfunc_begin3         # >> Call Site 37 <<
	.uleb128 .Ltmp388-.Ltmp387              #   Call between .Ltmp387 and .Ltmp388
	.uleb128 .Ltmp389-.Lfunc_begin3         #     jumps to .Ltmp389
	.byte	0                               #   On action: cleanup
	.uleb128 .Ltmp390-.Lfunc_begin3         # >> Call Site 38 <<
	.uleb128 .Ltmp391-.Ltmp390              #   Call between .Ltmp390 and .Ltmp391
	.uleb128 .Ltmp490-.Lfunc_begin3         #     jumps to .Ltmp490
	.byte	0                               #   On action: cleanup
	.uleb128 .Ltmp392-.Lfunc_begin3         # >> Call Site 39 <<
	.uleb128 .Ltmp397-.Ltmp392              #   Call between .Ltmp392 and .Ltmp397
	.uleb128 .Ltmp398-.Lfunc_begin3         #     jumps to .Ltmp398
	.byte	0                               #   On action: cleanup
	.uleb128 .Ltmp399-.Lfunc_begin3         # >> Call Site 40 <<
	.uleb128 .Ltmp410-.Ltmp399              #   Call between .Ltmp399 and .Ltmp410
	.uleb128 .Ltmp411-.Lfunc_begin3         #     jumps to .Ltmp411
	.byte	0                               #   On action: cleanup
	.uleb128 .Ltmp412-.Lfunc_begin3         # >> Call Site 41 <<
	.uleb128 .Ltmp425-.Ltmp412              #   Call between .Ltmp412 and .Ltmp425
	.uleb128 .Ltmp426-.Lfunc_begin3         #     jumps to .Ltmp426
	.byte	0                               #   On action: cleanup
	.uleb128 .Ltmp427-.Lfunc_begin3         # >> Call Site 42 <<
	.uleb128 .Ltmp428-.Ltmp427              #   Call between .Ltmp427 and .Ltmp428
	.uleb128 .Ltmp429-.Lfunc_begin3         #     jumps to .Ltmp429
	.byte	0                               #   On action: cleanup
	.uleb128 .Ltmp430-.Lfunc_begin3         # >> Call Site 43 <<
	.uleb128 .Ltmp435-.Ltmp430              #   Call between .Ltmp430 and .Ltmp435
	.uleb128 .Ltmp436-.Lfunc_begin3         #     jumps to .Ltmp436
	.byte	0                               #   On action: cleanup
	.uleb128 .Ltmp437-.Lfunc_begin3         # >> Call Site 44 <<
	.uleb128 .Ltmp444-.Ltmp437              #   Call between .Ltmp437 and .Ltmp444
	.uleb128 .Ltmp445-.Lfunc_begin3         #     jumps to .Ltmp445
	.byte	0                               #   On action: cleanup
	.uleb128 .Ltmp446-.Lfunc_begin3         # >> Call Site 45 <<
	.uleb128 .Ltmp451-.Ltmp446              #   Call between .Ltmp446 and .Ltmp451
	.uleb128 .Ltmp452-.Lfunc_begin3         #     jumps to .Ltmp452
	.byte	0                               #   On action: cleanup
	.uleb128 .Ltmp453-.Lfunc_begin3         # >> Call Site 46 <<
	.uleb128 .Ltmp456-.Ltmp453              #   Call between .Ltmp453 and .Ltmp456
	.uleb128 .Ltmp457-.Lfunc_begin3         #     jumps to .Ltmp457
	.byte	0                               #   On action: cleanup
	.uleb128 .Ltmp458-.Lfunc_begin3         # >> Call Site 47 <<
	.uleb128 .Ltmp463-.Ltmp458              #   Call between .Ltmp458 and .Ltmp463
	.uleb128 .Ltmp464-.Lfunc_begin3         #     jumps to .Ltmp464
	.byte	0                               #   On action: cleanup
	.uleb128 .Ltmp465-.Lfunc_begin3         # >> Call Site 48 <<
	.uleb128 .Ltmp466-.Ltmp465              #   Call between .Ltmp465 and .Ltmp466
	.uleb128 .Ltmp467-.Lfunc_begin3         #     jumps to .Ltmp467
	.byte	0                               #   On action: cleanup
	.uleb128 .Ltmp468-.Lfunc_begin3         # >> Call Site 49 <<
	.uleb128 .Ltmp473-.Ltmp468              #   Call between .Ltmp468 and .Ltmp473
	.uleb128 .Ltmp474-.Lfunc_begin3         #     jumps to .Ltmp474
	.byte	0                               #   On action: cleanup
	.uleb128 .Ltmp475-.Lfunc_begin3         # >> Call Site 50 <<
	.uleb128 .Ltmp476-.Ltmp475              #   Call between .Ltmp475 and .Ltmp476
	.uleb128 .Ltmp477-.Lfunc_begin3         #     jumps to .Ltmp477
	.byte	0                               #   On action: cleanup
	.uleb128 .Ltmp478-.Lfunc_begin3         # >> Call Site 51 <<
	.uleb128 .Ltmp483-.Ltmp478              #   Call between .Ltmp478 and .Ltmp483
	.uleb128 .Ltmp484-.Lfunc_begin3         #     jumps to .Ltmp484
	.byte	0                               #   On action: cleanup
	.uleb128 .Ltmp483-.Lfunc_begin3         # >> Call Site 52 <<
	.uleb128 .Ltmp226-.Ltmp483              #   Call between .Ltmp483 and .Ltmp226
	.byte	0                               #     has no landing pad
	.byte	0                               #   On action: cleanup
	.uleb128 .Ltmp226-.Lfunc_begin3         # >> Call Site 53 <<
	.uleb128 .Ltmp227-.Ltmp226              #   Call between .Ltmp226 and .Ltmp227
	.uleb128 .Ltmp228-.Lfunc_begin3         #     jumps to .Ltmp228
	.byte	0                               #   On action: cleanup
	.uleb128 .Ltmp280-.Lfunc_begin3         # >> Call Site 54 <<
	.uleb128 .Ltmp281-.Ltmp280              #   Call between .Ltmp280 and .Ltmp281
	.uleb128 .Ltmp282-.Lfunc_begin3         #     jumps to .Ltmp282
	.byte	0                               #   On action: cleanup
	.uleb128 .Ltmp491-.Lfunc_begin3         # >> Call Site 55 <<
	.uleb128 .Ltmp492-.Ltmp491              #   Call between .Ltmp491 and .Ltmp492
	.uleb128 .Ltmp493-.Lfunc_begin3         #     jumps to .Ltmp493
	.byte	0                               #   On action: cleanup
	.uleb128 .Ltmp488-.Lfunc_begin3         # >> Call Site 56 <<
	.uleb128 .Ltmp489-.Ltmp488              #   Call between .Ltmp488 and .Ltmp489
	.uleb128 .Ltmp490-.Lfunc_begin3         #     jumps to .Ltmp490
	.byte	0                               #   On action: cleanup
	.uleb128 .Ltmp489-.Lfunc_begin3         # >> Call Site 57 <<
	.uleb128 .Ltmp485-.Ltmp489              #   Call between .Ltmp489 and .Ltmp485
	.byte	0                               #     has no landing pad
	.byte	0                               #   On action: cleanup
	.uleb128 .Ltmp485-.Lfunc_begin3         # >> Call Site 58 <<
	.uleb128 .Ltmp486-.Ltmp485              #   Call between .Ltmp485 and .Ltmp486
	.uleb128 .Ltmp487-.Lfunc_begin3         #     jumps to .Ltmp487
	.byte	1                               #   On action: 1
	.uleb128 .Ltmp486-.Lfunc_begin3         # >> Call Site 59 <<
	.uleb128 .Lfunc_end8-.Ltmp486           #   Call between .Ltmp486 and .Lfunc_end8
	.byte	0                               #     has no landing pad
	.byte	0                               #   On action: cleanup
.Lcst_end3:
	.byte	1                               # >> Action Record 1 <<
                                        #   Catch TypeInfo 1
	.byte	0                               #   No further actions
	.p2align	2, 0x0
                                        # >> Catch TypeInfos <<
	.word	0                               # TypeInfo 1
.Lttbase1:
	.p2align	2, 0x0
                                        # -- End function
	.section	.text._ZNK7Results5GetAsIdEET_RKNSt7__cxx1112basic_stringIcSt11char_traitsIcESaIcEEE,"axG",@progbits,_ZNK7Results5GetAsIdEET_RKNSt7__cxx1112basic_stringIcSt11char_traitsIcESaIcEEE,comdat
	.hidden	_ZNK7Results5GetAsIdEET_RKNSt7__cxx1112basic_stringIcSt11char_traitsIcESaIcEEE # -- Begin function _ZNK7Results5GetAsIdEET_RKNSt7__cxx1112basic_stringIcSt11char_traitsIcESaIcEEE
	.weak	_ZNK7Results5GetAsIdEET_RKNSt7__cxx1112basic_stringIcSt11char_traitsIcESaIcEEE
	.p2align	5
	.type	_ZNK7Results5GetAsIdEET_RKNSt7__cxx1112basic_stringIcSt11char_traitsIcESaIcEEE,@function
_ZNK7Results5GetAsIdEET_RKNSt7__cxx1112basic_stringIcSt11char_traitsIcESaIcEEE: # @_ZNK7Results5GetAsIdEET_RKNSt7__cxx1112basic_stringIcSt11char_traitsIcESaIcEEE
.Lfunc_begin4:
	.cfi_startproc
	.cfi_personality 155, DW.ref.__gxx_personality_v0
	.cfi_lsda 27, .Lexception4
# %bb.0:
	addi.d	$sp, $sp, -512
	.cfi_def_cfa_offset 512
	st.d	$ra, $sp, 504                   # 8-byte Folded Spill
	st.d	$fp, $sp, 496                   # 8-byte Folded Spill
	st.d	$s0, $sp, 488                   # 8-byte Folded Spill
	st.d	$s1, $sp, 480                   # 8-byte Folded Spill
	st.d	$s2, $sp, 472                   # 8-byte Folded Spill
	st.d	$s3, $sp, 464                   # 8-byte Folded Spill
	st.d	$s4, $sp, 456                   # 8-byte Folded Spill
	st.d	$s5, $sp, 448                   # 8-byte Folded Spill
	st.d	$s6, $sp, 440                   # 8-byte Folded Spill
	st.d	$s7, $sp, 432                   # 8-byte Folded Spill
	st.d	$s8, $sp, 424                   # 8-byte Folded Spill
	fst.d	$fs0, $sp, 416                  # 8-byte Folded Spill
	.cfi_offset 1, -8
	.cfi_offset 22, -16
	.cfi_offset 23, -24
	.cfi_offset 24, -32
	.cfi_offset 25, -40
	.cfi_offset 26, -48
	.cfi_offset 27, -56
	.cfi_offset 28, -64
	.cfi_offset 29, -72
	.cfi_offset 30, -80
	.cfi_offset 31, -88
	.cfi_offset 56, -96
	ld.d	$s5, $a0, 48
	beqz	$s5, .LBB9_20
# %bb.1:                                # %.lr.ph.i.i.i.i
	addi.d	$s1, $a0, 40
	ld.d	$s4, $a1, 8
	ld.d	$fp, $a1, 0
	lu12i.w	$s3, -524288
	lu12i.w	$a0, 524287
	ori	$s2, $a0, 4095
	ori	$s6, $zero, 16
	ori	$s7, $zero, 24
	move	$s0, $s1
	b	.LBB9_4
	.p2align	4, , 16
.LBB9_2:                                # %_ZNSt11char_traitsIcE7compareEPKcS2_m.exit.thread.i.i.i.i.i.i.i
                                        #   in Loop: Header=BB9_4 Depth=1
	sub.d	$a0, $s8, $s4
	slt	$a1, $s3, $a0
	maskeqz	$a0, $a0, $a1
	masknez	$a1, $s3, $a1
	or	$a0, $a0, $a1
	slt	$a1, $a0, $s2
	maskeqz	$a0, $a0, $a1
	masknez	$a1, $s2, $a1
	or	$a0, $a0, $a1
.LBB9_3:                                # %_ZNKSt4lessINSt7__cxx1112basic_stringIcSt11char_traitsIcESaIcEEEEclERKS5_S8_.exit.i.i.i.i
                                        #   in Loop: Header=BB9_4 Depth=1
	addi.w	$a0, $a0, 0
	slti	$a0, $a0, 0
	masknez	$a1, $s5, $a0
	masknez	$a2, $s6, $a0
	maskeqz	$a3, $s7, $a0
	or	$a2, $a3, $a2
	ldx.d	$s5, $s5, $a2
	maskeqz	$a0, $s0, $a0
	or	$s0, $a0, $a1
	beqz	$s5, .LBB9_6
.LBB9_4:                                # =>This Inner Loop Header: Depth=1
	ld.d	$s8, $s5, 40
	sltu	$a0, $s4, $s8
	masknez	$a1, $s8, $a0
	maskeqz	$a0, $s4, $a0
	or	$a2, $a0, $a1
	beqz	$a2, .LBB9_2
# %bb.5:                                # %_ZNSt11char_traitsIcE7compareEPKcS2_m.exit.i.i.i.i.i.i.i
                                        #   in Loop: Header=BB9_4 Depth=1
	ld.d	$a0, $s5, 32
	move	$a1, $fp
	pcaddu18i	$ra, %call36(memcmp)
	jirl	$ra, $ra, 0
	bnez	$a0, .LBB9_3
	b	.LBB9_2
.LBB9_6:                                # %_ZNKSt8_Rb_treeINSt7__cxx1112basic_stringIcSt11char_traitsIcESaIcEEESt4pairIKS5_S5_ESt10_Select1stIS8_ESt4lessIS5_ESaIS8_EE14_M_lower_boundEPSt18_Rb_tree_node_baseSG_RS7_.exit.i.i.i
	beq	$s0, $s1, .LBB9_20
# %bb.7:
	ld.d	$s5, $s0, 40
	sltu	$a0, $s5, $s4
	masknez	$a1, $s4, $a0
	maskeqz	$a0, $s5, $a0
	or	$a2, $a0, $a1
	beqz	$a2, .LBB9_9
# %bb.8:                                # %_ZNSt11char_traitsIcE7compareEPKcS2_m.exit.i.i.i.i.i.i
	ld.d	$a1, $s0, 32
	move	$a0, $fp
	pcaddu18i	$ra, %call36(memcmp)
	jirl	$ra, $ra, 0
	bnez	$a0, .LBB9_10
.LBB9_9:                                # %_ZNSt11char_traitsIcE7compareEPKcS2_m.exit.thread.i.i.i.i.i.i
	sub.d	$a0, $s4, $s5
	slt	$a1, $s3, $a0
	maskeqz	$a0, $a0, $a1
	masknez	$a1, $s3, $a1
	or	$a0, $a0, $a1
	slt	$a1, $a0, $s2
	maskeqz	$a0, $a0, $a1
	masknez	$a1, $s2, $a1
	or	$a0, $a0, $a1
.LBB9_10:                               # %_ZNK7Results3GetERKNSt7__cxx1112basic_stringIcSt11char_traitsIcESaIcEEE.exit
	addi.w	$a0, $a0, 0
	bltz	$a0, .LBB9_20
# %bb.11:
	ld.d	$a1, $s0, 72
	beqz	$a1, .LBB9_20
# %bb.12:
	slti	$a0, $a0, 0
	pcalau12i	$fp, %pc_hi20(_ZGVZN9benchmark8internal18GetNullLogInstanceEvE8null_log)
	ld.b	$a1, $fp, %pc_lo12(_ZGVZN9benchmark8internal18GetNullLogInstanceEvE8null_log)
	masknez	$a2, $s0, $a0
	maskeqz	$a0, $s1, $a0
	or	$s1, $a0, $a2
	dbar	20
	beqz	$a1, .LBB9_21
.LBB9_13:                               # %_ZN9benchmark8internal18GetNullLogInstanceEv.exit
	addi.d	$a0, $sp, 24
	pcaddu18i	$ra, %call36(_ZNSt7__cxx1118basic_stringstreamIcSt11char_traitsIcESaIcEEC1Ev)
	jirl	$ra, $ra, 0
	ld.d	$a1, $s1, 64
	ld.d	$a2, $s0, 72
	addi.d	$a0, $sp, 40
.Ltmp494:
	pcaddu18i	$ra, %call36(_ZSt16__ostream_insertIcSt11char_traitsIcEERSt13basic_ostreamIT_T0_ES6_PKS3_l)
	jirl	$ra, $ra, 0
.Ltmp495:
# %bb.14:                               # %_ZStlsIcSt11char_traitsIcESaIcEERSt13basic_ostreamIT_T0_ES7_RKNSt7__cxx1112basic_stringIS4_S5_T1_EE.exit
.Ltmp497:
	addi.d	$a0, $sp, 24
	addi.d	$a1, $sp, 16
	addi.d	$s0, $sp, 24
	pcaddu18i	$ra, %call36(_ZNSi10_M_extractIdEERSiRT_)
	jirl	$ra, $ra, 0
.Ltmp498:
# %bb.15:                               # %_ZNSirsERd.exit
	ld.d	$a0, $sp, 24
	ld.d	$a0, $a0, -24
	add.d	$a0, $s0, $a0
	ld.bu	$a0, $a0, 32
	andi	$a0, $a0, 5
	bnez	$a0, .LBB9_23
# %bb.16:
	ld.b	$a0, $fp, %pc_lo12(_ZGVZN9benchmark8internal18GetNullLogInstanceEvE8null_log)
	dbar	20
	beqz	$a0, .LBB9_26
.LBB9_17:
	pcalau12i	$a0, %got_pc_hi20(_ZTTNSt7__cxx1118basic_stringstreamIcSt11char_traitsIcESaIcEEE)
	ld.d	$fp, $a0, %got_pc_lo12(_ZTTNSt7__cxx1118basic_stringstreamIcSt11char_traitsIcESaIcEEE)
	ld.d	$a0, $fp, 0
	st.d	$a0, $sp, 24
	ld.d	$a1, $fp, 64
	ld.d	$a0, $a0, -24
	addi.d	$s0, $sp, 24
	stx.d	$a1, $a0, $s0
	ld.d	$a1, $fp, 72
	pcalau12i	$a0, %got_pc_hi20(_ZTVNSt7__cxx1115basic_stringbufIcSt11char_traitsIcESaIcEEE)
	ld.d	$a2, $a0, %got_pc_lo12(_ZTVNSt7__cxx1115basic_stringbufIcSt11char_traitsIcESaIcEEE)
	fld.d	$fs0, $sp, 16
	ld.d	$a0, $sp, 120
	st.d	$a1, $sp, 40
	addi.d	$a1, $a2, 16
	addi.d	$a2, $sp, 136
	st.d	$a1, $sp, 48
	beq	$a0, $a2, .LBB9_19
# %bb.18:                               # %_ZNKSt7__cxx1112basic_stringIcSt11char_traitsIcESaIcEE11_M_is_localEv.exit.i.i.i.i.i
	ld.d	$a1, $sp, 136
	addi.d	$a1, $a1, 1
	pcaddu18i	$ra, %call36(_ZdlPvm)
	jirl	$ra, $ra, 0
.LBB9_19:                               # %_ZNSt7__cxx1118basic_stringstreamIcSt11char_traitsIcESaIcEED1Ev.exit
	pcalau12i	$a0, %got_pc_hi20(_ZTVSt15basic_streambufIcSt11char_traitsIcEE)
	ld.d	$a0, $a0, %got_pc_lo12(_ZTVSt15basic_streambufIcSt11char_traitsIcEE)
	addi.d	$a0, $a0, 16
	st.d	$a0, $sp, 48
	addi.d	$a0, $sp, 104
	pcaddu18i	$ra, %call36(_ZNSt6localeD1Ev)
	jirl	$ra, $ra, 0
	ld.d	$a0, $fp, 16
	st.d	$a0, $sp, 24
	ld.d	$a1, $fp, 24
	ld.d	$a0, $a0, -24
	stx.d	$a1, $a0, $s0
	st.d	$zero, $sp, 32
	addi.d	$a0, $sp, 152
	pcaddu18i	$ra, %call36(_ZNSt8ios_baseD2Ev)
	jirl	$ra, $ra, 0
	fmov.d	$fa0, $fs0
	fld.d	$fs0, $sp, 416                  # 8-byte Folded Reload
	ld.d	$s8, $sp, 424                   # 8-byte Folded Reload
	ld.d	$s7, $sp, 432                   # 8-byte Folded Reload
	ld.d	$s6, $sp, 440                   # 8-byte Folded Reload
	ld.d	$s5, $sp, 448                   # 8-byte Folded Reload
	ld.d	$s4, $sp, 456                   # 8-byte Folded Reload
	ld.d	$s3, $sp, 464                   # 8-byte Folded Reload
	ld.d	$s2, $sp, 472                   # 8-byte Folded Reload
	ld.d	$s1, $sp, 480                   # 8-byte Folded Reload
	ld.d	$s0, $sp, 488                   # 8-byte Folded Reload
	ld.d	$fp, $sp, 496                   # 8-byte Folded Reload
	ld.d	$ra, $sp, 504                   # 8-byte Folded Reload
	addi.d	$sp, $sp, 512
	ret
.LBB9_20:                               # %.critedge
	pcalau12i	$a0, %pc_hi20(.L.str.203)
	addi.d	$a1, $a0, %pc_lo12(.L.str.203)
	pcalau12i	$a0, %pc_hi20(.L.str.204)
	addi.d	$a2, $a0, %pc_lo12(.L.str.204)
	pcalau12i	$a0, %pc_hi20(.L__func__._ZNK7Results5GetAsIdEET_RKNSt7__cxx1112basic_stringIcSt11char_traitsIcESaIcEEE)
	addi.d	$a3, $a0, %pc_lo12(.L__func__._ZNK7Results5GetAsIdEET_RKNSt7__cxx1112basic_stringIcSt11char_traitsIcESaIcEEE)
	addi.d	$a0, $sp, 24
	ori	$a4, $zero, 144
	pcaddu18i	$ra, %call36(_ZN9benchmark8internal12CheckHandlerC2EPKcS3_S3_i)
	jirl	$ra, $ra, 0
	addi.d	$a0, $sp, 24
	pcaddu18i	$ra, %call36(_ZN9benchmark8internal12CheckHandlerD2Ev)
	jirl	$ra, $ra, 0
.LBB9_21:
	pcalau12i	$a0, %pc_hi20(_ZGVZN9benchmark8internal18GetNullLogInstanceEvE8null_log)
	addi.d	$a0, $a0, %pc_lo12(_ZGVZN9benchmark8internal18GetNullLogInstanceEvE8null_log)
	pcaddu18i	$ra, %call36(__cxa_guard_acquire)
	jirl	$ra, $ra, 0
	addi.w	$a0, $a0, 0
	beqz	$a0, .LBB9_13
# %bb.22:
	pcalau12i	$a0, %pc_hi20(_ZZN9benchmark8internal18GetNullLogInstanceEvE8null_log)
	st.d	$zero, $a0, %pc_lo12(_ZZN9benchmark8internal18GetNullLogInstanceEvE8null_log)
	pcalau12i	$a0, %pc_hi20(_ZGVZN9benchmark8internal18GetNullLogInstanceEvE8null_log)
	addi.d	$a0, $a0, %pc_lo12(_ZGVZN9benchmark8internal18GetNullLogInstanceEvE8null_log)
	pcaddu18i	$ra, %call36(__cxa_guard_release)
	jirl	$ra, $ra, 0
	b	.LBB9_13
.LBB9_23:
.Ltmp500:
	pcalau12i	$a0, %pc_hi20(.L.str.205)
	addi.d	$a1, $a0, %pc_lo12(.L.str.205)
	pcalau12i	$a0, %pc_hi20(.L.str.204)
	addi.d	$a2, $a0, %pc_lo12(.L.str.204)
	pcalau12i	$a0, %pc_hi20(.L__func__._ZNK7Results5GetAsIdEET_RKNSt7__cxx1112basic_stringIcSt11char_traitsIcESaIcEEE)
	addi.d	$a3, $a0, %pc_lo12(.L__func__._ZNK7Results5GetAsIdEET_RKNSt7__cxx1112basic_stringIcSt11char_traitsIcESaIcEEE)
	addi.d	$a0, $sp, 8
	ori	$a4, $zero, 149
	pcaddu18i	$ra, %call36(_ZN9benchmark8internal12CheckHandlerC2EPKcS3_S3_i)
	jirl	$ra, $ra, 0
.Ltmp501:
# %bb.24:                               # %_ZN9benchmark8internal18GetNullLogInstanceEv.exit20
.Ltmp502:
	addi.d	$a0, $sp, 8
	pcaddu18i	$ra, %call36(_ZN9benchmark8internal12CheckHandlerD2Ev)
	jirl	$ra, $ra, 0
.Ltmp503:
# %bb.25:
.LBB9_26:
	pcalau12i	$a0, %pc_hi20(_ZGVZN9benchmark8internal18GetNullLogInstanceEvE8null_log)
	addi.d	$a0, $a0, %pc_lo12(_ZGVZN9benchmark8internal18GetNullLogInstanceEvE8null_log)
	pcaddu18i	$ra, %call36(__cxa_guard_acquire)
	jirl	$ra, $ra, 0
	addi.w	$a0, $a0, 0
	beqz	$a0, .LBB9_17
# %bb.27:
	pcalau12i	$a0, %pc_hi20(_ZZN9benchmark8internal18GetNullLogInstanceEvE8null_log)
	st.d	$zero, $a0, %pc_lo12(_ZZN9benchmark8internal18GetNullLogInstanceEvE8null_log)
	pcalau12i	$a0, %pc_hi20(_ZGVZN9benchmark8internal18GetNullLogInstanceEvE8null_log)
	addi.d	$a0, $a0, %pc_lo12(_ZGVZN9benchmark8internal18GetNullLogInstanceEvE8null_log)
	pcaddu18i	$ra, %call36(__cxa_guard_release)
	jirl	$ra, $ra, 0
	b	.LBB9_17
.LBB9_28:
.Ltmp504:
	b	.LBB9_31
.LBB9_29:
.Ltmp499:
	b	.LBB9_31
.LBB9_30:
.Ltmp496:
.LBB9_31:
	move	$fp, $a0
	addi.d	$a0, $sp, 24
	pcaddu18i	$ra, %call36(_ZNSt7__cxx1118basic_stringstreamIcSt11char_traitsIcESaIcEED1Ev)
	jirl	$ra, $ra, 0
	move	$a0, $fp
	pcaddu18i	$ra, %call36(_Unwind_Resume)
	jirl	$ra, $ra, 0
.Lfunc_end9:
	.size	_ZNK7Results5GetAsIdEET_RKNSt7__cxx1112basic_stringIcSt11char_traitsIcESaIcEEE, .Lfunc_end9-_ZNK7Results5GetAsIdEET_RKNSt7__cxx1112basic_stringIcSt11char_traitsIcESaIcEEE
	.cfi_endproc
	.section	.gcc_except_table._ZNK7Results5GetAsIdEET_RKNSt7__cxx1112basic_stringIcSt11char_traitsIcESaIcEEE,"aG",@progbits,_ZNK7Results5GetAsIdEET_RKNSt7__cxx1112basic_stringIcSt11char_traitsIcESaIcEEE,comdat
	.p2align	2, 0x0
GCC_except_table9:
.Lexception4:
	.byte	255                             # @LPStart Encoding = omit
	.byte	255                             # @TType Encoding = omit
	.byte	1                               # Call site Encoding = uleb128
	.uleb128 .Lcst_end4-.Lcst_begin4
.Lcst_begin4:
	.uleb128 .Lfunc_begin4-.Lfunc_begin4    # >> Call Site 1 <<
	.uleb128 .Ltmp494-.Lfunc_begin4         #   Call between .Lfunc_begin4 and .Ltmp494
	.byte	0                               #     has no landing pad
	.byte	0                               #   On action: cleanup
	.uleb128 .Ltmp494-.Lfunc_begin4         # >> Call Site 2 <<
	.uleb128 .Ltmp495-.Ltmp494              #   Call between .Ltmp494 and .Ltmp495
	.uleb128 .Ltmp496-.Lfunc_begin4         #     jumps to .Ltmp496
	.byte	0                               #   On action: cleanup
	.uleb128 .Ltmp497-.Lfunc_begin4         # >> Call Site 3 <<
	.uleb128 .Ltmp498-.Ltmp497              #   Call between .Ltmp497 and .Ltmp498
	.uleb128 .Ltmp499-.Lfunc_begin4         #     jumps to .Ltmp499
	.byte	0                               #   On action: cleanup
	.uleb128 .Ltmp498-.Lfunc_begin4         # >> Call Site 4 <<
	.uleb128 .Ltmp500-.Ltmp498              #   Call between .Ltmp498 and .Ltmp500
	.byte	0                               #     has no landing pad
	.byte	0                               #   On action: cleanup
	.uleb128 .Ltmp500-.Lfunc_begin4         # >> Call Site 5 <<
	.uleb128 .Ltmp503-.Ltmp500              #   Call between .Ltmp500 and .Ltmp503
	.uleb128 .Ltmp504-.Lfunc_begin4         #     jumps to .Ltmp504
	.byte	0                               #   On action: cleanup
	.uleb128 .Ltmp503-.Lfunc_begin4         # >> Call Site 6 <<
	.uleb128 .Lfunc_end9-.Ltmp503           #   Call between .Ltmp503 and .Lfunc_end9
	.byte	0                               #     has no landing pad
	.byte	0                               #   On action: cleanup
.Lcst_end4:
	.p2align	2, 0x0
                                        # -- End function
	.text
	.hidden	_Z16BM_Counters_RateRN9benchmark5StateE # -- Begin function _Z16BM_Counters_RateRN9benchmark5StateE
	.globl	_Z16BM_Counters_RateRN9benchmark5StateE
	.p2align	5
	.type	_Z16BM_Counters_RateRN9benchmark5StateE,@function
_Z16BM_Counters_RateRN9benchmark5StateE: # @_Z16BM_Counters_RateRN9benchmark5StateE
.Lfunc_begin5:
	.cfi_startproc
	.cfi_personality 155, DW.ref.__gxx_personality_v0
	.cfi_lsda 27, .Lexception5
# %bb.0:                                # %_ZN9benchmark5State13StateIteratorC2EPS0_.exit
	addi.d	$sp, $sp, -64
	.cfi_def_cfa_offset 64
	st.d	$ra, $sp, 56                    # 8-byte Folded Spill
	st.d	$fp, $sp, 48                    # 8-byte Folded Spill
	st.d	$s0, $sp, 40                    # 8-byte Folded Spill
	st.d	$s1, $sp, 32                    # 8-byte Folded Spill
	.cfi_offset 1, -8
	.cfi_offset 22, -16
	.cfi_offset 23, -24
	.cfi_offset 24, -32
	move	$fp, $a0
	ld.w	$s1, $a0, 28
	ld.d	$s0, $a0, 16
	pcaddu18i	$ra, %call36(_ZN9benchmark5State16StartKeepRunningEv)
	jirl	$ra, $ra, 0
	bnez	$s1, .LBB10_7
# %bb.1:                                # %_ZN9benchmark5State13StateIteratorC2EPS0_.exit
	beqz	$s0, .LBB10_7
# %bb.2:
	movgr2fr.d	$fa0, $zero
	addi.d	$a0, $sp, 0
	.p2align	4, , 16
.LBB10_3:                               # =>This Inner Loop Header: Depth=1
	ld.bu	$a1, $fp, 24
	fmov.d	$fa1, $fa0
	beqz	$a1, .LBB10_5
# %bb.4:                                #   in Loop: Header=BB10_3 Depth=1
	ld.d	$a1, $fp, 16
	ld.d	$a2, $fp, 0
	ld.d	$a3, $fp, 8
	sub.d	$a1, $a1, $a2
	add.d	$a1, $a1, $a3
	movgr2fr.d	$fa1, $a1
	ffint.d.l	$fa1, $fa1
	fmul.d	$fa1, $fa1, $fa1
.LBB10_5:                               # %_ZNK9benchmark5State10iterationsEv.exit
                                        #   in Loop: Header=BB10_3 Depth=1
	fst.d	$fa1, $sp, 0
	#APP
	#NO_APP
	blez	$s0, .LBB10_14
# %bb.6:                                #   in Loop: Header=BB10_3 Depth=1
	addi.d	$s0, $s0, -1
	bnez	$s0, .LBB10_3
.LBB10_7:                               # %._crit_edge.i.i
	move	$a0, $fp
	pcaddu18i	$ra, %call36(_ZN9benchmark5State17FinishKeepRunningEv)
	jirl	$ra, $ra, 0
	addi.d	$fp, $fp, 64
	pcalau12i	$a0, %pc_hi20(.L.str.5)
	addi.d	$a0, $a0, %pc_lo12(.L.str.5)
	ld.h	$a1, $a0, 0
	ld.b	$a0, $a0, 2
	addi.d	$s0, $sp, 16
	st.d	$s0, $sp, 0
	st.h	$a1, $sp, 16
	st.b	$a0, $sp, 18
	ori	$a0, $zero, 3
	st.d	$a0, $sp, 8
	st.b	$zero, $sp, 19
.Ltmp505:
	addi.d	$a1, $sp, 0
	move	$a0, $fp
	pcaddu18i	$ra, %call36(_ZNSt3mapINSt7__cxx1112basic_stringIcSt11char_traitsIcESaIcEEEN9benchmark7CounterESt4lessIS5_ESaISt4pairIKS5_S7_EEEixEOS5_)
	jirl	$ra, $ra, 0
.Ltmp506:
# %bb.8:
	lu52i.d	$a1, $zero, 1023
	st.d	$a1, $a0, 0
	ld.d	$a2, $sp, 0
	ori	$a1, $zero, 1
	lu32i.d	$a1, 1000
	st.d	$a1, $a0, 8
	beq	$a2, $s0, .LBB10_10
# %bb.9:                                # %_ZNKSt7__cxx1112basic_stringIcSt11char_traitsIcESaIcEE11_M_is_localEv.exit.i.i
	ld.d	$a0, $sp, 16
	addi.d	$a1, $a0, 1
	move	$a0, $a2
	pcaddu18i	$ra, %call36(_ZdlPvm)
	jirl	$ra, $ra, 0
.LBB10_10:                              # %_ZNSt7__cxx1112basic_stringIcSt11char_traitsIcESaIcEED2Ev.exit
	pcalau12i	$a0, %pc_hi20(.L.str.6)
	addi.d	$a0, $a0, %pc_lo12(.L.str.6)
	ld.h	$a1, $a0, 0
	ld.b	$a0, $a0, 2
	st.d	$s0, $sp, 0
	st.h	$a1, $sp, 16
	st.b	$a0, $sp, 18
	ori	$a0, $zero, 3
	st.d	$a0, $sp, 8
	st.b	$zero, $sp, 19
.Ltmp508:
	addi.d	$a1, $sp, 0
	move	$a0, $fp
	pcaddu18i	$ra, %call36(_ZNSt3mapINSt7__cxx1112basic_stringIcSt11char_traitsIcESaIcEEEN9benchmark7CounterESt4lessIS5_ESaISt4pairIKS5_S7_EEEixEOS5_)
	jirl	$ra, $ra, 0
.Ltmp509:
# %bb.11:
	lu52i.d	$a1, $zero, 1024
	st.d	$a1, $a0, 0
	ld.d	$a2, $sp, 0
	ori	$a1, $zero, 1
	lu32i.d	$a1, 1000
	st.d	$a1, $a0, 8
	beq	$a2, $s0, .LBB10_13
# %bb.12:                               # %_ZNKSt7__cxx1112basic_stringIcSt11char_traitsIcESaIcEE11_M_is_localEv.exit.i.i30
	ld.d	$a0, $sp, 16
	addi.d	$a1, $a0, 1
	move	$a0, $a2
	pcaddu18i	$ra, %call36(_ZdlPvm)
	jirl	$ra, $ra, 0
.LBB10_13:                              # %_ZNSt7__cxx1112basic_stringIcSt11char_traitsIcESaIcEED2Ev.exit32
	ld.d	$s1, $sp, 32                    # 8-byte Folded Reload
	ld.d	$s0, $sp, 40                    # 8-byte Folded Reload
	ld.d	$fp, $sp, 48                    # 8-byte Folded Reload
	ld.d	$ra, $sp, 56                    # 8-byte Folded Reload
	addi.d	$sp, $sp, 64
	ret
.LBB10_14:
	pcalau12i	$a0, %pc_hi20(.L.str.198)
	addi.d	$a0, $a0, %pc_lo12(.L.str.198)
	pcalau12i	$a1, %pc_hi20(.L.str.199)
	addi.d	$a1, $a1, %pc_lo12(.L.str.199)
	pcalau12i	$a2, %pc_hi20(.L__PRETTY_FUNCTION__._ZN9benchmark5State13StateIteratorppEv)
	addi.d	$a3, $a2, %pc_lo12(.L__PRETTY_FUNCTION__._ZN9benchmark5State13StateIteratorppEv)
	ori	$a2, $zero, 1134
	pcaddu18i	$ra, %call36(__assert_fail)
	jirl	$ra, $ra, 0
.LBB10_15:
.Ltmp510:
	b	.LBB10_17
.LBB10_16:
.Ltmp507:
.LBB10_17:
	ld.d	$a2, $sp, 0
	move	$fp, $a0
	beq	$a2, $s0, .LBB10_19
# %bb.18:                               # %_ZNKSt7__cxx1112basic_stringIcSt11char_traitsIcESaIcEE11_M_is_localEv.exit.i.i36
	ld.d	$a0, $sp, 16
	addi.d	$a1, $a0, 1
	move	$a0, $a2
	pcaddu18i	$ra, %call36(_ZdlPvm)
	jirl	$ra, $ra, 0
.LBB10_19:
	move	$a0, $fp
	pcaddu18i	$ra, %call36(_Unwind_Resume)
	jirl	$ra, $ra, 0
.Lfunc_end10:
	.size	_Z16BM_Counters_RateRN9benchmark5StateE, .Lfunc_end10-_Z16BM_Counters_RateRN9benchmark5StateE
	.cfi_endproc
	.section	.gcc_except_table,"a",@progbits
	.p2align	2, 0x0
GCC_except_table10:
.Lexception5:
	.byte	255                             # @LPStart Encoding = omit
	.byte	255                             # @TType Encoding = omit
	.byte	1                               # Call site Encoding = uleb128
	.uleb128 .Lcst_end5-.Lcst_begin5
.Lcst_begin5:
	.uleb128 .Lfunc_begin5-.Lfunc_begin5    # >> Call Site 1 <<
	.uleb128 .Ltmp505-.Lfunc_begin5         #   Call between .Lfunc_begin5 and .Ltmp505
	.byte	0                               #     has no landing pad
	.byte	0                               #   On action: cleanup
	.uleb128 .Ltmp505-.Lfunc_begin5         # >> Call Site 2 <<
	.uleb128 .Ltmp506-.Ltmp505              #   Call between .Ltmp505 and .Ltmp506
	.uleb128 .Ltmp507-.Lfunc_begin5         #     jumps to .Ltmp507
	.byte	0                               #   On action: cleanup
	.uleb128 .Ltmp506-.Lfunc_begin5         # >> Call Site 3 <<
	.uleb128 .Ltmp508-.Ltmp506              #   Call between .Ltmp506 and .Ltmp508
	.byte	0                               #     has no landing pad
	.byte	0                               #   On action: cleanup
	.uleb128 .Ltmp508-.Lfunc_begin5         # >> Call Site 4 <<
	.uleb128 .Ltmp509-.Ltmp508              #   Call between .Ltmp508 and .Ltmp509
	.uleb128 .Ltmp510-.Lfunc_begin5         #     jumps to .Ltmp510
	.byte	0                               #   On action: cleanup
	.uleb128 .Ltmp509-.Lfunc_begin5         # >> Call Site 5 <<
	.uleb128 .Lfunc_end10-.Ltmp509          #   Call between .Ltmp509 and .Lfunc_end10
	.byte	0                               #     has no landing pad
	.byte	0                               #   On action: cleanup
.Lcst_end5:
	.p2align	2, 0x0
                                        # -- End function
	.section	.rodata.cst8,"aM",@progbits,8
	.p2align	3, 0x0                          # -- Begin function _Z9CheckRateRK7Results
.LCPI11_0:
	.dword	0x3f50624dd2f1a9fc              # double 0.001
.LCPI11_1:
	.dword	0x3fb999999999999a              # double 0.10000000000000001
.LCPI11_2:
	.dword	0x3ee4f8b588e368f1              # double 1.0000000000000001E-5
.LCPI11_3:
	.dword	0x4059000000000000              # double 100
	.text
	.hidden	_Z9CheckRateRK7Results
	.globl	_Z9CheckRateRK7Results
	.p2align	5
	.type	_Z9CheckRateRK7Results,@function
_Z9CheckRateRK7Results:                 # @_Z9CheckRateRK7Results
.Lfunc_begin6:
	.cfi_startproc
	.cfi_personality 155, DW.ref.__gxx_personality_v0
	.cfi_lsda 27, .Lexception6
# %bb.0:                                # %._crit_edge.i.i
	addi.d	$sp, $sp, -288
	.cfi_def_cfa_offset 288
	st.d	$ra, $sp, 280                   # 8-byte Folded Spill
	st.d	$fp, $sp, 272                   # 8-byte Folded Spill
	st.d	$s0, $sp, 264                   # 8-byte Folded Spill
	st.d	$s1, $sp, 256                   # 8-byte Folded Spill
	st.d	$s2, $sp, 248                   # 8-byte Folded Spill
	st.d	$s3, $sp, 240                   # 8-byte Folded Spill
	st.d	$s4, $sp, 232                   # 8-byte Folded Spill
	st.d	$s5, $sp, 224                   # 8-byte Folded Spill
	st.d	$s6, $sp, 216                   # 8-byte Folded Spill
	st.d	$s7, $sp, 208                   # 8-byte Folded Spill
	st.d	$s8, $sp, 200                   # 8-byte Folded Spill
	fst.d	$fs0, $sp, 192                  # 8-byte Folded Spill
	fst.d	$fs1, $sp, 184                  # 8-byte Folded Spill
	fst.d	$fs2, $sp, 176                  # 8-byte Folded Spill
	fst.d	$fs3, $sp, 168                  # 8-byte Folded Spill
	fst.d	$fs4, $sp, 160                  # 8-byte Folded Spill
	.cfi_offset 1, -8
	.cfi_offset 22, -16
	.cfi_offset 23, -24
	.cfi_offset 24, -32
	.cfi_offset 25, -40
	.cfi_offset 26, -48
	.cfi_offset 27, -56
	.cfi_offset 28, -64
	.cfi_offset 29, -72
	.cfi_offset 30, -80
	.cfi_offset 31, -88
	.cfi_offset 56, -96
	.cfi_offset 57, -104
	.cfi_offset 58, -112
	.cfi_offset 59, -120
	.cfi_offset 60, -128
	move	$fp, $a0
	pcaddu18i	$ra, %call36(_ZNK7Results13NumIterationsEv)
	jirl	$ra, $ra, 0
	fmov.d	$fs0, $fa0
	move	$a0, $fp
	move	$a1, $zero
	pcaddu18i	$ra, %call36(_ZNK7Results7GetTimeENS_13BenchmarkTimeE)
	jirl	$ra, $ra, 0
	fmov.d	$fs1, $fa0
	pcalau12i	$a0, %pc_hi20(.L.str.5)
	addi.d	$a0, $a0, %pc_lo12(.L.str.5)
	ld.h	$s4, $a0, 0
	ld.b	$s5, $a0, 2
	addi.d	$s0, $sp, 144
	st.d	$s0, $sp, 128
	st.h	$s4, $sp, 144
	st.b	$s5, $sp, 146
	ori	$a0, $zero, 3
	st.d	$a0, $sp, 136
	st.b	$zero, $sp, 147
.Ltmp511:
	addi.d	$a1, $sp, 128
	move	$a0, $fp
	pcaddu18i	$ra, %call36(_ZNK7Results5GetAsIdEET_RKNSt7__cxx1112basic_stringIcSt11char_traitsIcESaIcEEE)
	jirl	$ra, $ra, 0
.Ltmp512:
# %bb.1:                                # %_ZNK7Results12GetCounterAsIdEET_RKNSt7__cxx1112basic_stringIcSt11char_traitsIcESaIcEEE.exit
	fmul.d	$fs2, $fs0, $fs1
	pcalau12i	$a0, %pc_hi20(.LCPI11_0)
	fld.d	$fs3, $a0, %pc_lo12(.LCPI11_0)
	frecip.d	$fs1, $fs2
	fsub.d	$fa0, $fa0, $fs1
	fabs.d	$fs4, $fa0
	fmul.d	$fs0, $fs1, $fs3
	fcmp.cule.d	$fcc0, $fs0, $fs4
	movcf2gr	$a0, $fcc0
	st.d	$a0, $sp, 8
	bceqz	$fcc0, .LBB11_4
# %bb.2:
.Ltmp514:
	pcalau12i	$a0, %pc_hi20(.L.str.77)
	addi.d	$a1, $a0, %pc_lo12(.L.str.77)
	pcalau12i	$a0, %pc_hi20(.L.str.30)
	addi.d	$a2, $a0, %pc_lo12(.L.str.30)
	pcalau12i	$a0, %pc_hi20(.L__func__._Z9CheckRateRK7Results)
	addi.d	$a3, $a0, %pc_lo12(.L__func__._Z9CheckRateRK7Results)
	addi.d	$a0, $sp, 120
	ori	$a4, $zero, 154
	pcaddu18i	$ra, %call36(_ZN9benchmark8internal12CheckHandlerC2EPKcS3_S3_i)
	jirl	$ra, $ra, 0
.Ltmp515:
# %bb.3:
	ld.d	$s6, $sp, 120
	b	.LBB11_5
.LBB11_4:
	pcalau12i	$a0, %pc_hi20(_ZGVZN9benchmark8internal18GetNullLogInstanceEvE8null_log)
	ld.b	$a0, $a0, %pc_lo12(_ZGVZN9benchmark8internal18GetNullLogInstanceEvE8null_log)
	dbar	20
	pcalau12i	$a1, %pc_hi20(_ZZN9benchmark8internal18GetNullLogInstanceEvE8null_log)
	addi.d	$s6, $a1, %pc_lo12(_ZZN9benchmark8internal18GetNullLogInstanceEvE8null_log)
	beqz	$a0, .LBB11_175
.LBB11_5:                               # %_ZN9benchmark8internal18GetNullLogInstanceEv.exit
	ld.d	$a0, $s6, 0
	beqz	$a0, .LBB11_37
# %bb.6:
.Ltmp516:
	pcalau12i	$a1, %pc_hi20(.L.str.31)
	addi.d	$a1, $a1, %pc_lo12(.L.str.31)
	ori	$a2, $zero, 1
	pcaddu18i	$ra, %call36(_ZSt16__ostream_insertIcSt11char_traitsIcEERSt13basic_ostreamIT_T0_ES6_PKS3_l)
	jirl	$ra, $ra, 0
.Ltmp517:
# %bb.7:                                # %_ZN9benchmark8internallsIA2_cEERNS0_7LogTypeES4_RKT_.exit
	ld.d	$a0, $s6, 0
	beqz	$a0, .LBB11_37
# %bb.8:
.Ltmp518:
	pcalau12i	$a1, %pc_hi20(.L.str.30)
	addi.d	$a1, $a1, %pc_lo12(.L.str.30)
	ori	$a2, $zero, 131
	pcaddu18i	$ra, %call36(_ZSt16__ostream_insertIcSt11char_traitsIcEERSt13basic_ostreamIT_T0_ES6_PKS3_l)
	jirl	$ra, $ra, 0
.Ltmp519:
# %bb.9:                                # %_ZN9benchmark8internallsIA132_cEERNS0_7LogTypeES4_RKT_.exit
	ld.d	$a0, $s6, 0
	beqz	$a0, .LBB11_37
# %bb.10:
.Ltmp520:
	pcalau12i	$a1, %pc_hi20(.L.str.32)
	addi.d	$a1, $a1, %pc_lo12(.L.str.32)
	ori	$a2, $zero, 1
	pcaddu18i	$ra, %call36(_ZSt16__ostream_insertIcSt11char_traitsIcEERSt13basic_ostreamIT_T0_ES6_PKS3_l)
	jirl	$ra, $ra, 0
.Ltmp521:
# %bb.11:                               # %_ZN9benchmark8internallsIA2_cEERNS0_7LogTypeES4_RKT_.exit121
	ld.d	$a0, $s6, 0
	beqz	$a0, .LBB11_37
# %bb.12:
.Ltmp523:
	ori	$a1, $zero, 154
	pcaddu18i	$ra, %call36(_ZNSolsEi)
	jirl	$ra, $ra, 0
.Ltmp524:
# %bb.13:                               # %_ZN9benchmark8internallsIiEERNS0_7LogTypeES3_RKT_.exit
	ld.d	$a0, $s6, 0
	beqz	$a0, .LBB11_37
# %bb.14:
.Ltmp525:
	pcalau12i	$a1, %pc_hi20(.L.str.33)
	addi.d	$a1, $a1, %pc_lo12(.L.str.33)
	ori	$a2, $zero, 2
	pcaddu18i	$ra, %call36(_ZSt16__ostream_insertIcSt11char_traitsIcEERSt13basic_ostreamIT_T0_ES6_PKS3_l)
	jirl	$ra, $ra, 0
.Ltmp526:
# %bb.15:                               # %_ZN9benchmark8internallsIA3_cEERNS0_7LogTypeES4_RKT_.exit
	ld.d	$a0, $s6, 0
	beqz	$a0, .LBB11_37
# %bb.16:
	ld.d	$a1, $fp, 0
	ld.d	$a2, $fp, 8
.Ltmp527:
	pcaddu18i	$ra, %call36(_ZSt16__ostream_insertIcSt11char_traitsIcEERSt13basic_ostreamIT_T0_ES6_PKS3_l)
	jirl	$ra, $ra, 0
.Ltmp528:
# %bb.17:                               # %_ZN9benchmark8internallsINSt7__cxx1112basic_stringIcSt11char_traitsIcESaIcEEEEERNS0_7LogTypeES9_RKT_.exit
	ld.d	$a0, $s6, 0
	beqz	$a0, .LBB11_37
# %bb.18:
.Ltmp529:
	pcalau12i	$a1, %pc_hi20(.L.str.34)
	addi.d	$a1, $a1, %pc_lo12(.L.str.34)
	ori	$a2, $zero, 2
	pcaddu18i	$ra, %call36(_ZSt16__ostream_insertIcSt11char_traitsIcEERSt13basic_ostreamIT_T0_ES6_PKS3_l)
	jirl	$ra, $ra, 0
.Ltmp530:
# %bb.19:                               # %_ZN9benchmark8internallsIA3_cEERNS0_7LogTypeES4_RKT_.exit130
	ld.d	$a0, $s6, 0
	beqz	$a0, .LBB11_37
# %bb.20:
.Ltmp531:
	pcalau12i	$a1, %pc_hi20(.L.str.30)
	addi.d	$a1, $a1, %pc_lo12(.L.str.30)
	ori	$a2, $zero, 131
	pcaddu18i	$ra, %call36(_ZSt16__ostream_insertIcSt11char_traitsIcEERSt13basic_ostreamIT_T0_ES6_PKS3_l)
	jirl	$ra, $ra, 0
.Ltmp532:
# %bb.21:                               # %_ZN9benchmark8internallsIA132_cEERNS0_7LogTypeES4_RKT_.exit133
	ld.d	$a0, $s6, 0
	beqz	$a0, .LBB11_37
# %bb.22:
.Ltmp533:
	pcalau12i	$a1, %pc_hi20(.L.str.32)
	addi.d	$a1, $a1, %pc_lo12(.L.str.32)
	ori	$a2, $zero, 1
	pcaddu18i	$ra, %call36(_ZSt16__ostream_insertIcSt11char_traitsIcEERSt13basic_ostreamIT_T0_ES6_PKS3_l)
	jirl	$ra, $ra, 0
.Ltmp534:
# %bb.23:                               # %_ZN9benchmark8internallsIA2_cEERNS0_7LogTypeES4_RKT_.exit136
	ld.d	$a0, $s6, 0
	beqz	$a0, .LBB11_37
# %bb.24:
.Ltmp536:
	ori	$a1, $zero, 154
	pcaddu18i	$ra, %call36(_ZNSolsEi)
	jirl	$ra, $ra, 0
.Ltmp537:
# %bb.25:                               # %_ZN9benchmark8internallsIiEERNS0_7LogTypeES3_RKT_.exit139
	ld.d	$a0, $s6, 0
	beqz	$a0, .LBB11_37
# %bb.26:
.Ltmp538:
	pcalau12i	$a1, %pc_hi20(.L.str.33)
	addi.d	$a1, $a1, %pc_lo12(.L.str.33)
	ori	$a2, $zero, 2
	pcaddu18i	$ra, %call36(_ZSt16__ostream_insertIcSt11char_traitsIcEERSt13basic_ostreamIT_T0_ES6_PKS3_l)
	jirl	$ra, $ra, 0
.Ltmp539:
# %bb.27:                               # %_ZN9benchmark8internallsIA3_cEERNS0_7LogTypeES4_RKT_.exit142
	ld.d	$a0, $s6, 0
	beqz	$a0, .LBB11_37
# %bb.28:
.Ltmp540:
	pcalau12i	$a1, %pc_hi20(.L.str.35)
	addi.d	$a1, $a1, %pc_lo12(.L.str.35)
	ori	$a2, $zero, 10
	pcaddu18i	$ra, %call36(_ZSt16__ostream_insertIcSt11char_traitsIcEERSt13basic_ostreamIT_T0_ES6_PKS3_l)
	jirl	$ra, $ra, 0
.Ltmp541:
# %bb.29:                               # %_ZN9benchmark8internallsIA11_cEERNS0_7LogTypeES4_RKT_.exit
	ld.d	$a0, $s6, 0
	beqz	$a0, .LBB11_37
# %bb.30:
.Ltmp542:
	pcalau12i	$a1, %pc_hi20(.L.str.41)
	addi.d	$a1, $a1, %pc_lo12(.L.str.41)
	ori	$a2, $zero, 6
	pcaddu18i	$ra, %call36(_ZSt16__ostream_insertIcSt11char_traitsIcEERSt13basic_ostreamIT_T0_ES6_PKS3_l)
	jirl	$ra, $ra, 0
.Ltmp543:
# %bb.31:                               # %_ZN9benchmark8internallsIA7_cEERNS0_7LogTypeES4_RKT_.exit
	ld.d	$a0, $s6, 0
	beqz	$a0, .LBB11_37
# %bb.32:
.Ltmp544:
	pcalau12i	$a1, %pc_hi20(.L.str.37)
	addi.d	$a1, $a1, %pc_lo12(.L.str.37)
	ori	$a2, $zero, 1
	pcaddu18i	$ra, %call36(_ZSt16__ostream_insertIcSt11char_traitsIcEERSt13basic_ostreamIT_T0_ES6_PKS3_l)
	jirl	$ra, $ra, 0
.Ltmp545:
# %bb.33:                               # %_ZN9benchmark8internallsIA2_cEERNS0_7LogTypeES4_RKT_.exit149
	ld.d	$a0, $s6, 0
	beqz	$a0, .LBB11_37
# %bb.34:
.Ltmp546:
	pcalau12i	$a1, %pc_hi20(.L.str.5)
	addi.d	$a1, $a1, %pc_lo12(.L.str.5)
	ori	$a2, $zero, 3
	pcaddu18i	$ra, %call36(_ZSt16__ostream_insertIcSt11char_traitsIcEERSt13basic_ostreamIT_T0_ES6_PKS3_l)
	jirl	$ra, $ra, 0
.Ltmp547:
# %bb.35:                               # %_ZN9benchmark8internallsIA4_cEERNS0_7LogTypeES4_RKT_.exit
	ld.d	$a0, $s6, 0
	beqz	$a0, .LBB11_37
# %bb.36:
.Ltmp548:
	pcalau12i	$a1, %pc_hi20(.L.str.38)
	addi.d	$a1, $a1, %pc_lo12(.L.str.38)
	ori	$a2, $zero, 1
	pcaddu18i	$ra, %call36(_ZSt16__ostream_insertIcSt11char_traitsIcEERSt13basic_ostreamIT_T0_ES6_PKS3_l)
	jirl	$ra, $ra, 0
.Ltmp549:
.LBB11_37:                              # %_ZN9benchmark8internallsIA2_cEERNS0_7LogTypeES4_RKT_.exit154
	addi.d	$s1, $sp, 104
	st.d	$s1, $sp, 88
	st.h	$s4, $sp, 104
	st.b	$s5, $sp, 106
	ori	$a0, $zero, 3
	st.d	$a0, $sp, 96
	st.b	$zero, $sp, 107
.Ltmp551:
	addi.d	$a1, $sp, 88
	move	$a0, $fp
	pcaddu18i	$ra, %call36(_ZNK7Results5GetAsIdEET_RKNSt7__cxx1112basic_stringIcSt11char_traitsIcESaIcEEE)
	jirl	$ra, $ra, 0
.Ltmp552:
# %bb.38:                               # %_ZNK7Results12GetCounterAsIdEET_RKNSt7__cxx1112basic_stringIcSt11char_traitsIcESaIcEEE.exit160
	ld.d	$a0, $s6, 0
	beqz	$a0, .LBB11_66
# %bb.39:
.Ltmp553:
	pcaddu18i	$ra, %call36(_ZNSo9_M_insertIdEERSoT_)
	jirl	$ra, $ra, 0
.Ltmp554:
# %bb.40:                               # %_ZN9benchmark8internallsIdEERNS0_7LogTypeES3_RKT_.exit
	ld.d	$a0, $s6, 0
	beqz	$a0, .LBB11_66
# %bb.41:
.Ltmp555:
	pcalau12i	$a1, %pc_hi20(.L.str.39)
	addi.d	$a1, $a1, %pc_lo12(.L.str.39)
	ori	$a2, $zero, 13
	pcaddu18i	$ra, %call36(_ZSt16__ostream_insertIcSt11char_traitsIcEERSt13basic_ostreamIT_T0_ES6_PKS3_l)
	jirl	$ra, $ra, 0
.Ltmp556:
# %bb.42:                               # %_ZN9benchmark8internallsIA14_cEERNS0_7LogTypeES4_RKT_.exit
	ld.d	$a0, $s6, 0
	beqz	$a0, .LBB11_66
# %bb.43:
.Ltmp558:
	fmov.d	$fa0, $fs1
	pcaddu18i	$ra, %call36(_ZNSo9_M_insertIdEERSoT_)
	jirl	$ra, $ra, 0
.Ltmp559:
# %bb.44:                               # %_ZN9benchmark8internallsIdEERNS0_7LogTypeES3_RKT_.exit167
	ld.d	$a0, $s6, 0
	beqz	$a0, .LBB11_66
# %bb.45:
.Ltmp560:
	pcalau12i	$a1, %pc_hi20(.L.str.31)
	addi.d	$a1, $a1, %pc_lo12(.L.str.31)
	ori	$a2, $zero, 1
	pcaddu18i	$ra, %call36(_ZSt16__ostream_insertIcSt11char_traitsIcEERSt13basic_ostreamIT_T0_ES6_PKS3_l)
	jirl	$ra, $ra, 0
.Ltmp561:
# %bb.46:                               # %_ZN9benchmark8internallsIA2_cEERNS0_7LogTypeES4_RKT_.exit170
	ld.d	$a0, $s6, 0
	beqz	$a0, .LBB11_66
# %bb.47:
.Ltmp562:
	pcalau12i	$a1, %pc_hi20(.L.str.30)
	addi.d	$a1, $a1, %pc_lo12(.L.str.30)
	ori	$a2, $zero, 131
	pcaddu18i	$ra, %call36(_ZSt16__ostream_insertIcSt11char_traitsIcEERSt13basic_ostreamIT_T0_ES6_PKS3_l)
	jirl	$ra, $ra, 0
.Ltmp563:
# %bb.48:                               # %_ZN9benchmark8internallsIA132_cEERNS0_7LogTypeES4_RKT_.exit173
	ld.d	$a0, $s6, 0
	beqz	$a0, .LBB11_66
# %bb.49:
.Ltmp564:
	pcalau12i	$a1, %pc_hi20(.L.str.32)
	addi.d	$a1, $a1, %pc_lo12(.L.str.32)
	ori	$a2, $zero, 1
	pcaddu18i	$ra, %call36(_ZSt16__ostream_insertIcSt11char_traitsIcEERSt13basic_ostreamIT_T0_ES6_PKS3_l)
	jirl	$ra, $ra, 0
.Ltmp565:
# %bb.50:                               # %_ZN9benchmark8internallsIA2_cEERNS0_7LogTypeES4_RKT_.exit176
	ld.d	$a0, $s6, 0
	beqz	$a0, .LBB11_66
# %bb.51:
.Ltmp567:
	ori	$a1, $zero, 154
	pcaddu18i	$ra, %call36(_ZNSolsEi)
	jirl	$ra, $ra, 0
.Ltmp568:
# %bb.52:                               # %_ZN9benchmark8internallsIiEERNS0_7LogTypeES3_RKT_.exit179
	ld.d	$a0, $s6, 0
	beqz	$a0, .LBB11_66
# %bb.53:
.Ltmp569:
	pcalau12i	$a1, %pc_hi20(.L.str.33)
	addi.d	$a1, $a1, %pc_lo12(.L.str.33)
	ori	$a2, $zero, 2
	pcaddu18i	$ra, %call36(_ZSt16__ostream_insertIcSt11char_traitsIcEERSt13basic_ostreamIT_T0_ES6_PKS3_l)
	jirl	$ra, $ra, 0
.Ltmp570:
# %bb.54:                               # %_ZN9benchmark8internallsIA3_cEERNS0_7LogTypeES4_RKT_.exit182
	ld.d	$a0, $s6, 0
	beqz	$a0, .LBB11_66
# %bb.55:
.Ltmp571:
	pcalau12i	$a1, %pc_hi20(.L.str.42)
	addi.d	$a1, $a1, %pc_lo12(.L.str.42)
	ori	$a2, $zero, 18
	pcaddu18i	$ra, %call36(_ZSt16__ostream_insertIcSt11char_traitsIcEERSt13basic_ostreamIT_T0_ES6_PKS3_l)
	jirl	$ra, $ra, 0
.Ltmp572:
# %bb.56:                               # %_ZN9benchmark8internallsIA19_cEERNS0_7LogTypeES4_RKT_.exit
	ld.d	$a0, $s6, 0
	beqz	$a0, .LBB11_66
# %bb.57:
.Ltmp574:
	fmov.d	$fa0, $fs0
	pcaddu18i	$ra, %call36(_ZNSo9_M_insertIdEERSoT_)
	jirl	$ra, $ra, 0
.Ltmp575:
# %bb.58:                               # %_ZN9benchmark8internallsIdEERNS0_7LogTypeES3_RKT_.exit187
	ld.d	$a0, $s6, 0
	beqz	$a0, .LBB11_66
# %bb.59:
.Ltmp576:
	pcalau12i	$a1, %pc_hi20(.L.str.43)
	addi.d	$a1, $a1, %pc_lo12(.L.str.43)
	ori	$a2, $zero, 2
	pcaddu18i	$ra, %call36(_ZSt16__ostream_insertIcSt11char_traitsIcEERSt13basic_ostreamIT_T0_ES6_PKS3_l)
	jirl	$ra, $ra, 0
.Ltmp577:
# %bb.60:                               # %_ZN9benchmark8internallsIA3_cEERNS0_7LogTypeES4_RKT_.exit190
	ld.d	$a0, $s6, 0
	beqz	$a0, .LBB11_66
# %bb.61:
.Ltmp579:
	pcalau12i	$a1, %pc_hi20(.LCPI11_1)
	fld.d	$fa0, $a1, %pc_lo12(.LCPI11_1)
	pcaddu18i	$ra, %call36(_ZNSo9_M_insertIdEERSoT_)
	jirl	$ra, $ra, 0
.Ltmp580:
# %bb.62:                               # %_ZN9benchmark8internallsIdEERNS0_7LogTypeES3_RKT_.exit193
	ld.d	$a0, $s6, 0
	beqz	$a0, .LBB11_66
# %bb.63:
.Ltmp581:
	pcalau12i	$a1, %pc_hi20(.L.str.44)
	addi.d	$a1, $a1, %pc_lo12(.L.str.44)
	ori	$a2, $zero, 4
	pcaddu18i	$ra, %call36(_ZSt16__ostream_insertIcSt11char_traitsIcEERSt13basic_ostreamIT_T0_ES6_PKS3_l)
	jirl	$ra, $ra, 0
.Ltmp582:
# %bb.64:                               # %_ZN9benchmark8internallsIA5_cEERNS0_7LogTypeES4_RKT_.exit
	ld.d	$a0, $s6, 0
	beqz	$a0, .LBB11_66
# %bb.65:
.Ltmp583:
	pcalau12i	$a1, %pc_hi20(.L.str.45)
	addi.d	$a1, $a1, %pc_lo12(.L.str.45)
	ori	$a2, $zero, 14
	pcaddu18i	$ra, %call36(_ZSt16__ostream_insertIcSt11char_traitsIcEERSt13basic_ostreamIT_T0_ES6_PKS3_l)
	jirl	$ra, $ra, 0
.Ltmp584:
.LBB11_66:                              # %_ZN9benchmark8internallsIA15_cEERNS0_7LogTypeES4_RKT_.exit
	addi.d	$s2, $sp, 72
	st.d	$s2, $sp, 56
	st.h	$s4, $sp, 72
	st.b	$s5, $sp, 74
	ori	$a0, $zero, 3
	st.d	$a0, $sp, 64
	st.b	$zero, $sp, 75
.Ltmp586:
	addi.d	$a1, $sp, 56
	move	$a0, $fp
	pcaddu18i	$ra, %call36(_ZNK7Results5GetAsIdEET_RKNSt7__cxx1112basic_stringIcSt11char_traitsIcESaIcEEE)
	jirl	$ra, $ra, 0
.Ltmp587:
# %bb.67:                               # %_ZNK7Results12GetCounterAsIdEET_RKNSt7__cxx1112basic_stringIcSt11char_traitsIcESaIcEEE.exit203
	ld.d	$a0, $s6, 0
	beqz	$a0, .LBB11_71
# %bb.68:
	fsub.d	$fa0, $fa0, $fs1
.Ltmp588:
	pcaddu18i	$ra, %call36(_ZNSo9_M_insertIdEERSoT_)
	jirl	$ra, $ra, 0
.Ltmp589:
# %bb.69:                               # %_ZN9benchmark8internallsIdEERNS0_7LogTypeES3_RKT_.exit206
	ld.d	$a0, $s6, 0
	beqz	$a0, .LBB11_71
# %bb.70:
.Ltmp590:
	pcalau12i	$a1, %pc_hi20(.L.str.43)
	addi.d	$a1, $a1, %pc_lo12(.L.str.43)
	ori	$a2, $zero, 2
	pcaddu18i	$ra, %call36(_ZSt16__ostream_insertIcSt11char_traitsIcEERSt13basic_ostreamIT_T0_ES6_PKS3_l)
	jirl	$ra, $ra, 0
.Ltmp591:
.LBB11_71:                              # %_ZN9benchmark8internallsIA3_cEERNS0_7LogTypeES4_RKT_.exit209
	addi.d	$s3, $sp, 40
	st.d	$s3, $sp, 24
	st.h	$s4, $sp, 40
	st.b	$s5, $sp, 42
	ori	$a0, $zero, 3
	st.d	$a0, $sp, 32
	st.b	$zero, $sp, 43
.Ltmp593:
	addi.d	$a1, $sp, 24
	move	$a0, $fp
	pcaddu18i	$ra, %call36(_ZNK7Results5GetAsIdEET_RKNSt7__cxx1112basic_stringIcSt11char_traitsIcESaIcEEE)
	jirl	$ra, $ra, 0
.Ltmp594:
# %bb.72:                               # %_ZNK7Results12GetCounterAsIdEET_RKNSt7__cxx1112basic_stringIcSt11char_traitsIcESaIcEEE.exit215
	ld.d	$a0, $s6, 0
	pcalau12i	$s5, %pc_hi20(.LCPI11_2)
	pcalau12i	$s4, %pc_hi20(.LCPI11_3)
	beqz	$a0, .LBB11_76
# %bb.73:
	fld.d	$fa1, $s5, %pc_lo12(.LCPI11_2)
	fsub.d	$fa0, $fa0, $fs1
	fabs.d	$fa2, $fs1
	fld.d	$fa3, $s4, %pc_lo12(.LCPI11_3)
	fcmp.clt.d	$fcc0, $fa1, $fa2
	fsel	$fa1, $fa1, $fs1, $fcc0
	fdiv.d	$fa0, $fa0, $fa1
	fmul.d	$fa0, $fa0, $fa3
.Ltmp595:
	pcaddu18i	$ra, %call36(_ZNSo9_M_insertIdEERSoT_)
	jirl	$ra, $ra, 0
.Ltmp596:
# %bb.74:                               # %_ZN9benchmark8internallsIdEERNS0_7LogTypeES3_RKT_.exit218
	ld.d	$a0, $s6, 0
	beqz	$a0, .LBB11_76
# %bb.75:
.Ltmp597:
	pcalau12i	$a1, %pc_hi20(.L.str.46)
	addi.d	$a1, $a1, %pc_lo12(.L.str.46)
	ori	$a2, $zero, 2
	pcaddu18i	$ra, %call36(_ZSt16__ostream_insertIcSt11char_traitsIcEERSt13basic_ostreamIT_T0_ES6_PKS3_l)
	jirl	$ra, $ra, 0
.Ltmp598:
.LBB11_76:                              # %_ZN9benchmark8internallsIA3_cEERNS0_7LogTypeES4_RKT_.exit221
	ld.d	$a0, $sp, 24
	beq	$a0, $s3, .LBB11_78
# %bb.77:                               # %_ZNKSt7__cxx1112basic_stringIcSt11char_traitsIcESaIcEE11_M_is_localEv.exit.i.i
	ld.d	$a1, $sp, 40
	addi.d	$a1, $a1, 1
	pcaddu18i	$ra, %call36(_ZdlPvm)
	jirl	$ra, $ra, 0
.LBB11_78:                              # %_ZNSt7__cxx1112basic_stringIcSt11char_traitsIcESaIcEED2Ev.exit
	ld.d	$a0, $sp, 56
	beq	$a0, $s2, .LBB11_80
# %bb.79:                               # %_ZNKSt7__cxx1112basic_stringIcSt11char_traitsIcESaIcEE11_M_is_localEv.exit.i.i222
	ld.d	$a1, $sp, 72
	addi.d	$a1, $a1, 1
	pcaddu18i	$ra, %call36(_ZdlPvm)
	jirl	$ra, $ra, 0
.LBB11_80:                              # %_ZNSt7__cxx1112basic_stringIcSt11char_traitsIcESaIcEED2Ev.exit224
	ld.d	$a0, $sp, 88
	beq	$a0, $s1, .LBB11_82
# %bb.81:                               # %_ZNKSt7__cxx1112basic_stringIcSt11char_traitsIcESaIcEE11_M_is_localEv.exit.i.i225
	ld.d	$a1, $sp, 104
	addi.d	$a1, $a1, 1
	pcaddu18i	$ra, %call36(_ZdlPvm)
	jirl	$ra, $ra, 0
.LBB11_82:                              # %_ZNSt7__cxx1112basic_stringIcSt11char_traitsIcESaIcEED2Ev.exit227
	fcmp.clt.d	$fcc0, $fs4, $fs0
	bceqz	$fcc0, .LBB11_171
# %bb.83:
	ld.d	$a0, $sp, 128
	beq	$a0, $s0, .LBB11_85
# %bb.84:                               # %_ZNKSt7__cxx1112basic_stringIcSt11char_traitsIcESaIcEE11_M_is_localEv.exit.i.i237
	ld.d	$a1, $sp, 144
	addi.d	$a1, $a1, 1
	pcaddu18i	$ra, %call36(_ZdlPvm)
	jirl	$ra, $ra, 0
.LBB11_85:                              # %_ZNSt7__cxx1112basic_stringIcSt11char_traitsIcESaIcEED2Ev.exit239
	pcalau12i	$a0, %pc_hi20(.L.str.6)
	addi.d	$a0, $a0, %pc_lo12(.L.str.6)
	ld.h	$s6, $a0, 0
	ld.b	$s7, $a0, 2
	st.d	$s0, $sp, 128
	st.h	$s6, $sp, 144
	st.b	$s7, $sp, 146
	ori	$a0, $zero, 3
	st.d	$a0, $sp, 136
	st.b	$zero, $sp, 147
.Ltmp600:
	addi.d	$a1, $sp, 128
	move	$a0, $fp
	pcaddu18i	$ra, %call36(_ZNK7Results5GetAsIdEET_RKNSt7__cxx1112basic_stringIcSt11char_traitsIcESaIcEEE)
	jirl	$ra, $ra, 0
.Ltmp601:
# %bb.86:                               # %_ZNK7Results12GetCounterAsIdEET_RKNSt7__cxx1112basic_stringIcSt11char_traitsIcESaIcEEE.exit245
	vldi	$vr1, -1024
	fdiv.d	$fs1, $fa1, $fs2
	fsub.d	$fa0, $fa0, $fs1
	fabs.d	$fs2, $fa0
	fmul.d	$fs0, $fs1, $fs3
	fcmp.cule.d	$fcc0, $fs0, $fs2
	bceqz	$fcc0, .LBB11_89
# %bb.87:
.Ltmp603:
	pcalau12i	$a0, %pc_hi20(.L.str.78)
	addi.d	$a1, $a0, %pc_lo12(.L.str.78)
	pcalau12i	$a0, %pc_hi20(.L.str.30)
	addi.d	$a2, $a0, %pc_lo12(.L.str.30)
	pcalau12i	$a0, %pc_hi20(.L__func__._Z9CheckRateRK7Results)
	addi.d	$a3, $a0, %pc_lo12(.L__func__._Z9CheckRateRK7Results)
	addi.d	$a0, $sp, 16
	ori	$a4, $zero, 155
	pcaddu18i	$ra, %call36(_ZN9benchmark8internal12CheckHandlerC2EPKcS3_S3_i)
	jirl	$ra, $ra, 0
.Ltmp604:
# %bb.88:
	ld.d	$s8, $sp, 16
	b	.LBB11_90
.LBB11_89:
	pcalau12i	$a0, %pc_hi20(_ZGVZN9benchmark8internal18GetNullLogInstanceEvE8null_log)
	ld.b	$a0, $a0, %pc_lo12(_ZGVZN9benchmark8internal18GetNullLogInstanceEvE8null_log)
	dbar	20
	pcalau12i	$a1, %pc_hi20(_ZZN9benchmark8internal18GetNullLogInstanceEvE8null_log)
	addi.d	$s8, $a1, %pc_lo12(_ZZN9benchmark8internal18GetNullLogInstanceEvE8null_log)
	beqz	$a0, .LBB11_177
.LBB11_90:                              # %_ZN9benchmark8internal18GetNullLogInstanceEv.exit247
	ld.d	$a0, $s8, 0
	beqz	$a0, .LBB11_122
# %bb.91:
.Ltmp605:
	pcalau12i	$a1, %pc_hi20(.L.str.31)
	addi.d	$a1, $a1, %pc_lo12(.L.str.31)
	ori	$a2, $zero, 1
	pcaddu18i	$ra, %call36(_ZSt16__ostream_insertIcSt11char_traitsIcEERSt13basic_ostreamIT_T0_ES6_PKS3_l)
	jirl	$ra, $ra, 0
.Ltmp606:
# %bb.92:                               # %_ZN9benchmark8internallsIA2_cEERNS0_7LogTypeES4_RKT_.exit250
	ld.d	$a0, $s8, 0
	beqz	$a0, .LBB11_122
# %bb.93:
.Ltmp607:
	pcalau12i	$a1, %pc_hi20(.L.str.30)
	addi.d	$a1, $a1, %pc_lo12(.L.str.30)
	ori	$a2, $zero, 131
	pcaddu18i	$ra, %call36(_ZSt16__ostream_insertIcSt11char_traitsIcEERSt13basic_ostreamIT_T0_ES6_PKS3_l)
	jirl	$ra, $ra, 0
.Ltmp608:
# %bb.94:                               # %_ZN9benchmark8internallsIA132_cEERNS0_7LogTypeES4_RKT_.exit253
	ld.d	$a0, $s8, 0
	beqz	$a0, .LBB11_122
# %bb.95:
.Ltmp609:
	pcalau12i	$a1, %pc_hi20(.L.str.32)
	addi.d	$a1, $a1, %pc_lo12(.L.str.32)
	ori	$a2, $zero, 1
	pcaddu18i	$ra, %call36(_ZSt16__ostream_insertIcSt11char_traitsIcEERSt13basic_ostreamIT_T0_ES6_PKS3_l)
	jirl	$ra, $ra, 0
.Ltmp610:
# %bb.96:                               # %_ZN9benchmark8internallsIA2_cEERNS0_7LogTypeES4_RKT_.exit256
	ld.d	$a0, $s8, 0
	beqz	$a0, .LBB11_122
# %bb.97:
.Ltmp612:
	ori	$a1, $zero, 155
	pcaddu18i	$ra, %call36(_ZNSolsEi)
	jirl	$ra, $ra, 0
.Ltmp613:
# %bb.98:                               # %_ZN9benchmark8internallsIiEERNS0_7LogTypeES3_RKT_.exit259
	ld.d	$a0, $s8, 0
	beqz	$a0, .LBB11_122
# %bb.99:
.Ltmp614:
	pcalau12i	$a1, %pc_hi20(.L.str.33)
	addi.d	$a1, $a1, %pc_lo12(.L.str.33)
	ori	$a2, $zero, 2
	pcaddu18i	$ra, %call36(_ZSt16__ostream_insertIcSt11char_traitsIcEERSt13basic_ostreamIT_T0_ES6_PKS3_l)
	jirl	$ra, $ra, 0
.Ltmp615:
# %bb.100:                              # %_ZN9benchmark8internallsIA3_cEERNS0_7LogTypeES4_RKT_.exit262
	ld.d	$a0, $s8, 0
	beqz	$a0, .LBB11_122
# %bb.101:
	ld.d	$a1, $fp, 0
	ld.d	$a2, $fp, 8
.Ltmp616:
	pcaddu18i	$ra, %call36(_ZSt16__ostream_insertIcSt11char_traitsIcEERSt13basic_ostreamIT_T0_ES6_PKS3_l)
	jirl	$ra, $ra, 0
.Ltmp617:
# %bb.102:                              # %_ZN9benchmark8internallsINSt7__cxx1112basic_stringIcSt11char_traitsIcESaIcEEEEERNS0_7LogTypeES9_RKT_.exit265
	ld.d	$a0, $s8, 0
	beqz	$a0, .LBB11_122
# %bb.103:
.Ltmp618:
	pcalau12i	$a1, %pc_hi20(.L.str.34)
	addi.d	$a1, $a1, %pc_lo12(.L.str.34)
	ori	$a2, $zero, 2
	pcaddu18i	$ra, %call36(_ZSt16__ostream_insertIcSt11char_traitsIcEERSt13basic_ostreamIT_T0_ES6_PKS3_l)
	jirl	$ra, $ra, 0
.Ltmp619:
# %bb.104:                              # %_ZN9benchmark8internallsIA3_cEERNS0_7LogTypeES4_RKT_.exit268
	ld.d	$a0, $s8, 0
	beqz	$a0, .LBB11_122
# %bb.105:
.Ltmp620:
	pcalau12i	$a1, %pc_hi20(.L.str.30)
	addi.d	$a1, $a1, %pc_lo12(.L.str.30)
	ori	$a2, $zero, 131
	pcaddu18i	$ra, %call36(_ZSt16__ostream_insertIcSt11char_traitsIcEERSt13basic_ostreamIT_T0_ES6_PKS3_l)
	jirl	$ra, $ra, 0
.Ltmp621:
# %bb.106:                              # %_ZN9benchmark8internallsIA132_cEERNS0_7LogTypeES4_RKT_.exit271
	ld.d	$a0, $s8, 0
	beqz	$a0, .LBB11_122
# %bb.107:
.Ltmp622:
	pcalau12i	$a1, %pc_hi20(.L.str.32)
	addi.d	$a1, $a1, %pc_lo12(.L.str.32)
	ori	$a2, $zero, 1
	pcaddu18i	$ra, %call36(_ZSt16__ostream_insertIcSt11char_traitsIcEERSt13basic_ostreamIT_T0_ES6_PKS3_l)
	jirl	$ra, $ra, 0
.Ltmp623:
# %bb.108:                              # %_ZN9benchmark8internallsIA2_cEERNS0_7LogTypeES4_RKT_.exit274
	ld.d	$a0, $s8, 0
	beqz	$a0, .LBB11_122
# %bb.109:
.Ltmp625:
	ori	$a1, $zero, 155
	pcaddu18i	$ra, %call36(_ZNSolsEi)
	jirl	$ra, $ra, 0
.Ltmp626:
# %bb.110:                              # %_ZN9benchmark8internallsIiEERNS0_7LogTypeES3_RKT_.exit277
	ld.d	$a0, $s8, 0
	beqz	$a0, .LBB11_122
# %bb.111:
.Ltmp627:
	pcalau12i	$a1, %pc_hi20(.L.str.33)
	addi.d	$a1, $a1, %pc_lo12(.L.str.33)
	ori	$a2, $zero, 2
	pcaddu18i	$ra, %call36(_ZSt16__ostream_insertIcSt11char_traitsIcEERSt13basic_ostreamIT_T0_ES6_PKS3_l)
	jirl	$ra, $ra, 0
.Ltmp628:
# %bb.112:                              # %_ZN9benchmark8internallsIA3_cEERNS0_7LogTypeES4_RKT_.exit280
	ld.d	$a0, $s8, 0
	beqz	$a0, .LBB11_122
# %bb.113:
.Ltmp629:
	pcalau12i	$a1, %pc_hi20(.L.str.35)
	addi.d	$a1, $a1, %pc_lo12(.L.str.35)
	ori	$a2, $zero, 10
	pcaddu18i	$ra, %call36(_ZSt16__ostream_insertIcSt11char_traitsIcEERSt13basic_ostreamIT_T0_ES6_PKS3_l)
	jirl	$ra, $ra, 0
.Ltmp630:
# %bb.114:                              # %_ZN9benchmark8internallsIA11_cEERNS0_7LogTypeES4_RKT_.exit283
	ld.d	$a0, $s8, 0
	beqz	$a0, .LBB11_122
# %bb.115:
.Ltmp631:
	pcalau12i	$a1, %pc_hi20(.L.str.41)
	addi.d	$a1, $a1, %pc_lo12(.L.str.41)
	ori	$a2, $zero, 6
	pcaddu18i	$ra, %call36(_ZSt16__ostream_insertIcSt11char_traitsIcEERSt13basic_ostreamIT_T0_ES6_PKS3_l)
	jirl	$ra, $ra, 0
.Ltmp632:
# %bb.116:                              # %_ZN9benchmark8internallsIA7_cEERNS0_7LogTypeES4_RKT_.exit286
	ld.d	$a0, $s8, 0
	beqz	$a0, .LBB11_122
# %bb.117:
.Ltmp633:
	pcalau12i	$a1, %pc_hi20(.L.str.37)
	addi.d	$a1, $a1, %pc_lo12(.L.str.37)
	ori	$a2, $zero, 1
	pcaddu18i	$ra, %call36(_ZSt16__ostream_insertIcSt11char_traitsIcEERSt13basic_ostreamIT_T0_ES6_PKS3_l)
	jirl	$ra, $ra, 0
.Ltmp634:
# %bb.118:                              # %_ZN9benchmark8internallsIA2_cEERNS0_7LogTypeES4_RKT_.exit289
	ld.d	$a0, $s8, 0
	beqz	$a0, .LBB11_122
# %bb.119:
.Ltmp635:
	pcalau12i	$a1, %pc_hi20(.L.str.6)
	addi.d	$a1, $a1, %pc_lo12(.L.str.6)
	ori	$a2, $zero, 3
	pcaddu18i	$ra, %call36(_ZSt16__ostream_insertIcSt11char_traitsIcEERSt13basic_ostreamIT_T0_ES6_PKS3_l)
	jirl	$ra, $ra, 0
.Ltmp636:
# %bb.120:                              # %_ZN9benchmark8internallsIA4_cEERNS0_7LogTypeES4_RKT_.exit292
	ld.d	$a0, $s8, 0
	beqz	$a0, .LBB11_122
# %bb.121:
.Ltmp637:
	pcalau12i	$a1, %pc_hi20(.L.str.38)
	addi.d	$a1, $a1, %pc_lo12(.L.str.38)
	ori	$a2, $zero, 1
	pcaddu18i	$ra, %call36(_ZSt16__ostream_insertIcSt11char_traitsIcEERSt13basic_ostreamIT_T0_ES6_PKS3_l)
	jirl	$ra, $ra, 0
.Ltmp638:
.LBB11_122:                             # %_ZN9benchmark8internallsIA2_cEERNS0_7LogTypeES4_RKT_.exit295
	st.d	$s1, $sp, 88
	st.h	$s6, $sp, 104
	st.b	$s7, $sp, 106
	ori	$a0, $zero, 3
	st.d	$a0, $sp, 96
	st.b	$zero, $sp, 107
.Ltmp640:
	addi.d	$a1, $sp, 88
	move	$a0, $fp
	pcaddu18i	$ra, %call36(_ZNK7Results5GetAsIdEET_RKNSt7__cxx1112basic_stringIcSt11char_traitsIcESaIcEEE)
	jirl	$ra, $ra, 0
.Ltmp641:
# %bb.123:                              # %_ZNK7Results12GetCounterAsIdEET_RKNSt7__cxx1112basic_stringIcSt11char_traitsIcESaIcEEE.exit301
	ld.d	$a0, $s8, 0
	beqz	$a0, .LBB11_151
# %bb.124:
.Ltmp642:
	pcaddu18i	$ra, %call36(_ZNSo9_M_insertIdEERSoT_)
	jirl	$ra, $ra, 0
.Ltmp643:
# %bb.125:                              # %_ZN9benchmark8internallsIdEERNS0_7LogTypeES3_RKT_.exit304
	ld.d	$a0, $s8, 0
	beqz	$a0, .LBB11_151
# %bb.126:
.Ltmp644:
	pcalau12i	$a1, %pc_hi20(.L.str.39)
	addi.d	$a1, $a1, %pc_lo12(.L.str.39)
	ori	$a2, $zero, 13
	pcaddu18i	$ra, %call36(_ZSt16__ostream_insertIcSt11char_traitsIcEERSt13basic_ostreamIT_T0_ES6_PKS3_l)
	jirl	$ra, $ra, 0
.Ltmp645:
# %bb.127:                              # %_ZN9benchmark8internallsIA14_cEERNS0_7LogTypeES4_RKT_.exit307
	ld.d	$a0, $s8, 0
	beqz	$a0, .LBB11_151
# %bb.128:
.Ltmp647:
	fmov.d	$fa0, $fs1
	pcaddu18i	$ra, %call36(_ZNSo9_M_insertIdEERSoT_)
	jirl	$ra, $ra, 0
.Ltmp648:
# %bb.129:                              # %_ZN9benchmark8internallsIdEERNS0_7LogTypeES3_RKT_.exit310
	ld.d	$a0, $s8, 0
	beqz	$a0, .LBB11_151
# %bb.130:
.Ltmp649:
	pcalau12i	$a1, %pc_hi20(.L.str.31)
	addi.d	$a1, $a1, %pc_lo12(.L.str.31)
	ori	$a2, $zero, 1
	pcaddu18i	$ra, %call36(_ZSt16__ostream_insertIcSt11char_traitsIcEERSt13basic_ostreamIT_T0_ES6_PKS3_l)
	jirl	$ra, $ra, 0
.Ltmp650:
# %bb.131:                              # %_ZN9benchmark8internallsIA2_cEERNS0_7LogTypeES4_RKT_.exit313
	ld.d	$a0, $s8, 0
	beqz	$a0, .LBB11_151
# %bb.132:
.Ltmp651:
	pcalau12i	$a1, %pc_hi20(.L.str.30)
	addi.d	$a1, $a1, %pc_lo12(.L.str.30)
	ori	$a2, $zero, 131
	pcaddu18i	$ra, %call36(_ZSt16__ostream_insertIcSt11char_traitsIcEERSt13basic_ostreamIT_T0_ES6_PKS3_l)
	jirl	$ra, $ra, 0
.Ltmp652:
# %bb.133:                              # %_ZN9benchmark8internallsIA132_cEERNS0_7LogTypeES4_RKT_.exit316
	ld.d	$a0, $s8, 0
	beqz	$a0, .LBB11_151
# %bb.134:
.Ltmp653:
	pcalau12i	$a1, %pc_hi20(.L.str.32)
	addi.d	$a1, $a1, %pc_lo12(.L.str.32)
	ori	$a2, $zero, 1
	pcaddu18i	$ra, %call36(_ZSt16__ostream_insertIcSt11char_traitsIcEERSt13basic_ostreamIT_T0_ES6_PKS3_l)
	jirl	$ra, $ra, 0
.Ltmp654:
# %bb.135:                              # %_ZN9benchmark8internallsIA2_cEERNS0_7LogTypeES4_RKT_.exit319
	ld.d	$a0, $s8, 0
	beqz	$a0, .LBB11_151
# %bb.136:
.Ltmp656:
	ori	$a1, $zero, 155
	pcaddu18i	$ra, %call36(_ZNSolsEi)
	jirl	$ra, $ra, 0
.Ltmp657:
# %bb.137:                              # %_ZN9benchmark8internallsIiEERNS0_7LogTypeES3_RKT_.exit322
	ld.d	$a0, $s8, 0
	beqz	$a0, .LBB11_151
# %bb.138:
.Ltmp658:
	pcalau12i	$a1, %pc_hi20(.L.str.33)
	addi.d	$a1, $a1, %pc_lo12(.L.str.33)
	ori	$a2, $zero, 2
	pcaddu18i	$ra, %call36(_ZSt16__ostream_insertIcSt11char_traitsIcEERSt13basic_ostreamIT_T0_ES6_PKS3_l)
	jirl	$ra, $ra, 0
.Ltmp659:
# %bb.139:                              # %_ZN9benchmark8internallsIA3_cEERNS0_7LogTypeES4_RKT_.exit325
	ld.d	$a0, $s8, 0
	beqz	$a0, .LBB11_151
# %bb.140:
.Ltmp660:
	pcalau12i	$a1, %pc_hi20(.L.str.42)
	addi.d	$a1, $a1, %pc_lo12(.L.str.42)
	ori	$a2, $zero, 18
	pcaddu18i	$ra, %call36(_ZSt16__ostream_insertIcSt11char_traitsIcEERSt13basic_ostreamIT_T0_ES6_PKS3_l)
	jirl	$ra, $ra, 0
.Ltmp661:
# %bb.141:                              # %_ZN9benchmark8internallsIA19_cEERNS0_7LogTypeES4_RKT_.exit328
	ld.d	$a0, $s8, 0
	beqz	$a0, .LBB11_151
# %bb.142:
.Ltmp663:
	fmov.d	$fa0, $fs0
	pcaddu18i	$ra, %call36(_ZNSo9_M_insertIdEERSoT_)
	jirl	$ra, $ra, 0
.Ltmp664:
# %bb.143:                              # %_ZN9benchmark8internallsIdEERNS0_7LogTypeES3_RKT_.exit331
	ld.d	$a0, $s8, 0
	beqz	$a0, .LBB11_151
# %bb.144:
.Ltmp665:
	pcalau12i	$a1, %pc_hi20(.L.str.43)
	addi.d	$a1, $a1, %pc_lo12(.L.str.43)
	ori	$a2, $zero, 2
	pcaddu18i	$ra, %call36(_ZSt16__ostream_insertIcSt11char_traitsIcEERSt13basic_ostreamIT_T0_ES6_PKS3_l)
	jirl	$ra, $ra, 0
.Ltmp666:
# %bb.145:                              # %_ZN9benchmark8internallsIA3_cEERNS0_7LogTypeES4_RKT_.exit334
	ld.d	$a0, $s8, 0
	beqz	$a0, .LBB11_151
# %bb.146:
.Ltmp668:
	pcalau12i	$a1, %pc_hi20(.LCPI11_1)
	fld.d	$fa0, $a1, %pc_lo12(.LCPI11_1)
	pcaddu18i	$ra, %call36(_ZNSo9_M_insertIdEERSoT_)
	jirl	$ra, $ra, 0
.Ltmp669:
# %bb.147:                              # %_ZN9benchmark8internallsIdEERNS0_7LogTypeES3_RKT_.exit337
	ld.d	$a0, $s8, 0
	beqz	$a0, .LBB11_151
# %bb.148:
.Ltmp670:
	pcalau12i	$a1, %pc_hi20(.L.str.44)
	addi.d	$a1, $a1, %pc_lo12(.L.str.44)
	ori	$a2, $zero, 4
	pcaddu18i	$ra, %call36(_ZSt16__ostream_insertIcSt11char_traitsIcEERSt13basic_ostreamIT_T0_ES6_PKS3_l)
	jirl	$ra, $ra, 0
.Ltmp671:
# %bb.149:                              # %_ZN9benchmark8internallsIA5_cEERNS0_7LogTypeES4_RKT_.exit340
	ld.d	$a0, $s8, 0
	beqz	$a0, .LBB11_151
# %bb.150:
.Ltmp672:
	pcalau12i	$a1, %pc_hi20(.L.str.45)
	addi.d	$a1, $a1, %pc_lo12(.L.str.45)
	ori	$a2, $zero, 14
	pcaddu18i	$ra, %call36(_ZSt16__ostream_insertIcSt11char_traitsIcEERSt13basic_ostreamIT_T0_ES6_PKS3_l)
	jirl	$ra, $ra, 0
.Ltmp673:
.LBB11_151:                             # %_ZN9benchmark8internallsIA15_cEERNS0_7LogTypeES4_RKT_.exit343
	st.d	$s2, $sp, 56
	st.h	$s6, $sp, 72
	st.b	$s7, $sp, 74
	ori	$a0, $zero, 3
	st.d	$a0, $sp, 64
	st.b	$zero, $sp, 75
.Ltmp675:
	addi.d	$a1, $sp, 56
	move	$a0, $fp
	pcaddu18i	$ra, %call36(_ZNK7Results5GetAsIdEET_RKNSt7__cxx1112basic_stringIcSt11char_traitsIcESaIcEEE)
	jirl	$ra, $ra, 0
.Ltmp676:
# %bb.152:                              # %_ZNK7Results12GetCounterAsIdEET_RKNSt7__cxx1112basic_stringIcSt11char_traitsIcESaIcEEE.exit349
	ld.d	$a0, $s8, 0
	beqz	$a0, .LBB11_156
# %bb.153:
	fsub.d	$fa0, $fa0, $fs1
.Ltmp677:
	pcaddu18i	$ra, %call36(_ZNSo9_M_insertIdEERSoT_)
	jirl	$ra, $ra, 0
.Ltmp678:
# %bb.154:                              # %_ZN9benchmark8internallsIdEERNS0_7LogTypeES3_RKT_.exit352
	ld.d	$a0, $s8, 0
	beqz	$a0, .LBB11_156
# %bb.155:
.Ltmp679:
	pcalau12i	$a1, %pc_hi20(.L.str.43)
	addi.d	$a1, $a1, %pc_lo12(.L.str.43)
	ori	$a2, $zero, 2
	pcaddu18i	$ra, %call36(_ZSt16__ostream_insertIcSt11char_traitsIcEERSt13basic_ostreamIT_T0_ES6_PKS3_l)
	jirl	$ra, $ra, 0
.Ltmp680:
.LBB11_156:                             # %_ZN9benchmark8internallsIA3_cEERNS0_7LogTypeES4_RKT_.exit355
	st.d	$s3, $sp, 24
	st.h	$s6, $sp, 40
	st.b	$s7, $sp, 42
	ori	$a0, $zero, 3
	st.d	$a0, $sp, 32
	st.b	$zero, $sp, 43
.Ltmp682:
	addi.d	$a1, $sp, 24
	move	$a0, $fp
	pcaddu18i	$ra, %call36(_ZNK7Results5GetAsIdEET_RKNSt7__cxx1112basic_stringIcSt11char_traitsIcESaIcEEE)
	jirl	$ra, $ra, 0
.Ltmp683:
# %bb.157:                              # %_ZNK7Results12GetCounterAsIdEET_RKNSt7__cxx1112basic_stringIcSt11char_traitsIcESaIcEEE.exit361
	ld.d	$a0, $s8, 0
	beqz	$a0, .LBB11_161
# %bb.158:
	fld.d	$fa1, $s5, %pc_lo12(.LCPI11_2)
	fsub.d	$fa0, $fa0, $fs1
	fabs.d	$fa2, $fs1
	fld.d	$fa3, $s4, %pc_lo12(.LCPI11_3)
	fcmp.clt.d	$fcc0, $fa1, $fa2
	fsel	$fa1, $fa1, $fs1, $fcc0
	fdiv.d	$fa0, $fa0, $fa1
	fmul.d	$fa0, $fa0, $fa3
.Ltmp684:
	pcaddu18i	$ra, %call36(_ZNSo9_M_insertIdEERSoT_)
	jirl	$ra, $ra, 0
.Ltmp685:
# %bb.159:                              # %_ZN9benchmark8internallsIdEERNS0_7LogTypeES3_RKT_.exit364
	ld.d	$a0, $s8, 0
	beqz	$a0, .LBB11_161
# %bb.160:
.Ltmp686:
	pcalau12i	$a1, %pc_hi20(.L.str.46)
	addi.d	$a1, $a1, %pc_lo12(.L.str.46)
	ori	$a2, $zero, 2
	pcaddu18i	$ra, %call36(_ZSt16__ostream_insertIcSt11char_traitsIcEERSt13basic_ostreamIT_T0_ES6_PKS3_l)
	jirl	$ra, $ra, 0
.Ltmp687:
.LBB11_161:                             # %_ZN9benchmark8internallsIA3_cEERNS0_7LogTypeES4_RKT_.exit367
	ld.d	$a0, $sp, 24
	beq	$a0, $s3, .LBB11_163
# %bb.162:                              # %_ZNKSt7__cxx1112basic_stringIcSt11char_traitsIcESaIcEE11_M_is_localEv.exit.i.i368
	ld.d	$a1, $sp, 40
	addi.d	$a1, $a1, 1
	pcaddu18i	$ra, %call36(_ZdlPvm)
	jirl	$ra, $ra, 0
.LBB11_163:                             # %_ZNSt7__cxx1112basic_stringIcSt11char_traitsIcESaIcEED2Ev.exit370
	ld.d	$a0, $sp, 56
	beq	$a0, $s2, .LBB11_165
# %bb.164:                              # %_ZNKSt7__cxx1112basic_stringIcSt11char_traitsIcESaIcEE11_M_is_localEv.exit.i.i371
	ld.d	$a1, $sp, 72
	addi.d	$a1, $a1, 1
	pcaddu18i	$ra, %call36(_ZdlPvm)
	jirl	$ra, $ra, 0
.LBB11_165:                             # %_ZNSt7__cxx1112basic_stringIcSt11char_traitsIcESaIcEED2Ev.exit373
	ld.d	$a0, $sp, 88
	beq	$a0, $s1, .LBB11_167
# %bb.166:                              # %_ZNKSt7__cxx1112basic_stringIcSt11char_traitsIcESaIcEE11_M_is_localEv.exit.i.i374
	ld.d	$a1, $sp, 104
	addi.d	$a1, $a1, 1
	pcaddu18i	$ra, %call36(_ZdlPvm)
	jirl	$ra, $ra, 0
.LBB11_167:                             # %_ZNSt7__cxx1112basic_stringIcSt11char_traitsIcESaIcEED2Ev.exit376
	fcmp.clt.d	$fcc0, $fs2, $fs0
	bceqz	$fcc0, .LBB11_173
# %bb.168:
	ld.d	$a0, $sp, 128
	beq	$a0, $s0, .LBB11_170
# %bb.169:                              # %_ZNKSt7__cxx1112basic_stringIcSt11char_traitsIcESaIcEE11_M_is_localEv.exit.i.i389
	ld.d	$a1, $sp, 144
	addi.d	$a1, $a1, 1
	pcaddu18i	$ra, %call36(_ZdlPvm)
	jirl	$ra, $ra, 0
.LBB11_170:                             # %_ZNSt7__cxx1112basic_stringIcSt11char_traitsIcESaIcEED2Ev.exit391
	fld.d	$fs4, $sp, 160                  # 8-byte Folded Reload
	fld.d	$fs3, $sp, 168                  # 8-byte Folded Reload
	fld.d	$fs2, $sp, 176                  # 8-byte Folded Reload
	fld.d	$fs1, $sp, 184                  # 8-byte Folded Reload
	fld.d	$fs0, $sp, 192                  # 8-byte Folded Reload
	ld.d	$s8, $sp, 200                   # 8-byte Folded Reload
	ld.d	$s7, $sp, 208                   # 8-byte Folded Reload
	ld.d	$s6, $sp, 216                   # 8-byte Folded Reload
	ld.d	$s5, $sp, 224                   # 8-byte Folded Reload
	ld.d	$s4, $sp, 232                   # 8-byte Folded Reload
	ld.d	$s3, $sp, 240                   # 8-byte Folded Reload
	ld.d	$s2, $sp, 248                   # 8-byte Folded Reload
	ld.d	$s1, $sp, 256                   # 8-byte Folded Reload
	ld.d	$s0, $sp, 264                   # 8-byte Folded Reload
	ld.d	$fp, $sp, 272                   # 8-byte Folded Reload
	ld.d	$ra, $sp, 280                   # 8-byte Folded Reload
	addi.d	$sp, $sp, 288
	ret
.LBB11_171:
.Ltmp695:
	addi.d	$a0, $sp, 120
	pcaddu18i	$ra, %call36(_ZN9benchmark8internal12CheckHandlerD2Ev)
	jirl	$ra, $ra, 0
.Ltmp696:
# %bb.172:
.LBB11_173:
.Ltmp692:
	addi.d	$a0, $sp, 16
	pcaddu18i	$ra, %call36(_ZN9benchmark8internal12CheckHandlerD2Ev)
	jirl	$ra, $ra, 0
.Ltmp693:
# %bb.174:
.LBB11_175:
	pcalau12i	$a0, %pc_hi20(_ZGVZN9benchmark8internal18GetNullLogInstanceEvE8null_log)
	addi.d	$a0, $a0, %pc_lo12(_ZGVZN9benchmark8internal18GetNullLogInstanceEvE8null_log)
	pcaddu18i	$ra, %call36(__cxa_guard_acquire)
	jirl	$ra, $ra, 0
	addi.w	$a0, $a0, 0
	beqz	$a0, .LBB11_5
# %bb.176:
	pcalau12i	$a0, %pc_hi20(_ZZN9benchmark8internal18GetNullLogInstanceEvE8null_log)
	addi.d	$s6, $a0, %pc_lo12(_ZZN9benchmark8internal18GetNullLogInstanceEvE8null_log)
	st.d	$zero, $s6, 0
	pcalau12i	$a0, %pc_hi20(_ZGVZN9benchmark8internal18GetNullLogInstanceEvE8null_log)
	addi.d	$a0, $a0, %pc_lo12(_ZGVZN9benchmark8internal18GetNullLogInstanceEvE8null_log)
	pcaddu18i	$ra, %call36(__cxa_guard_release)
	jirl	$ra, $ra, 0
	b	.LBB11_5
.LBB11_177:
	pcalau12i	$a0, %pc_hi20(_ZGVZN9benchmark8internal18GetNullLogInstanceEvE8null_log)
	addi.d	$a0, $a0, %pc_lo12(_ZGVZN9benchmark8internal18GetNullLogInstanceEvE8null_log)
	pcaddu18i	$ra, %call36(__cxa_guard_acquire)
	jirl	$ra, $ra, 0
	addi.w	$a0, $a0, 0
	beqz	$a0, .LBB11_90
# %bb.178:
	pcalau12i	$a0, %pc_hi20(_ZZN9benchmark8internal18GetNullLogInstanceEvE8null_log)
	addi.d	$s8, $a0, %pc_lo12(_ZZN9benchmark8internal18GetNullLogInstanceEvE8null_log)
	st.d	$zero, $s8, 0
	pcalau12i	$a0, %pc_hi20(_ZGVZN9benchmark8internal18GetNullLogInstanceEvE8null_log)
	addi.d	$a0, $a0, %pc_lo12(_ZGVZN9benchmark8internal18GetNullLogInstanceEvE8null_log)
	pcaddu18i	$ra, %call36(__cxa_guard_release)
	jirl	$ra, $ra, 0
	b	.LBB11_90
.LBB11_179:
.Ltmp674:
	move	$fp, $a0
	ld.d	$a0, $sp, 88
	beq	$a0, $s1, .LBB11_203
	b	.LBB11_211
.LBB11_180:
.Ltmp585:
	move	$fp, $a0
	ld.d	$a0, $sp, 88
	bne	$a0, $s1, .LBB11_215
	b	.LBB11_216
.LBB11_181:
.Ltmp667:
	move	$fp, $a0
	ld.d	$a0, $sp, 88
	beq	$a0, $s1, .LBB11_203
	b	.LBB11_211
.LBB11_182:
.Ltmp578:
	move	$fp, $a0
	ld.d	$a0, $sp, 88
	bne	$a0, $s1, .LBB11_215
	b	.LBB11_216
.LBB11_183:
.Ltmp639:
	b	.LBB11_194
.LBB11_184:
.Ltmp550:
	b	.LBB11_196
.LBB11_185:
.Ltmp662:
	move	$fp, $a0
	ld.d	$a0, $sp, 88
	beq	$a0, $s1, .LBB11_203
	b	.LBB11_211
.LBB11_186:
.Ltmp573:
	move	$fp, $a0
	ld.d	$a0, $sp, 88
	bne	$a0, $s1, .LBB11_215
	b	.LBB11_216
.LBB11_187:
.Ltmp624:
	b	.LBB11_194
.LBB11_188:
.Ltmp535:
	b	.LBB11_196
.LBB11_189:
.Ltmp655:
	move	$fp, $a0
	ld.d	$a0, $sp, 88
	beq	$a0, $s1, .LBB11_203
	b	.LBB11_211
.LBB11_190:
.Ltmp566:
	move	$fp, $a0
	ld.d	$a0, $sp, 88
	bne	$a0, $s1, .LBB11_215
	b	.LBB11_216
.LBB11_191:
.Ltmp602:
	b	.LBB11_199
.LBB11_192:
.Ltmp513:
	b	.LBB11_199
.LBB11_193:
.Ltmp611:
.LBB11_194:
	move	$fp, $a0
	fcmp.clt.d	$fcc0, $fs2, $fs0
	addi.d	$a0, $sp, 16
	bcnez	$fcc0, .LBB11_204
	b	.LBB11_217
.LBB11_195:
.Ltmp522:
.LBB11_196:
	move	$fp, $a0
	b	.LBB11_216
.LBB11_197:
.Ltmp694:
	b	.LBB11_199
.LBB11_198:
.Ltmp697:
.LBB11_199:
	move	$fp, $a0
	b	.LBB11_204
.LBB11_200:
.Ltmp688:
	ld.d	$a2, $sp, 24
	move	$fp, $a0
	bne	$a2, $s3, .LBB11_207
# %bb.201:
	ld.d	$a0, $sp, 56
	bne	$a0, $s2, .LBB11_209
.LBB11_202:
	ld.d	$a0, $sp, 88
	bne	$a0, $s1, .LBB11_211
.LBB11_203:
	fcmp.clt.d	$fcc0, $fs2, $fs0
	addi.d	$a0, $sp, 16
	bceqz	$fcc0, .LBB11_217
.LBB11_204:
	ld.d	$a0, $sp, 128
	beq	$a0, $s0, .LBB11_206
# %bb.205:                              # %_ZNKSt7__cxx1112basic_stringIcSt11char_traitsIcESaIcEE11_M_is_localEv.exit.i.i392
	ld.d	$a1, $sp, 144
	addi.d	$a1, $a1, 1
	pcaddu18i	$ra, %call36(_ZdlPvm)
	jirl	$ra, $ra, 0
.LBB11_206:
	move	$a0, $fp
	pcaddu18i	$ra, %call36(_Unwind_Resume)
	jirl	$ra, $ra, 0
.LBB11_207:                             # %_ZNKSt7__cxx1112basic_stringIcSt11char_traitsIcESaIcEE11_M_is_localEv.exit.i.i380
	ld.d	$a0, $sp, 40
	addi.d	$a1, $a0, 1
	move	$a0, $a2
	pcaddu18i	$ra, %call36(_ZdlPvm)
	jirl	$ra, $ra, 0
	ld.d	$a0, $sp, 56
	beq	$a0, $s2, .LBB11_202
	b	.LBB11_209
.LBB11_208:
.Ltmp681:
	move	$fp, $a0
	ld.d	$a0, $sp, 56
	beq	$a0, $s2, .LBB11_202
.LBB11_209:                             # %_ZNKSt7__cxx1112basic_stringIcSt11char_traitsIcESaIcEE11_M_is_localEv.exit.i.i383
	ld.d	$a1, $sp, 72
	addi.d	$a1, $a1, 1
	pcaddu18i	$ra, %call36(_ZdlPvm)
	jirl	$ra, $ra, 0
	ld.d	$a0, $sp, 88
	beq	$a0, $s1, .LBB11_203
	b	.LBB11_211
.LBB11_210:
.Ltmp646:
	move	$fp, $a0
	ld.d	$a0, $sp, 88
	beq	$a0, $s1, .LBB11_203
.LBB11_211:                             # %_ZNKSt7__cxx1112basic_stringIcSt11char_traitsIcESaIcEE11_M_is_localEv.exit.i.i386
	ld.d	$a1, $sp, 104
	addi.d	$a1, $a1, 1
	pcaddu18i	$ra, %call36(_ZdlPvm)
	jirl	$ra, $ra, 0
	fcmp.clt.d	$fcc0, $fs2, $fs0
	addi.d	$a0, $sp, 16
	bcnez	$fcc0, .LBB11_204
	b	.LBB11_217
.LBB11_212:
.Ltmp599:
	ld.d	$a2, $sp, 24
	move	$fp, $a0
	bne	$a2, $s3, .LBB11_219
# %bb.213:
	ld.d	$a0, $sp, 56
	bne	$a0, $s2, .LBB11_221
.LBB11_214:
	ld.d	$a0, $sp, 88
	beq	$a0, $s1, .LBB11_216
.LBB11_215:                             # %_ZNKSt7__cxx1112basic_stringIcSt11char_traitsIcESaIcEE11_M_is_localEv.exit.i.i234
	ld.d	$a1, $sp, 104
	addi.d	$a1, $a1, 1
	pcaddu18i	$ra, %call36(_ZdlPvm)
	jirl	$ra, $ra, 0
.LBB11_216:
	addi.d	$a0, $sp, 120
	ld.d	$a1, $sp, 8
	movgr2cf	$fcc0, $a1
	bceqz	$fcc0, .LBB11_204
.LBB11_217:                             # %.invoke
.Ltmp689:
	pcaddu18i	$ra, %call36(_ZN9benchmark8internal12CheckHandlerD2Ev)
	jirl	$ra, $ra, 0
.Ltmp690:
# %bb.218:                              # %.cont
.LBB11_219:                             # %_ZNKSt7__cxx1112basic_stringIcSt11char_traitsIcESaIcEE11_M_is_localEv.exit.i.i228
	ld.d	$a0, $sp, 40
	addi.d	$a1, $a0, 1
	move	$a0, $a2
	pcaddu18i	$ra, %call36(_ZdlPvm)
	jirl	$ra, $ra, 0
	ld.d	$a0, $sp, 56
	beq	$a0, $s2, .LBB11_214
	b	.LBB11_221
.LBB11_220:
.Ltmp592:
	move	$fp, $a0
	ld.d	$a0, $sp, 56
	beq	$a0, $s2, .LBB11_214
.LBB11_221:                             # %_ZNKSt7__cxx1112basic_stringIcSt11char_traitsIcESaIcEE11_M_is_localEv.exit.i.i231
	ld.d	$a1, $sp, 72
	addi.d	$a1, $a1, 1
	pcaddu18i	$ra, %call36(_ZdlPvm)
	jirl	$ra, $ra, 0
	ld.d	$a0, $sp, 88
	bne	$a0, $s1, .LBB11_215
	b	.LBB11_216
.LBB11_222:
.Ltmp557:
	move	$fp, $a0
	ld.d	$a0, $sp, 88
	bne	$a0, $s1, .LBB11_215
	b	.LBB11_216
.LBB11_223:
.Ltmp691:
	pcaddu18i	$ra, %call36(__clang_call_terminate)
	jirl	$ra, $ra, 0
.Lfunc_end11:
	.size	_Z9CheckRateRK7Results, .Lfunc_end11-_Z9CheckRateRK7Results
	.cfi_endproc
	.section	.gcc_except_table,"a",@progbits
	.p2align	2, 0x0
GCC_except_table11:
.Lexception6:
	.byte	255                             # @LPStart Encoding = omit
	.byte	155                             # @TType Encoding = indirect pcrel sdata4
	.uleb128 .Lttbase2-.Lttbaseref2
.Lttbaseref2:
	.byte	1                               # Call site Encoding = uleb128
	.uleb128 .Lcst_end6-.Lcst_begin6
.Lcst_begin6:
	.uleb128 .Lfunc_begin6-.Lfunc_begin6    # >> Call Site 1 <<
	.uleb128 .Ltmp511-.Lfunc_begin6         #   Call between .Lfunc_begin6 and .Ltmp511
	.byte	0                               #     has no landing pad
	.byte	0                               #   On action: cleanup
	.uleb128 .Ltmp511-.Lfunc_begin6         # >> Call Site 2 <<
	.uleb128 .Ltmp512-.Ltmp511              #   Call between .Ltmp511 and .Ltmp512
	.uleb128 .Ltmp513-.Lfunc_begin6         #     jumps to .Ltmp513
	.byte	0                               #   On action: cleanup
	.uleb128 .Ltmp514-.Lfunc_begin6         # >> Call Site 3 <<
	.uleb128 .Ltmp515-.Ltmp514              #   Call between .Ltmp514 and .Ltmp515
	.uleb128 .Ltmp697-.Lfunc_begin6         #     jumps to .Ltmp697
	.byte	0                               #   On action: cleanup
	.uleb128 .Ltmp516-.Lfunc_begin6         # >> Call Site 4 <<
	.uleb128 .Ltmp521-.Ltmp516              #   Call between .Ltmp516 and .Ltmp521
	.uleb128 .Ltmp522-.Lfunc_begin6         #     jumps to .Ltmp522
	.byte	0                               #   On action: cleanup
	.uleb128 .Ltmp523-.Lfunc_begin6         # >> Call Site 5 <<
	.uleb128 .Ltmp534-.Ltmp523              #   Call between .Ltmp523 and .Ltmp534
	.uleb128 .Ltmp535-.Lfunc_begin6         #     jumps to .Ltmp535
	.byte	0                               #   On action: cleanup
	.uleb128 .Ltmp536-.Lfunc_begin6         # >> Call Site 6 <<
	.uleb128 .Ltmp549-.Ltmp536              #   Call between .Ltmp536 and .Ltmp549
	.uleb128 .Ltmp550-.Lfunc_begin6         #     jumps to .Ltmp550
	.byte	0                               #   On action: cleanup
	.uleb128 .Ltmp551-.Lfunc_begin6         # >> Call Site 7 <<
	.uleb128 .Ltmp556-.Ltmp551              #   Call between .Ltmp551 and .Ltmp556
	.uleb128 .Ltmp557-.Lfunc_begin6         #     jumps to .Ltmp557
	.byte	0                               #   On action: cleanup
	.uleb128 .Ltmp558-.Lfunc_begin6         # >> Call Site 8 <<
	.uleb128 .Ltmp565-.Ltmp558              #   Call between .Ltmp558 and .Ltmp565
	.uleb128 .Ltmp566-.Lfunc_begin6         #     jumps to .Ltmp566
	.byte	0                               #   On action: cleanup
	.uleb128 .Ltmp567-.Lfunc_begin6         # >> Call Site 9 <<
	.uleb128 .Ltmp572-.Ltmp567              #   Call between .Ltmp567 and .Ltmp572
	.uleb128 .Ltmp573-.Lfunc_begin6         #     jumps to .Ltmp573
	.byte	0                               #   On action: cleanup
	.uleb128 .Ltmp574-.Lfunc_begin6         # >> Call Site 10 <<
	.uleb128 .Ltmp577-.Ltmp574              #   Call between .Ltmp574 and .Ltmp577
	.uleb128 .Ltmp578-.Lfunc_begin6         #     jumps to .Ltmp578
	.byte	0                               #   On action: cleanup
	.uleb128 .Ltmp579-.Lfunc_begin6         # >> Call Site 11 <<
	.uleb128 .Ltmp584-.Ltmp579              #   Call between .Ltmp579 and .Ltmp584
	.uleb128 .Ltmp585-.Lfunc_begin6         #     jumps to .Ltmp585
	.byte	0                               #   On action: cleanup
	.uleb128 .Ltmp586-.Lfunc_begin6         # >> Call Site 12 <<
	.uleb128 .Ltmp591-.Ltmp586              #   Call between .Ltmp586 and .Ltmp591
	.uleb128 .Ltmp592-.Lfunc_begin6         #     jumps to .Ltmp592
	.byte	0                               #   On action: cleanup
	.uleb128 .Ltmp593-.Lfunc_begin6         # >> Call Site 13 <<
	.uleb128 .Ltmp598-.Ltmp593              #   Call between .Ltmp593 and .Ltmp598
	.uleb128 .Ltmp599-.Lfunc_begin6         #     jumps to .Ltmp599
	.byte	0                               #   On action: cleanup
	.uleb128 .Ltmp598-.Lfunc_begin6         # >> Call Site 14 <<
	.uleb128 .Ltmp600-.Ltmp598              #   Call between .Ltmp598 and .Ltmp600
	.byte	0                               #     has no landing pad
	.byte	0                               #   On action: cleanup
	.uleb128 .Ltmp600-.Lfunc_begin6         # >> Call Site 15 <<
	.uleb128 .Ltmp601-.Ltmp600              #   Call between .Ltmp600 and .Ltmp601
	.uleb128 .Ltmp602-.Lfunc_begin6         #     jumps to .Ltmp602
	.byte	0                               #   On action: cleanup
	.uleb128 .Ltmp603-.Lfunc_begin6         # >> Call Site 16 <<
	.uleb128 .Ltmp604-.Ltmp603              #   Call between .Ltmp603 and .Ltmp604
	.uleb128 .Ltmp694-.Lfunc_begin6         #     jumps to .Ltmp694
	.byte	0                               #   On action: cleanup
	.uleb128 .Ltmp605-.Lfunc_begin6         # >> Call Site 17 <<
	.uleb128 .Ltmp610-.Ltmp605              #   Call between .Ltmp605 and .Ltmp610
	.uleb128 .Ltmp611-.Lfunc_begin6         #     jumps to .Ltmp611
	.byte	0                               #   On action: cleanup
	.uleb128 .Ltmp612-.Lfunc_begin6         # >> Call Site 18 <<
	.uleb128 .Ltmp623-.Ltmp612              #   Call between .Ltmp612 and .Ltmp623
	.uleb128 .Ltmp624-.Lfunc_begin6         #     jumps to .Ltmp624
	.byte	0                               #   On action: cleanup
	.uleb128 .Ltmp625-.Lfunc_begin6         # >> Call Site 19 <<
	.uleb128 .Ltmp638-.Ltmp625              #   Call between .Ltmp625 and .Ltmp638
	.uleb128 .Ltmp639-.Lfunc_begin6         #     jumps to .Ltmp639
	.byte	0                               #   On action: cleanup
	.uleb128 .Ltmp640-.Lfunc_begin6         # >> Call Site 20 <<
	.uleb128 .Ltmp645-.Ltmp640              #   Call between .Ltmp640 and .Ltmp645
	.uleb128 .Ltmp646-.Lfunc_begin6         #     jumps to .Ltmp646
	.byte	0                               #   On action: cleanup
	.uleb128 .Ltmp647-.Lfunc_begin6         # >> Call Site 21 <<
	.uleb128 .Ltmp654-.Ltmp647              #   Call between .Ltmp647 and .Ltmp654
	.uleb128 .Ltmp655-.Lfunc_begin6         #     jumps to .Ltmp655
	.byte	0                               #   On action: cleanup
	.uleb128 .Ltmp656-.Lfunc_begin6         # >> Call Site 22 <<
	.uleb128 .Ltmp661-.Ltmp656              #   Call between .Ltmp656 and .Ltmp661
	.uleb128 .Ltmp662-.Lfunc_begin6         #     jumps to .Ltmp662
	.byte	0                               #   On action: cleanup
	.uleb128 .Ltmp663-.Lfunc_begin6         # >> Call Site 23 <<
	.uleb128 .Ltmp666-.Ltmp663              #   Call between .Ltmp663 and .Ltmp666
	.uleb128 .Ltmp667-.Lfunc_begin6         #     jumps to .Ltmp667
	.byte	0                               #   On action: cleanup
	.uleb128 .Ltmp668-.Lfunc_begin6         # >> Call Site 24 <<
	.uleb128 .Ltmp673-.Ltmp668              #   Call between .Ltmp668 and .Ltmp673
	.uleb128 .Ltmp674-.Lfunc_begin6         #     jumps to .Ltmp674
	.byte	0                               #   On action: cleanup
	.uleb128 .Ltmp675-.Lfunc_begin6         # >> Call Site 25 <<
	.uleb128 .Ltmp680-.Ltmp675              #   Call between .Ltmp675 and .Ltmp680
	.uleb128 .Ltmp681-.Lfunc_begin6         #     jumps to .Ltmp681
	.byte	0                               #   On action: cleanup
	.uleb128 .Ltmp682-.Lfunc_begin6         # >> Call Site 26 <<
	.uleb128 .Ltmp687-.Ltmp682              #   Call between .Ltmp682 and .Ltmp687
	.uleb128 .Ltmp688-.Lfunc_begin6         #     jumps to .Ltmp688
	.byte	0                               #   On action: cleanup
	.uleb128 .Ltmp687-.Lfunc_begin6         # >> Call Site 27 <<
	.uleb128 .Ltmp695-.Ltmp687              #   Call between .Ltmp687 and .Ltmp695
	.byte	0                               #     has no landing pad
	.byte	0                               #   On action: cleanup
	.uleb128 .Ltmp695-.Lfunc_begin6         # >> Call Site 28 <<
	.uleb128 .Ltmp696-.Ltmp695              #   Call between .Ltmp695 and .Ltmp696
	.uleb128 .Ltmp697-.Lfunc_begin6         #     jumps to .Ltmp697
	.byte	0                               #   On action: cleanup
	.uleb128 .Ltmp692-.Lfunc_begin6         # >> Call Site 29 <<
	.uleb128 .Ltmp693-.Ltmp692              #   Call between .Ltmp692 and .Ltmp693
	.uleb128 .Ltmp694-.Lfunc_begin6         #     jumps to .Ltmp694
	.byte	0                               #   On action: cleanup
	.uleb128 .Ltmp693-.Lfunc_begin6         # >> Call Site 30 <<
	.uleb128 .Ltmp689-.Ltmp693              #   Call between .Ltmp693 and .Ltmp689
	.byte	0                               #     has no landing pad
	.byte	0                               #   On action: cleanup
	.uleb128 .Ltmp689-.Lfunc_begin6         # >> Call Site 31 <<
	.uleb128 .Ltmp690-.Ltmp689              #   Call between .Ltmp689 and .Ltmp690
	.uleb128 .Ltmp691-.Lfunc_begin6         #     jumps to .Ltmp691
	.byte	1                               #   On action: 1
	.uleb128 .Ltmp690-.Lfunc_begin6         # >> Call Site 32 <<
	.uleb128 .Lfunc_end11-.Ltmp690          #   Call between .Ltmp690 and .Lfunc_end11
	.byte	0                               #     has no landing pad
	.byte	0                               #   On action: cleanup
.Lcst_end6:
	.byte	1                               # >> Action Record 1 <<
                                        #   Catch TypeInfo 1
	.byte	0                               #   No further actions
	.p2align	2, 0x0
                                        # >> Catch TypeInfos <<
	.word	0                               # TypeInfo 1
.Lttbase2:
	.p2align	2, 0x0
                                        # -- End function
	.text
	.hidden	_Z9BM_InvertRN9benchmark5StateE # -- Begin function _Z9BM_InvertRN9benchmark5StateE
	.globl	_Z9BM_InvertRN9benchmark5StateE
	.p2align	5
	.type	_Z9BM_InvertRN9benchmark5StateE,@function
_Z9BM_InvertRN9benchmark5StateE:        # @_Z9BM_InvertRN9benchmark5StateE
.Lfunc_begin7:
	.cfi_startproc
	.cfi_personality 155, DW.ref.__gxx_personality_v0
	.cfi_lsda 27, .Lexception7
# %bb.0:                                # %_ZN9benchmark5State13StateIteratorC2EPS0_.exit
	addi.d	$sp, $sp, -64
	.cfi_def_cfa_offset 64
	st.d	$ra, $sp, 56                    # 8-byte Folded Spill
	st.d	$fp, $sp, 48                    # 8-byte Folded Spill
	st.d	$s0, $sp, 40                    # 8-byte Folded Spill
	st.d	$s1, $sp, 32                    # 8-byte Folded Spill
	.cfi_offset 1, -8
	.cfi_offset 22, -16
	.cfi_offset 23, -24
	.cfi_offset 24, -32
	move	$fp, $a0
	ld.w	$s1, $a0, 28
	ld.d	$s0, $a0, 16
	pcaddu18i	$ra, %call36(_ZN9benchmark5State16StartKeepRunningEv)
	jirl	$ra, $ra, 0
	bnez	$s1, .LBB12_7
# %bb.1:                                # %_ZN9benchmark5State13StateIteratorC2EPS0_.exit
	beqz	$s0, .LBB12_7
# %bb.2:
	movgr2fr.d	$fa0, $zero
	addi.d	$a0, $sp, 0
	.p2align	4, , 16
.LBB12_3:                               # =>This Inner Loop Header: Depth=1
	ld.bu	$a1, $fp, 24
	fmov.d	$fa1, $fa0
	beqz	$a1, .LBB12_5
# %bb.4:                                #   in Loop: Header=BB12_3 Depth=1
	ld.d	$a1, $fp, 16
	ld.d	$a2, $fp, 0
	ld.d	$a3, $fp, 8
	sub.d	$a1, $a1, $a2
	add.d	$a1, $a1, $a3
	movgr2fr.d	$fa1, $a1
	ffint.d.l	$fa1, $fa1
	fmul.d	$fa1, $fa1, $fa1
.LBB12_5:                               # %_ZNK9benchmark5State10iterationsEv.exit
                                        #   in Loop: Header=BB12_3 Depth=1
	fst.d	$fa1, $sp, 0
	#APP
	#NO_APP
	blez	$s0, .LBB12_14
# %bb.6:                                #   in Loop: Header=BB12_3 Depth=1
	addi.d	$s0, $s0, -1
	bnez	$s0, .LBB12_3
.LBB12_7:                               # %._crit_edge.i.i
	move	$a0, $fp
	pcaddu18i	$ra, %call36(_ZN9benchmark5State17FinishKeepRunningEv)
	jirl	$ra, $ra, 0
	addi.d	$fp, $fp, 64
	pcalau12i	$a0, %pc_hi20(.L.str.5)
	addi.d	$a0, $a0, %pc_lo12(.L.str.5)
	ld.h	$a1, $a0, 0
	ld.b	$a0, $a0, 2
	addi.d	$s0, $sp, 16
	st.d	$s0, $sp, 0
	st.h	$a1, $sp, 16
	st.b	$a0, $sp, 18
	ori	$a0, $zero, 3
	st.d	$a0, $sp, 8
	st.b	$zero, $sp, 19
.Ltmp698:
	addi.d	$a1, $sp, 0
	move	$a0, $fp
	pcaddu18i	$ra, %call36(_ZNSt3mapINSt7__cxx1112basic_stringIcSt11char_traitsIcESaIcEEEN9benchmark7CounterESt4lessIS5_ESaISt4pairIKS5_S7_EEEixEOS5_)
	jirl	$ra, $ra, 0
.Ltmp699:
# %bb.8:
	lu12i.w	$a1, -85564
	ori	$a1, $a1, 813
	lu32i.d	$a1, -379166
	lu52i.d	$a1, $a1, 1009
	st.d	$a1, $a0, 0
	ld.d	$a2, $sp, 0
	lu12i.w	$s1, -524288
	lu32i.d	$s1, 1000
	st.d	$s1, $a0, 8
	beq	$a2, $s0, .LBB12_10
# %bb.9:                                # %_ZNKSt7__cxx1112basic_stringIcSt11char_traitsIcESaIcEE11_M_is_localEv.exit.i.i
	ld.d	$a0, $sp, 16
	addi.d	$a1, $a0, 1
	move	$a0, $a2
	pcaddu18i	$ra, %call36(_ZdlPvm)
	jirl	$ra, $ra, 0
.LBB12_10:                              # %_ZNSt7__cxx1112basic_stringIcSt11char_traitsIcESaIcEED2Ev.exit
	pcalau12i	$a0, %pc_hi20(.L.str.6)
	addi.d	$a0, $a0, %pc_lo12(.L.str.6)
	ld.h	$a1, $a0, 0
	ld.b	$a0, $a0, 2
	st.d	$s0, $sp, 0
	st.h	$a1, $sp, 16
	st.b	$a0, $sp, 18
	ori	$a0, $zero, 3
	st.d	$a0, $sp, 8
	st.b	$zero, $sp, 19
.Ltmp701:
	addi.d	$a1, $sp, 0
	move	$a0, $fp
	pcaddu18i	$ra, %call36(_ZNSt3mapINSt7__cxx1112basic_stringIcSt11char_traitsIcESaIcEEEN9benchmark7CounterESt4lessIS5_ESaISt4pairIKS5_S7_EEEixEOS5_)
	jirl	$ra, $ra, 0
.Ltmp702:
# %bb.11:
	ori	$a1, $zero, 0
	lu32i.d	$a1, 231424
	lu52i.d	$a1, $a1, 1036
	st.d	$a1, $a0, 0
	ld.d	$a2, $sp, 0
	st.d	$s1, $a0, 8
	beq	$a2, $s0, .LBB12_13
# %bb.12:                               # %_ZNKSt7__cxx1112basic_stringIcSt11char_traitsIcESaIcEE11_M_is_localEv.exit.i.i30
	ld.d	$a0, $sp, 16
	addi.d	$a1, $a0, 1
	move	$a0, $a2
	pcaddu18i	$ra, %call36(_ZdlPvm)
	jirl	$ra, $ra, 0
.LBB12_13:                              # %_ZNSt7__cxx1112basic_stringIcSt11char_traitsIcESaIcEED2Ev.exit32
	ld.d	$s1, $sp, 32                    # 8-byte Folded Reload
	ld.d	$s0, $sp, 40                    # 8-byte Folded Reload
	ld.d	$fp, $sp, 48                    # 8-byte Folded Reload
	ld.d	$ra, $sp, 56                    # 8-byte Folded Reload
	addi.d	$sp, $sp, 64
	ret
.LBB12_14:
	pcalau12i	$a0, %pc_hi20(.L.str.198)
	addi.d	$a0, $a0, %pc_lo12(.L.str.198)
	pcalau12i	$a1, %pc_hi20(.L.str.199)
	addi.d	$a1, $a1, %pc_lo12(.L.str.199)
	pcalau12i	$a2, %pc_hi20(.L__PRETTY_FUNCTION__._ZN9benchmark5State13StateIteratorppEv)
	addi.d	$a3, $a2, %pc_lo12(.L__PRETTY_FUNCTION__._ZN9benchmark5State13StateIteratorppEv)
	ori	$a2, $zero, 1134
	pcaddu18i	$ra, %call36(__assert_fail)
	jirl	$ra, $ra, 0
.LBB12_15:
.Ltmp703:
	b	.LBB12_17
.LBB12_16:
.Ltmp700:
.LBB12_17:
	ld.d	$a2, $sp, 0
	move	$fp, $a0
	beq	$a2, $s0, .LBB12_19
# %bb.18:                               # %_ZNKSt7__cxx1112basic_stringIcSt11char_traitsIcESaIcEE11_M_is_localEv.exit.i.i36
	ld.d	$a0, $sp, 16
	addi.d	$a1, $a0, 1
	move	$a0, $a2
	pcaddu18i	$ra, %call36(_ZdlPvm)
	jirl	$ra, $ra, 0
.LBB12_19:
	move	$a0, $fp
	pcaddu18i	$ra, %call36(_Unwind_Resume)
	jirl	$ra, $ra, 0
.Lfunc_end12:
	.size	_Z9BM_InvertRN9benchmark5StateE, .Lfunc_end12-_Z9BM_InvertRN9benchmark5StateE
	.cfi_endproc
	.section	.gcc_except_table,"a",@progbits
	.p2align	2, 0x0
GCC_except_table12:
.Lexception7:
	.byte	255                             # @LPStart Encoding = omit
	.byte	255                             # @TType Encoding = omit
	.byte	1                               # Call site Encoding = uleb128
	.uleb128 .Lcst_end7-.Lcst_begin7
.Lcst_begin7:
	.uleb128 .Lfunc_begin7-.Lfunc_begin7    # >> Call Site 1 <<
	.uleb128 .Ltmp698-.Lfunc_begin7         #   Call between .Lfunc_begin7 and .Ltmp698
	.byte	0                               #     has no landing pad
	.byte	0                               #   On action: cleanup
	.uleb128 .Ltmp698-.Lfunc_begin7         # >> Call Site 2 <<
	.uleb128 .Ltmp699-.Ltmp698              #   Call between .Ltmp698 and .Ltmp699
	.uleb128 .Ltmp700-.Lfunc_begin7         #     jumps to .Ltmp700
	.byte	0                               #   On action: cleanup
	.uleb128 .Ltmp699-.Lfunc_begin7         # >> Call Site 3 <<
	.uleb128 .Ltmp701-.Ltmp699              #   Call between .Ltmp699 and .Ltmp701
	.byte	0                               #     has no landing pad
	.byte	0                               #   On action: cleanup
	.uleb128 .Ltmp701-.Lfunc_begin7         # >> Call Site 4 <<
	.uleb128 .Ltmp702-.Ltmp701              #   Call between .Ltmp701 and .Ltmp702
	.uleb128 .Ltmp703-.Lfunc_begin7         #     jumps to .Ltmp703
	.byte	0                               #   On action: cleanup
	.uleb128 .Ltmp702-.Lfunc_begin7         # >> Call Site 5 <<
	.uleb128 .Lfunc_end12-.Ltmp702          #   Call between .Ltmp702 and .Lfunc_end12
	.byte	0                               #     has no landing pad
	.byte	0                               #   On action: cleanup
.Lcst_end7:
	.p2align	2, 0x0
                                        # -- End function
	.section	.rodata.cst8,"aM",@progbits,8
	.p2align	3, 0x0                          # -- Begin function _Z11CheckInvertRK7Results
.LCPI13_0:
	.dword	0xc0c3880000000000              # double -1.0E+4
.LCPI13_1:
	.dword	0x3f847ae147ae147b              # double 0.01
.LCPI13_2:
	.dword	0x40c3880000000000              # double 1.0E+4
.LCPI13_3:
	.dword	0x4059000000000000              # double 100
.LCPI13_4:
	.dword	0xbf1a36e2eb1c432d              # double -1.0E-4
.LCPI13_5:
	.dword	0x3e45798ee2308c3a              # double 1.0E-8
.LCPI13_6:
	.dword	0x3f1a36e2eb1c432d              # double 1.0E-4
	.text
	.hidden	_Z11CheckInvertRK7Results
	.globl	_Z11CheckInvertRK7Results
	.p2align	5
	.type	_Z11CheckInvertRK7Results,@function
_Z11CheckInvertRK7Results:              # @_Z11CheckInvertRK7Results
.Lfunc_begin8:
	.cfi_startproc
	.cfi_personality 155, DW.ref.__gxx_personality_v0
	.cfi_lsda 27, .Lexception8
# %bb.0:                                # %._crit_edge.i.i
	addi.d	$sp, $sp, -256
	.cfi_def_cfa_offset 256
	st.d	$ra, $sp, 248                   # 8-byte Folded Spill
	st.d	$fp, $sp, 240                   # 8-byte Folded Spill
	st.d	$s0, $sp, 232                   # 8-byte Folded Spill
	st.d	$s1, $sp, 224                   # 8-byte Folded Spill
	st.d	$s2, $sp, 216                   # 8-byte Folded Spill
	st.d	$s3, $sp, 208                   # 8-byte Folded Spill
	st.d	$s4, $sp, 200                   # 8-byte Folded Spill
	st.d	$s5, $sp, 192                   # 8-byte Folded Spill
	st.d	$s6, $sp, 184                   # 8-byte Folded Spill
	st.d	$s7, $sp, 176                   # 8-byte Folded Spill
	fst.d	$fs0, $sp, 168                  # 8-byte Folded Spill
	fst.d	$fs1, $sp, 160                  # 8-byte Folded Spill
	fst.d	$fs2, $sp, 152                  # 8-byte Folded Spill
	.cfi_offset 1, -8
	.cfi_offset 22, -16
	.cfi_offset 23, -24
	.cfi_offset 24, -32
	.cfi_offset 25, -40
	.cfi_offset 26, -48
	.cfi_offset 27, -56
	.cfi_offset 28, -64
	.cfi_offset 29, -72
	.cfi_offset 30, -80
	.cfi_offset 56, -88
	.cfi_offset 57, -96
	.cfi_offset 58, -104
	move	$fp, $a0
	pcalau12i	$a0, %pc_hi20(.L.str.5)
	addi.d	$a0, $a0, %pc_lo12(.L.str.5)
	ld.h	$s4, $a0, 0
	ld.b	$s5, $a0, 2
	addi.d	$s0, $sp, 136
	st.d	$s0, $sp, 120
	st.h	$s4, $sp, 136
	st.b	$s5, $sp, 138
	ori	$a0, $zero, 3
	st.d	$a0, $sp, 128
	st.b	$zero, $sp, 139
.Ltmp704:
	addi.d	$a1, $sp, 120
	move	$a0, $fp
	pcaddu18i	$ra, %call36(_ZNK7Results5GetAsIdEET_RKNSt7__cxx1112basic_stringIcSt11char_traitsIcESaIcEEE)
	jirl	$ra, $ra, 0
.Ltmp705:
# %bb.1:                                # %_ZNK7Results12GetCounterAsIdEET_RKNSt7__cxx1112basic_stringIcSt11char_traitsIcESaIcEEE.exit
	pcalau12i	$a0, %pc_hi20(.LCPI13_0)
	fld.d	$fs1, $a0, %pc_lo12(.LCPI13_0)
	fadd.d	$fa0, $fa0, $fs1
	fabs.d	$fs0, $fa0
	vldi	$vr0, -912
	fcmp.cule.d	$fcc0, $fa0, $fs0
	bceqz	$fcc0, .LBB13_4
# %bb.2:
.Ltmp707:
	pcalau12i	$a0, %pc_hi20(.L.str.90)
	addi.d	$a1, $a0, %pc_lo12(.L.str.90)
	pcalau12i	$a0, %pc_hi20(.L.str.30)
	addi.d	$a2, $a0, %pc_lo12(.L.str.30)
	pcalau12i	$a0, %pc_hi20(.L__func__._Z11CheckInvertRK7Results)
	addi.d	$a3, $a0, %pc_lo12(.L__func__._Z11CheckInvertRK7Results)
	addi.d	$a0, $sp, 112
	ori	$a4, $zero, 195
	pcaddu18i	$ra, %call36(_ZN9benchmark8internal12CheckHandlerC2EPKcS3_S3_i)
	jirl	$ra, $ra, 0
.Ltmp708:
# %bb.3:
	ld.d	$s6, $sp, 112
	b	.LBB13_5
.LBB13_4:
	pcalau12i	$a0, %pc_hi20(_ZGVZN9benchmark8internal18GetNullLogInstanceEvE8null_log)
