	.file	"user_counters_thousands_test.cc"
                                        # Start of file scope inline assembly
	.globl	_ZSt21ios_base_library_initv

                                        # End of file scope inline assembly
	.text
	.hidden	_Z21BM_Counters_ThousandsRN9benchmark5StateE # -- Begin function _Z21BM_Counters_ThousandsRN9benchmark5StateE
	.globl	_Z21BM_Counters_ThousandsRN9benchmark5StateE
	.p2align	5
	.type	_Z21BM_Counters_ThousandsRN9benchmark5StateE,@function
_Z21BM_Counters_ThousandsRN9benchmark5StateE: # @_Z21BM_Counters_ThousandsRN9benchmark5StateE
.Lfunc_begin0:
	.cfi_startproc
	.cfi_personality 155, DW.ref.__gxx_personality_v0
	.cfi_lsda 27, .Lexception0
# %bb.0:                                # %_ZN9benchmark5State13StateIteratorC2EPS0_.exit
	addi.d	$sp, $sp, -336
	.cfi_def_cfa_offset 336
	st.d	$ra, $sp, 328                   # 8-byte Folded Spill
	st.d	$fp, $sp, 320                   # 8-byte Folded Spill
	st.d	$s0, $sp, 312                   # 8-byte Folded Spill
	st.d	$s1, $sp, 304                   # 8-byte Folded Spill
	st.d	$s2, $sp, 296                   # 8-byte Folded Spill
	st.d	$s3, $sp, 288                   # 8-byte Folded Spill
	st.d	$s4, $sp, 280                   # 8-byte Folded Spill
	st.d	$s5, $sp, 272                   # 8-byte Folded Spill
	st.d	$s6, $sp, 264                   # 8-byte Folded Spill
	st.d	$s7, $sp, 256                   # 8-byte Folded Spill
	st.d	$s8, $sp, 248                   # 8-byte Folded Spill
	.cfi_offset 1, -8
	.cfi_offset 22, -16
	.cfi_offset 23, -24
	.cfi_offset 24, -32
	.cfi_offset 25, -40
	.cfi_offset 26, -48
	.cfi_offset 27, -56
	.cfi_offset 28, -64
	.cfi_offset 29, -72
	.cfi_offset 30, -80
	.cfi_offset 31, -88
	move	$s0, $a0
	ld.w	$s1, $a0, 28
	ld.d	$fp, $a0, 16
	pcaddu18i	$ra, %call36(_ZN9benchmark5State16StartKeepRunningEv)
	jirl	$ra, $ra, 0
	bnez	$s1, .LBB0_3
# %bb.1:                                # %_ZN9benchmark5State13StateIteratorC2EPS0_.exit
	beqz	$fp, .LBB0_3
# %bb.2:                                # %_ZN9benchmark5State13StateIteratorppEv.exit.preheader
	srai.d	$a0, $fp, 63
	andn	$a0, $fp, $a0
	addi.d	$a1, $fp, -1
	bgeu	$a1, $a0, .LBB0_23
.LBB0_3:                                # %.noexc.i.i
	move	$a0, $s0
	pcaddu18i	$ra, %call36(_ZN9benchmark5State17FinishKeepRunningEv)
	jirl	$ra, $ra, 0
	addi.d	$a0, $sp, 16
	st.d	$a0, $sp, 0
	ori	$a0, $zero, 21
	st.d	$a0, $sp, 240
	addi.d	$a0, $sp, 0
	addi.d	$a1, $sp, 240
	move	$a2, $zero
	pcaddu18i	$ra, %call36(_ZNSt7__cxx1112basic_stringIcSt11char_traitsIcESaIcEE9_M_createERmm)
	jirl	$ra, $ra, 0
	ld.d	$a1, $sp, 240
	pcalau12i	$a2, %pc_hi20(.L.str)
	addi.d	$a2, $a2, %pc_lo12(.L.str)
	ld.d	$a3, $a2, 13
	st.d	$a0, $sp, 0
	st.d	$a1, $sp, 16
	st.d	$a3, $a0, 13
	vld	$vr0, $a2, 0
	vst	$vr0, $a0, 0
	ld.d	$a0, $sp, 0
	st.d	$a1, $sp, 8
	stx.b	$zero, $a0, $a1
	ori	$s1, $zero, 0
	ori	$a0, $zero, 0
	lu32i.d	$a0, -97152
	lu52i.d	$s2, $a0, 1042
	st.d	$s2, $sp, 32
	lu32i.d	$s1, 1000
	st.d	$s1, $sp, 40
	addi.d	$fp, $sp, 48
	addi.d	$a0, $sp, 64
	st.d	$a0, $sp, 48
	ori	$s3, $zero, 18
	st.d	$s3, $sp, 240
.Ltmp0:
	addi.d	$a1, $sp, 240
	move	$a0, $fp
	move	$a2, $zero
	pcaddu18i	$ra, %call36(_ZNSt7__cxx1112basic_stringIcSt11char_traitsIcESaIcEE9_M_createERmm)
	jirl	$ra, $ra, 0
.Ltmp1:
# %bb.4:                                # %.noexc40
	ld.d	$a1, $sp, 240
	pcalau12i	$a2, %pc_hi20(.L.str.1)
	addi.d	$a2, $a2, %pc_lo12(.L.str.1)
	vld	$vr0, $a2, 0
	ld.h	$a2, $a2, 16
	st.d	$a0, $sp, 48
	st.d	$a1, $sp, 64
	vst	$vr0, $a0, 0
	st.h	$a2, $a0, 16
	ld.d	$a0, $sp, 48
	st.d	$a1, $sp, 56
	stx.b	$zero, $a0, $a1
	st.d	$s2, $sp, 80
	st.d	$s1, $sp, 88
	addi.d	$s1, $sp, 96
	addi.d	$s7, $sp, 112
	st.d	$s7, $sp, 96
	st.d	$s3, $sp, 240
.Ltmp3:
	addi.d	$a1, $sp, 240
	move	$a0, $s1
	move	$a2, $zero
	pcaddu18i	$ra, %call36(_ZNSt7__cxx1112basic_stringIcSt11char_traitsIcESaIcEE9_M_createERmm)
	jirl	$ra, $ra, 0
.Ltmp4:
# %bb.5:                                # %.noexc43
	ld.d	$a1, $sp, 240
	pcalau12i	$a2, %pc_hi20(.L.str.2)
	addi.d	$a2, $a2, %pc_lo12(.L.str.2)
	vld	$vr0, $a2, 0
	ld.h	$a2, $a2, 16
	st.d	$a0, $sp, 96
	st.d	$a1, $sp, 112
	vst	$vr0, $a0, 0
	st.h	$a2, $a0, 16
	ld.d	$a0, $sp, 96
	st.d	$a1, $sp, 104
	stx.b	$zero, $a0, $a1
	ori	$s3, $zero, 0
	ori	$a0, $zero, 0
	lu32i.d	$a0, -97152
	lu52i.d	$a0, $a0, 1042
	st.d	$a0, $sp, 128
	ori	$a0, $zero, 0
	lu32i.d	$a0, 1024
	st.d	$a0, $sp, 136
	addi.d	$s2, $sp, 144
	addi.d	$s8, $sp, 160
	st.d	$s8, $sp, 144
	ori	$s4, $zero, 18
	st.d	$s4, $sp, 240
.Ltmp6:
	addi.d	$a1, $sp, 240
	move	$a0, $s2
	move	$a2, $zero
	pcaddu18i	$ra, %call36(_ZNSt7__cxx1112basic_stringIcSt11char_traitsIcESaIcEE9_M_createERmm)
	jirl	$ra, $ra, 0
.Ltmp7:
# %bb.6:                                # %.noexc47
	ld.d	$a1, $sp, 240
	pcalau12i	$a2, %pc_hi20(.L.str.3)
	addi.d	$a2, $a2, %pc_lo12(.L.str.3)
	vld	$vr0, $a2, 0
	ld.h	$a2, $a2, 16
	st.d	$a0, $sp, 144
	st.d	$a1, $sp, 160
	vst	$vr0, $a0, 0
	st.h	$a2, $a0, 16
	ld.d	$a0, $sp, 144
	st.d	$a1, $sp, 152
	stx.b	$zero, $a0, $a1
	lu52i.d	$s6, $zero, 1043
	st.d	$s6, $sp, 176
	lu32i.d	$s3, 1000
	st.d	$s3, $sp, 184
	addi.d	$s3, $sp, 192
	addi.d	$s5, $sp, 208
	st.d	$s5, $sp, 192
	st.d	$s4, $sp, 240
.Ltmp9:
	addi.d	$a1, $sp, 240
	move	$a0, $s3
	move	$a2, $zero
	pcaddu18i	$ra, %call36(_ZNSt7__cxx1112basic_stringIcSt11char_traitsIcESaIcEE9_M_createERmm)
	jirl	$ra, $ra, 0
.Ltmp10:
# %bb.7:                                # %.noexc51
	ld.d	$a1, $sp, 240
	pcalau12i	$a2, %pc_hi20(.L.str.4)
	addi.d	$a2, $a2, %pc_lo12(.L.str.4)
	vld	$vr0, $a2, 0
	ld.h	$a2, $a2, 16
	st.d	$a0, $sp, 192
	st.d	$a1, $sp, 208
	vst	$vr0, $a0, 0
	st.h	$a2, $a0, 16
	ld.d	$a0, $sp, 192
	addi.d	$s4, $s0, 64
	st.d	$a1, $sp, 200
	stx.b	$zero, $a0, $a1
	st.d	$s6, $sp, 224
	ori	$a0, $zero, 0
	lu32i.d	$a0, 1024
	st.d	$a0, $sp, 232
	st.d	$s4, $sp, 240
	addi.d	$s0, $s0, 72
.Ltmp12:
	addi.d	$a2, $sp, 0
	addi.d	$a3, $sp, 240
	move	$a0, $s4
	move	$a1, $s0
	pcaddu18i	$ra, %call36(_ZNSt8_Rb_treeINSt7__cxx1112basic_stringIcSt11char_traitsIcESaIcEEESt4pairIKS5_N9benchmark7CounterEESt10_Select1stISA_ESt4lessIS5_ESaISA_EE17_M_insert_unique_IRKSA_NSG_11_Alloc_nodeEEESt17_Rb_tree_iteratorISA_ESt23_Rb_tree_const_iteratorISA_EOT_RT0_)
	jirl	$ra, $ra, 0
.Ltmp13:
# %bb.8:                                # %.noexc53
.Ltmp14:
	addi.d	$a3, $sp, 240
	move	$a0, $s4
	move	$a1, $s0
	move	$a2, $fp
	pcaddu18i	$ra, %call36(_ZNSt8_Rb_treeINSt7__cxx1112basic_stringIcSt11char_traitsIcESaIcEEESt4pairIKS5_N9benchmark7CounterEESt10_Select1stISA_ESt4lessIS5_ESaISA_EE17_M_insert_unique_IRKSA_NSG_11_Alloc_nodeEEESt17_Rb_tree_iteratorISA_ESt23_Rb_tree_const_iteratorISA_EOT_RT0_)
	jirl	$ra, $ra, 0
.Ltmp15:
# %bb.9:                                # %.noexc53.1
.Ltmp16:
	addi.d	$a3, $sp, 240
	move	$a0, $s4
	move	$a1, $s0
	move	$a2, $s1
	pcaddu18i	$ra, %call36(_ZNSt8_Rb_treeINSt7__cxx1112basic_stringIcSt11char_traitsIcESaIcEEESt4pairIKS5_N9benchmark7CounterEESt10_Select1stISA_ESt4lessIS5_ESaISA_EE17_M_insert_unique_IRKSA_NSG_11_Alloc_nodeEEESt17_Rb_tree_iteratorISA_ESt23_Rb_tree_const_iteratorISA_EOT_RT0_)
	jirl	$ra, $ra, 0
.Ltmp17:
# %bb.10:                               # %.noexc53.2
.Ltmp18:
	addi.d	$a3, $sp, 240
	move	$a0, $s4
	move	$a1, $s0
	move	$a2, $s2
	pcaddu18i	$ra, %call36(_ZNSt8_Rb_treeINSt7__cxx1112basic_stringIcSt11char_traitsIcESaIcEEESt4pairIKS5_N9benchmark7CounterEESt10_Select1stISA_ESt4lessIS5_ESaISA_EE17_M_insert_unique_IRKSA_NSG_11_Alloc_nodeEEESt17_Rb_tree_iteratorISA_ESt23_Rb_tree_const_iteratorISA_EOT_RT0_)
	jirl	$ra, $ra, 0
.Ltmp19:
# %bb.11:                               # %.noexc53.3
.Ltmp20:
	addi.d	$a3, $sp, 240
	move	$a0, $s4
	move	$a1, $s0
	move	$a2, $s3
	pcaddu18i	$ra, %call36(_ZNSt8_Rb_treeINSt7__cxx1112basic_stringIcSt11char_traitsIcESaIcEEESt4pairIKS5_N9benchmark7CounterEESt10_Select1stISA_ESt4lessIS5_ESaISA_EE17_M_insert_unique_IRKSA_NSG_11_Alloc_nodeEEESt17_Rb_tree_iteratorISA_ESt23_Rb_tree_const_iteratorISA_EOT_RT0_)
	jirl	$ra, $ra, 0
.Ltmp21:
# %bb.12:                               # %.noexc53.4
	ld.d	$a0, $sp, 192
	beq	$a0, $s5, .LBB0_14
# %bb.13:                               # %_ZNKSt7__cxx1112basic_stringIcSt11char_traitsIcESaIcEE11_M_is_localEv.exit.i.i.i
	ld.d	$a1, $sp, 208
	addi.d	$a1, $a1, 1
	pcaddu18i	$ra, %call36(_ZdlPvm)
	jirl	$ra, $ra, 0
.LBB0_14:                               # %_ZNSt4pairIKNSt7__cxx1112basic_stringIcSt11char_traitsIcESaIcEEEN9benchmark7CounterEED2Ev.exit
	ld.d	$a0, $sp, 144
	beq	$a0, $s8, .LBB0_16
# %bb.15:                               # %_ZNKSt7__cxx1112basic_stringIcSt11char_traitsIcESaIcEE11_M_is_localEv.exit.i.i.i.1
	ld.d	$a1, $sp, 160
	addi.d	$a1, $a1, 1
	pcaddu18i	$ra, %call36(_ZdlPvm)
	jirl	$ra, $ra, 0
.LBB0_16:                               # %_ZNSt4pairIKNSt7__cxx1112basic_stringIcSt11char_traitsIcESaIcEEEN9benchmark7CounterEED2Ev.exit.1
	ld.d	$a0, $sp, 96
	addi.d	$fp, $sp, 16
	addi.d	$s0, $sp, 64
	beq	$a0, $s7, .LBB0_18
# %bb.17:                               # %_ZNKSt7__cxx1112basic_stringIcSt11char_traitsIcESaIcEE11_M_is_localEv.exit.i.i.i.2
	ld.d	$a1, $sp, 112
	addi.d	$a1, $a1, 1
	pcaddu18i	$ra, %call36(_ZdlPvm)
	jirl	$ra, $ra, 0
.LBB0_18:                               # %_ZNSt4pairIKNSt7__cxx1112basic_stringIcSt11char_traitsIcESaIcEEEN9benchmark7CounterEED2Ev.exit.2
	ld.d	$a0, $sp, 48
	beq	$a0, $s0, .LBB0_20
# %bb.19:                               # %_ZNKSt7__cxx1112basic_stringIcSt11char_traitsIcESaIcEE11_M_is_localEv.exit.i.i.i.3
	ld.d	$a1, $sp, 64
	addi.d	$a1, $a1, 1
	pcaddu18i	$ra, %call36(_ZdlPvm)
	jirl	$ra, $ra, 0
.LBB0_20:                               # %_ZNSt4pairIKNSt7__cxx1112basic_stringIcSt11char_traitsIcESaIcEEEN9benchmark7CounterEED2Ev.exit.3
	ld.d	$a0, $sp, 0
	beq	$a0, $fp, .LBB0_22
# %bb.21:                               # %_ZNKSt7__cxx1112basic_stringIcSt11char_traitsIcESaIcEE11_M_is_localEv.exit.i.i.i.4
	ld.d	$a1, $sp, 16
	addi.d	$a1, $a1, 1
	pcaddu18i	$ra, %call36(_ZdlPvm)
	jirl	$ra, $ra, 0
.LBB0_22:                               # %_ZNSt4pairIKNSt7__cxx1112basic_stringIcSt11char_traitsIcESaIcEEEN9benchmark7CounterEED2Ev.exit.4
	ld.d	$s8, $sp, 248                   # 8-byte Folded Reload
	ld.d	$s7, $sp, 256                   # 8-byte Folded Reload
	ld.d	$s6, $sp, 264                   # 8-byte Folded Reload
	ld.d	$s5, $sp, 272                   # 8-byte Folded Reload
	ld.d	$s4, $sp, 280                   # 8-byte Folded Reload
	ld.d	$s3, $sp, 288                   # 8-byte Folded Reload
	ld.d	$s2, $sp, 296                   # 8-byte Folded Reload
	ld.d	$s1, $sp, 304                   # 8-byte Folded Reload
	ld.d	$s0, $sp, 312                   # 8-byte Folded Reload
	ld.d	$fp, $sp, 320                   # 8-byte Folded Reload
	ld.d	$ra, $sp, 328                   # 8-byte Folded Reload
	addi.d	$sp, $sp, 336
	ret
.LBB0_23:
	pcalau12i	$a0, %pc_hi20(.L.str.77)
	addi.d	$a0, $a0, %pc_lo12(.L.str.77)
	pcalau12i	$a1, %pc_hi20(.L.str.78)
	addi.d	$a1, $a1, %pc_lo12(.L.str.78)
	pcalau12i	$a2, %pc_hi20(.L__PRETTY_FUNCTION__._ZN9benchmark5State13StateIteratorppEv)
	addi.d	$a3, $a2, %pc_lo12(.L__PRETTY_FUNCTION__._ZN9benchmark5State13StateIteratorppEv)
	ori	$a2, $zero, 1134
	pcaddu18i	$ra, %call36(__assert_fail)
	jirl	$ra, $ra, 0
.LBB0_24:
.Ltmp11:
	move	$s0, $a0
	move	$fp, $s3
	b	.LBB0_28
.LBB0_25:
.Ltmp8:
	move	$s0, $a0
	move	$fp, $s2
	b	.LBB0_28
.LBB0_26:
.Ltmp5:
	move	$s0, $a0
	move	$fp, $s1
	b	.LBB0_28
.LBB0_27:
.Ltmp2:
	move	$s0, $a0
.LBB0_28:
	addi.d	$s1, $sp, 0
	b	.LBB0_30
	.p2align	4, , 16
.LBB0_29:                               # %_ZNSt4pairIKNSt7__cxx1112basic_stringIcSt11char_traitsIcESaIcEEEN9benchmark7CounterEED2Ev.exit59
                                        #   in Loop: Header=BB0_30 Depth=1
	addi.d	$fp, $fp, -48
	beq	$fp, $s1, .LBB0_37
.LBB0_30:                               # =>This Inner Loop Header: Depth=1
	ld.d	$a0, $fp, -48
	addi.d	$a1, $fp, -32
	beq	$a1, $a0, .LBB0_29
# %bb.31:                               # %_ZNKSt7__cxx1112basic_stringIcSt11char_traitsIcESaIcEE11_M_is_localEv.exit.i.i.i57
                                        #   in Loop: Header=BB0_30 Depth=1
	ld.d	$a1, $a1, 0
	addi.d	$a1, $a1, 1
	pcaddu18i	$ra, %call36(_ZdlPvm)
	jirl	$ra, $ra, 0
	b	.LBB0_29
.LBB0_32:
.Ltmp22:
	ld.d	$a2, $sp, 192
	move	$s0, $a0
	bne	$a2, $s5, .LBB0_38
# %bb.33:                               # %_ZNSt4pairIKNSt7__cxx1112basic_stringIcSt11char_traitsIcESaIcEEEN9benchmark7CounterEED2Ev.exit56
	ld.d	$a0, $sp, 144
	bne	$a0, $s8, .LBB0_39
.LBB0_34:                               # %_ZNSt4pairIKNSt7__cxx1112basic_stringIcSt11char_traitsIcESaIcEEEN9benchmark7CounterEED2Ev.exit56.1
	ld.d	$a0, $sp, 96
	bne	$a0, $s7, .LBB0_40
.LBB0_35:                               # %_ZNSt4pairIKNSt7__cxx1112basic_stringIcSt11char_traitsIcESaIcEEEN9benchmark7CounterEED2Ev.exit56.2
	ld.d	$a0, $sp, 48
	addi.d	$a1, $sp, 64
	bne	$a0, $a1, .LBB0_41
.LBB0_36:                               # %_ZNSt4pairIKNSt7__cxx1112basic_stringIcSt11char_traitsIcESaIcEEEN9benchmark7CounterEED2Ev.exit56.3
	ld.d	$a0, $sp, 0
	addi.d	$a1, $sp, 16
	bne	$a0, $a1, .LBB0_42
.LBB0_37:                               # %.thread
	move	$a0, $s0
	pcaddu18i	$ra, %call36(_Unwind_Resume)
	jirl	$ra, $ra, 0
.LBB0_38:                               # %_ZNKSt7__cxx1112basic_stringIcSt11char_traitsIcESaIcEE11_M_is_localEv.exit.i.i.i54
	ld.d	$a0, $sp, 208
	addi.d	$a1, $a0, 1
	move	$a0, $a2
	pcaddu18i	$ra, %call36(_ZdlPvm)
	jirl	$ra, $ra, 0
	ld.d	$a0, $sp, 144
	beq	$a0, $s8, .LBB0_34
.LBB0_39:                               # %_ZNKSt7__cxx1112basic_stringIcSt11char_traitsIcESaIcEE11_M_is_localEv.exit.i.i.i54.1
	ld.d	$a1, $sp, 160
	addi.d	$a1, $a1, 1
	pcaddu18i	$ra, %call36(_ZdlPvm)
	jirl	$ra, $ra, 0
	ld.d	$a0, $sp, 96
	beq	$a0, $s7, .LBB0_35
.LBB0_40:                               # %_ZNKSt7__cxx1112basic_stringIcSt11char_traitsIcESaIcEE11_M_is_localEv.exit.i.i.i54.2
	ld.d	$a1, $sp, 112
	addi.d	$a1, $a1, 1
	pcaddu18i	$ra, %call36(_ZdlPvm)
	jirl	$ra, $ra, 0
	ld.d	$a0, $sp, 48
	addi.d	$a1, $sp, 64
	beq	$a0, $a1, .LBB0_36
.LBB0_41:                               # %_ZNKSt7__cxx1112basic_stringIcSt11char_traitsIcESaIcEE11_M_is_localEv.exit.i.i.i54.3
	ld.d	$a1, $sp, 64
	addi.d	$a1, $a1, 1
	pcaddu18i	$ra, %call36(_ZdlPvm)
	jirl	$ra, $ra, 0
	ld.d	$a0, $sp, 0
	addi.d	$a1, $sp, 16
	beq	$a0, $a1, .LBB0_37
.LBB0_42:                               # %_ZNKSt7__cxx1112basic_stringIcSt11char_traitsIcESaIcEE11_M_is_localEv.exit.i.i.i54.4
	ld.d	$a1, $sp, 16
	addi.d	$a1, $a1, 1
	pcaddu18i	$ra, %call36(_ZdlPvm)
	jirl	$ra, $ra, 0
	move	$a0, $s0
	pcaddu18i	$ra, %call36(_Unwind_Resume)
	jirl	$ra, $ra, 0
.Lfunc_end0:
	.size	_Z21BM_Counters_ThousandsRN9benchmark5StateE, .Lfunc_end0-_Z21BM_Counters_ThousandsRN9benchmark5StateE
	.cfi_endproc
	.section	.gcc_except_table,"a",@progbits
	.p2align	2, 0x0
GCC_except_table0:
.Lexception0:
	.byte	255                             # @LPStart Encoding = omit
	.byte	255                             # @TType Encoding = omit
	.byte	1                               # Call site Encoding = uleb128
	.uleb128 .Lcst_end0-.Lcst_begin0
.Lcst_begin0:
	.uleb128 .Lfunc_begin0-.Lfunc_begin0    # >> Call Site 1 <<
	.uleb128 .Ltmp0-.Lfunc_begin0           #   Call between .Lfunc_begin0 and .Ltmp0
	.byte	0                               #     has no landing pad
	.byte	0                               #   On action: cleanup
	.uleb128 .Ltmp0-.Lfunc_begin0           # >> Call Site 2 <<
	.uleb128 .Ltmp1-.Ltmp0                  #   Call between .Ltmp0 and .Ltmp1
	.uleb128 .Ltmp2-.Lfunc_begin0           #     jumps to .Ltmp2
	.byte	0                               #   On action: cleanup
	.uleb128 .Ltmp3-.Lfunc_begin0           # >> Call Site 3 <<
	.uleb128 .Ltmp4-.Ltmp3                  #   Call between .Ltmp3 and .Ltmp4
	.uleb128 .Ltmp5-.Lfunc_begin0           #     jumps to .Ltmp5
	.byte	0                               #   On action: cleanup
	.uleb128 .Ltmp6-.Lfunc_begin0           # >> Call Site 4 <<
	.uleb128 .Ltmp7-.Ltmp6                  #   Call between .Ltmp6 and .Ltmp7
	.uleb128 .Ltmp8-.Lfunc_begin0           #     jumps to .Ltmp8
	.byte	0                               #   On action: cleanup
	.uleb128 .Ltmp9-.Lfunc_begin0           # >> Call Site 5 <<
	.uleb128 .Ltmp10-.Ltmp9                 #   Call between .Ltmp9 and .Ltmp10
	.uleb128 .Ltmp11-.Lfunc_begin0          #     jumps to .Ltmp11
	.byte	0                               #   On action: cleanup
	.uleb128 .Ltmp12-.Lfunc_begin0          # >> Call Site 6 <<
	.uleb128 .Ltmp21-.Ltmp12                #   Call between .Ltmp12 and .Ltmp21
	.uleb128 .Ltmp22-.Lfunc_begin0          #     jumps to .Ltmp22
	.byte	0                               #   On action: cleanup
	.uleb128 .Ltmp21-.Lfunc_begin0          # >> Call Site 7 <<
	.uleb128 .Lfunc_end0-.Ltmp21            #   Call between .Ltmp21 and .Lfunc_end0
	.byte	0                               #     has no landing pad
	.byte	0                               #   On action: cleanup
.Lcst_end0:
	.p2align	2, 0x0
                                        # -- End function
	.section	.text._ZN8TestCaseD2Ev,"axG",@progbits,_ZN8TestCaseD2Ev,comdat
	.hidden	_ZN8TestCaseD2Ev                # -- Begin function _ZN8TestCaseD2Ev
	.weak	_ZN8TestCaseD2Ev
	.p2align	5
	.type	_ZN8TestCaseD2Ev,@function
_ZN8TestCaseD2Ev:                       # @_ZN8TestCaseD2Ev
	.cfi_startproc
# %bb.0:
	addi.d	$sp, $sp, -32
	.cfi_def_cfa_offset 32
	st.d	$ra, $sp, 24                    # 8-byte Folded Spill
	st.d	$fp, $sp, 16                    # 8-byte Folded Spill
	st.d	$s0, $sp, 8                     # 8-byte Folded Spill
	.cfi_offset 1, -8
	.cfi_offset 22, -16
	.cfi_offset 23, -24
	move	$fp, $a0
	ld.d	$s0, $a0, 80
	beqz	$s0, .LBB1_5
# %bb.1:
	ld.d	$a0, $s0, 8
	ori	$a1, $zero, 1
	lu32i.d	$a1, 1
	dbar	20
	bne	$a0, $a1, .LBB1_3
# %bb.2:
	ld.d	$a0, $s0, 0
	st.d	$zero, $s0, 8
	ld.d	$a1, $a0, 16
	move	$a0, $s0
	jirl	$ra, $a1, 0
	ld.d	$a0, $s0, 0
	ld.d	$a1, $a0, 24
	move	$a0, $s0
	jirl	$ra, $a1, 0
	ld.d	$a0, $fp, 40
	addi.d	$a1, $fp, 56
	bne	$a0, $a1, .LBB1_6
	b	.LBB1_7
.LBB1_3:
	pcalau12i	$a1, %got_pc_hi20(__libc_single_threaded)
	ld.d	$a1, $a1, %got_pc_lo12(__libc_single_threaded)
	ld.bu	$a1, $a1, 0
	beqz	$a1, .LBB1_10
# %bb.4:
	addi.d	$a1, $a0, -1
	st.w	$a1, $s0, 8
	addi.w	$a0, $a0, 0
	ori	$a1, $zero, 1
	beq	$a0, $a1, .LBB1_11
.LBB1_5:                                # %_ZNSt12__shared_ptrIN9benchmark5RegexELN9__gnu_cxx12_Lock_policyE2EED2Ev.exit
	ld.d	$a0, $fp, 40
	addi.d	$a1, $fp, 56
	beq	$a0, $a1, .LBB1_7
.LBB1_6:                                # %_ZNKSt7__cxx1112basic_stringIcSt11char_traitsIcESaIcEE11_M_is_localEv.exit.i.i
	ld.d	$a1, $a1, 0
	addi.d	$a1, $a1, 1
	pcaddu18i	$ra, %call36(_ZdlPvm)
	jirl	$ra, $ra, 0
.LBB1_7:                                # %_ZNSt7__cxx1112basic_stringIcSt11char_traitsIcESaIcEED2Ev.exit
	ld.d	$a0, $fp, 0
	addi.d	$a1, $fp, 16
	beq	$a0, $a1, .LBB1_9
# %bb.8:                                # %_ZNKSt7__cxx1112basic_stringIcSt11char_traitsIcESaIcEE11_M_is_localEv.exit.i.i1
	ld.d	$a1, $a1, 0
	addi.d	$a1, $a1, 1
	ld.d	$s0, $sp, 8                     # 8-byte Folded Reload
	ld.d	$fp, $sp, 16                    # 8-byte Folded Reload
	ld.d	$ra, $sp, 24                    # 8-byte Folded Reload
	addi.d	$sp, $sp, 32
	pcaddu18i	$t8, %call36(_ZdlPvm)
	jr	$t8
.LBB1_9:                                # %_ZNSt7__cxx1112basic_stringIcSt11char_traitsIcESaIcEED2Ev.exit3
	ld.d	$s0, $sp, 8                     # 8-byte Folded Reload
	ld.d	$fp, $sp, 16                    # 8-byte Folded Reload
	ld.d	$ra, $sp, 24                    # 8-byte Folded Reload
	addi.d	$sp, $sp, 32
	ret
.LBB1_10:
	addi.d	$a1, $s0, 8
	addi.w	$a2, $zero, -1
	amadd_db.w	$a0, $a2, $a1
	addi.w	$a0, $a0, 0
	ori	$a1, $zero, 1
	bne	$a0, $a1, .LBB1_5
.LBB1_11:
	move	$a0, $s0
	pcaddu18i	$ra, %call36(_ZNSt16_Sp_counted_baseILN9__gnu_cxx12_Lock_policyE2EE24_M_release_last_use_coldEv)
	jirl	$ra, $ra, 0
	ld.d	$a0, $fp, 40
	addi.d	$a1, $fp, 56
	bne	$a0, $a1, .LBB1_6
	b	.LBB1_7
.Lfunc_end1:
	.size	_ZN8TestCaseD2Ev, .Lfunc_end1-_ZN8TestCaseD2Ev
	.cfi_endproc
                                        # -- End function
	.section	.rodata.cst8,"aM",@progbits,8
	.p2align	3, 0x0                          # -- Begin function _Z14CheckThousandsRK7Results
.LCPI2_0:
	.dword	0xc12e848000000000              # double -1.0E+6
.LCPI2_1:
	.dword	0x4059000000000000              # double 100
.LCPI2_2:
	.dword	0x3f847ae147ae147b              # double 0.01
.LCPI2_3:
	.dword	0x412e848000000000              # double 1.0E+6
.LCPI2_4:
	.dword	0xc130000000000000              # double -1048576
.LCPI2_5:
	.dword	0x405a36e2eb1c432d              # double 104.85760000000001
.LCPI2_6:
	.dword	0x3eb0000000000000              # double 9.5367431640625E-7
	.text
	.hidden	_Z14CheckThousandsRK7Results
	.globl	_Z14CheckThousandsRK7Results
	.p2align	5
	.type	_Z14CheckThousandsRK7Results,@function
_Z14CheckThousandsRK7Results:           # @_Z14CheckThousandsRK7Results
.Lfunc_begin1:
	.cfi_startproc
	.cfi_personality 155, DW.ref.__gxx_personality_v0
	.cfi_lsda 27, .Lexception1
# %bb.0:
	addi.d	$sp, $sp, -304
	.cfi_def_cfa_offset 304
	st.d	$ra, $sp, 296                   # 8-byte Folded Spill
	st.d	$fp, $sp, 288                   # 8-byte Folded Spill
	st.d	$s0, $sp, 280                   # 8-byte Folded Spill
	st.d	$s1, $sp, 272                   # 8-byte Folded Spill
	st.d	$s2, $sp, 264                   # 8-byte Folded Spill
	st.d	$s3, $sp, 256                   # 8-byte Folded Spill
	st.d	$s4, $sp, 248                   # 8-byte Folded Spill
	st.d	$s5, $sp, 240                   # 8-byte Folded Spill
	st.d	$s6, $sp, 232                   # 8-byte Folded Spill
	st.d	$s7, $sp, 224                   # 8-byte Folded Spill
	fst.d	$fs0, $sp, 216                  # 8-byte Folded Spill
	fst.d	$fs1, $sp, 208                  # 8-byte Folded Spill
	fst.d	$fs2, $sp, 200                  # 8-byte Folded Spill
	fst.d	$fs3, $sp, 192                  # 8-byte Folded Spill
	.cfi_offset 1, -8
	.cfi_offset 22, -16
	.cfi_offset 23, -24
	.cfi_offset 24, -32
	.cfi_offset 25, -40
	.cfi_offset 26, -48
	.cfi_offset 27, -56
	.cfi_offset 28, -64
	.cfi_offset 29, -72
	.cfi_offset 30, -80
	.cfi_offset 56, -88
	.cfi_offset 57, -96
	.cfi_offset 58, -104
	.cfi_offset 59, -112
	move	$fp, $a0
	ld.d	$a0, $a0, 8
	ori	$a1, $zero, 31
	bne	$a0, $a1, .LBB2_447
# %bb.1:                                # %_ZStneIcSt11char_traitsIcESaIcEEbRKNSt7__cxx1112basic_stringIT_T0_T1_EEPKS5_.exit
	ld.d	$a0, $fp, 0
	pcalau12i	$a1, %pc_hi20(.L.str.55)
	addi.d	$a1, $a1, %pc_lo12(.L.str.55)
	ori	$a2, $zero, 31
	pcaddu18i	$ra, %call36(bcmp)
	jirl	$ra, $ra, 0
	bnez	$a0, .LBB2_447
# %bb.2:                                # %_ZStneIcSt11char_traitsIcESaIcEEbRKNSt7__cxx1112basic_stringIT_T0_T1_EEPKS5_.exit.thread1027
	addi.d	$s0, $sp, 168
	st.d	$s0, $sp, 152
	ori	$a0, $zero, 21
	st.d	$a0, $sp, 112
.Ltmp23:
	addi.d	$a0, $sp, 152
	addi.d	$a1, $sp, 112
	move	$a2, $zero
	pcaddu18i	$ra, %call36(_ZNSt7__cxx1112basic_stringIcSt11char_traitsIcESaIcEE9_M_createERmm)
	jirl	$ra, $ra, 0
.Ltmp24:
# %bb.3:                                # %.noexc
	ld.d	$a1, $sp, 112
	pcalau12i	$a2, %pc_hi20(.L.str)
	addi.d	$s5, $a2, %pc_lo12(.L.str)
	vld	$vr0, $s5, 0
	ld.d	$s4, $s5, 13
	st.d	$a0, $sp, 152
	st.d	$a1, $sp, 168
	vst	$vr0, $a0, 0
	st.d	$s4, $a0, 13
	ld.d	$a0, $sp, 152
	st.d	$a1, $sp, 160
	stx.b	$zero, $a0, $a1
.Ltmp26:
	addi.d	$a1, $sp, 152
	move	$a0, $fp
	pcaddu18i	$ra, %call36(_ZNK7Results5GetAsIdEET_RKNSt7__cxx1112basic_stringIcSt11char_traitsIcESaIcEEE)
	jirl	$ra, $ra, 0
.Ltmp27:
# %bb.4:                                # %_ZNK7Results12GetCounterAsIdEET_RKNSt7__cxx1112basic_stringIcSt11char_traitsIcESaIcEEE.exit
	pcalau12i	$a0, %pc_hi20(.LCPI2_0)
	fld.d	$fs1, $a0, %pc_lo12(.LCPI2_0)
	pcalau12i	$a0, %pc_hi20(.LCPI2_1)
	fld.d	$fs0, $a0, %pc_lo12(.LCPI2_1)
	fadd.d	$fa0, $fa0, $fs1
	fabs.d	$fs2, $fa0
	fcmp.cule.d	$fcc0, $fs0, $fs2
	movcf2gr	$a0, $fcc0
	st.d	$a0, $sp, 8
	bceqz	$fcc0, .LBB2_7
# %bb.5:
.Ltmp29:
	pcalau12i	$a0, %pc_hi20(.L.str.56)
	addi.d	$a1, $a0, %pc_lo12(.L.str.56)
	pcalau12i	$a0, %pc_hi20(.L.str.57)
	addi.d	$a2, $a0, %pc_lo12(.L.str.57)
	pcalau12i	$a0, %pc_hi20(.L__func__._Z14CheckThousandsRK7Results)
	addi.d	$a3, $a0, %pc_lo12(.L__func__._Z14CheckThousandsRK7Results)
	addi.d	$a0, $sp, 144
	ori	$a4, $zero, 174
	pcaddu18i	$ra, %call36(_ZN9benchmark8internal12CheckHandlerC2EPKcS3_S3_i)
	jirl	$ra, $ra, 0
.Ltmp30:
# %bb.6:
	ld.d	$s6, $sp, 144
	b	.LBB2_8
.LBB2_7:
	pcalau12i	$a0, %pc_hi20(_ZGVZN9benchmark8internal18GetNullLogInstanceEvE8null_log)
	ld.b	$a0, $a0, %pc_lo12(_ZGVZN9benchmark8internal18GetNullLogInstanceEvE8null_log)
	dbar	20
	pcalau12i	$a1, %pc_hi20(_ZZN9benchmark8internal18GetNullLogInstanceEvE8null_log)
	addi.d	$s6, $a1, %pc_lo12(_ZZN9benchmark8internal18GetNullLogInstanceEvE8null_log)
	beqz	$a0, .LBB2_458
.LBB2_8:                                # %_ZN9benchmark8internal18GetNullLogInstanceEv.exit
	ld.d	$a0, $s6, 0
	beqz	$a0, .LBB2_40
# %bb.9:
.Ltmp31:
	pcalau12i	$a1, %pc_hi20(.L.str.58)
	addi.d	$a1, $a1, %pc_lo12(.L.str.58)
	ori	$a2, $zero, 1
	pcaddu18i	$ra, %call36(_ZSt16__ostream_insertIcSt11char_traitsIcEERSt13basic_ostreamIT_T0_ES6_PKS3_l)
	jirl	$ra, $ra, 0
.Ltmp32:
# %bb.10:                               # %_ZN9benchmark8internallsIA2_cEERNS0_7LogTypeES4_RKT_.exit
	ld.d	$a0, $s6, 0
	beqz	$a0, .LBB2_40
# %bb.11:
.Ltmp33:
	pcalau12i	$a1, %pc_hi20(.L.str.57)
	addi.d	$a1, $a1, %pc_lo12(.L.str.57)
	ori	$a2, $zero, 141
	pcaddu18i	$ra, %call36(_ZSt16__ostream_insertIcSt11char_traitsIcEERSt13basic_ostreamIT_T0_ES6_PKS3_l)
	jirl	$ra, $ra, 0
.Ltmp34:
# %bb.12:                               # %_ZN9benchmark8internallsIA142_cEERNS0_7LogTypeES4_RKT_.exit
	ld.d	$a0, $s6, 0
	beqz	$a0, .LBB2_40
# %bb.13:
.Ltmp35:
	pcalau12i	$a1, %pc_hi20(.L.str.59)
	addi.d	$a1, $a1, %pc_lo12(.L.str.59)
	ori	$a2, $zero, 1
	pcaddu18i	$ra, %call36(_ZSt16__ostream_insertIcSt11char_traitsIcEERSt13basic_ostreamIT_T0_ES6_PKS3_l)
	jirl	$ra, $ra, 0
.Ltmp36:
# %bb.14:                               # %_ZN9benchmark8internallsIA2_cEERNS0_7LogTypeES4_RKT_.exit235
	ld.d	$a0, $s6, 0
	beqz	$a0, .LBB2_40
# %bb.15:
.Ltmp38:
	ori	$a1, $zero, 174
	pcaddu18i	$ra, %call36(_ZNSolsEi)
	jirl	$ra, $ra, 0
.Ltmp39:
# %bb.16:                               # %_ZN9benchmark8internallsIiEERNS0_7LogTypeES3_RKT_.exit
	ld.d	$a0, $s6, 0
	beqz	$a0, .LBB2_40
# %bb.17:
.Ltmp40:
	pcalau12i	$a1, %pc_hi20(.L.str.60)
	addi.d	$a1, $a1, %pc_lo12(.L.str.60)
	ori	$a2, $zero, 2
	pcaddu18i	$ra, %call36(_ZSt16__ostream_insertIcSt11char_traitsIcEERSt13basic_ostreamIT_T0_ES6_PKS3_l)
	jirl	$ra, $ra, 0
.Ltmp41:
# %bb.18:                               # %_ZN9benchmark8internallsIA3_cEERNS0_7LogTypeES4_RKT_.exit
	ld.d	$a0, $s6, 0
	beqz	$a0, .LBB2_40
# %bb.19:
	ld.d	$a1, $fp, 0
	ld.d	$a2, $fp, 8
.Ltmp42:
	pcaddu18i	$ra, %call36(_ZSt16__ostream_insertIcSt11char_traitsIcEERSt13basic_ostreamIT_T0_ES6_PKS3_l)
	jirl	$ra, $ra, 0
.Ltmp43:
# %bb.20:                               # %_ZN9benchmark8internallsINSt7__cxx1112basic_stringIcSt11char_traitsIcESaIcEEEEERNS0_7LogTypeES9_RKT_.exit
	ld.d	$a0, $s6, 0
	beqz	$a0, .LBB2_40
# %bb.21:
.Ltmp44:
	pcalau12i	$a1, %pc_hi20(.L.str.61)
	addi.d	$a1, $a1, %pc_lo12(.L.str.61)
	ori	$a2, $zero, 2
	pcaddu18i	$ra, %call36(_ZSt16__ostream_insertIcSt11char_traitsIcEERSt13basic_ostreamIT_T0_ES6_PKS3_l)
	jirl	$ra, $ra, 0
.Ltmp45:
# %bb.22:                               # %_ZN9benchmark8internallsIA3_cEERNS0_7LogTypeES4_RKT_.exit244
	ld.d	$a0, $s6, 0
	beqz	$a0, .LBB2_40
# %bb.23:
.Ltmp46:
	pcalau12i	$a1, %pc_hi20(.L.str.57)
	addi.d	$a1, $a1, %pc_lo12(.L.str.57)
	ori	$a2, $zero, 141
	pcaddu18i	$ra, %call36(_ZSt16__ostream_insertIcSt11char_traitsIcEERSt13basic_ostreamIT_T0_ES6_PKS3_l)
	jirl	$ra, $ra, 0
.Ltmp47:
# %bb.24:                               # %_ZN9benchmark8internallsIA142_cEERNS0_7LogTypeES4_RKT_.exit247
	ld.d	$a0, $s6, 0
	beqz	$a0, .LBB2_40
# %bb.25:
.Ltmp48:
	pcalau12i	$a1, %pc_hi20(.L.str.59)
	addi.d	$a1, $a1, %pc_lo12(.L.str.59)
	ori	$a2, $zero, 1
	pcaddu18i	$ra, %call36(_ZSt16__ostream_insertIcSt11char_traitsIcEERSt13basic_ostreamIT_T0_ES6_PKS3_l)
	jirl	$ra, $ra, 0
.Ltmp49:
# %bb.26:                               # %_ZN9benchmark8internallsIA2_cEERNS0_7LogTypeES4_RKT_.exit250
	ld.d	$a0, $s6, 0
	beqz	$a0, .LBB2_40
# %bb.27:
.Ltmp51:
	ori	$a1, $zero, 174
	pcaddu18i	$ra, %call36(_ZNSolsEi)
	jirl	$ra, $ra, 0
.Ltmp52:
# %bb.28:                               # %_ZN9benchmark8internallsIiEERNS0_7LogTypeES3_RKT_.exit253
	ld.d	$a0, $s6, 0
	beqz	$a0, .LBB2_40
# %bb.29:
.Ltmp53:
	pcalau12i	$a1, %pc_hi20(.L.str.60)
	addi.d	$a1, $a1, %pc_lo12(.L.str.60)
	ori	$a2, $zero, 2
	pcaddu18i	$ra, %call36(_ZSt16__ostream_insertIcSt11char_traitsIcEERSt13basic_ostreamIT_T0_ES6_PKS3_l)
	jirl	$ra, $ra, 0
.Ltmp54:
# %bb.30:                               # %_ZN9benchmark8internallsIA3_cEERNS0_7LogTypeES4_RKT_.exit256
	ld.d	$a0, $s6, 0
	beqz	$a0, .LBB2_40
# %bb.31:
.Ltmp55:
	pcalau12i	$a1, %pc_hi20(.L.str.62)
	addi.d	$a1, $a1, %pc_lo12(.L.str.62)
	ori	$a2, $zero, 10
	pcaddu18i	$ra, %call36(_ZSt16__ostream_insertIcSt11char_traitsIcEERSt13basic_ostreamIT_T0_ES6_PKS3_l)
	jirl	$ra, $ra, 0
.Ltmp56:
# %bb.32:                               # %_ZN9benchmark8internallsIA11_cEERNS0_7LogTypeES4_RKT_.exit
	ld.d	$a0, $s6, 0
	beqz	$a0, .LBB2_40
# %bb.33:
.Ltmp57:
	pcalau12i	$a1, %pc_hi20(.L.str.63)
	addi.d	$a1, $a1, %pc_lo12(.L.str.63)
	ori	$a2, $zero, 6
	pcaddu18i	$ra, %call36(_ZSt16__ostream_insertIcSt11char_traitsIcEERSt13basic_ostreamIT_T0_ES6_PKS3_l)
	jirl	$ra, $ra, 0
.Ltmp58:
# %bb.34:                               # %_ZN9benchmark8internallsIA7_cEERNS0_7LogTypeES4_RKT_.exit
	ld.d	$a0, $s6, 0
	beqz	$a0, .LBB2_40
# %bb.35:
.Ltmp59:
	pcalau12i	$a1, %pc_hi20(.L.str.64)
	addi.d	$a1, $a1, %pc_lo12(.L.str.64)
	ori	$a2, $zero, 1
	pcaddu18i	$ra, %call36(_ZSt16__ostream_insertIcSt11char_traitsIcEERSt13basic_ostreamIT_T0_ES6_PKS3_l)
	jirl	$ra, $ra, 0
.Ltmp60:
# %bb.36:                               # %_ZN9benchmark8internallsIA2_cEERNS0_7LogTypeES4_RKT_.exit263
	ld.d	$a0, $s6, 0
	beqz	$a0, .LBB2_40
# %bb.37:
.Ltmp61:
	pcalau12i	$a1, %pc_hi20(.L.str)
	addi.d	$a1, $a1, %pc_lo12(.L.str)
	ori	$a2, $zero, 21
	pcaddu18i	$ra, %call36(_ZSt16__ostream_insertIcSt11char_traitsIcEERSt13basic_ostreamIT_T0_ES6_PKS3_l)
	jirl	$ra, $ra, 0
.Ltmp62:
# %bb.38:                               # %_ZN9benchmark8internallsIA22_cEERNS0_7LogTypeES4_RKT_.exit
	ld.d	$a0, $s6, 0
	beqz	$a0, .LBB2_40
# %bb.39:
.Ltmp63:
	pcalau12i	$a1, %pc_hi20(.L.str.65)
	addi.d	$a1, $a1, %pc_lo12(.L.str.65)
	ori	$a2, $zero, 1
	pcaddu18i	$ra, %call36(_ZSt16__ostream_insertIcSt11char_traitsIcEERSt13basic_ostreamIT_T0_ES6_PKS3_l)
	jirl	$ra, $ra, 0
.Ltmp64:
.LBB2_40:                               # %_ZN9benchmark8internallsIA2_cEERNS0_7LogTypeES4_RKT_.exit268
	addi.d	$s1, $sp, 128
	st.d	$s1, $sp, 112
	ori	$a0, $zero, 21
	st.d	$a0, $sp, 80
.Ltmp66:
	addi.d	$a0, $sp, 112
	addi.d	$a1, $sp, 80
	move	$a2, $zero
	pcaddu18i	$ra, %call36(_ZNSt7__cxx1112basic_stringIcSt11char_traitsIcESaIcEE9_M_createERmm)
	jirl	$ra, $ra, 0
.Ltmp67:
# %bb.41:                               # %.noexc271
	ld.d	$a1, $sp, 80
	vld	$vr0, $s5, 0
	st.d	$a0, $sp, 112
	st.d	$a1, $sp, 128
	vst	$vr0, $a0, 0
	st.d	$s4, $a0, 13
	ld.d	$a0, $sp, 112
	st.d	$a1, $sp, 120
	stx.b	$zero, $a0, $a1
.Ltmp69:
	addi.d	$a1, $sp, 112
	move	$a0, $fp
	pcaddu18i	$ra, %call36(_ZNK7Results5GetAsIdEET_RKNSt7__cxx1112basic_stringIcSt11char_traitsIcESaIcEEE)
	jirl	$ra, $ra, 0
.Ltmp70:
# %bb.42:                               # %_ZNK7Results12GetCounterAsIdEET_RKNSt7__cxx1112basic_stringIcSt11char_traitsIcESaIcEEE.exit274
	ld.d	$a0, $s6, 0
	beqz	$a0, .LBB2_70
# %bb.43:
.Ltmp71:
	pcaddu18i	$ra, %call36(_ZNSo9_M_insertIdEERSoT_)
	jirl	$ra, $ra, 0
.Ltmp72:
# %bb.44:                               # %_ZN9benchmark8internallsIdEERNS0_7LogTypeES3_RKT_.exit
	ld.d	$a0, $s6, 0
	beqz	$a0, .LBB2_70
# %bb.45:
.Ltmp73:
	pcalau12i	$a1, %pc_hi20(.L.str.66)
	addi.d	$a1, $a1, %pc_lo12(.L.str.66)
	ori	$a2, $zero, 13
	pcaddu18i	$ra, %call36(_ZSt16__ostream_insertIcSt11char_traitsIcEERSt13basic_ostreamIT_T0_ES6_PKS3_l)
	jirl	$ra, $ra, 0
.Ltmp74:
# %bb.46:                               # %_ZN9benchmark8internallsIA14_cEERNS0_7LogTypeES4_RKT_.exit
	ld.d	$a0, $s6, 0
	beqz	$a0, .LBB2_70
# %bb.47:
.Ltmp76:
	lu12i.w	$a1, 244
	ori	$a1, $a1, 576
	pcaddu18i	$ra, %call36(_ZNSolsEi)
	jirl	$ra, $ra, 0
.Ltmp77:
# %bb.48:                               # %_ZN9benchmark8internallsIiEERNS0_7LogTypeES3_RKT_.exit281
	ld.d	$a0, $s6, 0
	beqz	$a0, .LBB2_70
# %bb.49:
.Ltmp78:
	pcalau12i	$a1, %pc_hi20(.L.str.58)
	addi.d	$a1, $a1, %pc_lo12(.L.str.58)
	ori	$a2, $zero, 1
	pcaddu18i	$ra, %call36(_ZSt16__ostream_insertIcSt11char_traitsIcEERSt13basic_ostreamIT_T0_ES6_PKS3_l)
	jirl	$ra, $ra, 0
.Ltmp79:
# %bb.50:                               # %_ZN9benchmark8internallsIA2_cEERNS0_7LogTypeES4_RKT_.exit284
	ld.d	$a0, $s6, 0
	beqz	$a0, .LBB2_70
# %bb.51:
.Ltmp80:
	pcalau12i	$a1, %pc_hi20(.L.str.57)
	addi.d	$a1, $a1, %pc_lo12(.L.str.57)
	ori	$a2, $zero, 141
	pcaddu18i	$ra, %call36(_ZSt16__ostream_insertIcSt11char_traitsIcEERSt13basic_ostreamIT_T0_ES6_PKS3_l)
	jirl	$ra, $ra, 0
.Ltmp81:
# %bb.52:                               # %_ZN9benchmark8internallsIA142_cEERNS0_7LogTypeES4_RKT_.exit287
	ld.d	$a0, $s6, 0
	beqz	$a0, .LBB2_70
# %bb.53:
.Ltmp82:
	pcalau12i	$a1, %pc_hi20(.L.str.59)
	addi.d	$a1, $a1, %pc_lo12(.L.str.59)
	ori	$a2, $zero, 1
	pcaddu18i	$ra, %call36(_ZSt16__ostream_insertIcSt11char_traitsIcEERSt13basic_ostreamIT_T0_ES6_PKS3_l)
	jirl	$ra, $ra, 0
.Ltmp83:
# %bb.54:                               # %_ZN9benchmark8internallsIA2_cEERNS0_7LogTypeES4_RKT_.exit290
	ld.d	$a0, $s6, 0
	beqz	$a0, .LBB2_70
# %bb.55:
.Ltmp85:
	ori	$a1, $zero, 174
	pcaddu18i	$ra, %call36(_ZNSolsEi)
	jirl	$ra, $ra, 0
.Ltmp86:
# %bb.56:                               # %_ZN9benchmark8internallsIiEERNS0_7LogTypeES3_RKT_.exit293
	ld.d	$a0, $s6, 0
	beqz	$a0, .LBB2_70
# %bb.57:
.Ltmp87:
	pcalau12i	$a1, %pc_hi20(.L.str.60)
	addi.d	$a1, $a1, %pc_lo12(.L.str.60)
	ori	$a2, $zero, 2
	pcaddu18i	$ra, %call36(_ZSt16__ostream_insertIcSt11char_traitsIcEERSt13basic_ostreamIT_T0_ES6_PKS3_l)
	jirl	$ra, $ra, 0
.Ltmp88:
# %bb.58:                               # %_ZN9benchmark8internallsIA3_cEERNS0_7LogTypeES4_RKT_.exit296
	ld.d	$a0, $s6, 0
	beqz	$a0, .LBB2_70
# %bb.59:
.Ltmp89:
	pcalau12i	$a1, %pc_hi20(.L.str.67)
	addi.d	$a1, $a1, %pc_lo12(.L.str.67)
	ori	$a2, $zero, 18
	pcaddu18i	$ra, %call36(_ZSt16__ostream_insertIcSt11char_traitsIcEERSt13basic_ostreamIT_T0_ES6_PKS3_l)
	jirl	$ra, $ra, 0
.Ltmp90:
# %bb.60:                               # %_ZN9benchmark8internallsIA19_cEERNS0_7LogTypeES4_RKT_.exit
	ld.d	$a0, $s6, 0
	beqz	$a0, .LBB2_70
# %bb.61:
.Ltmp92:
	fmov.d	$fa0, $fs0
	pcaddu18i	$ra, %call36(_ZNSo9_M_insertIdEERSoT_)
	jirl	$ra, $ra, 0
.Ltmp93:
# %bb.62:                               # %_ZN9benchmark8internallsIdEERNS0_7LogTypeES3_RKT_.exit301
	ld.d	$a0, $s6, 0
	beqz	$a0, .LBB2_70
# %bb.63:
.Ltmp94:
	pcalau12i	$a1, %pc_hi20(.L.str.68)
	addi.d	$a1, $a1, %pc_lo12(.L.str.68)
	ori	$a2, $zero, 2
	pcaddu18i	$ra, %call36(_ZSt16__ostream_insertIcSt11char_traitsIcEERSt13basic_ostreamIT_T0_ES6_PKS3_l)
	jirl	$ra, $ra, 0
.Ltmp95:
# %bb.64:                               # %_ZN9benchmark8internallsIA3_cEERNS0_7LogTypeES4_RKT_.exit304
	ld.d	$a0, $s6, 0
	beqz	$a0, .LBB2_70
# %bb.65:
.Ltmp97:
	pcalau12i	$a1, %pc_hi20(.LCPI2_2)
	fld.d	$fa0, $a1, %pc_lo12(.LCPI2_2)
	pcaddu18i	$ra, %call36(_ZNSo9_M_insertIdEERSoT_)
	jirl	$ra, $ra, 0
.Ltmp98:
# %bb.66:                               # %_ZN9benchmark8internallsIdEERNS0_7LogTypeES3_RKT_.exit307
	ld.d	$a0, $s6, 0
	beqz	$a0, .LBB2_70
# %bb.67:
.Ltmp99:
	pcalau12i	$a1, %pc_hi20(.L.str.69)
	addi.d	$a1, $a1, %pc_lo12(.L.str.69)
	ori	$a2, $zero, 4
	pcaddu18i	$ra, %call36(_ZSt16__ostream_insertIcSt11char_traitsIcEERSt13basic_ostreamIT_T0_ES6_PKS3_l)
	jirl	$ra, $ra, 0
.Ltmp100:
# %bb.68:                               # %_ZN9benchmark8internallsIA5_cEERNS0_7LogTypeES4_RKT_.exit
	ld.d	$a0, $s6, 0
	beqz	$a0, .LBB2_70
# %bb.69:
.Ltmp101:
	pcalau12i	$a1, %pc_hi20(.L.str.70)
	addi.d	$a1, $a1, %pc_lo12(.L.str.70)
	ori	$a2, $zero, 14
	pcaddu18i	$ra, %call36(_ZSt16__ostream_insertIcSt11char_traitsIcEERSt13basic_ostreamIT_T0_ES6_PKS3_l)
	jirl	$ra, $ra, 0
.Ltmp102:
.LBB2_70:                               # %_ZN9benchmark8internallsIA15_cEERNS0_7LogTypeES4_RKT_.exit
	addi.d	$s2, $sp, 96
	st.d	$s2, $sp, 80
	ori	$a0, $zero, 21
	st.d	$a0, $sp, 48
.Ltmp104:
	addi.d	$a0, $sp, 80
	addi.d	$a1, $sp, 48
	move	$a2, $zero
	pcaddu18i	$ra, %call36(_ZNSt7__cxx1112basic_stringIcSt11char_traitsIcESaIcEE9_M_createERmm)
	jirl	$ra, $ra, 0
.Ltmp105:
# %bb.71:                               # %.noexc314
	ld.d	$a1, $sp, 48
	vld	$vr0, $s5, 0
	st.d	$a0, $sp, 80
	st.d	$a1, $sp, 96
	vst	$vr0, $a0, 0
	st.d	$s4, $a0, 13
	ld.d	$a0, $sp, 80
	st.d	$a1, $sp, 88
	stx.b	$zero, $a0, $a1
.Ltmp107:
	addi.d	$a1, $sp, 80
	move	$a0, $fp
	pcaddu18i	$ra, %call36(_ZNK7Results5GetAsIdEET_RKNSt7__cxx1112basic_stringIcSt11char_traitsIcESaIcEEE)
	jirl	$ra, $ra, 0
.Ltmp108:
# %bb.72:                               # %_ZNK7Results12GetCounterAsIdEET_RKNSt7__cxx1112basic_stringIcSt11char_traitsIcESaIcEEE.exit317
	ld.d	$a0, $s6, 0
	beqz	$a0, .LBB2_76
# %bb.73:
	fadd.d	$fa0, $fa0, $fs1
.Ltmp109:
	pcaddu18i	$ra, %call36(_ZNSo9_M_insertIdEERSoT_)
	jirl	$ra, $ra, 0
.Ltmp110:
# %bb.74:                               # %_ZN9benchmark8internallsIdEERNS0_7LogTypeES3_RKT_.exit320
	ld.d	$a0, $s6, 0
	beqz	$a0, .LBB2_76
# %bb.75:
.Ltmp111:
	pcalau12i	$a1, %pc_hi20(.L.str.68)
	addi.d	$a1, $a1, %pc_lo12(.L.str.68)
	ori	$a2, $zero, 2
	pcaddu18i	$ra, %call36(_ZSt16__ostream_insertIcSt11char_traitsIcEERSt13basic_ostreamIT_T0_ES6_PKS3_l)
	jirl	$ra, $ra, 0
.Ltmp112:
.LBB2_76:                               # %_ZN9benchmark8internallsIA3_cEERNS0_7LogTypeES4_RKT_.exit323
	addi.d	$s3, $sp, 64
	st.d	$s3, $sp, 48
	ori	$a0, $zero, 21
	st.d	$a0, $sp, 184
.Ltmp114:
	addi.d	$a0, $sp, 48
	addi.d	$a1, $sp, 184
	move	$a2, $zero
	pcaddu18i	$ra, %call36(_ZNSt7__cxx1112basic_stringIcSt11char_traitsIcESaIcEE9_M_createERmm)
	jirl	$ra, $ra, 0
.Ltmp115:
# %bb.77:                               # %.noexc326
	ld.d	$a1, $sp, 184
	vld	$vr0, $s5, 0
	st.d	$a0, $sp, 48
	st.d	$a1, $sp, 64
	vst	$vr0, $a0, 0
	st.d	$s4, $a0, 13
	ld.d	$a0, $sp, 48
	st.d	$a1, $sp, 56
	stx.b	$zero, $a0, $a1
.Ltmp117:
	addi.d	$a1, $sp, 48
	move	$a0, $fp
	pcaddu18i	$ra, %call36(_ZNK7Results5GetAsIdEET_RKNSt7__cxx1112basic_stringIcSt11char_traitsIcESaIcEEE)
	jirl	$ra, $ra, 0
.Ltmp118:
# %bb.78:                               # %_ZNK7Results12GetCounterAsIdEET_RKNSt7__cxx1112basic_stringIcSt11char_traitsIcESaIcEEE.exit329
	ld.d	$a0, $s6, 0
	pcalau12i	$s4, %pc_hi20(.LCPI2_3)
	beqz	$a0, .LBB2_82
# %bb.79:
	fld.d	$fa1, $s4, %pc_lo12(.LCPI2_3)
	fadd.d	$fa0, $fa0, $fs1
	fdiv.d	$fa0, $fa0, $fa1
	fmul.d	$fa0, $fa0, $fs0
.Ltmp119:
	pcaddu18i	$ra, %call36(_ZNSo9_M_insertIdEERSoT_)
	jirl	$ra, $ra, 0
.Ltmp120:
# %bb.80:                               # %_ZN9benchmark8internallsIdEERNS0_7LogTypeES3_RKT_.exit332
	ld.d	$a0, $s6, 0
	beqz	$a0, .LBB2_82
# %bb.81:
.Ltmp121:
	pcalau12i	$a1, %pc_hi20(.L.str.71)
	addi.d	$a1, $a1, %pc_lo12(.L.str.71)
	ori	$a2, $zero, 2
	pcaddu18i	$ra, %call36(_ZSt16__ostream_insertIcSt11char_traitsIcEERSt13basic_ostreamIT_T0_ES6_PKS3_l)
	jirl	$ra, $ra, 0
.Ltmp122:
.LBB2_82:                               # %_ZN9benchmark8internallsIA3_cEERNS0_7LogTypeES4_RKT_.exit335
	ld.d	$a0, $sp, 48
	beq	$a0, $s3, .LBB2_84
# %bb.83:                               # %_ZNKSt7__cxx1112basic_stringIcSt11char_traitsIcESaIcEE11_M_is_localEv.exit.i.i
	ld.d	$a1, $sp, 64
	addi.d	$a1, $a1, 1
	pcaddu18i	$ra, %call36(_ZdlPvm)
	jirl	$ra, $ra, 0
.LBB2_84:                               # %_ZNSt7__cxx1112basic_stringIcSt11char_traitsIcESaIcEED2Ev.exit
	ld.d	$a0, $sp, 80
	beq	$a0, $s2, .LBB2_86
# %bb.85:                               # %_ZNKSt7__cxx1112basic_stringIcSt11char_traitsIcESaIcEE11_M_is_localEv.exit.i.i336
	ld.d	$a1, $sp, 96
	addi.d	$a1, $a1, 1
	pcaddu18i	$ra, %call36(_ZdlPvm)
	jirl	$ra, $ra, 0
.LBB2_86:                               # %_ZNSt7__cxx1112basic_stringIcSt11char_traitsIcESaIcEED2Ev.exit338
	ld.d	$a0, $sp, 112
	beq	$a0, $s1, .LBB2_88
# %bb.87:                               # %_ZNKSt7__cxx1112basic_stringIcSt11char_traitsIcESaIcEE11_M_is_localEv.exit.i.i339
	ld.d	$a1, $sp, 128
	addi.d	$a1, $a1, 1
	pcaddu18i	$ra, %call36(_ZdlPvm)
	jirl	$ra, $ra, 0
.LBB2_88:                               # %_ZNSt7__cxx1112basic_stringIcSt11char_traitsIcESaIcEED2Ev.exit341
	fcmp.clt.d	$fcc0, $fs2, $fs0
	bceqz	$fcc0, .LBB2_448
# %bb.89:
	ld.d	$a0, $sp, 152
	beq	$a0, $s0, .LBB2_91
# %bb.90:                               # %_ZNKSt7__cxx1112basic_stringIcSt11char_traitsIcESaIcEE11_M_is_localEv.exit.i.i351
	ld.d	$a1, $sp, 168
	addi.d	$a1, $a1, 1
	pcaddu18i	$ra, %call36(_ZdlPvm)
	jirl	$ra, $ra, 0
.LBB2_91:                               # %_ZNSt7__cxx1112basic_stringIcSt11char_traitsIcESaIcEED2Ev.exit353
	st.d	$s0, $sp, 152
	ori	$a0, $zero, 18
	st.d	$a0, $sp, 112
.Ltmp124:
	addi.d	$a0, $sp, 152
	addi.d	$a1, $sp, 112
	move	$a2, $zero
	pcaddu18i	$ra, %call36(_ZNSt7__cxx1112basic_stringIcSt11char_traitsIcESaIcEE9_M_createERmm)
	jirl	$ra, $ra, 0
.Ltmp125:
# %bb.92:                               # %.noexc356
	ld.d	$a1, $sp, 112
	pcalau12i	$a2, %pc_hi20(.L.str.1)
	addi.d	$s6, $a2, %pc_lo12(.L.str.1)
	vld	$vr0, $s6, 0
	ld.h	$s5, $s6, 16
	st.d	$a0, $sp, 152
	st.d	$a1, $sp, 168
	vst	$vr0, $a0, 0
	st.h	$s5, $a0, 16
	ld.d	$a0, $sp, 152
	st.d	$a1, $sp, 160
	stx.b	$zero, $a0, $a1
.Ltmp127:
	addi.d	$a1, $sp, 152
	move	$a0, $fp
	pcaddu18i	$ra, %call36(_ZNK7Results5GetAsIdEET_RKNSt7__cxx1112basic_stringIcSt11char_traitsIcESaIcEEE)
	jirl	$ra, $ra, 0
.Ltmp128:
# %bb.93:                               # %_ZNK7Results12GetCounterAsIdEET_RKNSt7__cxx1112basic_stringIcSt11char_traitsIcESaIcEEE.exit359
	fadd.d	$fa0, $fa0, $fs1
	fabs.d	$fs2, $fa0
	fcmp.cule.d	$fcc0, $fs0, $fs2
	movcf2gr	$a0, $fcc0
	st.d	$a0, $sp, 8
	bceqz	$fcc0, .LBB2_96
# %bb.94:
.Ltmp130:
	pcalau12i	$a0, %pc_hi20(.L.str.72)
	addi.d	$a1, $a0, %pc_lo12(.L.str.72)
	pcalau12i	$a0, %pc_hi20(.L.str.57)
	addi.d	$a2, $a0, %pc_lo12(.L.str.57)
	pcalau12i	$a0, %pc_hi20(.L__func__._Z14CheckThousandsRK7Results)
	addi.d	$a3, $a0, %pc_lo12(.L__func__._Z14CheckThousandsRK7Results)
	addi.d	$a0, $sp, 40
	ori	$a4, $zero, 175
	pcaddu18i	$ra, %call36(_ZN9benchmark8internal12CheckHandlerC2EPKcS3_S3_i)
	jirl	$ra, $ra, 0
.Ltmp131:
# %bb.95:
	ld.d	$s7, $sp, 40
	b	.LBB2_97
.LBB2_96:
	pcalau12i	$a0, %pc_hi20(_ZGVZN9benchmark8internal18GetNullLogInstanceEvE8null_log)
	ld.b	$a0, $a0, %pc_lo12(_ZGVZN9benchmark8internal18GetNullLogInstanceEvE8null_log)
	dbar	20
	pcalau12i	$a1, %pc_hi20(_ZZN9benchmark8internal18GetNullLogInstanceEvE8null_log)
	addi.d	$s7, $a1, %pc_lo12(_ZZN9benchmark8internal18GetNullLogInstanceEvE8null_log)
	beqz	$a0, .LBB2_460
.LBB2_97:                               # %_ZN9benchmark8internal18GetNullLogInstanceEv.exit361
	ld.d	$a0, $s7, 0
	beqz	$a0, .LBB2_129
# %bb.98:
.Ltmp132:
	pcalau12i	$a1, %pc_hi20(.L.str.58)
	addi.d	$a1, $a1, %pc_lo12(.L.str.58)
	ori	$a2, $zero, 1
	pcaddu18i	$ra, %call36(_ZSt16__ostream_insertIcSt11char_traitsIcEERSt13basic_ostreamIT_T0_ES6_PKS3_l)
	jirl	$ra, $ra, 0
.Ltmp133:
# %bb.99:                               # %_ZN9benchmark8internallsIA2_cEERNS0_7LogTypeES4_RKT_.exit364
	ld.d	$a0, $s7, 0
	beqz	$a0, .LBB2_129
# %bb.100:
.Ltmp134:
	pcalau12i	$a1, %pc_hi20(.L.str.57)
	addi.d	$a1, $a1, %pc_lo12(.L.str.57)
	ori	$a2, $zero, 141
	pcaddu18i	$ra, %call36(_ZSt16__ostream_insertIcSt11char_traitsIcEERSt13basic_ostreamIT_T0_ES6_PKS3_l)
	jirl	$ra, $ra, 0
.Ltmp135:
# %bb.101:                              # %_ZN9benchmark8internallsIA142_cEERNS0_7LogTypeES4_RKT_.exit367
	ld.d	$a0, $s7, 0
	beqz	$a0, .LBB2_129
# %bb.102:
.Ltmp136:
	pcalau12i	$a1, %pc_hi20(.L.str.59)
	addi.d	$a1, $a1, %pc_lo12(.L.str.59)
	ori	$a2, $zero, 1
	pcaddu18i	$ra, %call36(_ZSt16__ostream_insertIcSt11char_traitsIcEERSt13basic_ostreamIT_T0_ES6_PKS3_l)
	jirl	$ra, $ra, 0
.Ltmp137:
# %bb.103:                              # %_ZN9benchmark8internallsIA2_cEERNS0_7LogTypeES4_RKT_.exit370
	ld.d	$a0, $s7, 0
	beqz	$a0, .LBB2_129
# %bb.104:
.Ltmp139:
	ori	$a1, $zero, 175
	pcaddu18i	$ra, %call36(_ZNSolsEi)
	jirl	$ra, $ra, 0
.Ltmp140:
# %bb.105:                              # %_ZN9benchmark8internallsIiEERNS0_7LogTypeES3_RKT_.exit373
	ld.d	$a0, $s7, 0
	beqz	$a0, .LBB2_129
# %bb.106:
.Ltmp141:
	pcalau12i	$a1, %pc_hi20(.L.str.60)
	addi.d	$a1, $a1, %pc_lo12(.L.str.60)
	ori	$a2, $zero, 2
	pcaddu18i	$ra, %call36(_ZSt16__ostream_insertIcSt11char_traitsIcEERSt13basic_ostreamIT_T0_ES6_PKS3_l)
	jirl	$ra, $ra, 0
.Ltmp142:
# %bb.107:                              # %_ZN9benchmark8internallsIA3_cEERNS0_7LogTypeES4_RKT_.exit376
	ld.d	$a0, $s7, 0
	beqz	$a0, .LBB2_129
# %bb.108:
	ld.d	$a1, $fp, 0
	ld.d	$a2, $fp, 8
.Ltmp143:
	pcaddu18i	$ra, %call36(_ZSt16__ostream_insertIcSt11char_traitsIcEERSt13basic_ostreamIT_T0_ES6_PKS3_l)
	jirl	$ra, $ra, 0
.Ltmp144:
# %bb.109:                              # %_ZN9benchmark8internallsINSt7__cxx1112basic_stringIcSt11char_traitsIcESaIcEEEEERNS0_7LogTypeES9_RKT_.exit379
	ld.d	$a0, $s7, 0
	beqz	$a0, .LBB2_129
# %bb.110:
.Ltmp145:
	pcalau12i	$a1, %pc_hi20(.L.str.61)
	addi.d	$a1, $a1, %pc_lo12(.L.str.61)
	ori	$a2, $zero, 2
	pcaddu18i	$ra, %call36(_ZSt16__ostream_insertIcSt11char_traitsIcEERSt13basic_ostreamIT_T0_ES6_PKS3_l)
	jirl	$ra, $ra, 0
.Ltmp146:
# %bb.111:                              # %_ZN9benchmark8internallsIA3_cEERNS0_7LogTypeES4_RKT_.exit382
	ld.d	$a0, $s7, 0
	beqz	$a0, .LBB2_129
# %bb.112:
.Ltmp147:
	pcalau12i	$a1, %pc_hi20(.L.str.57)
	addi.d	$a1, $a1, %pc_lo12(.L.str.57)
	ori	$a2, $zero, 141
	pcaddu18i	$ra, %call36(_ZSt16__ostream_insertIcSt11char_traitsIcEERSt13basic_ostreamIT_T0_ES6_PKS3_l)
	jirl	$ra, $ra, 0
.Ltmp148:
# %bb.113:                              # %_ZN9benchmark8internallsIA142_cEERNS0_7LogTypeES4_RKT_.exit385
	ld.d	$a0, $s7, 0
	beqz	$a0, .LBB2_129
# %bb.114:
.Ltmp149:
	pcalau12i	$a1, %pc_hi20(.L.str.59)
	addi.d	$a1, $a1, %pc_lo12(.L.str.59)
	ori	$a2, $zero, 1
	pcaddu18i	$ra, %call36(_ZSt16__ostream_insertIcSt11char_traitsIcEERSt13basic_ostreamIT_T0_ES6_PKS3_l)
	jirl	$ra, $ra, 0
.Ltmp150:
# %bb.115:                              # %_ZN9benchmark8internallsIA2_cEERNS0_7LogTypeES4_RKT_.exit388
	ld.d	$a0, $s7, 0
	beqz	$a0, .LBB2_129
# %bb.116:
.Ltmp152:
	ori	$a1, $zero, 175
	pcaddu18i	$ra, %call36(_ZNSolsEi)
	jirl	$ra, $ra, 0
.Ltmp153:
# %bb.117:                              # %_ZN9benchmark8internallsIiEERNS0_7LogTypeES3_RKT_.exit391
	ld.d	$a0, $s7, 0
	beqz	$a0, .LBB2_129
# %bb.118:
.Ltmp154:
	pcalau12i	$a1, %pc_hi20(.L.str.60)
	addi.d	$a1, $a1, %pc_lo12(.L.str.60)
	ori	$a2, $zero, 2
	pcaddu18i	$ra, %call36(_ZSt16__ostream_insertIcSt11char_traitsIcEERSt13basic_ostreamIT_T0_ES6_PKS3_l)
	jirl	$ra, $ra, 0
.Ltmp155:
# %bb.119:                              # %_ZN9benchmark8internallsIA3_cEERNS0_7LogTypeES4_RKT_.exit394
	ld.d	$a0, $s7, 0
	beqz	$a0, .LBB2_129
# %bb.120:
.Ltmp156:
	pcalau12i	$a1, %pc_hi20(.L.str.62)
	addi.d	$a1, $a1, %pc_lo12(.L.str.62)
	ori	$a2, $zero, 10
	pcaddu18i	$ra, %call36(_ZSt16__ostream_insertIcSt11char_traitsIcEERSt13basic_ostreamIT_T0_ES6_PKS3_l)
	jirl	$ra, $ra, 0
.Ltmp157:
# %bb.121:                              # %_ZN9benchmark8internallsIA11_cEERNS0_7LogTypeES4_RKT_.exit397
	ld.d	$a0, $s7, 0
	beqz	$a0, .LBB2_129
# %bb.122:
.Ltmp158:
	pcalau12i	$a1, %pc_hi20(.L.str.63)
	addi.d	$a1, $a1, %pc_lo12(.L.str.63)
	ori	$a2, $zero, 6
	pcaddu18i	$ra, %call36(_ZSt16__ostream_insertIcSt11char_traitsIcEERSt13basic_ostreamIT_T0_ES6_PKS3_l)
	jirl	$ra, $ra, 0
.Ltmp159:
# %bb.123:                              # %_ZN9benchmark8internallsIA7_cEERNS0_7LogTypeES4_RKT_.exit400
	ld.d	$a0, $s7, 0
	beqz	$a0, .LBB2_129
# %bb.124:
.Ltmp160:
	pcalau12i	$a1, %pc_hi20(.L.str.64)
	addi.d	$a1, $a1, %pc_lo12(.L.str.64)
	ori	$a2, $zero, 1
	pcaddu18i	$ra, %call36(_ZSt16__ostream_insertIcSt11char_traitsIcEERSt13basic_ostreamIT_T0_ES6_PKS3_l)
	jirl	$ra, $ra, 0
.Ltmp161:
# %bb.125:                              # %_ZN9benchmark8internallsIA2_cEERNS0_7LogTypeES4_RKT_.exit403
	ld.d	$a0, $s7, 0
	beqz	$a0, .LBB2_129
# %bb.126:
.Ltmp162:
	pcalau12i	$a1, %pc_hi20(.L.str.1)
	addi.d	$a1, $a1, %pc_lo12(.L.str.1)
	ori	$a2, $zero, 18
	pcaddu18i	$ra, %call36(_ZSt16__ostream_insertIcSt11char_traitsIcEERSt13basic_ostreamIT_T0_ES6_PKS3_l)
	jirl	$ra, $ra, 0
.Ltmp163:
# %bb.127:                              # %_ZN9benchmark8internallsIA19_cEERNS0_7LogTypeES4_RKT_.exit406
	ld.d	$a0, $s7, 0
	beqz	$a0, .LBB2_129
# %bb.128:
.Ltmp164:
	pcalau12i	$a1, %pc_hi20(.L.str.65)
	addi.d	$a1, $a1, %pc_lo12(.L.str.65)
	ori	$a2, $zero, 1
	pcaddu18i	$ra, %call36(_ZSt16__ostream_insertIcSt11char_traitsIcEERSt13basic_ostreamIT_T0_ES6_PKS3_l)
	jirl	$ra, $ra, 0
.Ltmp165:
.LBB2_129:                              # %_ZN9benchmark8internallsIA2_cEERNS0_7LogTypeES4_RKT_.exit409
	st.d	$s1, $sp, 112
	ori	$a0, $zero, 18
	st.d	$a0, $sp, 80
.Ltmp167:
	addi.d	$a0, $sp, 112
	addi.d	$a1, $sp, 80
	move	$a2, $zero
	pcaddu18i	$ra, %call36(_ZNSt7__cxx1112basic_stringIcSt11char_traitsIcESaIcEE9_M_createERmm)
	jirl	$ra, $ra, 0
.Ltmp168:
# %bb.130:                              # %.noexc412
	ld.d	$a1, $sp, 80
	vld	$vr0, $s6, 0
	st.d	$a0, $sp, 112
	st.d	$a1, $sp, 128
	vst	$vr0, $a0, 0
	st.h	$s5, $a0, 16
	ld.d	$a0, $sp, 112
	st.d	$a1, $sp, 120
	stx.b	$zero, $a0, $a1
.Ltmp170:
	addi.d	$a1, $sp, 112
	move	$a0, $fp
	pcaddu18i	$ra, %call36(_ZNK7Results5GetAsIdEET_RKNSt7__cxx1112basic_stringIcSt11char_traitsIcESaIcEEE)
	jirl	$ra, $ra, 0
.Ltmp171:
# %bb.131:                              # %_ZNK7Results12GetCounterAsIdEET_RKNSt7__cxx1112basic_stringIcSt11char_traitsIcESaIcEEE.exit415
	ld.d	$a0, $s7, 0
	beqz	$a0, .LBB2_159
# %bb.132:
.Ltmp172:
	pcaddu18i	$ra, %call36(_ZNSo9_M_insertIdEERSoT_)
	jirl	$ra, $ra, 0
.Ltmp173:
# %bb.133:                              # %_ZN9benchmark8internallsIdEERNS0_7LogTypeES3_RKT_.exit418
	ld.d	$a0, $s7, 0
	beqz	$a0, .LBB2_159
# %bb.134:
.Ltmp174:
	pcalau12i	$a1, %pc_hi20(.L.str.66)
	addi.d	$a1, $a1, %pc_lo12(.L.str.66)
	ori	$a2, $zero, 13
	pcaddu18i	$ra, %call36(_ZSt16__ostream_insertIcSt11char_traitsIcEERSt13basic_ostreamIT_T0_ES6_PKS3_l)
	jirl	$ra, $ra, 0
.Ltmp175:
# %bb.135:                              # %_ZN9benchmark8internallsIA14_cEERNS0_7LogTypeES4_RKT_.exit421
	ld.d	$a0, $s7, 0
	beqz	$a0, .LBB2_159
# %bb.136:
.Ltmp177:
	lu12i.w	$a1, 244
	ori	$a1, $a1, 576
	pcaddu18i	$ra, %call36(_ZNSolsEi)
	jirl	$ra, $ra, 0
.Ltmp178:
# %bb.137:                              # %_ZN9benchmark8internallsIiEERNS0_7LogTypeES3_RKT_.exit424
	ld.d	$a0, $s7, 0
	beqz	$a0, .LBB2_159
# %bb.138:
.Ltmp179:
	pcalau12i	$a1, %pc_hi20(.L.str.58)
	addi.d	$a1, $a1, %pc_lo12(.L.str.58)
	ori	$a2, $zero, 1
	pcaddu18i	$ra, %call36(_ZSt16__ostream_insertIcSt11char_traitsIcEERSt13basic_ostreamIT_T0_ES6_PKS3_l)
	jirl	$ra, $ra, 0
.Ltmp180:
# %bb.139:                              # %_ZN9benchmark8internallsIA2_cEERNS0_7LogTypeES4_RKT_.exit427
	ld.d	$a0, $s7, 0
	beqz	$a0, .LBB2_159
# %bb.140:
.Ltmp181:
	pcalau12i	$a1, %pc_hi20(.L.str.57)
	addi.d	$a1, $a1, %pc_lo12(.L.str.57)
	ori	$a2, $zero, 141
	pcaddu18i	$ra, %call36(_ZSt16__ostream_insertIcSt11char_traitsIcEERSt13basic_ostreamIT_T0_ES6_PKS3_l)
	jirl	$ra, $ra, 0
.Ltmp182:
# %bb.141:                              # %_ZN9benchmark8internallsIA142_cEERNS0_7LogTypeES4_RKT_.exit430
	ld.d	$a0, $s7, 0
	beqz	$a0, .LBB2_159
# %bb.142:
.Ltmp183:
	pcalau12i	$a1, %pc_hi20(.L.str.59)
	addi.d	$a1, $a1, %pc_lo12(.L.str.59)
	ori	$a2, $zero, 1
	pcaddu18i	$ra, %call36(_ZSt16__ostream_insertIcSt11char_traitsIcEERSt13basic_ostreamIT_T0_ES6_PKS3_l)
	jirl	$ra, $ra, 0
.Ltmp184:
# %bb.143:                              # %_ZN9benchmark8internallsIA2_cEERNS0_7LogTypeES4_RKT_.exit433
	ld.d	$a0, $s7, 0
	beqz	$a0, .LBB2_159
# %bb.144:
.Ltmp186:
	ori	$a1, $zero, 175
	pcaddu18i	$ra, %call36(_ZNSolsEi)
	jirl	$ra, $ra, 0
.Ltmp187:
# %bb.145:                              # %_ZN9benchmark8internallsIiEERNS0_7LogTypeES3_RKT_.exit436
	ld.d	$a0, $s7, 0
	beqz	$a0, .LBB2_159
# %bb.146:
.Ltmp188:
	pcalau12i	$a1, %pc_hi20(.L.str.60)
	addi.d	$a1, $a1, %pc_lo12(.L.str.60)
	ori	$a2, $zero, 2
	pcaddu18i	$ra, %call36(_ZSt16__ostream_insertIcSt11char_traitsIcEERSt13basic_ostreamIT_T0_ES6_PKS3_l)
	jirl	$ra, $ra, 0
.Ltmp189:
# %bb.147:                              # %_ZN9benchmark8internallsIA3_cEERNS0_7LogTypeES4_RKT_.exit439
	ld.d	$a0, $s7, 0
	beqz	$a0, .LBB2_159
# %bb.148:
.Ltmp190:
	pcalau12i	$a1, %pc_hi20(.L.str.67)
	addi.d	$a1, $a1, %pc_lo12(.L.str.67)
	ori	$a2, $zero, 18
	pcaddu18i	$ra, %call36(_ZSt16__ostream_insertIcSt11char_traitsIcEERSt13basic_ostreamIT_T0_ES6_PKS3_l)
	jirl	$ra, $ra, 0
.Ltmp191:
# %bb.149:                              # %_ZN9benchmark8internallsIA19_cEERNS0_7LogTypeES4_RKT_.exit442
	ld.d	$a0, $s7, 0
	beqz	$a0, .LBB2_159
# %bb.150:
.Ltmp193:
	fmov.d	$fa0, $fs0
	pcaddu18i	$ra, %call36(_ZNSo9_M_insertIdEERSoT_)
	jirl	$ra, $ra, 0
.Ltmp194:
# %bb.151:                              # %_ZN9benchmark8internallsIdEERNS0_7LogTypeES3_RKT_.exit445
	ld.d	$a0, $s7, 0
	beqz	$a0, .LBB2_159
# %bb.152:
.Ltmp195:
	pcalau12i	$a1, %pc_hi20(.L.str.68)
	addi.d	$a1, $a1, %pc_lo12(.L.str.68)
	ori	$a2, $zero, 2
	pcaddu18i	$ra, %call36(_ZSt16__ostream_insertIcSt11char_traitsIcEERSt13basic_ostreamIT_T0_ES6_PKS3_l)
	jirl	$ra, $ra, 0
.Ltmp196:
# %bb.153:                              # %_ZN9benchmark8internallsIA3_cEERNS0_7LogTypeES4_RKT_.exit448
	ld.d	$a0, $s7, 0
	beqz	$a0, .LBB2_159
# %bb.154:
.Ltmp198:
	pcalau12i	$a1, %pc_hi20(.LCPI2_2)
	fld.d	$fa0, $a1, %pc_lo12(.LCPI2_2)
	pcaddu18i	$ra, %call36(_ZNSo9_M_insertIdEERSoT_)
	jirl	$ra, $ra, 0
.Ltmp199:
# %bb.155:                              # %_ZN9benchmark8internallsIdEERNS0_7LogTypeES3_RKT_.exit451
	ld.d	$a0, $s7, 0
	beqz	$a0, .LBB2_159
# %bb.156:
.Ltmp200:
	pcalau12i	$a1, %pc_hi20(.L.str.69)
	addi.d	$a1, $a1, %pc_lo12(.L.str.69)
	ori	$a2, $zero, 4
	pcaddu18i	$ra, %call36(_ZSt16__ostream_insertIcSt11char_traitsIcEERSt13basic_ostreamIT_T0_ES6_PKS3_l)
	jirl	$ra, $ra, 0
.Ltmp201:
# %bb.157:                              # %_ZN9benchmark8internallsIA5_cEERNS0_7LogTypeES4_RKT_.exit454
	ld.d	$a0, $s7, 0
	beqz	$a0, .LBB2_159
# %bb.158:
.Ltmp202:
	pcalau12i	$a1, %pc_hi20(.L.str.70)
	addi.d	$a1, $a1, %pc_lo12(.L.str.70)
	ori	$a2, $zero, 14
	pcaddu18i	$ra, %call36(_ZSt16__ostream_insertIcSt11char_traitsIcEERSt13basic_ostreamIT_T0_ES6_PKS3_l)
	jirl	$ra, $ra, 0
.Ltmp203:
.LBB2_159:                              # %_ZN9benchmark8internallsIA15_cEERNS0_7LogTypeES4_RKT_.exit457
	st.d	$s2, $sp, 80
	ori	$a0, $zero, 18
	st.d	$a0, $sp, 48
.Ltmp205:
	addi.d	$a0, $sp, 80
	addi.d	$a1, $sp, 48
	move	$a2, $zero
	pcaddu18i	$ra, %call36(_ZNSt7__cxx1112basic_stringIcSt11char_traitsIcESaIcEE9_M_createERmm)
	jirl	$ra, $ra, 0
.Ltmp206:
# %bb.160:                              # %.noexc460
	ld.d	$a1, $sp, 48
	vld	$vr0, $s6, 0
	st.d	$a0, $sp, 80
	st.d	$a1, $sp, 96
	vst	$vr0, $a0, 0
	st.h	$s5, $a0, 16
	ld.d	$a0, $sp, 80
	st.d	$a1, $sp, 88
	stx.b	$zero, $a0, $a1
.Ltmp208:
	addi.d	$a1, $sp, 80
	move	$a0, $fp
	pcaddu18i	$ra, %call36(_ZNK7Results5GetAsIdEET_RKNSt7__cxx1112basic_stringIcSt11char_traitsIcESaIcEEE)
	jirl	$ra, $ra, 0
.Ltmp209:
# %bb.161:                              # %_ZNK7Results12GetCounterAsIdEET_RKNSt7__cxx1112basic_stringIcSt11char_traitsIcESaIcEEE.exit463
	ld.d	$a0, $s7, 0
	beqz	$a0, .LBB2_165
# %bb.162:
	fadd.d	$fa0, $fa0, $fs1
.Ltmp210:
	pcaddu18i	$ra, %call36(_ZNSo9_M_insertIdEERSoT_)
	jirl	$ra, $ra, 0
.Ltmp211:
# %bb.163:                              # %_ZN9benchmark8internallsIdEERNS0_7LogTypeES3_RKT_.exit466
	ld.d	$a0, $s7, 0
	beqz	$a0, .LBB2_165
# %bb.164:
.Ltmp212:
	pcalau12i	$a1, %pc_hi20(.L.str.68)
	addi.d	$a1, $a1, %pc_lo12(.L.str.68)
	ori	$a2, $zero, 2
	pcaddu18i	$ra, %call36(_ZSt16__ostream_insertIcSt11char_traitsIcEERSt13basic_ostreamIT_T0_ES6_PKS3_l)
	jirl	$ra, $ra, 0
.Ltmp213:
.LBB2_165:                              # %_ZN9benchmark8internallsIA3_cEERNS0_7LogTypeES4_RKT_.exit469
	st.d	$s3, $sp, 48
	ori	$a0, $zero, 18
	st.d	$a0, $sp, 184
.Ltmp215:
	addi.d	$a0, $sp, 48
	addi.d	$a1, $sp, 184
	move	$a2, $zero
	pcaddu18i	$ra, %call36(_ZNSt7__cxx1112basic_stringIcSt11char_traitsIcESaIcEE9_M_createERmm)
	jirl	$ra, $ra, 0
.Ltmp216:
# %bb.166:                              # %.noexc472
	ld.d	$a1, $sp, 184
	vld	$vr0, $s6, 0
	st.d	$a0, $sp, 48
	st.d	$a1, $sp, 64
	vst	$vr0, $a0, 0
	st.h	$s5, $a0, 16
	ld.d	$a0, $sp, 48
	st.d	$a1, $sp, 56
	stx.b	$zero, $a0, $a1
.Ltmp218:
	addi.d	$a1, $sp, 48
	move	$a0, $fp
	pcaddu18i	$ra, %call36(_ZNK7Results5GetAsIdEET_RKNSt7__cxx1112basic_stringIcSt11char_traitsIcESaIcEEE)
	jirl	$ra, $ra, 0
.Ltmp219:
# %bb.167:                              # %_ZNK7Results12GetCounterAsIdEET_RKNSt7__cxx1112basic_stringIcSt11char_traitsIcESaIcEEE.exit475
	ld.d	$a0, $s7, 0
	beqz	$a0, .LBB2_171
# %bb.168:
	fld.d	$fa1, $s4, %pc_lo12(.LCPI2_3)
	fadd.d	$fa0, $fa0, $fs1
	fdiv.d	$fa0, $fa0, $fa1
	fmul.d	$fa0, $fa0, $fs0
.Ltmp220:
	pcaddu18i	$ra, %call36(_ZNSo9_M_insertIdEERSoT_)
	jirl	$ra, $ra, 0
.Ltmp221:
# %bb.169:                              # %_ZN9benchmark8internallsIdEERNS0_7LogTypeES3_RKT_.exit478
	ld.d	$a0, $s7, 0
	beqz	$a0, .LBB2_171
# %bb.170:
.Ltmp222:
	pcalau12i	$a1, %pc_hi20(.L.str.71)
	addi.d	$a1, $a1, %pc_lo12(.L.str.71)
	ori	$a2, $zero, 2
	pcaddu18i	$ra, %call36(_ZSt16__ostream_insertIcSt11char_traitsIcEERSt13basic_ostreamIT_T0_ES6_PKS3_l)
	jirl	$ra, $ra, 0
.Ltmp223:
.LBB2_171:                              # %_ZN9benchmark8internallsIA3_cEERNS0_7LogTypeES4_RKT_.exit481
	ld.d	$a0, $sp, 48
	beq	$a0, $s3, .LBB2_173
# %bb.172:                              # %_ZNKSt7__cxx1112basic_stringIcSt11char_traitsIcESaIcEE11_M_is_localEv.exit.i.i482
	ld.d	$a1, $sp, 64
	addi.d	$a1, $a1, 1
	pcaddu18i	$ra, %call36(_ZdlPvm)
	jirl	$ra, $ra, 0
.LBB2_173:                              # %_ZNSt7__cxx1112basic_stringIcSt11char_traitsIcESaIcEED2Ev.exit484
	ld.d	$a0, $sp, 80
	beq	$a0, $s2, .LBB2_175
# %bb.174:                              # %_ZNKSt7__cxx1112basic_stringIcSt11char_traitsIcESaIcEE11_M_is_localEv.exit.i.i485
	ld.d	$a1, $sp, 96
	addi.d	$a1, $a1, 1
	pcaddu18i	$ra, %call36(_ZdlPvm)
	jirl	$ra, $ra, 0
.LBB2_175:                              # %_ZNSt7__cxx1112basic_stringIcSt11char_traitsIcESaIcEED2Ev.exit487
	ld.d	$a0, $sp, 112
	beq	$a0, $s1, .LBB2_177
# %bb.176:                              # %_ZNKSt7__cxx1112basic_stringIcSt11char_traitsIcESaIcEE11_M_is_localEv.exit.i.i488
	ld.d	$a1, $sp, 128
	addi.d	$a1, $a1, 1
	pcaddu18i	$ra, %call36(_ZdlPvm)
	jirl	$ra, $ra, 0
.LBB2_177:                              # %_ZNSt7__cxx1112basic_stringIcSt11char_traitsIcESaIcEED2Ev.exit490
	fcmp.clt.d	$fcc0, $fs2, $fs0
	bceqz	$fcc0, .LBB2_450
# %bb.178:
	ld.d	$a0, $sp, 152
	beq	$a0, $s0, .LBB2_180
# %bb.179:                              # %_ZNKSt7__cxx1112basic_stringIcSt11char_traitsIcESaIcEE11_M_is_localEv.exit.i.i503
	ld.d	$a1, $sp, 168
	addi.d	$a1, $a1, 1
	pcaddu18i	$ra, %call36(_ZdlPvm)
	jirl	$ra, $ra, 0
.LBB2_180:                              # %_ZNSt7__cxx1112basic_stringIcSt11char_traitsIcESaIcEED2Ev.exit505
	st.d	$s0, $sp, 152
	ori	$a0, $zero, 18
	st.d	$a0, $sp, 112
.Ltmp225:
	addi.d	$a0, $sp, 152
	addi.d	$a1, $sp, 112
	move	$a2, $zero
	pcaddu18i	$ra, %call36(_ZNSt7__cxx1112basic_stringIcSt11char_traitsIcESaIcEE9_M_createERmm)
	jirl	$ra, $ra, 0
.Ltmp226:
# %bb.181:                              # %.noexc508
	ld.d	$a1, $sp, 112
	pcalau12i	$a2, %pc_hi20(.L.str.2)
	addi.d	$s6, $a2, %pc_lo12(.L.str.2)
	vld	$vr0, $s6, 0
	ld.h	$s5, $s6, 16
	st.d	$a0, $sp, 152
	st.d	$a1, $sp, 168
	vst	$vr0, $a0, 0
	st.h	$s5, $a0, 16
	ld.d	$a0, $sp, 152
	st.d	$a1, $sp, 160
	stx.b	$zero, $a0, $a1
.Ltmp228:
	addi.d	$a1, $sp, 152
	move	$a0, $fp
	pcaddu18i	$ra, %call36(_ZNK7Results5GetAsIdEET_RKNSt7__cxx1112basic_stringIcSt11char_traitsIcESaIcEEE)
	jirl	$ra, $ra, 0
.Ltmp229:
# %bb.182:                              # %_ZNK7Results12GetCounterAsIdEET_RKNSt7__cxx1112basic_stringIcSt11char_traitsIcESaIcEEE.exit511
	fadd.d	$fa0, $fa0, $fs1
	fabs.d	$fs2, $fa0
	fcmp.cule.d	$fcc0, $fs0, $fs2
	movcf2gr	$a0, $fcc0
	st.d	$a0, $sp, 8
	bceqz	$fcc0, .LBB2_185
# %bb.183:
.Ltmp231:
	pcalau12i	$a0, %pc_hi20(.L.str.73)
	addi.d	$a1, $a0, %pc_lo12(.L.str.73)
	pcalau12i	$a0, %pc_hi20(.L.str.57)
	addi.d	$a2, $a0, %pc_lo12(.L.str.57)
	pcalau12i	$a0, %pc_hi20(.L__func__._Z14CheckThousandsRK7Results)
	addi.d	$a3, $a0, %pc_lo12(.L__func__._Z14CheckThousandsRK7Results)
	addi.d	$a0, $sp, 32
	ori	$a4, $zero, 176
	pcaddu18i	$ra, %call36(_ZN9benchmark8internal12CheckHandlerC2EPKcS3_S3_i)
	jirl	$ra, $ra, 0
.Ltmp232:
# %bb.184:
	ld.d	$s7, $sp, 32
	b	.LBB2_186
.LBB2_185:
	pcalau12i	$a0, %pc_hi20(_ZGVZN9benchmark8internal18GetNullLogInstanceEvE8null_log)
	ld.b	$a0, $a0, %pc_lo12(_ZGVZN9benchmark8internal18GetNullLogInstanceEvE8null_log)
	dbar	20
	pcalau12i	$a1, %pc_hi20(_ZZN9benchmark8internal18GetNullLogInstanceEvE8null_log)
	addi.d	$s7, $a1, %pc_lo12(_ZZN9benchmark8internal18GetNullLogInstanceEvE8null_log)
	beqz	$a0, .LBB2_462
.LBB2_186:                              # %_ZN9benchmark8internal18GetNullLogInstanceEv.exit513
	ld.d	$a0, $s7, 0
	beqz	$a0, .LBB2_218
# %bb.187:
.Ltmp233:
	pcalau12i	$a1, %pc_hi20(.L.str.58)
	addi.d	$a1, $a1, %pc_lo12(.L.str.58)
	ori	$a2, $zero, 1
	pcaddu18i	$ra, %call36(_ZSt16__ostream_insertIcSt11char_traitsIcEERSt13basic_ostreamIT_T0_ES6_PKS3_l)
	jirl	$ra, $ra, 0
.Ltmp234:
# %bb.188:                              # %_ZN9benchmark8internallsIA2_cEERNS0_7LogTypeES4_RKT_.exit516
	ld.d	$a0, $s7, 0
	beqz	$a0, .LBB2_218
# %bb.189:
.Ltmp235:
	pcalau12i	$a1, %pc_hi20(.L.str.57)
	addi.d	$a1, $a1, %pc_lo12(.L.str.57)
	ori	$a2, $zero, 141
	pcaddu18i	$ra, %call36(_ZSt16__ostream_insertIcSt11char_traitsIcEERSt13basic_ostreamIT_T0_ES6_PKS3_l)
	jirl	$ra, $ra, 0
.Ltmp236:
# %bb.190:                              # %_ZN9benchmark8internallsIA142_cEERNS0_7LogTypeES4_RKT_.exit519
	ld.d	$a0, $s7, 0
	beqz	$a0, .LBB2_218
# %bb.191:
.Ltmp237:
	pcalau12i	$a1, %pc_hi20(.L.str.59)
	addi.d	$a1, $a1, %pc_lo12(.L.str.59)
	ori	$a2, $zero, 1
	pcaddu18i	$ra, %call36(_ZSt16__ostream_insertIcSt11char_traitsIcEERSt13basic_ostreamIT_T0_ES6_PKS3_l)
	jirl	$ra, $ra, 0
.Ltmp238:
# %bb.192:                              # %_ZN9benchmark8internallsIA2_cEERNS0_7LogTypeES4_RKT_.exit522
	ld.d	$a0, $s7, 0
	beqz	$a0, .LBB2_218
# %bb.193:
.Ltmp240:
	ori	$a1, $zero, 176
	pcaddu18i	$ra, %call36(_ZNSolsEi)
	jirl	$ra, $ra, 0
.Ltmp241:
# %bb.194:                              # %_ZN9benchmark8internallsIiEERNS0_7LogTypeES3_RKT_.exit525
	ld.d	$a0, $s7, 0
	beqz	$a0, .LBB2_218
# %bb.195:
.Ltmp242:
	pcalau12i	$a1, %pc_hi20(.L.str.60)
	addi.d	$a1, $a1, %pc_lo12(.L.str.60)
	ori	$a2, $zero, 2
	pcaddu18i	$ra, %call36(_ZSt16__ostream_insertIcSt11char_traitsIcEERSt13basic_ostreamIT_T0_ES6_PKS3_l)
	jirl	$ra, $ra, 0
.Ltmp243:
# %bb.196:                              # %_ZN9benchmark8internallsIA3_cEERNS0_7LogTypeES4_RKT_.exit528
	ld.d	$a0, $s7, 0
	beqz	$a0, .LBB2_218
# %bb.197:
	ld.d	$a1, $fp, 0
	ld.d	$a2, $fp, 8
.Ltmp244:
	pcaddu18i	$ra, %call36(_ZSt16__ostream_insertIcSt11char_traitsIcEERSt13basic_ostreamIT_T0_ES6_PKS3_l)
	jirl	$ra, $ra, 0
.Ltmp245:
# %bb.198:                              # %_ZN9benchmark8internallsINSt7__cxx1112basic_stringIcSt11char_traitsIcESaIcEEEEERNS0_7LogTypeES9_RKT_.exit531
	ld.d	$a0, $s7, 0
	beqz	$a0, .LBB2_218
# %bb.199:
.Ltmp246:
	pcalau12i	$a1, %pc_hi20(.L.str.61)
	addi.d	$a1, $a1, %pc_lo12(.L.str.61)
	ori	$a2, $zero, 2
	pcaddu18i	$ra, %call36(_ZSt16__ostream_insertIcSt11char_traitsIcEERSt13basic_ostreamIT_T0_ES6_PKS3_l)
	jirl	$ra, $ra, 0
.Ltmp247:
# %bb.200:                              # %_ZN9benchmark8internallsIA3_cEERNS0_7LogTypeES4_RKT_.exit534
	ld.d	$a0, $s7, 0
	beqz	$a0, .LBB2_218
# %bb.201:
.Ltmp248:
	pcalau12i	$a1, %pc_hi20(.L.str.57)
	addi.d	$a1, $a1, %pc_lo12(.L.str.57)
	ori	$a2, $zero, 141
	pcaddu18i	$ra, %call36(_ZSt16__ostream_insertIcSt11char_traitsIcEERSt13basic_ostreamIT_T0_ES6_PKS3_l)
	jirl	$ra, $ra, 0
.Ltmp249:
# %bb.202:                              # %_ZN9benchmark8internallsIA142_cEERNS0_7LogTypeES4_RKT_.exit537
	ld.d	$a0, $s7, 0
	beqz	$a0, .LBB2_218
# %bb.203:
.Ltmp250:
	pcalau12i	$a1, %pc_hi20(.L.str.59)
	addi.d	$a1, $a1, %pc_lo12(.L.str.59)
	ori	$a2, $zero, 1
	pcaddu18i	$ra, %call36(_ZSt16__ostream_insertIcSt11char_traitsIcEERSt13basic_ostreamIT_T0_ES6_PKS3_l)
	jirl	$ra, $ra, 0
.Ltmp251:
# %bb.204:                              # %_ZN9benchmark8internallsIA2_cEERNS0_7LogTypeES4_RKT_.exit540
	ld.d	$a0, $s7, 0
	beqz	$a0, .LBB2_218
# %bb.205:
.Ltmp253:
	ori	$a1, $zero, 176
	pcaddu18i	$ra, %call36(_ZNSolsEi)
	jirl	$ra, $ra, 0
.Ltmp254:
# %bb.206:                              # %_ZN9benchmark8internallsIiEERNS0_7LogTypeES3_RKT_.exit543
	ld.d	$a0, $s7, 0
	beqz	$a0, .LBB2_218
# %bb.207:
.Ltmp255:
	pcalau12i	$a1, %pc_hi20(.L.str.60)
	addi.d	$a1, $a1, %pc_lo12(.L.str.60)
	ori	$a2, $zero, 2
	pcaddu18i	$ra, %call36(_ZSt16__ostream_insertIcSt11char_traitsIcEERSt13basic_ostreamIT_T0_ES6_PKS3_l)
	jirl	$ra, $ra, 0
.Ltmp256:
# %bb.208:                              # %_ZN9benchmark8internallsIA3_cEERNS0_7LogTypeES4_RKT_.exit546
	ld.d	$a0, $s7, 0
	beqz	$a0, .LBB2_218
# %bb.209:
.Ltmp257:
	pcalau12i	$a1, %pc_hi20(.L.str.62)
	addi.d	$a1, $a1, %pc_lo12(.L.str.62)
	ori	$a2, $zero, 10
	pcaddu18i	$ra, %call36(_ZSt16__ostream_insertIcSt11char_traitsIcEERSt13basic_ostreamIT_T0_ES6_PKS3_l)
	jirl	$ra, $ra, 0
.Ltmp258:
# %bb.210:                              # %_ZN9benchmark8internallsIA11_cEERNS0_7LogTypeES4_RKT_.exit549
	ld.d	$a0, $s7, 0
	beqz	$a0, .LBB2_218
# %bb.211:
.Ltmp259:
	pcalau12i	$a1, %pc_hi20(.L.str.63)
	addi.d	$a1, $a1, %pc_lo12(.L.str.63)
	ori	$a2, $zero, 6
	pcaddu18i	$ra, %call36(_ZSt16__ostream_insertIcSt11char_traitsIcEERSt13basic_ostreamIT_T0_ES6_PKS3_l)
	jirl	$ra, $ra, 0
.Ltmp260:
# %bb.212:                              # %_ZN9benchmark8internallsIA7_cEERNS0_7LogTypeES4_RKT_.exit552
	ld.d	$a0, $s7, 0
	beqz	$a0, .LBB2_218
# %bb.213:
.Ltmp261:
	pcalau12i	$a1, %pc_hi20(.L.str.64)
	addi.d	$a1, $a1, %pc_lo12(.L.str.64)
	ori	$a2, $zero, 1
	pcaddu18i	$ra, %call36(_ZSt16__ostream_insertIcSt11char_traitsIcEERSt13basic_ostreamIT_T0_ES6_PKS3_l)
	jirl	$ra, $ra, 0
.Ltmp262:
# %bb.214:                              # %_ZN9benchmark8internallsIA2_cEERNS0_7LogTypeES4_RKT_.exit555
	ld.d	$a0, $s7, 0
	beqz	$a0, .LBB2_218
# %bb.215:
.Ltmp263:
	pcalau12i	$a1, %pc_hi20(.L.str.2)
	addi.d	$a1, $a1, %pc_lo12(.L.str.2)
	ori	$a2, $zero, 18
	pcaddu18i	$ra, %call36(_ZSt16__ostream_insertIcSt11char_traitsIcEERSt13basic_ostreamIT_T0_ES6_PKS3_l)
	jirl	$ra, $ra, 0
.Ltmp264:
# %bb.216:                              # %_ZN9benchmark8internallsIA19_cEERNS0_7LogTypeES4_RKT_.exit558
	ld.d	$a0, $s7, 0
	beqz	$a0, .LBB2_218
# %bb.217:
.Ltmp265:
	pcalau12i	$a1, %pc_hi20(.L.str.65)
	addi.d	$a1, $a1, %pc_lo12(.L.str.65)
	ori	$a2, $zero, 1
	pcaddu18i	$ra, %call36(_ZSt16__ostream_insertIcSt11char_traitsIcEERSt13basic_ostreamIT_T0_ES6_PKS3_l)
	jirl	$ra, $ra, 0
.Ltmp266:
.LBB2_218:                              # %_ZN9benchmark8internallsIA2_cEERNS0_7LogTypeES4_RKT_.exit561
	st.d	$s1, $sp, 112
	ori	$a0, $zero, 18
	st.d	$a0, $sp, 80
.Ltmp268:
	addi.d	$a0, $sp, 112
	addi.d	$a1, $sp, 80
	move	$a2, $zero
	pcaddu18i	$ra, %call36(_ZNSt7__cxx1112basic_stringIcSt11char_traitsIcESaIcEE9_M_createERmm)
	jirl	$ra, $ra, 0
.Ltmp269:
# %bb.219:                              # %.noexc564
	ld.d	$a1, $sp, 80
	vld	$vr0, $s6, 0
	st.d	$a0, $sp, 112
	st.d	$a1, $sp, 128
	vst	$vr0, $a0, 0
	st.h	$s5, $a0, 16
	ld.d	$a0, $sp, 112
	st.d	$a1, $sp, 120
	stx.b	$zero, $a0, $a1
.Ltmp271:
	addi.d	$a1, $sp, 112
	move	$a0, $fp
	pcaddu18i	$ra, %call36(_ZNK7Results5GetAsIdEET_RKNSt7__cxx1112basic_stringIcSt11char_traitsIcESaIcEEE)
	jirl	$ra, $ra, 0
.Ltmp272:
# %bb.220:                              # %_ZNK7Results12GetCounterAsIdEET_RKNSt7__cxx1112basic_stringIcSt11char_traitsIcESaIcEEE.exit567
	ld.d	$a0, $s7, 0
	beqz	$a0, .LBB2_248
# %bb.221:
.Ltmp273:
	pcaddu18i	$ra, %call36(_ZNSo9_M_insertIdEERSoT_)
	jirl	$ra, $ra, 0
.Ltmp274:
# %bb.222:                              # %_ZN9benchmark8internallsIdEERNS0_7LogTypeES3_RKT_.exit570
	ld.d	$a0, $s7, 0
	beqz	$a0, .LBB2_248
# %bb.223:
.Ltmp275:
	pcalau12i	$a1, %pc_hi20(.L.str.66)
	addi.d	$a1, $a1, %pc_lo12(.L.str.66)
	ori	$a2, $zero, 13
	pcaddu18i	$ra, %call36(_ZSt16__ostream_insertIcSt11char_traitsIcEERSt13basic_ostreamIT_T0_ES6_PKS3_l)
	jirl	$ra, $ra, 0
.Ltmp276:
# %bb.224:                              # %_ZN9benchmark8internallsIA14_cEERNS0_7LogTypeES4_RKT_.exit573
	ld.d	$a0, $s7, 0
	beqz	$a0, .LBB2_248
# %bb.225:
.Ltmp278:
	lu12i.w	$a1, 244
	ori	$a1, $a1, 576
	pcaddu18i	$ra, %call36(_ZNSolsEi)
	jirl	$ra, $ra, 0
.Ltmp279:
# %bb.226:                              # %_ZN9benchmark8internallsIiEERNS0_7LogTypeES3_RKT_.exit576
	ld.d	$a0, $s7, 0
	beqz	$a0, .LBB2_248
# %bb.227:
.Ltmp280:
	pcalau12i	$a1, %pc_hi20(.L.str.58)
	addi.d	$a1, $a1, %pc_lo12(.L.str.58)
	ori	$a2, $zero, 1
	pcaddu18i	$ra, %call36(_ZSt16__ostream_insertIcSt11char_traitsIcEERSt13basic_ostreamIT_T0_ES6_PKS3_l)
	jirl	$ra, $ra, 0
.Ltmp281:
# %bb.228:                              # %_ZN9benchmark8internallsIA2_cEERNS0_7LogTypeES4_RKT_.exit579
	ld.d	$a0, $s7, 0
	beqz	$a0, .LBB2_248
# %bb.229:
.Ltmp282:
	pcalau12i	$a1, %pc_hi20(.L.str.57)
	addi.d	$a1, $a1, %pc_lo12(.L.str.57)
	ori	$a2, $zero, 141
	pcaddu18i	$ra, %call36(_ZSt16__ostream_insertIcSt11char_traitsIcEERSt13basic_ostreamIT_T0_ES6_PKS3_l)
	jirl	$ra, $ra, 0
.Ltmp283:
# %bb.230:                              # %_ZN9benchmark8internallsIA142_cEERNS0_7LogTypeES4_RKT_.exit582
	ld.d	$a0, $s7, 0
	beqz	$a0, .LBB2_248
# %bb.231:
.Ltmp284:
	pcalau12i	$a1, %pc_hi20(.L.str.59)
	addi.d	$a1, $a1, %pc_lo12(.L.str.59)
	ori	$a2, $zero, 1
	pcaddu18i	$ra, %call36(_ZSt16__ostream_insertIcSt11char_traitsIcEERSt13basic_ostreamIT_T0_ES6_PKS3_l)
	jirl	$ra, $ra, 0
.Ltmp285:
# %bb.232:                              # %_ZN9benchmark8internallsIA2_cEERNS0_7LogTypeES4_RKT_.exit585
	ld.d	$a0, $s7, 0
	beqz	$a0, .LBB2_248
# %bb.233:
.Ltmp287:
	ori	$a1, $zero, 176
	pcaddu18i	$ra, %call36(_ZNSolsEi)
	jirl	$ra, $ra, 0
.Ltmp288:
# %bb.234:                              # %_ZN9benchmark8internallsIiEERNS0_7LogTypeES3_RKT_.exit588
	ld.d	$a0, $s7, 0
	beqz	$a0, .LBB2_248
# %bb.235:
.Ltmp289:
	pcalau12i	$a1, %pc_hi20(.L.str.60)
	addi.d	$a1, $a1, %pc_lo12(.L.str.60)
	ori	$a2, $zero, 2
	pcaddu18i	$ra, %call36(_ZSt16__ostream_insertIcSt11char_traitsIcEERSt13basic_ostreamIT_T0_ES6_PKS3_l)
	jirl	$ra, $ra, 0
.Ltmp290:
# %bb.236:                              # %_ZN9benchmark8internallsIA3_cEERNS0_7LogTypeES4_RKT_.exit591
	ld.d	$a0, $s7, 0
	beqz	$a0, .LBB2_248
# %bb.237:
.Ltmp291:
	pcalau12i	$a1, %pc_hi20(.L.str.67)
	addi.d	$a1, $a1, %pc_lo12(.L.str.67)
	ori	$a2, $zero, 18
	pcaddu18i	$ra, %call36(_ZSt16__ostream_insertIcSt11char_traitsIcEERSt13basic_ostreamIT_T0_ES6_PKS3_l)
	jirl	$ra, $ra, 0
.Ltmp292:
# %bb.238:                              # %_ZN9benchmark8internallsIA19_cEERNS0_7LogTypeES4_RKT_.exit594
	ld.d	$a0, $s7, 0
	beqz	$a0, .LBB2_248
# %bb.239:
.Ltmp294:
	fmov.d	$fa0, $fs0
	pcaddu18i	$ra, %call36(_ZNSo9_M_insertIdEERSoT_)
	jirl	$ra, $ra, 0
.Ltmp295:
# %bb.240:                              # %_ZN9benchmark8internallsIdEERNS0_7LogTypeES3_RKT_.exit597
	ld.d	$a0, $s7, 0
	beqz	$a0, .LBB2_248
# %bb.241:
.Ltmp296:
	pcalau12i	$a1, %pc_hi20(.L.str.68)
	addi.d	$a1, $a1, %pc_lo12(.L.str.68)
	ori	$a2, $zero, 2
	pcaddu18i	$ra, %call36(_ZSt16__ostream_insertIcSt11char_traitsIcEERSt13basic_ostreamIT_T0_ES6_PKS3_l)
	jirl	$ra, $ra, 0
.Ltmp297:
# %bb.242:                              # %_ZN9benchmark8internallsIA3_cEERNS0_7LogTypeES4_RKT_.exit600
	ld.d	$a0, $s7, 0
	beqz	$a0, .LBB2_248
# %bb.243:
.Ltmp299:
	pcalau12i	$a1, %pc_hi20(.LCPI2_2)
	fld.d	$fa0, $a1, %pc_lo12(.LCPI2_2)
	pcaddu18i	$ra, %call36(_ZNSo9_M_insertIdEERSoT_)
	jirl	$ra, $ra, 0
.Ltmp300:
# %bb.244:                              # %_ZN9benchmark8internallsIdEERNS0_7LogTypeES3_RKT_.exit603
	ld.d	$a0, $s7, 0
	beqz	$a0, .LBB2_248
# %bb.245:
.Ltmp301:
	pcalau12i	$a1, %pc_hi20(.L.str.69)
	addi.d	$a1, $a1, %pc_lo12(.L.str.69)
	ori	$a2, $zero, 4
	pcaddu18i	$ra, %call36(_ZSt16__ostream_insertIcSt11char_traitsIcEERSt13basic_ostreamIT_T0_ES6_PKS3_l)
	jirl	$ra, $ra, 0
.Ltmp302:
# %bb.246:                              # %_ZN9benchmark8internallsIA5_cEERNS0_7LogTypeES4_RKT_.exit606
	ld.d	$a0, $s7, 0
	beqz	$a0, .LBB2_248
# %bb.247:
.Ltmp303:
	pcalau12i	$a1, %pc_hi20(.L.str.70)
	addi.d	$a1, $a1, %pc_lo12(.L.str.70)
	ori	$a2, $zero, 14
	pcaddu18i	$ra, %call36(_ZSt16__ostream_insertIcSt11char_traitsIcEERSt13basic_ostreamIT_T0_ES6_PKS3_l)
	jirl	$ra, $ra, 0
.Ltmp304:
.LBB2_248:                              # %_ZN9benchmark8internallsIA15_cEERNS0_7LogTypeES4_RKT_.exit609
	st.d	$s2, $sp, 80
	ori	$a0, $zero, 18
	st.d	$a0, $sp, 48
.Ltmp306:
	addi.d	$a0, $sp, 80
	addi.d	$a1, $sp, 48
	move	$a2, $zero
	pcaddu18i	$ra, %call36(_ZNSt7__cxx1112basic_stringIcSt11char_traitsIcESaIcEE9_M_createERmm)
	jirl	$ra, $ra, 0
.Ltmp307:
# %bb.249:                              # %.noexc612
	ld.d	$a1, $sp, 48
	vld	$vr0, $s6, 0
	st.d	$a0, $sp, 80
	st.d	$a1, $sp, 96
	vst	$vr0, $a0, 0
	st.h	$s5, $a0, 16
	ld.d	$a0, $sp, 80
	st.d	$a1, $sp, 88
	stx.b	$zero, $a0, $a1
.Ltmp309:
	addi.d	$a1, $sp, 80
	move	$a0, $fp
	pcaddu18i	$ra, %call36(_ZNK7Results5GetAsIdEET_RKNSt7__cxx1112basic_stringIcSt11char_traitsIcESaIcEEE)
	jirl	$ra, $ra, 0
.Ltmp310:
# %bb.250:                              # %_ZNK7Results12GetCounterAsIdEET_RKNSt7__cxx1112basic_stringIcSt11char_traitsIcESaIcEEE.exit615
	ld.d	$a0, $s7, 0
	beqz	$a0, .LBB2_254
# %bb.251:
	fadd.d	$fa0, $fa0, $fs1
.Ltmp311:
	pcaddu18i	$ra, %call36(_ZNSo9_M_insertIdEERSoT_)
	jirl	$ra, $ra, 0
.Ltmp312:
# %bb.252:                              # %_ZN9benchmark8internallsIdEERNS0_7LogTypeES3_RKT_.exit618
	ld.d	$a0, $s7, 0
	beqz	$a0, .LBB2_254
# %bb.253:
.Ltmp313:
	pcalau12i	$a1, %pc_hi20(.L.str.68)
	addi.d	$a1, $a1, %pc_lo12(.L.str.68)
	ori	$a2, $zero, 2
	pcaddu18i	$ra, %call36(_ZSt16__ostream_insertIcSt11char_traitsIcEERSt13basic_ostreamIT_T0_ES6_PKS3_l)
	jirl	$ra, $ra, 0
.Ltmp314:
.LBB2_254:                              # %_ZN9benchmark8internallsIA3_cEERNS0_7LogTypeES4_RKT_.exit621
	st.d	$s3, $sp, 48
	ori	$a0, $zero, 18
	st.d	$a0, $sp, 184
.Ltmp316:
	addi.d	$a0, $sp, 48
	addi.d	$a1, $sp, 184
	move	$a2, $zero
	pcaddu18i	$ra, %call36(_ZNSt7__cxx1112basic_stringIcSt11char_traitsIcESaIcEE9_M_createERmm)
	jirl	$ra, $ra, 0
.Ltmp317:
# %bb.255:                              # %.noexc624
	ld.d	$a1, $sp, 184
	vld	$vr0, $s6, 0
	st.d	$a0, $sp, 48
	st.d	$a1, $sp, 64
	vst	$vr0, $a0, 0
	st.h	$s5, $a0, 16
	ld.d	$a0, $sp, 48
	st.d	$a1, $sp, 56
	stx.b	$zero, $a0, $a1
.Ltmp319:
	addi.d	$a1, $sp, 48
	move	$a0, $fp
	pcaddu18i	$ra, %call36(_ZNK7Results5GetAsIdEET_RKNSt7__cxx1112basic_stringIcSt11char_traitsIcESaIcEEE)
	jirl	$ra, $ra, 0
.Ltmp320:
# %bb.256:                              # %_ZNK7Results12GetCounterAsIdEET_RKNSt7__cxx1112basic_stringIcSt11char_traitsIcESaIcEEE.exit627
	ld.d	$a0, $s7, 0
	beqz	$a0, .LBB2_260
# %bb.257:
	fld.d	$fa1, $s4, %pc_lo12(.LCPI2_3)
	fadd.d	$fa0, $fa0, $fs1
	fdiv.d	$fa0, $fa0, $fa1
	fmul.d	$fa0, $fa0, $fs0
.Ltmp321:
	pcaddu18i	$ra, %call36(_ZNSo9_M_insertIdEERSoT_)
	jirl	$ra, $ra, 0
.Ltmp322:
# %bb.258:                              # %_ZN9benchmark8internallsIdEERNS0_7LogTypeES3_RKT_.exit630
	ld.d	$a0, $s7, 0
	beqz	$a0, .LBB2_260
# %bb.259:
.Ltmp323:
	pcalau12i	$a1, %pc_hi20(.L.str.71)
	addi.d	$a1, $a1, %pc_lo12(.L.str.71)
	ori	$a2, $zero, 2
	pcaddu18i	$ra, %call36(_ZSt16__ostream_insertIcSt11char_traitsIcEERSt13basic_ostreamIT_T0_ES6_PKS3_l)
	jirl	$ra, $ra, 0
.Ltmp324:
.LBB2_260:                              # %_ZN9benchmark8internallsIA3_cEERNS0_7LogTypeES4_RKT_.exit633
	ld.d	$a0, $sp, 48
	beq	$a0, $s3, .LBB2_262
# %bb.261:                              # %_ZNKSt7__cxx1112basic_stringIcSt11char_traitsIcESaIcEE11_M_is_localEv.exit.i.i634
	ld.d	$a1, $sp, 64
	addi.d	$a1, $a1, 1
	pcaddu18i	$ra, %call36(_ZdlPvm)
	jirl	$ra, $ra, 0
.LBB2_262:                              # %_ZNSt7__cxx1112basic_stringIcSt11char_traitsIcESaIcEED2Ev.exit636
	ld.d	$a0, $sp, 80
	beq	$a0, $s2, .LBB2_264
# %bb.263:                              # %_ZNKSt7__cxx1112basic_stringIcSt11char_traitsIcESaIcEE11_M_is_localEv.exit.i.i637
	ld.d	$a1, $sp, 96
	addi.d	$a1, $a1, 1
	pcaddu18i	$ra, %call36(_ZdlPvm)
	jirl	$ra, $ra, 0
.LBB2_264:                              # %_ZNSt7__cxx1112basic_stringIcSt11char_traitsIcESaIcEED2Ev.exit639
	ld.d	$a0, $sp, 112
	beq	$a0, $s1, .LBB2_266
# %bb.265:                              # %_ZNKSt7__cxx1112basic_stringIcSt11char_traitsIcESaIcEE11_M_is_localEv.exit.i.i640
	ld.d	$a1, $sp, 128
	addi.d	$a1, $a1, 1
	pcaddu18i	$ra, %call36(_ZdlPvm)
	jirl	$ra, $ra, 0
.LBB2_266:                              # %_ZNSt7__cxx1112basic_stringIcSt11char_traitsIcESaIcEED2Ev.exit642
	fcmp.clt.d	$fcc0, $fs2, $fs0
	bceqz	$fcc0, .LBB2_452
# %bb.267:
	ld.d	$a0, $sp, 152
	beq	$a0, $s0, .LBB2_269
# %bb.268:                              # %_ZNKSt7__cxx1112basic_stringIcSt11char_traitsIcESaIcEE11_M_is_localEv.exit.i.i655
	ld.d	$a1, $sp, 168
	addi.d	$a1, $a1, 1
	pcaddu18i	$ra, %call36(_ZdlPvm)
	jirl	$ra, $ra, 0
.LBB2_269:                              # %_ZNSt7__cxx1112basic_stringIcSt11char_traitsIcESaIcEED2Ev.exit657
	st.d	$s0, $sp, 152
	ori	$a0, $zero, 18
	st.d	$a0, $sp, 112
.Ltmp326:
	addi.d	$a0, $sp, 152
	addi.d	$a1, $sp, 112
	move	$a2, $zero
	pcaddu18i	$ra, %call36(_ZNSt7__cxx1112basic_stringIcSt11char_traitsIcESaIcEE9_M_createERmm)
	jirl	$ra, $ra, 0
.Ltmp327:
# %bb.270:                              # %.noexc660
	ld.d	$a1, $sp, 112
	pcalau12i	$a2, %pc_hi20(.L.str.3)
	addi.d	$s5, $a2, %pc_lo12(.L.str.3)
	vld	$vr0, $s5, 0
	ld.h	$s4, $s5, 16
	st.d	$a0, $sp, 152
	st.d	$a1, $sp, 168
	vst	$vr0, $a0, 0
	st.h	$s4, $a0, 16
	ld.d	$a0, $sp, 152
	st.d	$a1, $sp, 160
	stx.b	$zero, $a0, $a1
.Ltmp329:
	addi.d	$a1, $sp, 152
	move	$a0, $fp
	pcaddu18i	$ra, %call36(_ZNK7Results5GetAsIdEET_RKNSt7__cxx1112basic_stringIcSt11char_traitsIcESaIcEEE)
	jirl	$ra, $ra, 0
.Ltmp330:
# %bb.271:                              # %_ZNK7Results12GetCounterAsIdEET_RKNSt7__cxx1112basic_stringIcSt11char_traitsIcESaIcEEE.exit663
	pcalau12i	$a0, %pc_hi20(.LCPI2_4)
	fld.d	$fs2, $a0, %pc_lo12(.LCPI2_4)
	pcalau12i	$a0, %pc_hi20(.LCPI2_5)
	fld.d	$fs1, $a0, %pc_lo12(.LCPI2_5)
	fadd.d	$fa0, $fa0, $fs2
	fabs.d	$fs3, $fa0
	fcmp.cule.d	$fcc0, $fs1, $fs3
	movcf2gr	$a0, $fcc0
	st.d	$a0, $sp, 8
	bceqz	$fcc0, .LBB2_274
# %bb.272:
.Ltmp332:
	pcalau12i	$a0, %pc_hi20(.L.str.74)
	addi.d	$a1, $a0, %pc_lo12(.L.str.74)
	pcalau12i	$a0, %pc_hi20(.L.str.57)
	addi.d	$a2, $a0, %pc_lo12(.L.str.57)
	pcalau12i	$a0, %pc_hi20(.L__func__._Z14CheckThousandsRK7Results)
	addi.d	$a3, $a0, %pc_lo12(.L__func__._Z14CheckThousandsRK7Results)
	addi.d	$a0, $sp, 24
	ori	$a4, $zero, 177
	pcaddu18i	$ra, %call36(_ZN9benchmark8internal12CheckHandlerC2EPKcS3_S3_i)
	jirl	$ra, $ra, 0
.Ltmp333:
# %bb.273:
	ld.d	$s6, $sp, 24
	b	.LBB2_275
.LBB2_274:
	pcalau12i	$a0, %pc_hi20(_ZGVZN9benchmark8internal18GetNullLogInstanceEvE8null_log)
	ld.b	$a0, $a0, %pc_lo12(_ZGVZN9benchmark8internal18GetNullLogInstanceEvE8null_log)
	dbar	20
	pcalau12i	$a1, %pc_hi20(_ZZN9benchmark8internal18GetNullLogInstanceEvE8null_log)
	addi.d	$s6, $a1, %pc_lo12(_ZZN9benchmark8internal18GetNullLogInstanceEvE8null_log)
	beqz	$a0, .LBB2_464
.LBB2_275:                              # %_ZN9benchmark8internal18GetNullLogInstanceEv.exit665
	ld.d	$a0, $s6, 0
	beqz	$a0, .LBB2_307
# %bb.276:
.Ltmp334:
	pcalau12i	$a1, %pc_hi20(.L.str.58)
	addi.d	$a1, $a1, %pc_lo12(.L.str.58)
	ori	$a2, $zero, 1
	pcaddu18i	$ra, %call36(_ZSt16__ostream_insertIcSt11char_traitsIcEERSt13basic_ostreamIT_T0_ES6_PKS3_l)
	jirl	$ra, $ra, 0
.Ltmp335:
# %bb.277:                              # %_ZN9benchmark8internallsIA2_cEERNS0_7LogTypeES4_RKT_.exit668
	ld.d	$a0, $s6, 0
	beqz	$a0, .LBB2_307
# %bb.278:
.Ltmp336:
	pcalau12i	$a1, %pc_hi20(.L.str.57)
	addi.d	$a1, $a1, %pc_lo12(.L.str.57)
	ori	$a2, $zero, 141
	pcaddu18i	$ra, %call36(_ZSt16__ostream_insertIcSt11char_traitsIcEERSt13basic_ostreamIT_T0_ES6_PKS3_l)
	jirl	$ra, $ra, 0
.Ltmp337:
# %bb.279:                              # %_ZN9benchmark8internallsIA142_cEERNS0_7LogTypeES4_RKT_.exit671
	ld.d	$a0, $s6, 0
	beqz	$a0, .LBB2_307
# %bb.280:
.Ltmp338:
	pcalau12i	$a1, %pc_hi20(.L.str.59)
	addi.d	$a1, $a1, %pc_lo12(.L.str.59)
	ori	$a2, $zero, 1
	pcaddu18i	$ra, %call36(_ZSt16__ostream_insertIcSt11char_traitsIcEERSt13basic_ostreamIT_T0_ES6_PKS3_l)
	jirl	$ra, $ra, 0
.Ltmp339:
# %bb.281:                              # %_ZN9benchmark8internallsIA2_cEERNS0_7LogTypeES4_RKT_.exit674
	ld.d	$a0, $s6, 0
	beqz	$a0, .LBB2_307
# %bb.282:
.Ltmp341:
	ori	$a1, $zero, 177
	pcaddu18i	$ra, %call36(_ZNSolsEi)
	jirl	$ra, $ra, 0
.Ltmp342:
# %bb.283:                              # %_ZN9benchmark8internallsIiEERNS0_7LogTypeES3_RKT_.exit677
	ld.d	$a0, $s6, 0
	beqz	$a0, .LBB2_307
# %bb.284:
.Ltmp343:
	pcalau12i	$a1, %pc_hi20(.L.str.60)
	addi.d	$a1, $a1, %pc_lo12(.L.str.60)
	ori	$a2, $zero, 2
	pcaddu18i	$ra, %call36(_ZSt16__ostream_insertIcSt11char_traitsIcEERSt13basic_ostreamIT_T0_ES6_PKS3_l)
	jirl	$ra, $ra, 0
.Ltmp344:
# %bb.285:                              # %_ZN9benchmark8internallsIA3_cEERNS0_7LogTypeES4_RKT_.exit680
	ld.d	$a0, $s6, 0
	beqz	$a0, .LBB2_307
# %bb.286:
	ld.d	$a1, $fp, 0
	ld.d	$a2, $fp, 8
.Ltmp345:
	pcaddu18i	$ra, %call36(_ZSt16__ostream_insertIcSt11char_traitsIcEERSt13basic_ostreamIT_T0_ES6_PKS3_l)
	jirl	$ra, $ra, 0
.Ltmp346:
# %bb.287:                              # %_ZN9benchmark8internallsINSt7__cxx1112basic_stringIcSt11char_traitsIcESaIcEEEEERNS0_7LogTypeES9_RKT_.exit683
	ld.d	$a0, $s6, 0
	beqz	$a0, .LBB2_307
# %bb.288:
.Ltmp347:
	pcalau12i	$a1, %pc_hi20(.L.str.61)
	addi.d	$a1, $a1, %pc_lo12(.L.str.61)
	ori	$a2, $zero, 2
	pcaddu18i	$ra, %call36(_ZSt16__ostream_insertIcSt11char_traitsIcEERSt13basic_ostreamIT_T0_ES6_PKS3_l)
	jirl	$ra, $ra, 0
.Ltmp348:
# %bb.289:                              # %_ZN9benchmark8internallsIA3_cEERNS0_7LogTypeES4_RKT_.exit686
	ld.d	$a0, $s6, 0
	beqz	$a0, .LBB2_307
# %bb.290:
.Ltmp349:
	pcalau12i	$a1, %pc_hi20(.L.str.57)
	addi.d	$a1, $a1, %pc_lo12(.L.str.57)
	ori	$a2, $zero, 141
	pcaddu18i	$ra, %call36(_ZSt16__ostream_insertIcSt11char_traitsIcEERSt13basic_ostreamIT_T0_ES6_PKS3_l)
	jirl	$ra, $ra, 0
.Ltmp350:
# %bb.291:                              # %_ZN9benchmark8internallsIA142_cEERNS0_7LogTypeES4_RKT_.exit689
	ld.d	$a0, $s6, 0
	beqz	$a0, .LBB2_307
# %bb.292:
.Ltmp351:
	pcalau12i	$a1, %pc_hi20(.L.str.59)
	addi.d	$a1, $a1, %pc_lo12(.L.str.59)
	ori	$a2, $zero, 1
	pcaddu18i	$ra, %call36(_ZSt16__ostream_insertIcSt11char_traitsIcEERSt13basic_ostreamIT_T0_ES6_PKS3_l)
	jirl	$ra, $ra, 0
.Ltmp352:
# %bb.293:                              # %_ZN9benchmark8internallsIA2_cEERNS0_7LogTypeES4_RKT_.exit692
	ld.d	$a0, $s6, 0
	beqz	$a0, .LBB2_307
# %bb.294:
.Ltmp354:
	ori	$a1, $zero, 177
	pcaddu18i	$ra, %call36(_ZNSolsEi)
	jirl	$ra, $ra, 0
.Ltmp355:
# %bb.295:                              # %_ZN9benchmark8internallsIiEERNS0_7LogTypeES3_RKT_.exit695
	ld.d	$a0, $s6, 0
	beqz	$a0, .LBB2_307
# %bb.296:
.Ltmp356:
	pcalau12i	$a1, %pc_hi20(.L.str.60)
	addi.d	$a1, $a1, %pc_lo12(.L.str.60)
	ori	$a2, $zero, 2
	pcaddu18i	$ra, %call36(_ZSt16__ostream_insertIcSt11char_traitsIcEERSt13basic_ostreamIT_T0_ES6_PKS3_l)
	jirl	$ra, $ra, 0
.Ltmp357:
# %bb.297:                              # %_ZN9benchmark8internallsIA3_cEERNS0_7LogTypeES4_RKT_.exit698
	ld.d	$a0, $s6, 0
	beqz	$a0, .LBB2_307
# %bb.298:
.Ltmp358:
	pcalau12i	$a1, %pc_hi20(.L.str.62)
	addi.d	$a1, $a1, %pc_lo12(.L.str.62)
	ori	$a2, $zero, 10
	pcaddu18i	$ra, %call36(_ZSt16__ostream_insertIcSt11char_traitsIcEERSt13basic_ostreamIT_T0_ES6_PKS3_l)
	jirl	$ra, $ra, 0
.Ltmp359:
# %bb.299:                              # %_ZN9benchmark8internallsIA11_cEERNS0_7LogTypeES4_RKT_.exit701
	ld.d	$a0, $s6, 0
	beqz	$a0, .LBB2_307
# %bb.300:
.Ltmp360:
	pcalau12i	$a1, %pc_hi20(.L.str.63)
	addi.d	$a1, $a1, %pc_lo12(.L.str.63)
	ori	$a2, $zero, 6
	pcaddu18i	$ra, %call36(_ZSt16__ostream_insertIcSt11char_traitsIcEERSt13basic_ostreamIT_T0_ES6_PKS3_l)
	jirl	$ra, $ra, 0
.Ltmp361:
# %bb.301:                              # %_ZN9benchmark8internallsIA7_cEERNS0_7LogTypeES4_RKT_.exit704
	ld.d	$a0, $s6, 0
	beqz	$a0, .LBB2_307
# %bb.302:
.Ltmp362:
	pcalau12i	$a1, %pc_hi20(.L.str.64)
	addi.d	$a1, $a1, %pc_lo12(.L.str.64)
	ori	$a2, $zero, 1
	pcaddu18i	$ra, %call36(_ZSt16__ostream_insertIcSt11char_traitsIcEERSt13basic_ostreamIT_T0_ES6_PKS3_l)
	jirl	$ra, $ra, 0
.Ltmp363:
# %bb.303:                              # %_ZN9benchmark8internallsIA2_cEERNS0_7LogTypeES4_RKT_.exit707
	ld.d	$a0, $s6, 0
	beqz	$a0, .LBB2_307
# %bb.304:
.Ltmp364:
	pcalau12i	$a1, %pc_hi20(.L.str.3)
	addi.d	$a1, $a1, %pc_lo12(.L.str.3)
	ori	$a2, $zero, 18
	pcaddu18i	$ra, %call36(_ZSt16__ostream_insertIcSt11char_traitsIcEERSt13basic_ostreamIT_T0_ES6_PKS3_l)
	jirl	$ra, $ra, 0
.Ltmp365:
# %bb.305:                              # %_ZN9benchmark8internallsIA19_cEERNS0_7LogTypeES4_RKT_.exit710
	ld.d	$a0, $s6, 0
	beqz	$a0, .LBB2_307
# %bb.306:
.Ltmp366:
	pcalau12i	$a1, %pc_hi20(.L.str.65)
	addi.d	$a1, $a1, %pc_lo12(.L.str.65)
	ori	$a2, $zero, 1
	pcaddu18i	$ra, %call36(_ZSt16__ostream_insertIcSt11char_traitsIcEERSt13basic_ostreamIT_T0_ES6_PKS3_l)
	jirl	$ra, $ra, 0
.Ltmp367:
.LBB2_307:                              # %_ZN9benchmark8internallsIA2_cEERNS0_7LogTypeES4_RKT_.exit713
	st.d	$s1, $sp, 112
	ori	$a0, $zero, 18
	st.d	$a0, $sp, 80
.Ltmp369:
	addi.d	$a0, $sp, 112
	addi.d	$a1, $sp, 80
	move	$a2, $zero
	pcaddu18i	$ra, %call36(_ZNSt7__cxx1112basic_stringIcSt11char_traitsIcESaIcEE9_M_createERmm)
	jirl	$ra, $ra, 0
.Ltmp370:
# %bb.308:                              # %.noexc716
	ld.d	$a1, $sp, 80
	vld	$vr0, $s5, 0
	st.d	$a0, $sp, 112
	st.d	$a1, $sp, 128
	vst	$vr0, $a0, 0
	st.h	$s4, $a0, 16
	ld.d	$a0, $sp, 112
	st.d	$a1, $sp, 120
	stx.b	$zero, $a0, $a1
.Ltmp372:
	addi.d	$a1, $sp, 112
	move	$a0, $fp
	pcaddu18i	$ra, %call36(_ZNK7Results5GetAsIdEET_RKNSt7__cxx1112basic_stringIcSt11char_traitsIcESaIcEEE)
	jirl	$ra, $ra, 0
.Ltmp373:
# %bb.309:                              # %_ZNK7Results12GetCounterAsIdEET_RKNSt7__cxx1112basic_stringIcSt11char_traitsIcESaIcEEE.exit719
	ld.d	$a0, $s6, 0
	beqz	$a0, .LBB2_337
# %bb.310:
.Ltmp374:
	pcaddu18i	$ra, %call36(_ZNSo9_M_insertIdEERSoT_)
	jirl	$ra, $ra, 0
.Ltmp375:
# %bb.311:                              # %_ZN9benchmark8internallsIdEERNS0_7LogTypeES3_RKT_.exit722
	ld.d	$a0, $s6, 0
	beqz	$a0, .LBB2_337
# %bb.312:
.Ltmp376:
	pcalau12i	$a1, %pc_hi20(.L.str.66)
	addi.d	$a1, $a1, %pc_lo12(.L.str.66)
	ori	$a2, $zero, 13
	pcaddu18i	$ra, %call36(_ZSt16__ostream_insertIcSt11char_traitsIcEERSt13basic_ostreamIT_T0_ES6_PKS3_l)
	jirl	$ra, $ra, 0
.Ltmp377:
# %bb.313:                              # %_ZN9benchmark8internallsIA14_cEERNS0_7LogTypeES4_RKT_.exit725
	ld.d	$a0, $s6, 0
	beqz	$a0, .LBB2_337
# %bb.314:
.Ltmp379:
	lu12i.w	$a1, 256
	pcaddu18i	$ra, %call36(_ZNSolsEi)
	jirl	$ra, $ra, 0
.Ltmp380:
# %bb.315:                              # %_ZN9benchmark8internallsIiEERNS0_7LogTypeES3_RKT_.exit728
	ld.d	$a0, $s6, 0
	beqz	$a0, .LBB2_337
# %bb.316:
.Ltmp381:
	pcalau12i	$a1, %pc_hi20(.L.str.58)
	addi.d	$a1, $a1, %pc_lo12(.L.str.58)
	ori	$a2, $zero, 1
	pcaddu18i	$ra, %call36(_ZSt16__ostream_insertIcSt11char_traitsIcEERSt13basic_ostreamIT_T0_ES6_PKS3_l)
	jirl	$ra, $ra, 0
.Ltmp382:
# %bb.317:                              # %_ZN9benchmark8internallsIA2_cEERNS0_7LogTypeES4_RKT_.exit731
	ld.d	$a0, $s6, 0
	beqz	$a0, .LBB2_337
# %bb.318:
.Ltmp383:
	pcalau12i	$a1, %pc_hi20(.L.str.57)
	addi.d	$a1, $a1, %pc_lo12(.L.str.57)
	ori	$a2, $zero, 141
	pcaddu18i	$ra, %call36(_ZSt16__ostream_insertIcSt11char_traitsIcEERSt13basic_ostreamIT_T0_ES6_PKS3_l)
	jirl	$ra, $ra, 0
.Ltmp384:
# %bb.319:                              # %_ZN9benchmark8internallsIA142_cEERNS0_7LogTypeES4_RKT_.exit734
	ld.d	$a0, $s6, 0
	beqz	$a0, .LBB2_337
# %bb.320:
.Ltmp385:
	pcalau12i	$a1, %pc_hi20(.L.str.59)
	addi.d	$a1, $a1, %pc_lo12(.L.str.59)
	ori	$a2, $zero, 1
	pcaddu18i	$ra, %call36(_ZSt16__ostream_insertIcSt11char_traitsIcEERSt13basic_ostreamIT_T0_ES6_PKS3_l)
	jirl	$ra, $ra, 0
.Ltmp386:
# %bb.321:                              # %_ZN9benchmark8internallsIA2_cEERNS0_7LogTypeES4_RKT_.exit737
	ld.d	$a0, $s6, 0
	beqz	$a0, .LBB2_337
# %bb.322:
.Ltmp388:
	ori	$a1, $zero, 177
	pcaddu18i	$ra, %call36(_ZNSolsEi)
	jirl	$ra, $ra, 0
.Ltmp389:
# %bb.323:                              # %_ZN9benchmark8internallsIiEERNS0_7LogTypeES3_RKT_.exit740
	ld.d	$a0, $s6, 0
	beqz	$a0, .LBB2_337
# %bb.324:
.Ltmp390:
	pcalau12i	$a1, %pc_hi20(.L.str.60)
	addi.d	$a1, $a1, %pc_lo12(.L.str.60)
	ori	$a2, $zero, 2
	pcaddu18i	$ra, %call36(_ZSt16__ostream_insertIcSt11char_traitsIcEERSt13basic_ostreamIT_T0_ES6_PKS3_l)
	jirl	$ra, $ra, 0
.Ltmp391:
# %bb.325:                              # %_ZN9benchmark8internallsIA3_cEERNS0_7LogTypeES4_RKT_.exit743
	ld.d	$a0, $s6, 0
	beqz	$a0, .LBB2_337
# %bb.326:
.Ltmp392:
	pcalau12i	$a1, %pc_hi20(.L.str.67)
	addi.d	$a1, $a1, %pc_lo12(.L.str.67)
	ori	$a2, $zero, 18
	pcaddu18i	$ra, %call36(_ZSt16__ostream_insertIcSt11char_traitsIcEERSt13basic_ostreamIT_T0_ES6_PKS3_l)
	jirl	$ra, $ra, 0
.Ltmp393:
# %bb.327:                              # %_ZN9benchmark8internallsIA19_cEERNS0_7LogTypeES4_RKT_.exit746
	ld.d	$a0, $s6, 0
	beqz	$a0, .LBB2_337
# %bb.328:
.Ltmp395:
	fmov.d	$fa0, $fs1
	pcaddu18i	$ra, %call36(_ZNSo9_M_insertIdEERSoT_)
	jirl	$ra, $ra, 0
.Ltmp396:
# %bb.329:                              # %_ZN9benchmark8internallsIdEERNS0_7LogTypeES3_RKT_.exit749
	ld.d	$a0, $s6, 0
	beqz	$a0, .LBB2_337
# %bb.330:
.Ltmp397:
	pcalau12i	$a1, %pc_hi20(.L.str.68)
	addi.d	$a1, $a1, %pc_lo12(.L.str.68)
	ori	$a2, $zero, 2
	pcaddu18i	$ra, %call36(_ZSt16__ostream_insertIcSt11char_traitsIcEERSt13basic_ostreamIT_T0_ES6_PKS3_l)
	jirl	$ra, $ra, 0
.Ltmp398:
# %bb.331:                              # %_ZN9benchmark8internallsIA3_cEERNS0_7LogTypeES4_RKT_.exit752
	ld.d	$a0, $s6, 0
	beqz	$a0, .LBB2_337
# %bb.332:
.Ltmp400:
	pcalau12i	$a1, %pc_hi20(.LCPI2_2)
	fld.d	$fa0, $a1, %pc_lo12(.LCPI2_2)
	pcaddu18i	$ra, %call36(_ZNSo9_M_insertIdEERSoT_)
	jirl	$ra, $ra, 0
.Ltmp401:
# %bb.333:                              # %_ZN9benchmark8internallsIdEERNS0_7LogTypeES3_RKT_.exit755
	ld.d	$a0, $s6, 0
	beqz	$a0, .LBB2_337
# %bb.334:
.Ltmp402:
	pcalau12i	$a1, %pc_hi20(.L.str.69)
	addi.d	$a1, $a1, %pc_lo12(.L.str.69)
	ori	$a2, $zero, 4
	pcaddu18i	$ra, %call36(_ZSt16__ostream_insertIcSt11char_traitsIcEERSt13basic_ostreamIT_T0_ES6_PKS3_l)
	jirl	$ra, $ra, 0
.Ltmp403:
# %bb.335:                              # %_ZN9benchmark8internallsIA5_cEERNS0_7LogTypeES4_RKT_.exit758
	ld.d	$a0, $s6, 0
	beqz	$a0, .LBB2_337
# %bb.336:
.Ltmp404:
	pcalau12i	$a1, %pc_hi20(.L.str.70)
	addi.d	$a1, $a1, %pc_lo12(.L.str.70)
	ori	$a2, $zero, 14
	pcaddu18i	$ra, %call36(_ZSt16__ostream_insertIcSt11char_traitsIcEERSt13basic_ostreamIT_T0_ES6_PKS3_l)
	jirl	$ra, $ra, 0
.Ltmp405:
.LBB2_337:                              # %_ZN9benchmark8internallsIA15_cEERNS0_7LogTypeES4_RKT_.exit761
	st.d	$s2, $sp, 80
	ori	$a0, $zero, 18
	st.d	$a0, $sp, 48
.Ltmp407:
	addi.d	$a0, $sp, 80
	addi.d	$a1, $sp, 48
	move	$a2, $zero
	pcaddu18i	$ra, %call36(_ZNSt7__cxx1112basic_stringIcSt11char_traitsIcESaIcEE9_M_createERmm)
	jirl	$ra, $ra, 0
.Ltmp408:
# %bb.338:                              # %.noexc764
	ld.d	$a1, $sp, 48
	vld	$vr0, $s5, 0
	st.d	$a0, $sp, 80
	st.d	$a1, $sp, 96
	vst	$vr0, $a0, 0
	st.h	$s4, $a0, 16
	ld.d	$a0, $sp, 80
	st.d	$a1, $sp, 88
	stx.b	$zero, $a0, $a1
.Ltmp410:
	addi.d	$a1, $sp, 80
	move	$a0, $fp
	pcaddu18i	$ra, %call36(_ZNK7Results5GetAsIdEET_RKNSt7__cxx1112basic_stringIcSt11char_traitsIcESaIcEEE)
	jirl	$ra, $ra, 0
.Ltmp411:
# %bb.339:                              # %_ZNK7Results12GetCounterAsIdEET_RKNSt7__cxx1112basic_stringIcSt11char_traitsIcESaIcEEE.exit767
	ld.d	$a0, $s6, 0
	beqz	$a0, .LBB2_343
# %bb.340:
	fadd.d	$fa0, $fa0, $fs2
.Ltmp412:
	pcaddu18i	$ra, %call36(_ZNSo9_M_insertIdEERSoT_)
	jirl	$ra, $ra, 0
.Ltmp413:
# %bb.341:                              # %_ZN9benchmark8internallsIdEERNS0_7LogTypeES3_RKT_.exit770
	ld.d	$a0, $s6, 0
	beqz	$a0, .LBB2_343
# %bb.342:
.Ltmp414:
	pcalau12i	$a1, %pc_hi20(.L.str.68)
	addi.d	$a1, $a1, %pc_lo12(.L.str.68)
	ori	$a2, $zero, 2
	pcaddu18i	$ra, %call36(_ZSt16__ostream_insertIcSt11char_traitsIcEERSt13basic_ostreamIT_T0_ES6_PKS3_l)
	jirl	$ra, $ra, 0
.Ltmp415:
.LBB2_343:                              # %_ZN9benchmark8internallsIA3_cEERNS0_7LogTypeES4_RKT_.exit773
	st.d	$s3, $sp, 48
	ori	$a0, $zero, 18
	st.d	$a0, $sp, 184
.Ltmp417:
	addi.d	$a0, $sp, 48
	addi.d	$a1, $sp, 184
	move	$a2, $zero
	pcaddu18i	$ra, %call36(_ZNSt7__cxx1112basic_stringIcSt11char_traitsIcESaIcEE9_M_createERmm)
	jirl	$ra, $ra, 0
.Ltmp418:
# %bb.344:                              # %.noexc776
	ld.d	$a1, $sp, 184
	vld	$vr0, $s5, 0
	st.d	$a0, $sp, 48
	st.d	$a1, $sp, 64
	vst	$vr0, $a0, 0
	st.h	$s4, $a0, 16
	ld.d	$a0, $sp, 48
	st.d	$a1, $sp, 56
	stx.b	$zero, $a0, $a1
.Ltmp420:
	addi.d	$a1, $sp, 48
	move	$a0, $fp
	pcaddu18i	$ra, %call36(_ZNK7Results5GetAsIdEET_RKNSt7__cxx1112basic_stringIcSt11char_traitsIcESaIcEEE)
	jirl	$ra, $ra, 0
.Ltmp421:
# %bb.345:                              # %_ZNK7Results12GetCounterAsIdEET_RKNSt7__cxx1112basic_stringIcSt11char_traitsIcESaIcEEE.exit779
	ld.d	$a0, $s6, 0
	pcalau12i	$s4, %pc_hi20(.LCPI2_6)
	beqz	$a0, .LBB2_349
# %bb.346:
	fld.d	$fa1, $s4, %pc_lo12(.LCPI2_6)
	fadd.d	$fa0, $fa0, $fs2
	fmul.d	$fa0, $fa0, $fa1
	fmul.d	$fa0, $fa0, $fs0
.Ltmp422:
	pcaddu18i	$ra, %call36(_ZNSo9_M_insertIdEERSoT_)
	jirl	$ra, $ra, 0
.Ltmp423:
# %bb.347:                              # %_ZN9benchmark8internallsIdEERNS0_7LogTypeES3_RKT_.exit782
	ld.d	$a0, $s6, 0
	beqz	$a0, .LBB2_349
# %bb.348:
.Ltmp424:
	pcalau12i	$a1, %pc_hi20(.L.str.71)
	addi.d	$a1, $a1, %pc_lo12(.L.str.71)
	ori	$a2, $zero, 2
	pcaddu18i	$ra, %call36(_ZSt16__ostream_insertIcSt11char_traitsIcEERSt13basic_ostreamIT_T0_ES6_PKS3_l)
	jirl	$ra, $ra, 0
.Ltmp425:
.LBB2_349:                              # %_ZN9benchmark8internallsIA3_cEERNS0_7LogTypeES4_RKT_.exit785
	ld.d	$a0, $sp, 48
	beq	$a0, $s3, .LBB2_351
# %bb.350:                              # %_ZNKSt7__cxx1112basic_stringIcSt11char_traitsIcESaIcEE11_M_is_localEv.exit.i.i786
	ld.d	$a1, $sp, 64
	addi.d	$a1, $a1, 1
	pcaddu18i	$ra, %call36(_ZdlPvm)
	jirl	$ra, $ra, 0
.LBB2_351:                              # %_ZNSt7__cxx1112basic_stringIcSt11char_traitsIcESaIcEED2Ev.exit788
	ld.d	$a0, $sp, 80
	beq	$a0, $s2, .LBB2_353
# %bb.352:                              # %_ZNKSt7__cxx1112basic_stringIcSt11char_traitsIcESaIcEE11_M_is_localEv.exit.i.i789
	ld.d	$a1, $sp, 96
	addi.d	$a1, $a1, 1
	pcaddu18i	$ra, %call36(_ZdlPvm)
	jirl	$ra, $ra, 0
.LBB2_353:                              # %_ZNSt7__cxx1112basic_stringIcSt11char_traitsIcESaIcEED2Ev.exit791
	ld.d	$a0, $sp, 112
	beq	$a0, $s1, .LBB2_355
# %bb.354:                              # %_ZNKSt7__cxx1112basic_stringIcSt11char_traitsIcESaIcEE11_M_is_localEv.exit.i.i792
	ld.d	$a1, $sp, 128
	addi.d	$a1, $a1, 1
	pcaddu18i	$ra, %call36(_ZdlPvm)
	jirl	$ra, $ra, 0
.LBB2_355:                              # %_ZNSt7__cxx1112basic_stringIcSt11char_traitsIcESaIcEED2Ev.exit794
	fcmp.clt.d	$fcc0, $fs3, $fs1
	bceqz	$fcc0, .LBB2_454
# %bb.356:
	ld.d	$a0, $sp, 152
	beq	$a0, $s0, .LBB2_358
# %bb.357:                              # %_ZNKSt7__cxx1112basic_stringIcSt11char_traitsIcESaIcEE11_M_is_localEv.exit.i.i807
	ld.d	$a1, $sp, 168
	addi.d	$a1, $a1, 1
	pcaddu18i	$ra, %call36(_ZdlPvm)
	jirl	$ra, $ra, 0
.LBB2_358:                              # %_ZNSt7__cxx1112basic_stringIcSt11char_traitsIcESaIcEED2Ev.exit809
	st.d	$s0, $sp, 152
	ori	$a0, $zero, 18
	st.d	$a0, $sp, 112
.Ltmp427:
	addi.d	$a0, $sp, 152
	addi.d	$a1, $sp, 112
	move	$a2, $zero
	pcaddu18i	$ra, %call36(_ZNSt7__cxx1112basic_stringIcSt11char_traitsIcESaIcEE9_M_createERmm)
	jirl	$ra, $ra, 0
.Ltmp428:
# %bb.359:                              # %.noexc812
	ld.d	$a1, $sp, 112
	pcalau12i	$a2, %pc_hi20(.L.str.4)
	addi.d	$s6, $a2, %pc_lo12(.L.str.4)
	vld	$vr0, $s6, 0
	ld.h	$s5, $s6, 16
	st.d	$a0, $sp, 152
	st.d	$a1, $sp, 168
	vst	$vr0, $a0, 0
	st.h	$s5, $a0, 16
	ld.d	$a0, $sp, 152
	st.d	$a1, $sp, 160
	stx.b	$zero, $a0, $a1
.Ltmp430:
	addi.d	$a1, $sp, 152
	move	$a0, $fp
	pcaddu18i	$ra, %call36(_ZNK7Results5GetAsIdEET_RKNSt7__cxx1112basic_stringIcSt11char_traitsIcESaIcEEE)
	jirl	$ra, $ra, 0
.Ltmp431:
# %bb.360:                              # %_ZNK7Results12GetCounterAsIdEET_RKNSt7__cxx1112basic_stringIcSt11char_traitsIcESaIcEEE.exit815
	fadd.d	$fa0, $fa0, $fs2
	fabs.d	$fs3, $fa0
	fcmp.cule.d	$fcc0, $fs1, $fs3
	bceqz	$fcc0, .LBB2_363
# %bb.361:
.Ltmp433:
	pcalau12i	$a0, %pc_hi20(.L.str.75)
	addi.d	$a1, $a0, %pc_lo12(.L.str.75)
	pcalau12i	$a0, %pc_hi20(.L.str.57)
	addi.d	$a2, $a0, %pc_lo12(.L.str.57)
	pcalau12i	$a0, %pc_hi20(.L__func__._Z14CheckThousandsRK7Results)
	addi.d	$a3, $a0, %pc_lo12(.L__func__._Z14CheckThousandsRK7Results)
	addi.d	$a0, $sp, 16
	ori	$a4, $zero, 178
	pcaddu18i	$ra, %call36(_ZN9benchmark8internal12CheckHandlerC2EPKcS3_S3_i)
	jirl	$ra, $ra, 0
.Ltmp434:
# %bb.362:
	ld.d	$s7, $sp, 16
	b	.LBB2_364
.LBB2_363:
	pcalau12i	$a0, %pc_hi20(_ZGVZN9benchmark8internal18GetNullLogInstanceEvE8null_log)
	ld.b	$a0, $a0, %pc_lo12(_ZGVZN9benchmark8internal18GetNullLogInstanceEvE8null_log)
	dbar	20
	pcalau12i	$a1, %pc_hi20(_ZZN9benchmark8internal18GetNullLogInstanceEvE8null_log)
	addi.d	$s7, $a1, %pc_lo12(_ZZN9benchmark8internal18GetNullLogInstanceEvE8null_log)
	beqz	$a0, .LBB2_466
.LBB2_364:                              # %_ZN9benchmark8internal18GetNullLogInstanceEv.exit817
	ld.d	$a0, $s7, 0
	beqz	$a0, .LBB2_396
# %bb.365:
.Ltmp435:
	pcalau12i	$a1, %pc_hi20(.L.str.58)
	addi.d	$a1, $a1, %pc_lo12(.L.str.58)
	ori	$a2, $zero, 1
	pcaddu18i	$ra, %call36(_ZSt16__ostream_insertIcSt11char_traitsIcEERSt13basic_ostreamIT_T0_ES6_PKS3_l)
	jirl	$ra, $ra, 0
.Ltmp436:
# %bb.366:                              # %_ZN9benchmark8internallsIA2_cEERNS0_7LogTypeES4_RKT_.exit820
	ld.d	$a0, $s7, 0
	beqz	$a0, .LBB2_396
# %bb.367:
.Ltmp437:
	pcalau12i	$a1, %pc_hi20(.L.str.57)
	addi.d	$a1, $a1, %pc_lo12(.L.str.57)
	ori	$a2, $zero, 141
	pcaddu18i	$ra, %call36(_ZSt16__ostream_insertIcSt11char_traitsIcEERSt13basic_ostreamIT_T0_ES6_PKS3_l)
	jirl	$ra, $ra, 0
.Ltmp438:
# %bb.368:                              # %_ZN9benchmark8internallsIA142_cEERNS0_7LogTypeES4_RKT_.exit823
	ld.d	$a0, $s7, 0
	beqz	$a0, .LBB2_396
# %bb.369:
.Ltmp439:
	pcalau12i	$a1, %pc_hi20(.L.str.59)
	addi.d	$a1, $a1, %pc_lo12(.L.str.59)
	ori	$a2, $zero, 1
	pcaddu18i	$ra, %call36(_ZSt16__ostream_insertIcSt11char_traitsIcEERSt13basic_ostreamIT_T0_ES6_PKS3_l)
	jirl	$ra, $ra, 0
.Ltmp440:
# %bb.370:                              # %_ZN9benchmark8internallsIA2_cEERNS0_7LogTypeES4_RKT_.exit826
	ld.d	$a0, $s7, 0
	beqz	$a0, .LBB2_396
# %bb.371:
.Ltmp442:
	ori	$a1, $zero, 178
	pcaddu18i	$ra, %call36(_ZNSolsEi)
	jirl	$ra, $ra, 0
.Ltmp443:
# %bb.372:                              # %_ZN9benchmark8internallsIiEERNS0_7LogTypeES3_RKT_.exit829
	ld.d	$a0, $s7, 0
	beqz	$a0, .LBB2_396
# %bb.373:
.Ltmp444:
	pcalau12i	$a1, %pc_hi20(.L.str.60)
	addi.d	$a1, $a1, %pc_lo12(.L.str.60)
	ori	$a2, $zero, 2
	pcaddu18i	$ra, %call36(_ZSt16__ostream_insertIcSt11char_traitsIcEERSt13basic_ostreamIT_T0_ES6_PKS3_l)
	jirl	$ra, $ra, 0
.Ltmp445:
# %bb.374:                              # %_ZN9benchmark8internallsIA3_cEERNS0_7LogTypeES4_RKT_.exit832
	ld.d	$a0, $s7, 0
	beqz	$a0, .LBB2_396
# %bb.375:
	ld.d	$a1, $fp, 0
	ld.d	$a2, $fp, 8
.Ltmp446:
	pcaddu18i	$ra, %call36(_ZSt16__ostream_insertIcSt11char_traitsIcEERSt13basic_ostreamIT_T0_ES6_PKS3_l)
	jirl	$ra, $ra, 0
.Ltmp447:
# %bb.376:                              # %_ZN9benchmark8internallsINSt7__cxx1112basic_stringIcSt11char_traitsIcESaIcEEEEERNS0_7LogTypeES9_RKT_.exit835
	ld.d	$a0, $s7, 0
	beqz	$a0, .LBB2_396
# %bb.377:
.Ltmp448:
	pcalau12i	$a1, %pc_hi20(.L.str.61)
	addi.d	$a1, $a1, %pc_lo12(.L.str.61)
	ori	$a2, $zero, 2
	pcaddu18i	$ra, %call36(_ZSt16__ostream_insertIcSt11char_traitsIcEERSt13basic_ostreamIT_T0_ES6_PKS3_l)
	jirl	$ra, $ra, 0
.Ltmp449:
# %bb.378:                              # %_ZN9benchmark8internallsIA3_cEERNS0_7LogTypeES4_RKT_.exit838
	ld.d	$a0, $s7, 0
	beqz	$a0, .LBB2_396
# %bb.379:
.Ltmp450:
	pcalau12i	$a1, %pc_hi20(.L.str.57)
	addi.d	$a1, $a1, %pc_lo12(.L.str.57)
	ori	$a2, $zero, 141
	pcaddu18i	$ra, %call36(_ZSt16__ostream_insertIcSt11char_traitsIcEERSt13basic_ostreamIT_T0_ES6_PKS3_l)
	jirl	$ra, $ra, 0
.Ltmp451:
# %bb.380:                              # %_ZN9benchmark8internallsIA142_cEERNS0_7LogTypeES4_RKT_.exit841
	ld.d	$a0, $s7, 0
	beqz	$a0, .LBB2_396
# %bb.381:
.Ltmp452:
	pcalau12i	$a1, %pc_hi20(.L.str.59)
	addi.d	$a1, $a1, %pc_lo12(.L.str.59)
	ori	$a2, $zero, 1
	pcaddu18i	$ra, %call36(_ZSt16__ostream_insertIcSt11char_traitsIcEERSt13basic_ostreamIT_T0_ES6_PKS3_l)
	jirl	$ra, $ra, 0
.Ltmp453:
# %bb.382:                              # %_ZN9benchmark8internallsIA2_cEERNS0_7LogTypeES4_RKT_.exit844
	ld.d	$a0, $s7, 0
	beqz	$a0, .LBB2_396
# %bb.383:
.Ltmp455:
	ori	$a1, $zero, 178
	pcaddu18i	$ra, %call36(_ZNSolsEi)
	jirl	$ra, $ra, 0
.Ltmp456:
# %bb.384:                              # %_ZN9benchmark8internallsIiEERNS0_7LogTypeES3_RKT_.exit847
	ld.d	$a0, $s7, 0
	beqz	$a0, .LBB2_396
# %bb.385:
.Ltmp457:
	pcalau12i	$a1, %pc_hi20(.L.str.60)
	addi.d	$a1, $a1, %pc_lo12(.L.str.60)
	ori	$a2, $zero, 2
	pcaddu18i	$ra, %call36(_ZSt16__ostream_insertIcSt11char_traitsIcEERSt13basic_ostreamIT_T0_ES6_PKS3_l)
	jirl	$ra, $ra, 0
.Ltmp458:
# %bb.386:                              # %_ZN9benchmark8internallsIA3_cEERNS0_7LogTypeES4_RKT_.exit850
	ld.d	$a0, $s7, 0
	beqz	$a0, .LBB2_396
# %bb.387:
.Ltmp459:
	pcalau12i	$a1, %pc_hi20(.L.str.62)
	addi.d	$a1, $a1, %pc_lo12(.L.str.62)
	ori	$a2, $zero, 10
	pcaddu18i	$ra, %call36(_ZSt16__ostream_insertIcSt11char_traitsIcEERSt13basic_ostreamIT_T0_ES6_PKS3_l)
	jirl	$ra, $ra, 0
.Ltmp460:
# %bb.388:                              # %_ZN9benchmark8internallsIA11_cEERNS0_7LogTypeES4_RKT_.exit853
	ld.d	$a0, $s7, 0
	beqz	$a0, .LBB2_396
# %bb.389:
.Ltmp461:
	pcalau12i	$a1, %pc_hi20(.L.str.63)
	addi.d	$a1, $a1, %pc_lo12(.L.str.63)
	ori	$a2, $zero, 6
	pcaddu18i	$ra, %call36(_ZSt16__ostream_insertIcSt11char_traitsIcEERSt13basic_ostreamIT_T0_ES6_PKS3_l)
	jirl	$ra, $ra, 0
.Ltmp462:
# %bb.390:                              # %_ZN9benchmark8internallsIA7_cEERNS0_7LogTypeES4_RKT_.exit856
	ld.d	$a0, $s7, 0
	beqz	$a0, .LBB2_396
# %bb.391:
.Ltmp463:
	pcalau12i	$a1, %pc_hi20(.L.str.64)
	addi.d	$a1, $a1, %pc_lo12(.L.str.64)
	ori	$a2, $zero, 1
	pcaddu18i	$ra, %call36(_ZSt16__ostream_insertIcSt11char_traitsIcEERSt13basic_ostreamIT_T0_ES6_PKS3_l)
	jirl	$ra, $ra, 0
.Ltmp464:
# %bb.392:                              # %_ZN9benchmark8internallsIA2_cEERNS0_7LogTypeES4_RKT_.exit859
	ld.d	$a0, $s7, 0
	beqz	$a0, .LBB2_396
# %bb.393:
.Ltmp465:
	pcalau12i	$a1, %pc_hi20(.L.str.4)
	addi.d	$a1, $a1, %pc_lo12(.L.str.4)
	ori	$a2, $zero, 18
	pcaddu18i	$ra, %call36(_ZSt16__ostream_insertIcSt11char_traitsIcEERSt13basic_ostreamIT_T0_ES6_PKS3_l)
	jirl	$ra, $ra, 0
.Ltmp466:
# %bb.394:                              # %_ZN9benchmark8internallsIA19_cEERNS0_7LogTypeES4_RKT_.exit862
	ld.d	$a0, $s7, 0
	beqz	$a0, .LBB2_396
# %bb.395:
.Ltmp467:
	pcalau12i	$a1, %pc_hi20(.L.str.65)
	addi.d	$a1, $a1, %pc_lo12(.L.str.65)
	ori	$a2, $zero, 1
	pcaddu18i	$ra, %call36(_ZSt16__ostream_insertIcSt11char_traitsIcEERSt13basic_ostreamIT_T0_ES6_PKS3_l)
	jirl	$ra, $ra, 0
.Ltmp468:
.LBB2_396:                              # %_ZN9benchmark8internallsIA2_cEERNS0_7LogTypeES4_RKT_.exit865
	st.d	$s1, $sp, 112
	ori	$a0, $zero, 18
	st.d	$a0, $sp, 80
.Ltmp470:
	addi.d	$a0, $sp, 112
	addi.d	$a1, $sp, 80
	move	$a2, $zero
	pcaddu18i	$ra, %call36(_ZNSt7__cxx1112basic_stringIcSt11char_traitsIcESaIcEE9_M_createERmm)
	jirl	$ra, $ra, 0
.Ltmp471:
# %bb.397:                              # %.noexc868
	ld.d	$a1, $sp, 80
	vld	$vr0, $s6, 0
	st.d	$a0, $sp, 112
	st.d	$a1, $sp, 128
	vst	$vr0, $a0, 0
	st.h	$s5, $a0, 16
	ld.d	$a0, $sp, 112
	st.d	$a1, $sp, 120
	stx.b	$zero, $a0, $a1
.Ltmp473:
	addi.d	$a1, $sp, 112
	move	$a0, $fp
	pcaddu18i	$ra, %call36(_ZNK7Results5GetAsIdEET_RKNSt7__cxx1112basic_stringIcSt11char_traitsIcESaIcEEE)
	jirl	$ra, $ra, 0
.Ltmp474:
# %bb.398:                              # %_ZNK7Results12GetCounterAsIdEET_RKNSt7__cxx1112basic_stringIcSt11char_traitsIcESaIcEEE.exit871
	ld.d	$a0, $s7, 0
	beqz	$a0, .LBB2_426
# %bb.399:
.Ltmp475:
	pcaddu18i	$ra, %call36(_ZNSo9_M_insertIdEERSoT_)
	jirl	$ra, $ra, 0
.Ltmp476:
# %bb.400:                              # %_ZN9benchmark8internallsIdEERNS0_7LogTypeES3_RKT_.exit874
	ld.d	$a0, $s7, 0
	beqz	$a0, .LBB2_426
# %bb.401:
.Ltmp477:
	pcalau12i	$a1, %pc_hi20(.L.str.66)
	addi.d	$a1, $a1, %pc_lo12(.L.str.66)
	ori	$a2, $zero, 13
	pcaddu18i	$ra, %call36(_ZSt16__ostream_insertIcSt11char_traitsIcEERSt13basic_ostreamIT_T0_ES6_PKS3_l)
	jirl	$ra, $ra, 0
.Ltmp478:
# %bb.402:                              # %_ZN9benchmark8internallsIA14_cEERNS0_7LogTypeES4_RKT_.exit877
	ld.d	$a0, $s7, 0
	beqz	$a0, .LBB2_426
# %bb.403:
.Ltmp480:
	lu12i.w	$a1, 256
	pcaddu18i	$ra, %call36(_ZNSolsEi)
	jirl	$ra, $ra, 0
.Ltmp481:
# %bb.404:                              # %_ZN9benchmark8internallsIiEERNS0_7LogTypeES3_RKT_.exit880
	ld.d	$a0, $s7, 0
	beqz	$a0, .LBB2_426
# %bb.405:
.Ltmp482:
	pcalau12i	$a1, %pc_hi20(.L.str.58)
	addi.d	$a1, $a1, %pc_lo12(.L.str.58)
	ori	$a2, $zero, 1
	pcaddu18i	$ra, %call36(_ZSt16__ostream_insertIcSt11char_traitsIcEERSt13basic_ostreamIT_T0_ES6_PKS3_l)
	jirl	$ra, $ra, 0
.Ltmp483:
# %bb.406:                              # %_ZN9benchmark8internallsIA2_cEERNS0_7LogTypeES4_RKT_.exit883
	ld.d	$a0, $s7, 0
	beqz	$a0, .LBB2_426
# %bb.407:
.Ltmp484:
	pcalau12i	$a1, %pc_hi20(.L.str.57)
	addi.d	$a1, $a1, %pc_lo12(.L.str.57)
	ori	$a2, $zero, 141
	pcaddu18i	$ra, %call36(_ZSt16__ostream_insertIcSt11char_traitsIcEERSt13basic_ostreamIT_T0_ES6_PKS3_l)
	jirl	$ra, $ra, 0
.Ltmp485:
# %bb.408:                              # %_ZN9benchmark8internallsIA142_cEERNS0_7LogTypeES4_RKT_.exit886
	ld.d	$a0, $s7, 0
	beqz	$a0, .LBB2_426
# %bb.409:
.Ltmp486:
	pcalau12i	$a1, %pc_hi20(.L.str.59)
	addi.d	$a1, $a1, %pc_lo12(.L.str.59)
	ori	$a2, $zero, 1
	pcaddu18i	$ra, %call36(_ZSt16__ostream_insertIcSt11char_traitsIcEERSt13basic_ostreamIT_T0_ES6_PKS3_l)
	jirl	$ra, $ra, 0
.Ltmp487:
# %bb.410:                              # %_ZN9benchmark8internallsIA2_cEERNS0_7LogTypeES4_RKT_.exit889
	ld.d	$a0, $s7, 0
	beqz	$a0, .LBB2_426
# %bb.411:
.Ltmp489:
	ori	$a1, $zero, 178
	pcaddu18i	$ra, %call36(_ZNSolsEi)
	jirl	$ra, $ra, 0
.Ltmp490:
# %bb.412:                              # %_ZN9benchmark8internallsIiEERNS0_7LogTypeES3_RKT_.exit892
	ld.d	$a0, $s7, 0
	beqz	$a0, .LBB2_426
# %bb.413:
.Ltmp491:
	pcalau12i	$a1, %pc_hi20(.L.str.60)
	addi.d	$a1, $a1, %pc_lo12(.L.str.60)
	ori	$a2, $zero, 2
	pcaddu18i	$ra, %call36(_ZSt16__ostream_insertIcSt11char_traitsIcEERSt13basic_ostreamIT_T0_ES6_PKS3_l)
	jirl	$ra, $ra, 0
.Ltmp492:
# %bb.414:                              # %_ZN9benchmark8internallsIA3_cEERNS0_7LogTypeES4_RKT_.exit895
	ld.d	$a0, $s7, 0
	beqz	$a0, .LBB2_426
# %bb.415:
.Ltmp493:
	pcalau12i	$a1, %pc_hi20(.L.str.67)
	addi.d	$a1, $a1, %pc_lo12(.L.str.67)
	ori	$a2, $zero, 18
	pcaddu18i	$ra, %call36(_ZSt16__ostream_insertIcSt11char_traitsIcEERSt13basic_ostreamIT_T0_ES6_PKS3_l)
	jirl	$ra, $ra, 0
.Ltmp494:
# %bb.416:                              # %_ZN9benchmark8internallsIA19_cEERNS0_7LogTypeES4_RKT_.exit898
	ld.d	$a0, $s7, 0
	beqz	$a0, .LBB2_426
# %bb.417:
.Ltmp496:
	fmov.d	$fa0, $fs1
	pcaddu18i	$ra, %call36(_ZNSo9_M_insertIdEERSoT_)
	jirl	$ra, $ra, 0
.Ltmp497:
# %bb.418:                              # %_ZN9benchmark8internallsIdEERNS0_7LogTypeES3_RKT_.exit901
	ld.d	$a0, $s7, 0
	beqz	$a0, .LBB2_426
# %bb.419:
.Ltmp498:
	pcalau12i	$a1, %pc_hi20(.L.str.68)
	addi.d	$a1, $a1, %pc_lo12(.L.str.68)
	ori	$a2, $zero, 2
	pcaddu18i	$ra, %call36(_ZSt16__ostream_insertIcSt11char_traitsIcEERSt13basic_ostreamIT_T0_ES6_PKS3_l)
	jirl	$ra, $ra, 0
.Ltmp499:
# %bb.420:                              # %_ZN9benchmark8internallsIA3_cEERNS0_7LogTypeES4_RKT_.exit904
	ld.d	$a0, $s7, 0
	beqz	$a0, .LBB2_426
# %bb.421:
.Ltmp501:
	pcalau12i	$a1, %pc_hi20(.LCPI2_2)
	fld.d	$fa0, $a1, %pc_lo12(.LCPI2_2)
	pcaddu18i	$ra, %call36(_ZNSo9_M_insertIdEERSoT_)
	jirl	$ra, $ra, 0
.Ltmp502:
# %bb.422:                              # %_ZN9benchmark8internallsIdEERNS0_7LogTypeES3_RKT_.exit907
	ld.d	$a0, $s7, 0
	beqz	$a0, .LBB2_426
# %bb.423:
.Ltmp503:
	pcalau12i	$a1, %pc_hi20(.L.str.69)
	addi.d	$a1, $a1, %pc_lo12(.L.str.69)
	ori	$a2, $zero, 4
	pcaddu18i	$ra, %call36(_ZSt16__ostream_insertIcSt11char_traitsIcEERSt13basic_ostreamIT_T0_ES6_PKS3_l)
	jirl	$ra, $ra, 0
.Ltmp504:
# %bb.424:                              # %_ZN9benchmark8internallsIA5_cEERNS0_7LogTypeES4_RKT_.exit910
	ld.d	$a0, $s7, 0
	beqz	$a0, .LBB2_426
# %bb.425:
.Ltmp505:
	pcalau12i	$a1, %pc_hi20(.L.str.70)
	addi.d	$a1, $a1, %pc_lo12(.L.str.70)
	ori	$a2, $zero, 14
	pcaddu18i	$ra, %call36(_ZSt16__ostream_insertIcSt11char_traitsIcEERSt13basic_ostreamIT_T0_ES6_PKS3_l)
	jirl	$ra, $ra, 0
.Ltmp506:
.LBB2_426:                              # %_ZN9benchmark8internallsIA15_cEERNS0_7LogTypeES4_RKT_.exit913
	st.d	$s2, $sp, 80
	ori	$a0, $zero, 18
	st.d	$a0, $sp, 48
.Ltmp508:
	addi.d	$a0, $sp, 80
	addi.d	$a1, $sp, 48
	move	$a2, $zero
	pcaddu18i	$ra, %call36(_ZNSt7__cxx1112basic_stringIcSt11char_traitsIcESaIcEE9_M_createERmm)
	jirl	$ra, $ra, 0
.Ltmp509:
# %bb.427:                              # %.noexc916
	ld.d	$a1, $sp, 48
	vld	$vr0, $s6, 0
	st.d	$a0, $sp, 80
	st.d	$a1, $sp, 96
	vst	$vr0, $a0, 0
	st.h	$s5, $a0, 16
	ld.d	$a0, $sp, 80
	st.d	$a1, $sp, 88
	stx.b	$zero, $a0, $a1
.Ltmp511:
	addi.d	$a1, $sp, 80
	move	$a0, $fp
	pcaddu18i	$ra, %call36(_ZNK7Results5GetAsIdEET_RKNSt7__cxx1112basic_stringIcSt11char_traitsIcESaIcEEE)
	jirl	$ra, $ra, 0
.Ltmp512:
# %bb.428:                              # %_ZNK7Results12GetCounterAsIdEET_RKNSt7__cxx1112basic_stringIcSt11char_traitsIcESaIcEEE.exit919
	ld.d	$a0, $s7, 0
	beqz	$a0, .LBB2_432
# %bb.429:
	fadd.d	$fa0, $fa0, $fs2
.Ltmp513:
	pcaddu18i	$ra, %call36(_ZNSo9_M_insertIdEERSoT_)
	jirl	$ra, $ra, 0
.Ltmp514:
# %bb.430:                              # %_ZN9benchmark8internallsIdEERNS0_7LogTypeES3_RKT_.exit922
	ld.d	$a0, $s7, 0
	beqz	$a0, .LBB2_432
# %bb.431:
.Ltmp515:
	pcalau12i	$a1, %pc_hi20(.L.str.68)
	addi.d	$a1, $a1, %pc_lo12(.L.str.68)
	ori	$a2, $zero, 2
	pcaddu18i	$ra, %call36(_ZSt16__ostream_insertIcSt11char_traitsIcEERSt13basic_ostreamIT_T0_ES6_PKS3_l)
	jirl	$ra, $ra, 0
.Ltmp516:
.LBB2_432:                              # %_ZN9benchmark8internallsIA3_cEERNS0_7LogTypeES4_RKT_.exit925
	st.d	$s3, $sp, 48
	ori	$a0, $zero, 18
	st.d	$a0, $sp, 184
.Ltmp518:
	addi.d	$a0, $sp, 48
	addi.d	$a1, $sp, 184
	move	$a2, $zero
	pcaddu18i	$ra, %call36(_ZNSt7__cxx1112basic_stringIcSt11char_traitsIcESaIcEE9_M_createERmm)
	jirl	$ra, $ra, 0
.Ltmp519:
# %bb.433:                              # %.noexc928
	ld.d	$a1, $sp, 184
	vld	$vr0, $s6, 0
	st.d	$a0, $sp, 48
	st.d	$a1, $sp, 64
	vst	$vr0, $a0, 0
	st.h	$s5, $a0, 16
	ld.d	$a0, $sp, 48
	st.d	$a1, $sp, 56
	stx.b	$zero, $a0, $a1
.Ltmp521:
	addi.d	$a1, $sp, 48
	move	$a0, $fp
	pcaddu18i	$ra, %call36(_ZNK7Results5GetAsIdEET_RKNSt7__cxx1112basic_stringIcSt11char_traitsIcESaIcEEE)
	jirl	$ra, $ra, 0
.Ltmp522:
# %bb.434:                              # %_ZNK7Results12GetCounterAsIdEET_RKNSt7__cxx1112basic_stringIcSt11char_traitsIcESaIcEEE.exit931
	ld.d	$a0, $s7, 0
	beqz	$a0, .LBB2_438
# %bb.435:
	fld.d	$fa1, $s4, %pc_lo12(.LCPI2_6)
	fadd.d	$fa0, $fa0, $fs2
	fmul.d	$fa0, $fa0, $fa1
	fmul.d	$fa0, $fa0, $fs0
.Ltmp523:
	pcaddu18i	$ra, %call36(_ZNSo9_M_insertIdEERSoT_)
	jirl	$ra, $ra, 0
.Ltmp524:
# %bb.436:                              # %_ZN9benchmark8internallsIdEERNS0_7LogTypeES3_RKT_.exit934
	ld.d	$a0, $s7, 0
	beqz	$a0, .LBB2_438
# %bb.437:
.Ltmp525:
	pcalau12i	$a1, %pc_hi20(.L.str.71)
	addi.d	$a1, $a1, %pc_lo12(.L.str.71)
	ori	$a2, $zero, 2
	pcaddu18i	$ra, %call36(_ZSt16__ostream_insertIcSt11char_traitsIcEERSt13basic_ostreamIT_T0_ES6_PKS3_l)
	jirl	$ra, $ra, 0
.Ltmp526:
.LBB2_438:                              # %_ZN9benchmark8internallsIA3_cEERNS0_7LogTypeES4_RKT_.exit937
	ld.d	$a0, $sp, 48
	beq	$a0, $s3, .LBB2_440
# %bb.439:                              # %_ZNKSt7__cxx1112basic_stringIcSt11char_traitsIcESaIcEE11_M_is_localEv.exit.i.i938
	ld.d	$a1, $sp, 64
	addi.d	$a1, $a1, 1
	pcaddu18i	$ra, %call36(_ZdlPvm)
	jirl	$ra, $ra, 0
.LBB2_440:                              # %_ZNSt7__cxx1112basic_stringIcSt11char_traitsIcESaIcEED2Ev.exit940
	ld.d	$a0, $sp, 80
	beq	$a0, $s2, .LBB2_442
# %bb.441:                              # %_ZNKSt7__cxx1112basic_stringIcSt11char_traitsIcESaIcEE11_M_is_localEv.exit.i.i941
	ld.d	$a1, $sp, 96
	addi.d	$a1, $a1, 1
	pcaddu18i	$ra, %call36(_ZdlPvm)
	jirl	$ra, $ra, 0
.LBB2_442:                              # %_ZNSt7__cxx1112basic_stringIcSt11char_traitsIcESaIcEED2Ev.exit943
	ld.d	$a0, $sp, 112
	beq	$a0, $s1, .LBB2_444
# %bb.443:                              # %_ZNKSt7__cxx1112basic_stringIcSt11char_traitsIcESaIcEE11_M_is_localEv.exit.i.i944
	ld.d	$a1, $sp, 128
	addi.d	$a1, $a1, 1
	pcaddu18i	$ra, %call36(_ZdlPvm)
	jirl	$ra, $ra, 0
.LBB2_444:                              # %_ZNSt7__cxx1112basic_stringIcSt11char_traitsIcESaIcEED2Ev.exit946
	fcmp.clt.d	$fcc0, $fs3, $fs1
	bceqz	$fcc0, .LBB2_456
# %bb.445:
	ld.d	$a0, $sp, 152
	beq	$a0, $s0, .LBB2_447
# %bb.446:                              # %_ZNKSt7__cxx1112basic_stringIcSt11char_traitsIcESaIcEE11_M_is_localEv.exit.i.i959
	ld.d	$a1, $sp, 168
	addi.d	$a1, $a1, 1
	pcaddu18i	$ra, %call36(_ZdlPvm)
	jirl	$ra, $ra, 0
.LBB2_447:                              # %_ZStneIcSt11char_traitsIcESaIcEEbRKNSt7__cxx1112basic_stringIT_T0_T1_EEPKS5_.exit.thread
	fld.d	$fs3, $sp, 192                  # 8-byte Folded Reload
	fld.d	$fs2, $sp, 200                  # 8-byte Folded Reload
	fld.d	$fs1, $sp, 208                  # 8-byte Folded Reload
	fld.d	$fs0, $sp, 216                  # 8-byte Folded Reload
	ld.d	$s7, $sp, 224                   # 8-byte Folded Reload
	ld.d	$s6, $sp, 232                   # 8-byte Folded Reload
	ld.d	$s5, $sp, 240                   # 8-byte Folded Reload
	ld.d	$s4, $sp, 248                   # 8-byte Folded Reload
	ld.d	$s3, $sp, 256                   # 8-byte Folded Reload
	ld.d	$s2, $sp, 264                   # 8-byte Folded Reload
	ld.d	$s1, $sp, 272                   # 8-byte Folded Reload
	ld.d	$s0, $sp, 280                   # 8-byte Folded Reload
	ld.d	$fp, $sp, 288                   # 8-byte Folded Reload
	ld.d	$ra, $sp, 296                   # 8-byte Folded Reload
	addi.d	$sp, $sp, 304
	ret
.LBB2_448:
.Ltmp543:
	addi.d	$a0, $sp, 144
	pcaddu18i	$ra, %call36(_ZN9benchmark8internal12CheckHandlerD2Ev)
	jirl	$ra, $ra, 0
.Ltmp544:
# %bb.449:
.LBB2_450:
.Ltmp540:
	addi.d	$a0, $sp, 40
	pcaddu18i	$ra, %call36(_ZN9benchmark8internal12CheckHandlerD2Ev)
	jirl	$ra, $ra, 0
.Ltmp541:
# %bb.451:
.LBB2_452:
.Ltmp537:
	addi.d	$a0, $sp, 32
	pcaddu18i	$ra, %call36(_ZN9benchmark8internal12CheckHandlerD2Ev)
	jirl	$ra, $ra, 0
.Ltmp538:
# %bb.453:
.LBB2_454:
.Ltmp534:
	addi.d	$a0, $sp, 24
	pcaddu18i	$ra, %call36(_ZN9benchmark8internal12CheckHandlerD2Ev)
	jirl	$ra, $ra, 0
.Ltmp535:
# %bb.455:
.LBB2_456:
.Ltmp531:
	addi.d	$a0, $sp, 16
	pcaddu18i	$ra, %call36(_ZN9benchmark8internal12CheckHandlerD2Ev)
	jirl	$ra, $ra, 0
.Ltmp532:
# %bb.457:
.LBB2_458:
	pcalau12i	$a0, %pc_hi20(_ZGVZN9benchmark8internal18GetNullLogInstanceEvE8null_log)
	addi.d	$a0, $a0, %pc_lo12(_ZGVZN9benchmark8internal18GetNullLogInstanceEvE8null_log)
	pcaddu18i	$ra, %call36(__cxa_guard_acquire)
	jirl	$ra, $ra, 0
	addi.w	$a0, $a0, 0
	beqz	$a0, .LBB2_8
# %bb.459:
	pcalau12i	$a0, %pc_hi20(_ZZN9benchmark8internal18GetNullLogInstanceEvE8null_log)
	addi.d	$s6, $a0, %pc_lo12(_ZZN9benchmark8internal18GetNullLogInstanceEvE8null_log)
	st.d	$zero, $s6, 0
	pcalau12i	$a0, %pc_hi20(_ZGVZN9benchmark8internal18GetNullLogInstanceEvE8null_log)
	addi.d	$a0, $a0, %pc_lo12(_ZGVZN9benchmark8internal18GetNullLogInstanceEvE8null_log)
	pcaddu18i	$ra, %call36(__cxa_guard_release)
	jirl	$ra, $ra, 0
	b	.LBB2_8
.LBB2_460:
	pcalau12i	$a0, %pc_hi20(_ZGVZN9benchmark8internal18GetNullLogInstanceEvE8null_log)
	addi.d	$a0, $a0, %pc_lo12(_ZGVZN9benchmark8internal18GetNullLogInstanceEvE8null_log)
	pcaddu18i	$ra, %call36(__cxa_guard_acquire)
	jirl	$ra, $ra, 0
	addi.w	$a0, $a0, 0
	beqz	$a0, .LBB2_97
# %bb.461:
	pcalau12i	$a0, %pc_hi20(_ZZN9benchmark8internal18GetNullLogInstanceEvE8null_log)
	addi.d	$s7, $a0, %pc_lo12(_ZZN9benchmark8internal18GetNullLogInstanceEvE8null_log)
	st.d	$zero, $s7, 0
	pcalau12i	$a0, %pc_hi20(_ZGVZN9benchmark8internal18GetNullLogInstanceEvE8null_log)
	addi.d	$a0, $a0, %pc_lo12(_ZGVZN9benchmark8internal18GetNullLogInstanceEvE8null_log)
	pcaddu18i	$ra, %call36(__cxa_guard_release)
	jirl	$ra, $ra, 0
	b	.LBB2_97
.LBB2_462:
	pcalau12i	$a0, %pc_hi20(_ZGVZN9benchmark8internal18GetNullLogInstanceEvE8null_log)
	addi.d	$a0, $a0, %pc_lo12(_ZGVZN9benchmark8internal18GetNullLogInstanceEvE8null_log)
	pcaddu18i	$ra, %call36(__cxa_guard_acquire)
	jirl	$ra, $ra, 0
	addi.w	$a0, $a0, 0
	beqz	$a0, .LBB2_186
# %bb.463:
	pcalau12i	$a0, %pc_hi20(_ZZN9benchmark8internal18GetNullLogInstanceEvE8null_log)
	addi.d	$s7, $a0, %pc_lo12(_ZZN9benchmark8internal18GetNullLogInstanceEvE8null_log)
	st.d	$zero, $s7, 0
	pcalau12i	$a0, %pc_hi20(_ZGVZN9benchmark8internal18GetNullLogInstanceEvE8null_log)
	addi.d	$a0, $a0, %pc_lo12(_ZGVZN9benchmark8internal18GetNullLogInstanceEvE8null_log)
	pcaddu18i	$ra, %call36(__cxa_guard_release)
	jirl	$ra, $ra, 0
	b	.LBB2_186
.LBB2_464:
	pcalau12i	$a0, %pc_hi20(_ZGVZN9benchmark8internal18GetNullLogInstanceEvE8null_log)
	addi.d	$a0, $a0, %pc_lo12(_ZGVZN9benchmark8internal18GetNullLogInstanceEvE8null_log)
	pcaddu18i	$ra, %call36(__cxa_guard_acquire)
	jirl	$ra, $ra, 0
	addi.w	$a0, $a0, 0
	beqz	$a0, .LBB2_275
# %bb.465:
	pcalau12i	$a0, %pc_hi20(_ZZN9benchmark8internal18GetNullLogInstanceEvE8null_log)
	addi.d	$s6, $a0, %pc_lo12(_ZZN9benchmark8internal18GetNullLogInstanceEvE8null_log)
	st.d	$zero, $s6, 0
	pcalau12i	$a0, %pc_hi20(_ZGVZN9benchmark8internal18GetNullLogInstanceEvE8null_log)
	addi.d	$a0, $a0, %pc_lo12(_ZGVZN9benchmark8internal18GetNullLogInstanceEvE8null_log)
	pcaddu18i	$ra, %call36(__cxa_guard_release)
	jirl	$ra, $ra, 0
	b	.LBB2_275
.LBB2_466:
	pcalau12i	$a0, %pc_hi20(_ZGVZN9benchmark8internal18GetNullLogInstanceEvE8null_log)
	addi.d	$a0, $a0, %pc_lo12(_ZGVZN9benchmark8internal18GetNullLogInstanceEvE8null_log)
	pcaddu18i	$ra, %call36(__cxa_guard_acquire)
	jirl	$ra, $ra, 0
	addi.w	$a0, $a0, 0
	beqz	$a0, .LBB2_364
# %bb.467:
	pcalau12i	$a0, %pc_hi20(_ZZN9benchmark8internal18GetNullLogInstanceEvE8null_log)
	addi.d	$s7, $a0, %pc_lo12(_ZZN9benchmark8internal18GetNullLogInstanceEvE8null_log)
	st.d	$zero, $s7, 0
	pcalau12i	$a0, %pc_hi20(_ZGVZN9benchmark8internal18GetNullLogInstanceEvE8null_log)
	addi.d	$a0, $a0, %pc_lo12(_ZGVZN9benchmark8internal18GetNullLogInstanceEvE8null_log)
	pcaddu18i	$ra, %call36(__cxa_guard_release)
	jirl	$ra, $ra, 0
	b	.LBB2_364
.LBB2_468:
.Ltmp507:
	move	$fp, $a0
	ld.d	$a0, $sp, 112
	beq	$a0, $s1, .LBB2_542
	b	.LBB2_550
.LBB2_469:
.Ltmp406:
	move	$fp, $a0
	ld.d	$a0, $sp, 112
	beq	$a0, $s1, .LBB2_554
	b	.LBB2_558
.LBB2_470:
.Ltmp305:
	move	$fp, $a0
	ld.d	$a0, $sp, 112
	beq	$a0, $s1, .LBB2_563
	b	.LBB2_567
.LBB2_471:
.Ltmp204:
	move	$fp, $a0
	ld.d	$a0, $sp, 112
	beq	$a0, $s1, .LBB2_572
	b	.LBB2_576
.LBB2_472:
.Ltmp103:
	move	$fp, $a0
	ld.d	$a0, $sp, 112
	bne	$a0, $s1, .LBB2_581
	b	.LBB2_582
.LBB2_473:
.Ltmp500:
	move	$fp, $a0
	ld.d	$a0, $sp, 112
	beq	$a0, $s1, .LBB2_542
	b	.LBB2_550
.LBB2_474:
.Ltmp399:
	move	$fp, $a0
	ld.d	$a0, $sp, 112
	beq	$a0, $s1, .LBB2_554
	b	.LBB2_558
.LBB2_475:
.Ltmp298:
	move	$fp, $a0
	ld.d	$a0, $sp, 112
	beq	$a0, $s1, .LBB2_563
	b	.LBB2_567
.LBB2_476:
.Ltmp197:
	move	$fp, $a0
	ld.d	$a0, $sp, 112
	beq	$a0, $s1, .LBB2_572
	b	.LBB2_576
.LBB2_477:
.Ltmp96:
	move	$fp, $a0
	ld.d	$a0, $sp, 112
	bne	$a0, $s1, .LBB2_581
	b	.LBB2_582
.LBB2_478:
.Ltmp469:
	b	.LBB2_524
.LBB2_479:
.Ltmp368:
	b	.LBB2_526
.LBB2_480:
.Ltmp267:
	b	.LBB2_528
.LBB2_481:
.Ltmp166:
	b	.LBB2_530
.LBB2_482:
.Ltmp65:
	b	.LBB2_532
.LBB2_483:
.Ltmp495:
	move	$fp, $a0
	ld.d	$a0, $sp, 112
	beq	$a0, $s1, .LBB2_542
	b	.LBB2_550
.LBB2_484:
.Ltmp394:
	move	$fp, $a0
	ld.d	$a0, $sp, 112
	beq	$a0, $s1, .LBB2_554
	b	.LBB2_558
.LBB2_485:
.Ltmp293:
	move	$fp, $a0
	ld.d	$a0, $sp, 112
	beq	$a0, $s1, .LBB2_563
	b	.LBB2_567
.LBB2_486:
.Ltmp192:
	move	$fp, $a0
	ld.d	$a0, $sp, 112
	beq	$a0, $s1, .LBB2_572
	b	.LBB2_576
.LBB2_487:
.Ltmp91:
	move	$fp, $a0
	ld.d	$a0, $sp, 112
	bne	$a0, $s1, .LBB2_581
	b	.LBB2_582
.LBB2_488:
.Ltmp454:
	b	.LBB2_524
.LBB2_489:
.Ltmp353:
	b	.LBB2_526
.LBB2_490:
.Ltmp252:
	b	.LBB2_528
.LBB2_491:
.Ltmp151:
	b	.LBB2_530
.LBB2_492:
.Ltmp50:
	b	.LBB2_532
.LBB2_493:
.Ltmp488:
	move	$fp, $a0
	ld.d	$a0, $sp, 112
	beq	$a0, $s1, .LBB2_542
	b	.LBB2_550
.LBB2_494:
.Ltmp387:
	move	$fp, $a0
	ld.d	$a0, $sp, 112
	beq	$a0, $s1, .LBB2_554
	b	.LBB2_558
.LBB2_495:
.Ltmp286:
	move	$fp, $a0
	ld.d	$a0, $sp, 112
	beq	$a0, $s1, .LBB2_563
	b	.LBB2_567
.LBB2_496:
.Ltmp185:
	move	$fp, $a0
	ld.d	$a0, $sp, 112
	beq	$a0, $s1, .LBB2_572
	b	.LBB2_576
.LBB2_497:
.Ltmp84:
	move	$fp, $a0
	ld.d	$a0, $sp, 112
	bne	$a0, $s1, .LBB2_581
	b	.LBB2_582
.LBB2_498:
.Ltmp520:
	move	$fp, $a0
	ld.d	$a0, $sp, 80
	beq	$a0, $s2, .LBB2_541
	b	.LBB2_548
.LBB2_499:
.Ltmp510:
	move	$fp, $a0
	ld.d	$a0, $sp, 112
	beq	$a0, $s1, .LBB2_542
	b	.LBB2_550
.LBB2_500:
.Ltmp472:
	b	.LBB2_524
.LBB2_501:
.Ltmp432:
	b	.LBB2_538
.LBB2_502:
.Ltmp429:
	pcaddu18i	$ra, %call36(_Unwind_Resume)
	jirl	$ra, $ra, 0
.LBB2_503:
.Ltmp419:
	move	$fp, $a0
	ld.d	$a0, $sp, 80
	beq	$a0, $s2, .LBB2_553
	b	.LBB2_557
.LBB2_504:
.Ltmp409:
	move	$fp, $a0
	ld.d	$a0, $sp, 112
	beq	$a0, $s1, .LBB2_554
	b	.LBB2_558
.LBB2_505:
.Ltmp371:
	b	.LBB2_526
.LBB2_506:
.Ltmp331:
	b	.LBB2_538
.LBB2_507:
.Ltmp328:
	pcaddu18i	$ra, %call36(_Unwind_Resume)
	jirl	$ra, $ra, 0
.LBB2_508:
.Ltmp318:
	move	$fp, $a0
	ld.d	$a0, $sp, 80
	beq	$a0, $s2, .LBB2_562
	b	.LBB2_566
.LBB2_509:
.Ltmp308:
	move	$fp, $a0
	ld.d	$a0, $sp, 112
	beq	$a0, $s1, .LBB2_563
	b	.LBB2_567
.LBB2_510:
.Ltmp270:
	b	.LBB2_528
.LBB2_511:
.Ltmp230:
	b	.LBB2_538
.LBB2_512:
.Ltmp227:
	pcaddu18i	$ra, %call36(_Unwind_Resume)
	jirl	$ra, $ra, 0
.LBB2_513:
.Ltmp217:
	move	$fp, $a0
	ld.d	$a0, $sp, 80
	beq	$a0, $s2, .LBB2_571
	b	.LBB2_575
.LBB2_514:
.Ltmp207:
	move	$fp, $a0
	ld.d	$a0, $sp, 112
	beq	$a0, $s1, .LBB2_572
	b	.LBB2_576
.LBB2_515:
.Ltmp169:
	b	.LBB2_530
.LBB2_516:
.Ltmp129:
	b	.LBB2_538
.LBB2_517:
.Ltmp126:
	pcaddu18i	$ra, %call36(_Unwind_Resume)
	jirl	$ra, $ra, 0
.LBB2_518:
.Ltmp116:
	move	$fp, $a0
	ld.d	$a0, $sp, 80
	beq	$a0, $s2, .LBB2_580
	b	.LBB2_588
.LBB2_519:
.Ltmp106:
	move	$fp, $a0
	ld.d	$a0, $sp, 112
	bne	$a0, $s1, .LBB2_581
	b	.LBB2_582
.LBB2_520:
.Ltmp68:
	b	.LBB2_532
.LBB2_521:
.Ltmp28:
	b	.LBB2_538
.LBB2_522:
.Ltmp25:
	pcaddu18i	$ra, %call36(_Unwind_Resume)
	jirl	$ra, $ra, 0
.LBB2_523:
.Ltmp441:
.LBB2_524:
	move	$fp, $a0
	fcmp.clt.d	$fcc0, $fs3, $fs1
	addi.d	$a0, $sp, 16
	bcnez	$fcc0, .LBB2_543
	b	.LBB2_584
.LBB2_525:
.Ltmp340:
.LBB2_526:
	move	$fp, $a0
	b	.LBB2_554
.LBB2_527:
.Ltmp239:
.LBB2_528:
	move	$fp, $a0
	b	.LBB2_563
.LBB2_529:
.Ltmp138:
.LBB2_530:
	move	$fp, $a0
	b	.LBB2_572
.LBB2_531:
.Ltmp37:
.LBB2_532:
	move	$fp, $a0
	b	.LBB2_582
.LBB2_533:
.Ltmp533:
	b	.LBB2_538
.LBB2_534:
.Ltmp536:
	b	.LBB2_538
.LBB2_535:
.Ltmp539:
	b	.LBB2_538
.LBB2_536:
.Ltmp542:
	b	.LBB2_538
.LBB2_537:
.Ltmp545:
.LBB2_538:
	move	$fp, $a0
	b	.LBB2_543
.LBB2_539:
.Ltmp527:
	ld.d	$a2, $sp, 48
	move	$fp, $a0
	bne	$a2, $s3, .LBB2_546
# %bb.540:
	ld.d	$a0, $sp, 80
	bne	$a0, $s2, .LBB2_548
.LBB2_541:
	ld.d	$a0, $sp, 112
	bne	$a0, $s1, .LBB2_550
.LBB2_542:
	fcmp.clt.d	$fcc0, $fs3, $fs1
	addi.d	$a0, $sp, 16
	bceqz	$fcc0, .LBB2_584
.LBB2_543:
	ld.d	$a0, $sp, 152
	beq	$a0, $s0, .LBB2_545
# %bb.544:                              # %_ZNKSt7__cxx1112basic_stringIcSt11char_traitsIcESaIcEE11_M_is_localEv.exit.i.i962
	ld.d	$a1, $sp, 168
	addi.d	$a1, $a1, 1
	pcaddu18i	$ra, %call36(_ZdlPvm)
	jirl	$ra, $ra, 0
.LBB2_545:
	move	$a0, $fp
	pcaddu18i	$ra, %call36(_Unwind_Resume)
	jirl	$ra, $ra, 0
.LBB2_546:                              # %_ZNKSt7__cxx1112basic_stringIcSt11char_traitsIcESaIcEE11_M_is_localEv.exit.i.i950
	ld.d	$a0, $sp, 64
	addi.d	$a1, $a0, 1
	move	$a0, $a2
	pcaddu18i	$ra, %call36(_ZdlPvm)
	jirl	$ra, $ra, 0
	ld.d	$a0, $sp, 80
	beq	$a0, $s2, .LBB2_541
	b	.LBB2_548
.LBB2_547:
.Ltmp517:
	move	$fp, $a0
	ld.d	$a0, $sp, 80
	beq	$a0, $s2, .LBB2_541
.LBB2_548:                              # %_ZNKSt7__cxx1112basic_stringIcSt11char_traitsIcESaIcEE11_M_is_localEv.exit.i.i953
	ld.d	$a1, $sp, 96
	addi.d	$a1, $a1, 1
	pcaddu18i	$ra, %call36(_ZdlPvm)
	jirl	$ra, $ra, 0
	ld.d	$a0, $sp, 112
	beq	$a0, $s1, .LBB2_542
	b	.LBB2_550
.LBB2_549:
.Ltmp479:
	move	$fp, $a0
	ld.d	$a0, $sp, 112
	beq	$a0, $s1, .LBB2_542
.LBB2_550:                              # %_ZNKSt7__cxx1112basic_stringIcSt11char_traitsIcESaIcEE11_M_is_localEv.exit.i.i956
	ld.d	$a1, $sp, 128
	addi.d	$a1, $a1, 1
	pcaddu18i	$ra, %call36(_ZdlPvm)
	jirl	$ra, $ra, 0
	fcmp.clt.d	$fcc0, $fs3, $fs1
	addi.d	$a0, $sp, 16
	bcnez	$fcc0, .LBB2_543
	b	.LBB2_584
.LBB2_551:
.Ltmp426:
	ld.d	$a2, $sp, 48
	move	$fp, $a0
	bne	$a2, $s3, .LBB2_555
# %bb.552:
	ld.d	$a0, $sp, 80
	bne	$a0, $s2, .LBB2_557
.LBB2_553:
	ld.d	$a0, $sp, 112
	bne	$a0, $s1, .LBB2_558
.LBB2_554:
	addi.d	$a0, $sp, 24
	b	.LBB2_583
.LBB2_555:                              # %_ZNKSt7__cxx1112basic_stringIcSt11char_traitsIcESaIcEE11_M_is_localEv.exit.i.i798
	ld.d	$a0, $sp, 64
	addi.d	$a1, $a0, 1
	move	$a0, $a2
	pcaddu18i	$ra, %call36(_ZdlPvm)
	jirl	$ra, $ra, 0
	ld.d	$a0, $sp, 80
	beq	$a0, $s2, .LBB2_553
	b	.LBB2_557
.LBB2_556:
.Ltmp416:
	move	$fp, $a0
	ld.d	$a0, $sp, 80
	beq	$a0, $s2, .LBB2_553
.LBB2_557:                              # %_ZNKSt7__cxx1112basic_stringIcSt11char_traitsIcESaIcEE11_M_is_localEv.exit.i.i801
	ld.d	$a1, $sp, 96
	addi.d	$a1, $a1, 1
	pcaddu18i	$ra, %call36(_ZdlPvm)
	jirl	$ra, $ra, 0
	ld.d	$a0, $sp, 112
	beq	$a0, $s1, .LBB2_554
.LBB2_558:                              # %_ZNKSt7__cxx1112basic_stringIcSt11char_traitsIcESaIcEE11_M_is_localEv.exit.i.i804
	ld.d	$a1, $sp, 128
	addi.d	$a1, $a1, 1
	pcaddu18i	$ra, %call36(_ZdlPvm)
	jirl	$ra, $ra, 0
	addi.d	$a0, $sp, 24
	b	.LBB2_583
.LBB2_559:
.Ltmp378:
	move	$fp, $a0
	ld.d	$a0, $sp, 112
	beq	$a0, $s1, .LBB2_554
	b	.LBB2_558
.LBB2_560:
.Ltmp325:
	ld.d	$a2, $sp, 48
	move	$fp, $a0
	bne	$a2, $s3, .LBB2_564
# %bb.561:
	ld.d	$a0, $sp, 80
	bne	$a0, $s2, .LBB2_566
.LBB2_562:
	ld.d	$a0, $sp, 112
	bne	$a0, $s1, .LBB2_567
.LBB2_563:
	addi.d	$a0, $sp, 32
	b	.LBB2_583
.LBB2_564:                              # %_ZNKSt7__cxx1112basic_stringIcSt11char_traitsIcESaIcEE11_M_is_localEv.exit.i.i646
	ld.d	$a0, $sp, 64
	addi.d	$a1, $a0, 1
	move	$a0, $a2
	pcaddu18i	$ra, %call36(_ZdlPvm)
	jirl	$ra, $ra, 0
	ld.d	$a0, $sp, 80
	beq	$a0, $s2, .LBB2_562
	b	.LBB2_566
.LBB2_565:
.Ltmp315:
	move	$fp, $a0
	ld.d	$a0, $sp, 80
	beq	$a0, $s2, .LBB2_562
.LBB2_566:                              # %_ZNKSt7__cxx1112basic_stringIcSt11char_traitsIcESaIcEE11_M_is_localEv.exit.i.i649
	ld.d	$a1, $sp, 96
	addi.d	$a1, $a1, 1
	pcaddu18i	$ra, %call36(_ZdlPvm)
	jirl	$ra, $ra, 0
	ld.d	$a0, $sp, 112
	beq	$a0, $s1, .LBB2_563
.LBB2_567:                              # %_ZNKSt7__cxx1112basic_stringIcSt11char_traitsIcESaIcEE11_M_is_localEv.exit.i.i652
	ld.d	$a1, $sp, 128
	addi.d	$a1, $a1, 1
	pcaddu18i	$ra, %call36(_ZdlPvm)
	jirl	$ra, $ra, 0
	addi.d	$a0, $sp, 32
	b	.LBB2_583
.LBB2_568:
.Ltmp277:
	move	$fp, $a0
	ld.d	$a0, $sp, 112
	beq	$a0, $s1, .LBB2_563
	b	.LBB2_567
.LBB2_569:
.Ltmp224:
	ld.d	$a2, $sp, 48
	move	$fp, $a0
	bne	$a2, $s3, .LBB2_573
# %bb.570:
	ld.d	$a0, $sp, 80
	bne	$a0, $s2, .LBB2_575
.LBB2_571:
	ld.d	$a0, $sp, 112
	bne	$a0, $s1, .LBB2_576
.LBB2_572:
	addi.d	$a0, $sp, 40
	b	.LBB2_583
.LBB2_573:                              # %_ZNKSt7__cxx1112basic_stringIcSt11char_traitsIcESaIcEE11_M_is_localEv.exit.i.i494
	ld.d	$a0, $sp, 64
	addi.d	$a1, $a0, 1
	move	$a0, $a2
	pcaddu18i	$ra, %call36(_ZdlPvm)
	jirl	$ra, $ra, 0
	ld.d	$a0, $sp, 80
	beq	$a0, $s2, .LBB2_571
	b	.LBB2_575
.LBB2_574:
.Ltmp214:
	move	$fp, $a0
	ld.d	$a0, $sp, 80
	beq	$a0, $s2, .LBB2_571
.LBB2_575:                              # %_ZNKSt7__cxx1112basic_stringIcSt11char_traitsIcESaIcEE11_M_is_localEv.exit.i.i497
	ld.d	$a1, $sp, 96
	addi.d	$a1, $a1, 1
	pcaddu18i	$ra, %call36(_ZdlPvm)
	jirl	$ra, $ra, 0
	ld.d	$a0, $sp, 112
	beq	$a0, $s1, .LBB2_572
.LBB2_576:                              # %_ZNKSt7__cxx1112basic_stringIcSt11char_traitsIcESaIcEE11_M_is_localEv.exit.i.i500
	ld.d	$a1, $sp, 128
	addi.d	$a1, $a1, 1
	pcaddu18i	$ra, %call36(_ZdlPvm)
	jirl	$ra, $ra, 0
	addi.d	$a0, $sp, 40
	b	.LBB2_583
.LBB2_577:
.Ltmp176:
	move	$fp, $a0
	ld.d	$a0, $sp, 112
	beq	$a0, $s1, .LBB2_572
	b	.LBB2_576
.LBB2_578:
.Ltmp123:
	ld.d	$a2, $sp, 48
	move	$fp, $a0
	bne	$a2, $s3, .LBB2_586
# %bb.579:
	ld.d	$a0, $sp, 80
	bne	$a0, $s2, .LBB2_588
.LBB2_580:
	ld.d	$a0, $sp, 112
	beq	$a0, $s1, .LBB2_582
.LBB2_581:                              # %_ZNKSt7__cxx1112basic_stringIcSt11char_traitsIcESaIcEE11_M_is_localEv.exit.i.i348
	ld.d	$a1, $sp, 128
	addi.d	$a1, $a1, 1
	pcaddu18i	$ra, %call36(_ZdlPvm)
	jirl	$ra, $ra, 0
.LBB2_582:
	addi.d	$a0, $sp, 144
.LBB2_583:
	ld.d	$a1, $sp, 8
	movgr2cf	$fcc0, $a1
	bceqz	$fcc0, .LBB2_543
.LBB2_584:                              # %.invoke
.Ltmp528:
	pcaddu18i	$ra, %call36(_ZN9benchmark8internal12CheckHandlerD2Ev)
	jirl	$ra, $ra, 0
.Ltmp529:
# %bb.585:                              # %.cont
.LBB2_586:                              # %_ZNKSt7__cxx1112basic_stringIcSt11char_traitsIcESaIcEE11_M_is_localEv.exit.i.i342
	ld.d	$a0, $sp, 64
	addi.d	$a1, $a0, 1
	move	$a0, $a2
	pcaddu18i	$ra, %call36(_ZdlPvm)
	jirl	$ra, $ra, 0
	ld.d	$a0, $sp, 80
	beq	$a0, $s2, .LBB2_580
	b	.LBB2_588
.LBB2_587:
.Ltmp113:
	move	$fp, $a0
	ld.d	$a0, $sp, 80
	beq	$a0, $s2, .LBB2_580
.LBB2_588:                              # %_ZNKSt7__cxx1112basic_stringIcSt11char_traitsIcESaIcEE11_M_is_localEv.exit.i.i345
	ld.d	$a1, $sp, 96
	addi.d	$a1, $a1, 1
	pcaddu18i	$ra, %call36(_ZdlPvm)
	jirl	$ra, $ra, 0
	ld.d	$a0, $sp, 112
	bne	$a0, $s1, .LBB2_581
	b	.LBB2_582
.LBB2_589:
.Ltmp75:
	move	$fp, $a0
	ld.d	$a0, $sp, 112
	bne	$a0, $s1, .LBB2_581
	b	.LBB2_582
.LBB2_590:
.Ltmp530:
	pcaddu18i	$ra, %call36(__clang_call_terminate)
	jirl	$ra, $ra, 0
.Lfunc_end2:
	.size	_Z14CheckThousandsRK7Results, .Lfunc_end2-_Z14CheckThousandsRK7Results
	.cfi_endproc
	.section	.gcc_except_table,"a",@progbits
	.p2align	2, 0x0
GCC_except_table2:
.Lexception1:
	.byte	255                             # @LPStart Encoding = omit
	.byte	155                             # @TType Encoding = indirect pcrel sdata4
	.uleb128 .Lttbase0-.Lttbaseref0
.Lttbaseref0:
	.byte	1                               # Call site Encoding = uleb128
	.uleb128 .Lcst_end1-.Lcst_begin1
.Lcst_begin1:
	.uleb128 .Lfunc_begin1-.Lfunc_begin1    # >> Call Site 1 <<
	.uleb128 .Ltmp23-.Lfunc_begin1          #   Call between .Lfunc_begin1 and .Ltmp23
	.byte	0                               #     has no landing pad
	.byte	0                               #   On action: cleanup
	.uleb128 .Ltmp23-.Lfunc_begin1          # >> Call Site 2 <<
	.uleb128 .Ltmp24-.Ltmp23                #   Call between .Ltmp23 and .Ltmp24
	.uleb128 .Ltmp25-.Lfunc_begin1          #     jumps to .Ltmp25
	.byte	0                               #   On action: cleanup
	.uleb128 .Ltmp26-.Lfunc_begin1          # >> Call Site 3 <<
	.uleb128 .Ltmp27-.Ltmp26                #   Call between .Ltmp26 and .Ltmp27
	.uleb128 .Ltmp28-.Lfunc_begin1          #     jumps to .Ltmp28
	.byte	0                               #   On action: cleanup
	.uleb128 .Ltmp29-.Lfunc_begin1          # >> Call Site 4 <<
	.uleb128 .Ltmp30-.Ltmp29                #   Call between .Ltmp29 and .Ltmp30
	.uleb128 .Ltmp545-.Lfunc_begin1         #     jumps to .Ltmp545
	.byte	0                               #   On action: cleanup
	.uleb128 .Ltmp31-.Lfunc_begin1          # >> Call Site 5 <<
	.uleb128 .Ltmp36-.Ltmp31                #   Call between .Ltmp31 and .Ltmp36
	.uleb128 .Ltmp37-.Lfunc_begin1          #     jumps to .Ltmp37
	.byte	0                               #   On action: cleanup
	.uleb128 .Ltmp38-.Lfunc_begin1          # >> Call Site 6 <<
	.uleb128 .Ltmp49-.Ltmp38                #   Call between .Ltmp38 and .Ltmp49
	.uleb128 .Ltmp50-.Lfunc_begin1          #     jumps to .Ltmp50
	.byte	0                               #   On action: cleanup
	.uleb128 .Ltmp51-.Lfunc_begin1          # >> Call Site 7 <<
	.uleb128 .Ltmp64-.Ltmp51                #   Call between .Ltmp51 and .Ltmp64
	.uleb128 .Ltmp65-.Lfunc_begin1          #     jumps to .Ltmp65
	.byte	0                               #   On action: cleanup
	.uleb128 .Ltmp66-.Lfunc_begin1          # >> Call Site 8 <<
	.uleb128 .Ltmp67-.Ltmp66                #   Call between .Ltmp66 and .Ltmp67
	.uleb128 .Ltmp68-.Lfunc_begin1          #     jumps to .Ltmp68
	.byte	0                               #   On action: cleanup
	.uleb128 .Ltmp69-.Lfunc_begin1          # >> Call Site 9 <<
	.uleb128 .Ltmp74-.Ltmp69                #   Call between .Ltmp69 and .Ltmp74
	.uleb128 .Ltmp75-.Lfunc_begin1          #     jumps to .Ltmp75
	.byte	0                               #   On action: cleanup
	.uleb128 .Ltmp76-.Lfunc_begin1          # >> Call Site 10 <<
	.uleb128 .Ltmp83-.Ltmp76                #   Call between .Ltmp76 and .Ltmp83
	.uleb128 .Ltmp84-.Lfunc_begin1          #     jumps to .Ltmp84
	.byte	0                               #   On action: cleanup
	.uleb128 .Ltmp85-.Lfunc_begin1          # >> Call Site 11 <<
	.uleb128 .Ltmp90-.Ltmp85                #   Call between .Ltmp85 and .Ltmp90
	.uleb128 .Ltmp91-.Lfunc_begin1          #     jumps to .Ltmp91
	.byte	0                               #   On action: cleanup
	.uleb128 .Ltmp92-.Lfunc_begin1          # >> Call Site 12 <<
	.uleb128 .Ltmp95-.Ltmp92                #   Call between .Ltmp92 and .Ltmp95
	.uleb128 .Ltmp96-.Lfunc_begin1          #     jumps to .Ltmp96
	.byte	0                               #   On action: cleanup
	.uleb128 .Ltmp97-.Lfunc_begin1          # >> Call Site 13 <<
	.uleb128 .Ltmp102-.Ltmp97               #   Call between .Ltmp97 and .Ltmp102
	.uleb128 .Ltmp103-.Lfunc_begin1         #     jumps to .Ltmp103
	.byte	0                               #   On action: cleanup
	.uleb128 .Ltmp104-.Lfunc_begin1         # >> Call Site 14 <<
	.uleb128 .Ltmp105-.Ltmp104              #   Call between .Ltmp104 and .Ltmp105
	.uleb128 .Ltmp106-.Lfunc_begin1         #     jumps to .Ltmp106
	.byte	0                               #   On action: cleanup
	.uleb128 .Ltmp107-.Lfunc_begin1         # >> Call Site 15 <<
	.uleb128 .Ltmp112-.Ltmp107              #   Call between .Ltmp107 and .Ltmp112
	.uleb128 .Ltmp113-.Lfunc_begin1         #     jumps to .Ltmp113
	.byte	0                               #   On action: cleanup
	.uleb128 .Ltmp114-.Lfunc_begin1         # >> Call Site 16 <<
	.uleb128 .Ltmp115-.Ltmp114              #   Call between .Ltmp114 and .Ltmp115
	.uleb128 .Ltmp116-.Lfunc_begin1         #     jumps to .Ltmp116
	.byte	0                               #   On action: cleanup
	.uleb128 .Ltmp117-.Lfunc_begin1         # >> Call Site 17 <<
	.uleb128 .Ltmp122-.Ltmp117              #   Call between .Ltmp117 and .Ltmp122
	.uleb128 .Ltmp123-.Lfunc_begin1         #     jumps to .Ltmp123
	.byte	0                               #   On action: cleanup
	.uleb128 .Ltmp122-.Lfunc_begin1         # >> Call Site 18 <<
	.uleb128 .Ltmp124-.Ltmp122              #   Call between .Ltmp122 and .Ltmp124
	.byte	0                               #     has no landing pad
	.byte	0                               #   On action: cleanup
	.uleb128 .Ltmp124-.Lfunc_begin1         # >> Call Site 19 <<
	.uleb128 .Ltmp125-.Ltmp124              #   Call between .Ltmp124 and .Ltmp125
	.uleb128 .Ltmp126-.Lfunc_begin1         #     jumps to .Ltmp126
	.byte	0                               #   On action: cleanup
	.uleb128 .Ltmp127-.Lfunc_begin1         # >> Call Site 20 <<
	.uleb128 .Ltmp128-.Ltmp127              #   Call between .Ltmp127 and .Ltmp128
	.uleb128 .Ltmp129-.Lfunc_begin1         #     jumps to .Ltmp129
	.byte	0                               #   On action: cleanup
	.uleb128 .Ltmp130-.Lfunc_begin1         # >> Call Site 21 <<
	.uleb128 .Ltmp131-.Ltmp130              #   Call between .Ltmp130 and .Ltmp131
	.uleb128 .Ltmp542-.Lfunc_begin1         #     jumps to .Ltmp542
	.byte	0                               #   On action: cleanup
	.uleb128 .Ltmp132-.Lfunc_begin1         # >> Call Site 22 <<
	.uleb128 .Ltmp137-.Ltmp132              #   Call between .Ltmp132 and .Ltmp137
	.uleb128 .Ltmp138-.Lfunc_begin1         #     jumps to .Ltmp138
	.byte	0                               #   On action: cleanup
	.uleb128 .Ltmp139-.Lfunc_begin1         # >> Call Site 23 <<
	.uleb128 .Ltmp150-.Ltmp139              #   Call between .Ltmp139 and .Ltmp150
	.uleb128 .Ltmp151-.Lfunc_begin1         #     jumps to .Ltmp151
	.byte	0                               #   On action: cleanup
	.uleb128 .Ltmp152-.Lfunc_begin1         # >> Call Site 24 <<
	.uleb128 .Ltmp165-.Ltmp152              #   Call between .Ltmp152 and .Ltmp165
	.uleb128 .Ltmp166-.Lfunc_begin1         #     jumps to .Ltmp166
	.byte	0                               #   On action: cleanup
	.uleb128 .Ltmp167-.Lfunc_begin1         # >> Call Site 25 <<
	.uleb128 .Ltmp168-.Ltmp167              #   Call between .Ltmp167 and .Ltmp168
	.uleb128 .Ltmp169-.Lfunc_begin1         #     jumps to .Ltmp169
	.byte	0                               #   On action: cleanup
	.uleb128 .Ltmp170-.Lfunc_begin1         # >> Call Site 26 <<
	.uleb128 .Ltmp175-.Ltmp170              #   Call between .Ltmp170 and .Ltmp175
	.uleb128 .Ltmp176-.Lfunc_begin1         #     jumps to .Ltmp176
	.byte	0                               #   On action: cleanup
	.uleb128 .Ltmp177-.Lfunc_begin1         # >> Call Site 27 <<
	.uleb128 .Ltmp184-.Ltmp177              #   Call between .Ltmp177 and .Ltmp184
	.uleb128 .Ltmp185-.Lfunc_begin1         #     jumps to .Ltmp185
	.byte	0                               #   On action: cleanup
	.uleb128 .Ltmp186-.Lfunc_begin1         # >> Call Site 28 <<
	.uleb128 .Ltmp191-.Ltmp186              #   Call between .Ltmp186 and .Ltmp191
	.uleb128 .Ltmp192-.Lfunc_begin1         #     jumps to .Ltmp192
	.byte	0                               #   On action: cleanup
	.uleb128 .Ltmp193-.Lfunc_begin1         # >> Call Site 29 <<
	.uleb128 .Ltmp196-.Ltmp193              #   Call between .Ltmp193 and .Ltmp196
	.uleb128 .Ltmp197-.Lfunc_begin1         #     jumps to .Ltmp197
	.byte	0                               #   On action: cleanup
	.uleb128 .Ltmp198-.Lfunc_begin1         # >> Call Site 30 <<
	.uleb128 .Ltmp203-.Ltmp198              #   Call between .Ltmp198 and .Ltmp203
	.uleb128 .Ltmp204-.Lfunc_begin1         #     jumps to .Ltmp204
	.byte	0                               #   On action: cleanup
	.uleb128 .Ltmp205-.Lfunc_begin1         # >> Call Site 31 <<
	.uleb128 .Ltmp206-.Ltmp205              #   Call between .Ltmp205 and .Ltmp206
	.uleb128 .Ltmp207-.Lfunc_begin1         #     jumps to .Ltmp207
	.byte	0                               #   On action: cleanup
	.uleb128 .Ltmp208-.Lfunc_begin1         # >> Call Site 32 <<
	.uleb128 .Ltmp213-.Ltmp208              #   Call between .Ltmp208 and .Ltmp213
	.uleb128 .Ltmp214-.Lfunc_begin1         #     jumps to .Ltmp214
	.byte	0                               #   On action: cleanup
	.uleb128 .Ltmp215-.Lfunc_begin1         # >> Call Site 33 <<
	.uleb128 .Ltmp216-.Ltmp215              #   Call between .Ltmp215 and .Ltmp216
	.uleb128 .Ltmp217-.Lfunc_begin1         #     jumps to .Ltmp217
	.byte	0                               #   On action: cleanup
	.uleb128 .Ltmp218-.Lfunc_begin1         # >> Call Site 34 <<
	.uleb128 .Ltmp223-.Ltmp218              #   Call between .Ltmp218 and .Ltmp223
	.uleb128 .Ltmp224-.Lfunc_begin1         #     jumps to .Ltmp224
	.byte	0                               #   On action: cleanup
	.uleb128 .Ltmp223-.Lfunc_begin1         # >> Call Site 35 <<
	.uleb128 .Ltmp225-.Ltmp223              #   Call between .Ltmp223 and .Ltmp225
	.byte	0                               #     has no landing pad
	.byte	0                               #   On action: cleanup
	.uleb128 .Ltmp225-.Lfunc_begin1         # >> Call Site 36 <<
	.uleb128 .Ltmp226-.Ltmp225              #   Call between .Ltmp225 and .Ltmp226
	.uleb128 .Ltmp227-.Lfunc_begin1         #     jumps to .Ltmp227
	.byte	0                               #   On action: cleanup
	.uleb128 .Ltmp228-.Lfunc_begin1         # >> Call Site 37 <<
	.uleb128 .Ltmp229-.Ltmp228              #   Call between .Ltmp228 and .Ltmp229
	.uleb128 .Ltmp230-.Lfunc_begin1         #     jumps to .Ltmp230
	.byte	0                               #   On action: cleanup
	.uleb128 .Ltmp231-.Lfunc_begin1         # >> Call Site 38 <<
	.uleb128 .Ltmp232-.Ltmp231              #   Call between .Ltmp231 and .Ltmp232
	.uleb128 .Ltmp539-.Lfunc_begin1         #     jumps to .Ltmp539
	.byte	0                               #   On action: cleanup
	.uleb128 .Ltmp233-.Lfunc_begin1         # >> Call Site 39 <<
	.uleb128 .Ltmp238-.Ltmp233              #   Call between .Ltmp233 and .Ltmp238
	.uleb128 .Ltmp239-.Lfunc_begin1         #     jumps to .Ltmp239
	.byte	0                               #   On action: cleanup
	.uleb128 .Ltmp240-.Lfunc_begin1         # >> Call Site 40 <<
	.uleb128 .Ltmp251-.Ltmp240              #   Call between .Ltmp240 and .Ltmp251
	.uleb128 .Ltmp252-.Lfunc_begin1         #     jumps to .Ltmp252
	.byte	0                               #   On action: cleanup
	.uleb128 .Ltmp253-.Lfunc_begin1         # >> Call Site 41 <<
	.uleb128 .Ltmp266-.Ltmp253              #   Call between .Ltmp253 and .Ltmp266
	.uleb128 .Ltmp267-.Lfunc_begin1         #     jumps to .Ltmp267
	.byte	0                               #   On action: cleanup
	.uleb128 .Ltmp268-.Lfunc_begin1         # >> Call Site 42 <<
	.uleb128 .Ltmp269-.Ltmp268              #   Call between .Ltmp268 and .Ltmp269
	.uleb128 .Ltmp270-.Lfunc_begin1         #     jumps to .Ltmp270
	.byte	0                               #   On action: cleanup
	.uleb128 .Ltmp271-.Lfunc_begin1         # >> Call Site 43 <<
	.uleb128 .Ltmp276-.Ltmp271              #   Call between .Ltmp271 and .Ltmp276
	.uleb128 .Ltmp277-.Lfunc_begin1         #     jumps to .Ltmp277
	.byte	0                               #   On action: cleanup
	.uleb128 .Ltmp278-.Lfunc_begin1         # >> Call Site 44 <<
	.uleb128 .Ltmp285-.Ltmp278              #   Call between .Ltmp278 and .Ltmp285
	.uleb128 .Ltmp286-.Lfunc_begin1         #     jumps to .Ltmp286
	.byte	0                               #   On action: cleanup
	.uleb128 .Ltmp287-.Lfunc_begin1         # >> Call Site 45 <<
	.uleb128 .Ltmp292-.Ltmp287              #   Call between .Ltmp287 and .Ltmp292
	.uleb128 .Ltmp293-.Lfunc_begin1         #     jumps to .Ltmp293
	.byte	0                               #   On action: cleanup
	.uleb128 .Ltmp294-.Lfunc_begin1         # >> Call Site 46 <<
	.uleb128 .Ltmp297-.Ltmp294              #   Call between .Ltmp294 and .Ltmp297
	.uleb128 .Ltmp298-.Lfunc_begin1         #     jumps to .Ltmp298
	.byte	0                               #   On action: cleanup
	.uleb128 .Ltmp299-.Lfunc_begin1         # >> Call Site 47 <<
	.uleb128 .Ltmp304-.Ltmp299              #   Call between .Ltmp299 and .Ltmp304
	.uleb128 .Ltmp305-.Lfunc_begin1         #     jumps to .Ltmp305
	.byte	0                               #   On action: cleanup
	.uleb128 .Ltmp306-.Lfunc_begin1         # >> Call Site 48 <<
	.uleb128 .Ltmp307-.Ltmp306              #   Call between .Ltmp306 and .Ltmp307
	.uleb128 .Ltmp308-.Lfunc_begin1         #     jumps to .Ltmp308
	.byte	0                               #   On action: cleanup
	.uleb128 .Ltmp309-.Lfunc_begin1         # >> Call Site 49 <<
	.uleb128 .Ltmp314-.Ltmp309              #   Call between .Ltmp309 and .Ltmp314
	.uleb128 .Ltmp315-.Lfunc_begin1         #     jumps to .Ltmp315
	.byte	0                               #   On action: cleanup
	.uleb128 .Ltmp316-.Lfunc_begin1         # >> Call Site 50 <<
	.uleb128 .Ltmp317-.Ltmp316              #   Call between .Ltmp316 and .Ltmp317
	.uleb128 .Ltmp318-.Lfunc_begin1         #     jumps to .Ltmp318
	.byte	0                               #   On action: cleanup
	.uleb128 .Ltmp319-.Lfunc_begin1         # >> Call Site 51 <<
	.uleb128 .Ltmp324-.Ltmp319              #   Call between .Ltmp319 and .Ltmp324
	.uleb128 .Ltmp325-.Lfunc_begin1         #     jumps to .Ltmp325
	.byte	0                               #   On action: cleanup
	.uleb128 .Ltmp324-.Lfunc_begin1         # >> Call Site 52 <<
	.uleb128 .Ltmp326-.Ltmp324              #   Call between .Ltmp324 and .Ltmp326
	.byte	0                               #     has no landing pad
	.byte	0                               #   On action: cleanup
	.uleb128 .Ltmp326-.Lfunc_begin1         # >> Call Site 53 <<
	.uleb128 .Ltmp327-.Ltmp326              #   Call between .Ltmp326 and .Ltmp327
	.uleb128 .Ltmp328-.Lfunc_begin1         #     jumps to .Ltmp328
	.byte	0                               #   On action: cleanup
	.uleb128 .Ltmp329-.Lfunc_begin1         # >> Call Site 54 <<
	.uleb128 .Ltmp330-.Ltmp329              #   Call between .Ltmp329 and .Ltmp330
	.uleb128 .Ltmp331-.Lfunc_begin1         #     jumps to .Ltmp331
	.byte	0                               #   On action: cleanup
	.uleb128 .Ltmp332-.Lfunc_begin1         # >> Call Site 55 <<
	.uleb128 .Ltmp333-.Ltmp332              #   Call between .Ltmp332 and .Ltmp333
	.uleb128 .Ltmp536-.Lfunc_begin1         #     jumps to .Ltmp536
	.byte	0                               #   On action: cleanup
	.uleb128 .Ltmp334-.Lfunc_begin1         # >> Call Site 56 <<
	.uleb128 .Ltmp339-.Ltmp334              #   Call between .Ltmp334 and .Ltmp339
	.uleb128 .Ltmp340-.Lfunc_begin1         #     jumps to .Ltmp340
	.byte	0                               #   On action: cleanup
	.uleb128 .Ltmp341-.Lfunc_begin1         # >> Call Site 57 <<
	.uleb128 .Ltmp352-.Ltmp341              #   Call between .Ltmp341 and .Ltmp352
	.uleb128 .Ltmp353-.Lfunc_begin1         #     jumps to .Ltmp353
	.byte	0                               #   On action: cleanup
	.uleb128 .Ltmp354-.Lfunc_begin1         # >> Call Site 58 <<
	.uleb128 .Ltmp367-.Ltmp354              #   Call between .Ltmp354 and .Ltmp367
	.uleb128 .Ltmp368-.Lfunc_begin1         #     jumps to .Ltmp368
	.byte	0                               #   On action: cleanup
	.uleb128 .Ltmp369-.Lfunc_begin1         # >> Call Site 59 <<
	.uleb128 .Ltmp370-.Ltmp369              #   Call between .Ltmp369 and .Ltmp370
	.uleb128 .Ltmp371-.Lfunc_begin1         #     jumps to .Ltmp371
	.byte	0                               #   On action: cleanup
	.uleb128 .Ltmp372-.Lfunc_begin1         # >> Call Site 60 <<
	.uleb128 .Ltmp377-.Ltmp372              #   Call between .Ltmp372 and .Ltmp377
	.uleb128 .Ltmp378-.Lfunc_begin1         #     jumps to .Ltmp378
	.byte	0                               #   On action: cleanup
	.uleb128 .Ltmp379-.Lfunc_begin1         # >> Call Site 61 <<
	.uleb128 .Ltmp386-.Ltmp379              #   Call between .Ltmp379 and .Ltmp386
	.uleb128 .Ltmp387-.Lfunc_begin1         #     jumps to .Ltmp387
	.byte	0                               #   On action: cleanup
	.uleb128 .Ltmp388-.Lfunc_begin1         # >> Call Site 62 <<
	.uleb128 .Ltmp393-.Ltmp388              #   Call between .Ltmp388 and .Ltmp393
	.uleb128 .Ltmp394-.Lfunc_begin1         #     jumps to .Ltmp394
	.byte	0                               #   On action: cleanup
	.uleb128 .Ltmp395-.Lfunc_begin1         # >> Call Site 63 <<
	.uleb128 .Ltmp398-.Ltmp395              #   Call between .Ltmp395 and .Ltmp398
	.uleb128 .Ltmp399-.Lfunc_begin1         #     jumps to .Ltmp399
	.byte	0                               #   On action: cleanup
	.uleb128 .Ltmp400-.Lfunc_begin1         # >> Call Site 64 <<
	.uleb128 .Ltmp405-.Ltmp400              #   Call between .Ltmp400 and .Ltmp405
	.uleb128 .Ltmp406-.Lfunc_begin1         #     jumps to .Ltmp406
	.byte	0                               #   On action: cleanup
	.uleb128 .Ltmp407-.Lfunc_begin1         # >> Call Site 65 <<
	.uleb128 .Ltmp408-.Ltmp407              #   Call between .Ltmp407 and .Ltmp408
	.uleb128 .Ltmp409-.Lfunc_begin1         #     jumps to .Ltmp409
	.byte	0                               #   On action: cleanup
	.uleb128 .Ltmp410-.Lfunc_begin1         # >> Call Site 66 <<
	.uleb128 .Ltmp415-.Ltmp410              #   Call between .Ltmp410 and .Ltmp415
	.uleb128 .Ltmp416-.Lfunc_begin1         #     jumps to .Ltmp416
	.byte	0                               #   On action: cleanup
	.uleb128 .Ltmp417-.Lfunc_begin1         # >> Call Site 67 <<
	.uleb128 .Ltmp418-.Ltmp417              #   Call between .Ltmp417 and .Ltmp418
	.uleb128 .Ltmp419-.Lfunc_begin1         #     jumps to .Ltmp419
	.byte	0                               #   On action: cleanup
	.uleb128 .Ltmp420-.Lfunc_begin1         # >> Call Site 68 <<
	.uleb128 .Ltmp425-.Ltmp420              #   Call between .Ltmp420 and .Ltmp425
	.uleb128 .Ltmp426-.Lfunc_begin1         #     jumps to .Ltmp426
	.byte	0                               #   On action: cleanup
	.uleb128 .Ltmp425-.Lfunc_begin1         # >> Call Site 69 <<
	.uleb128 .Ltmp427-.Ltmp425              #   Call between .Ltmp425 and .Ltmp427
	.byte	0                               #     has no landing pad
	.byte	0                               #   On action: cleanup
	.uleb128 .Ltmp427-.Lfunc_begin1         # >> Call Site 70 <<
	.uleb128 .Ltmp428-.Ltmp427              #   Call between .Ltmp427 and .Ltmp428
	.uleb128 .Ltmp429-.Lfunc_begin1         #     jumps to .Ltmp429
	.byte	0                               #   On action: cleanup
	.uleb128 .Ltmp430-.Lfunc_begin1         # >> Call Site 71 <<
	.uleb128 .Ltmp431-.Ltmp430              #   Call between .Ltmp430 and .Ltmp431
	.uleb128 .Ltmp432-.Lfunc_begin1         #     jumps to .Ltmp432
	.byte	0                               #   On action: cleanup
	.uleb128 .Ltmp433-.Lfunc_begin1         # >> Call Site 72 <<
	.uleb128 .Ltmp434-.Ltmp433              #   Call between .Ltmp433 and .Ltmp434
	.uleb128 .Ltmp533-.Lfunc_begin1         #     jumps to .Ltmp533
	.byte	0                               #   On action: cleanup
	.uleb128 .Ltmp435-.Lfunc_begin1         # >> Call Site 73 <<
	.uleb128 .Ltmp440-.Ltmp435              #   Call between .Ltmp435 and .Ltmp440
	.uleb128 .Ltmp441-.Lfunc_begin1         #     jumps to .Ltmp441
	.byte	0                               #   On action: cleanup
	.uleb128 .Ltmp442-.Lfunc_begin1         # >> Call Site 74 <<
	.uleb128 .Ltmp453-.Ltmp442              #   Call between .Ltmp442 and .Ltmp453
	.uleb128 .Ltmp454-.Lfunc_begin1         #     jumps to .Ltmp454
	.byte	0                               #   On action: cleanup
	.uleb128 .Ltmp455-.Lfunc_begin1         # >> Call Site 75 <<
	.uleb128 .Ltmp468-.Ltmp455              #   Call between .Ltmp455 and .Ltmp468
	.uleb128 .Ltmp469-.Lfunc_begin1         #     jumps to .Ltmp469
	.byte	0                               #   On action: cleanup
	.uleb128 .Ltmp470-.Lfunc_begin1         # >> Call Site 76 <<
	.uleb128 .Ltmp471-.Ltmp470              #   Call between .Ltmp470 and .Ltmp471
	.uleb128 .Ltmp472-.Lfunc_begin1         #     jumps to .Ltmp472
	.byte	0                               #   On action: cleanup
	.uleb128 .Ltmp473-.Lfunc_begin1         # >> Call Site 77 <<
	.uleb128 .Ltmp478-.Ltmp473              #   Call between .Ltmp473 and .Ltmp478
	.uleb128 .Ltmp479-.Lfunc_begin1         #     jumps to .Ltmp479
	.byte	0                               #   On action: cleanup
	.uleb128 .Ltmp480-.Lfunc_begin1         # >> Call Site 78 <<
	.uleb128 .Ltmp487-.Ltmp480              #   Call between .Ltmp480 and .Ltmp487
	.uleb128 .Ltmp488-.Lfunc_begin1         #     jumps to .Ltmp488
	.byte	0                               #   On action: cleanup
	.uleb128 .Ltmp489-.Lfunc_begin1         # >> Call Site 79 <<
	.uleb128 .Ltmp494-.Ltmp489              #   Call between .Ltmp489 and .Ltmp494
	.uleb128 .Ltmp495-.Lfunc_begin1         #     jumps to .Ltmp495
	.byte	0                               #   On action: cleanup
	.uleb128 .Ltmp496-.Lfunc_begin1         # >> Call Site 80 <<
	.uleb128 .Ltmp499-.Ltmp496              #   Call between .Ltmp496 and .Ltmp499
	.uleb128 .Ltmp500-.Lfunc_begin1         #     jumps to .Ltmp500
	.byte	0                               #   On action: cleanup
	.uleb128 .Ltmp501-.Lfunc_begin1         # >> Call Site 81 <<
	.uleb128 .Ltmp506-.Ltmp501              #   Call between .Ltmp501 and .Ltmp506
	.uleb128 .Ltmp507-.Lfunc_begin1         #     jumps to .Ltmp507
	.byte	0                               #   On action: cleanup
	.uleb128 .Ltmp508-.Lfunc_begin1         # >> Call Site 82 <<
	.uleb128 .Ltmp509-.Ltmp508              #   Call between .Ltmp508 and .Ltmp509
	.uleb128 .Ltmp510-.Lfunc_begin1         #     jumps to .Ltmp510
	.byte	0                               #   On action: cleanup
	.uleb128 .Ltmp511-.Lfunc_begin1         # >> Call Site 83 <<
	.uleb128 .Ltmp516-.Ltmp511              #   Call between .Ltmp511 and .Ltmp516
	.uleb128 .Ltmp517-.Lfunc_begin1         #     jumps to .Ltmp517
	.byte	0                               #   On action: cleanup
	.uleb128 .Ltmp518-.Lfunc_begin1         # >> Call Site 84 <<
	.uleb128 .Ltmp519-.Ltmp518              #   Call between .Ltmp518 and .Ltmp519
	.uleb128 .Ltmp520-.Lfunc_begin1         #     jumps to .Ltmp520
	.byte	0                               #   On action: cleanup
	.uleb128 .Ltmp521-.Lfunc_begin1         # >> Call Site 85 <<
	.uleb128 .Ltmp526-.Ltmp521              #   Call between .Ltmp521 and .Ltmp526
	.uleb128 .Ltmp527-.Lfunc_begin1         #     jumps to .Ltmp527
	.byte	0                               #   On action: cleanup
	.uleb128 .Ltmp526-.Lfunc_begin1         # >> Call Site 86 <<
	.uleb128 .Ltmp543-.Ltmp526              #   Call between .Ltmp526 and .Ltmp543
	.byte	0                               #     has no landing pad
	.byte	0                               #   On action: cleanup
	.uleb128 .Ltmp543-.Lfunc_begin1         # >> Call Site 87 <<
	.uleb128 .Ltmp544-.Ltmp543              #   Call between .Ltmp543 and .Ltmp544
	.uleb128 .Ltmp545-.Lfunc_begin1         #     jumps to .Ltmp545
	.byte	0                               #   On action: cleanup
	.uleb128 .Ltmp540-.Lfunc_begin1         # >> Call Site 88 <<
	.uleb128 .Ltmp541-.Ltmp540              #   Call between .Ltmp540 and .Ltmp541
	.uleb128 .Ltmp542-.Lfunc_begin1         #     jumps to .Ltmp542
	.byte	0                               #   On action: cleanup
	.uleb128 .Ltmp537-.Lfunc_begin1         # >> Call Site 89 <<
	.uleb128 .Ltmp538-.Ltmp537              #   Call between .Ltmp537 and .Ltmp538
	.uleb128 .Ltmp539-.Lfunc_begin1         #     jumps to .Ltmp539
	.byte	0                               #   On action: cleanup
	.uleb128 .Ltmp534-.Lfunc_begin1         # >> Call Site 90 <<
	.uleb128 .Ltmp535-.Ltmp534              #   Call between .Ltmp534 and .Ltmp535
	.uleb128 .Ltmp536-.Lfunc_begin1         #     jumps to .Ltmp536
	.byte	0                               #   On action: cleanup
	.uleb128 .Ltmp531-.Lfunc_begin1         # >> Call Site 91 <<
	.uleb128 .Ltmp532-.Ltmp531              #   Call between .Ltmp531 and .Ltmp532
	.uleb128 .Ltmp533-.Lfunc_begin1         #     jumps to .Ltmp533
	.byte	0                               #   On action: cleanup
	.uleb128 .Ltmp532-.Lfunc_begin1         # >> Call Site 92 <<
	.uleb128 .Ltmp528-.Ltmp532              #   Call between .Ltmp532 and .Ltmp528
	.byte	0                               #     has no landing pad
	.byte	0                               #   On action: cleanup
	.uleb128 .Ltmp528-.Lfunc_begin1         # >> Call Site 93 <<
	.uleb128 .Ltmp529-.Ltmp528              #   Call between .Ltmp528 and .Ltmp529
	.uleb128 .Ltmp530-.Lfunc_begin1         #     jumps to .Ltmp530
	.byte	1                               #   On action: 1
	.uleb128 .Ltmp529-.Lfunc_begin1         # >> Call Site 94 <<
	.uleb128 .Lfunc_end2-.Ltmp529           #   Call between .Ltmp529 and .Lfunc_end2
	.byte	0                               #     has no landing pad
	.byte	0                               #   On action: cleanup
.Lcst_end1:
	.byte	1                               # >> Action Record 1 <<
                                        #   Catch TypeInfo 1
	.byte	0                               #   No further actions
	.p2align	2, 0x0
                                        # >> Catch TypeInfos <<
	.word	0                               # TypeInfo 1
.Lttbase0:
	.p2align	2, 0x0
                                        # -- End function
	.section	.text._ZN9benchmark8internal12CheckHandlerC2EPKcS3_S3_i,"axG",@progbits,_ZN9benchmark8internal12CheckHandlerC2EPKcS3_S3_i,comdat
	.hidden	_ZN9benchmark8internal12CheckHandlerC2EPKcS3_S3_i # -- Begin function _ZN9benchmark8internal12CheckHandlerC2EPKcS3_S3_i
	.weak	_ZN9benchmark8internal12CheckHandlerC2EPKcS3_S3_i
	.p2align	5
	.type	_ZN9benchmark8internal12CheckHandlerC2EPKcS3_S3_i,@function
_ZN9benchmark8internal12CheckHandlerC2EPKcS3_S3_i: # @_ZN9benchmark8internal12CheckHandlerC2EPKcS3_S3_i
	.cfi_startproc
# %bb.0:
	addi.d	$sp, $sp, -64
	.cfi_def_cfa_offset 64
	st.d	$ra, $sp, 56                    # 8-byte Folded Spill
	st.d	$fp, $sp, 48                    # 8-byte Folded Spill
	st.d	$s0, $sp, 40                    # 8-byte Folded Spill
	st.d	$s1, $sp, 32                    # 8-byte Folded Spill
	st.d	$s2, $sp, 24                    # 8-byte Folded Spill
	st.d	$s3, $sp, 16                    # 8-byte Folded Spill
	st.d	$s4, $sp, 8                     # 8-byte Folded Spill
	.cfi_offset 1, -8
	.cfi_offset 22, -16
	.cfi_offset 23, -24
	.cfi_offset 24, -32
	.cfi_offset 25, -40
	.cfi_offset 26, -48
	.cfi_offset 27, -56
	pcalau12i	$a5, %pc_hi20(_ZGVZN9benchmark8internal19GetErrorLogInstanceEvE9error_log)
	ld.b	$a5, $a5, %pc_lo12(_ZGVZN9benchmark8internal19GetErrorLogInstanceEvE9error_log)
	move	$s1, $a4
	move	$s0, $a3
	move	$fp, $a1
	dbar	20
	pcalau12i	$a1, %pc_hi20(_ZZN9benchmark8internal19GetErrorLogInstanceEvE9error_log)
	addi.d	$s4, $a1, %pc_lo12(_ZZN9benchmark8internal19GetErrorLogInstanceEvE9error_log)
	beqz	$a5, .LBB3_18
.LBB3_1:                                # %_ZN9benchmark8internal19GetErrorLogInstanceEv.exit
	ld.d	$s2, $s4, 0
	st.d	$s4, $a0, 0
	beqz	$s2, .LBB3_17
# %bb.2:
	beqz	$a2, .LBB3_4
# %bb.3:
	move	$a0, $a2
	move	$s3, $a2
	pcaddu18i	$ra, %call36(strlen)
	jirl	$ra, $ra, 0
	move	$a2, $a0
	move	$a0, $s2
	move	$a1, $s3
	pcaddu18i	$ra, %call36(_ZSt16__ostream_insertIcSt11char_traitsIcEERSt13basic_ostreamIT_T0_ES6_PKS3_l)
	jirl	$ra, $ra, 0
	ld.d	$a0, $s4, 0
	bnez	$a0, .LBB3_5
	b	.LBB3_17
.LBB3_4:
	ld.d	$a0, $s2, 0
	ld.d	$a0, $a0, -24
	add.d	$a0, $s2, $a0
	ld.w	$a1, $a0, 32
	ori	$a1, $a1, 1
	pcaddu18i	$ra, %call36(_ZNSt9basic_iosIcSt11char_traitsIcEE5clearESt12_Ios_Iostate)
	jirl	$ra, $ra, 0
	ld.d	$a0, $s4, 0
	beqz	$a0, .LBB3_17
.LBB3_5:                                # %_ZN9benchmark8internallsIA2_cEERNS0_7LogTypeES4_RKT_.exit
	pcalau12i	$a1, %pc_hi20(.L.str.59)
	addi.d	$a1, $a1, %pc_lo12(.L.str.59)
	ori	$a2, $zero, 1
	pcaddu18i	$ra, %call36(_ZSt16__ostream_insertIcSt11char_traitsIcEERSt13basic_ostreamIT_T0_ES6_PKS3_l)
	jirl	$ra, $ra, 0
	ld.d	$a0, $s4, 0
	beqz	$a0, .LBB3_17
# %bb.6:                                # %_ZN9benchmark8internallsIiEERNS0_7LogTypeES3_RKT_.exit
	move	$a1, $s1
	pcaddu18i	$ra, %call36(_ZNSolsEi)
	jirl	$ra, $ra, 0
	ld.d	$a0, $s4, 0
	beqz	$a0, .LBB3_17
# %bb.7:                                # %_ZN9benchmark8internallsIA3_cEERNS0_7LogTypeES4_RKT_.exit
	pcalau12i	$a1, %pc_hi20(.L.str.60)
	addi.d	$a1, $a1, %pc_lo12(.L.str.60)
	ori	$a2, $zero, 2
	pcaddu18i	$ra, %call36(_ZSt16__ostream_insertIcSt11char_traitsIcEERSt13basic_ostreamIT_T0_ES6_PKS3_l)
	jirl	$ra, $ra, 0
	ld.d	$s1, $s4, 0
	beqz	$s1, .LBB3_17
# %bb.8:
	beqz	$s0, .LBB3_10
# %bb.9:
	move	$a0, $s0
	pcaddu18i	$ra, %call36(strlen)
	jirl	$ra, $ra, 0
	move	$a2, $a0
	move	$a0, $s1
	move	$a1, $s0
	pcaddu18i	$ra, %call36(_ZSt16__ostream_insertIcSt11char_traitsIcEERSt13basic_ostreamIT_T0_ES6_PKS3_l)
	jirl	$ra, $ra, 0
	ld.d	$a0, $s4, 0
	bnez	$a0, .LBB3_11
	b	.LBB3_17
.LBB3_10:
	ld.d	$a0, $s1, 0
	ld.d	$a0, $a0, -24
	add.d	$a0, $s1, $a0
	ld.w	$a1, $a0, 32
	ori	$a1, $a1, 1
	pcaddu18i	$ra, %call36(_ZNSt9basic_iosIcSt11char_traitsIcEE5clearESt12_Ios_Iostate)
	jirl	$ra, $ra, 0
	ld.d	$a0, $s4, 0
	beqz	$a0, .LBB3_17
.LBB3_11:                               # %_ZN9benchmark8internallsIA10_cEERNS0_7LogTypeES4_RKT_.exit
	pcalau12i	$a1, %pc_hi20(.L.str.79)
	addi.d	$a1, $a1, %pc_lo12(.L.str.79)
	ori	$a2, $zero, 9
	pcaddu18i	$ra, %call36(_ZSt16__ostream_insertIcSt11char_traitsIcEERSt13basic_ostreamIT_T0_ES6_PKS3_l)
	jirl	$ra, $ra, 0
	ld.d	$s0, $s4, 0
	beqz	$s0, .LBB3_17
# %bb.12:
	beqz	$fp, .LBB3_14
# %bb.13:
	move	$a0, $fp
	pcaddu18i	$ra, %call36(strlen)
	jirl	$ra, $ra, 0
	move	$a2, $a0
	move	$a0, $s0
	move	$a1, $fp
	pcaddu18i	$ra, %call36(_ZSt16__ostream_insertIcSt11char_traitsIcEERSt13basic_ostreamIT_T0_ES6_PKS3_l)
	jirl	$ra, $ra, 0
	b	.LBB3_15
.LBB3_14:
	ld.d	$a0, $s0, 0
	ld.d	$a0, $a0, -24
	add.d	$a0, $s0, $a0
	ld.w	$a1, $a0, 32
	ori	$a1, $a1, 1
	pcaddu18i	$ra, %call36(_ZNSt9basic_iosIcSt11char_traitsIcEE5clearESt12_Ios_Iostate)
	jirl	$ra, $ra, 0
.LBB3_15:                               # %_ZN9benchmark8internallsIPKcEERNS0_7LogTypeES5_RKT_.exit11
	ld.d	$a0, $s4, 0
	beqz	$a0, .LBB3_17
# %bb.16:
	pcalau12i	$a1, %pc_hi20(.L.str.80)
	addi.d	$a1, $a1, %pc_lo12(.L.str.80)
	ori	$a2, $zero, 10
	ld.d	$s4, $sp, 8                     # 8-byte Folded Reload
	ld.d	$s3, $sp, 16                    # 8-byte Folded Reload
	ld.d	$s2, $sp, 24                    # 8-byte Folded Reload
	ld.d	$s1, $sp, 32                    # 8-byte Folded Reload
	ld.d	$s0, $sp, 40                    # 8-byte Folded Reload
	ld.d	$fp, $sp, 48                    # 8-byte Folded Reload
	ld.d	$ra, $sp, 56                    # 8-byte Folded Reload
	addi.d	$sp, $sp, 64
	pcaddu18i	$t8, %call36(_ZSt16__ostream_insertIcSt11char_traitsIcEERSt13basic_ostreamIT_T0_ES6_PKS3_l)
	jr	$t8
.LBB3_17:                               # %_ZN9benchmark8internallsIA11_cEERNS0_7LogTypeES4_RKT_.exit
	ld.d	$s4, $sp, 8                     # 8-byte Folded Reload
	ld.d	$s3, $sp, 16                    # 8-byte Folded Reload
	ld.d	$s2, $sp, 24                    # 8-byte Folded Reload
	ld.d	$s1, $sp, 32                    # 8-byte Folded Reload
	ld.d	$s0, $sp, 40                    # 8-byte Folded Reload
	ld.d	$fp, $sp, 48                    # 8-byte Folded Reload
	ld.d	$ra, $sp, 56                    # 8-byte Folded Reload
	addi.d	$sp, $sp, 64
	ret
.LBB3_18:
	pcalau12i	$a1, %pc_hi20(_ZGVZN9benchmark8internal19GetErrorLogInstanceEvE9error_log)
	addi.d	$a1, $a1, %pc_lo12(_ZGVZN9benchmark8internal19GetErrorLogInstanceEvE9error_log)
	move	$s2, $a0
	move	$a0, $a1
	move	$s3, $a2
	pcaddu18i	$ra, %call36(__cxa_guard_acquire)
	jirl	$ra, $ra, 0
	move	$a2, $s3
	move	$a1, $a0
	move	$a0, $s2
	addi.w	$a1, $a1, 0
	beqz	$a1, .LBB3_1
# %bb.19:
	pcalau12i	$a0, %got_pc_hi20(_ZSt4clog)
	ld.d	$a0, $a0, %got_pc_lo12(_ZSt4clog)
	st.d	$a0, $s4, 0
	pcalau12i	$a0, %pc_hi20(_ZGVZN9benchmark8internal19GetErrorLogInstanceEvE9error_log)
	addi.d	$a0, $a0, %pc_lo12(_ZGVZN9benchmark8internal19GetErrorLogInstanceEvE9error_log)
	pcaddu18i	$ra, %call36(__cxa_guard_release)
	jirl	$ra, $ra, 0
	move	$a0, $s2
	move	$a2, $s3
	b	.LBB3_1
.Lfunc_end3:
	.size	_ZN9benchmark8internal12CheckHandlerC2EPKcS3_S3_i, .Lfunc_end3-_ZN9benchmark8internal12CheckHandlerC2EPKcS3_S3_i
	.cfi_endproc
                                        # -- End function
	.section	.text._ZN9benchmark8internal12CheckHandlerD2Ev,"axG",@progbits,_ZN9benchmark8internal12CheckHandlerD2Ev,comdat
	.hidden	_ZN9benchmark8internal12CheckHandlerD2Ev # -- Begin function _ZN9benchmark8internal12CheckHandlerD2Ev
	.weak	_ZN9benchmark8internal12CheckHandlerD2Ev
	.p2align	5
	.type	_ZN9benchmark8internal12CheckHandlerD2Ev,@function
_ZN9benchmark8internal12CheckHandlerD2Ev: # @_ZN9benchmark8internal12CheckHandlerD2Ev
	.cfi_startproc
# %bb.0:
	addi.d	$sp, $sp, -32
	.cfi_def_cfa_offset 32
	st.d	$ra, $sp, 24                    # 8-byte Folded Spill
	st.d	$fp, $sp, 16                    # 8-byte Folded Spill
	st.d	$s0, $sp, 8                     # 8-byte Folded Spill
	.cfi_offset 1, -8
	.cfi_offset 22, -16
	.cfi_offset 23, -24
	ld.d	$a0, $a0, 0
	ld.d	$fp, $a0, 0
	beqz	$fp, .LBB4_7
# %bb.1:
	ld.d	$a0, $fp, 0
	ld.d	$a0, $a0, -24
	add.d	$a0, $fp, $a0
	ld.d	$s0, $a0, 240
	bnez	$s0, .LBB4_3
# %bb.2:
	pcaddu18i	$ra, %call36(_ZSt16__throw_bad_castv)
	jirl	$ra, $ra, 0
.LBB4_3:                                # %_ZSt13__check_facetISt5ctypeIcEERKT_PS3_.exit.i.i
	ld.bu	$a0, $s0, 56
	bnez	$a0, .LBB4_5
# %bb.4:
	move	$a0, $s0
	pcaddu18i	$ra, %call36(_ZNKSt5ctypeIcE13_M_widen_initEv)
	jirl	$ra, $ra, 0
	ld.d	$a0, $s0, 0
	ld.d	$a2, $a0, 48
	ori	$a1, $zero, 10
	move	$a0, $s0
	jirl	$ra, $a2, 0
	b	.LBB4_6
.LBB4_5:
	ld.bu	$a0, $s0, 67
.LBB4_6:                                # %_ZSt4endlIcSt11char_traitsIcEERSt13basic_ostreamIT_T0_ES6_.exit
	ext.w.b	$a1, $a0
	move	$a0, $fp
	pcaddu18i	$ra, %call36(_ZNSo3putEc)
	jirl	$ra, $ra, 0
	pcaddu18i	$ra, %call36(_ZNSo5flushEv)
	jirl	$ra, $ra, 0
.LBB4_7:                                # %_ZN9benchmark8internallsERNS0_7LogTypeEPFRSoS3_E.exit
	pcaddu18i	$ra, %call36(_ZN9benchmark8internal16CallAbortHandlerEv)
	jirl	$ra, $ra, 0
.Lfunc_end4:
	.size	_ZN9benchmark8internal12CheckHandlerD2Ev, .Lfunc_end4-_ZN9benchmark8internal12CheckHandlerD2Ev
	.cfi_endproc
                                        # -- End function
	.section	.text.__clang_call_terminate,"axG",@progbits,__clang_call_terminate,comdat
	.hidden	__clang_call_terminate          # -- Begin function __clang_call_terminate
	.weak	__clang_call_terminate
	.p2align	5
	.type	__clang_call_terminate,@function
__clang_call_terminate:                 # @__clang_call_terminate
# %bb.0:
	addi.d	$sp, $sp, -16
	st.d	$ra, $sp, 8                     # 8-byte Folded Spill
	pcaddu18i	$ra, %call36(__cxa_begin_catch)
	jirl	$ra, $ra, 0
	pcaddu18i	$ra, %call36(_ZSt9terminatev)
	jirl	$ra, $ra, 0
.Lfunc_end5:
	.size	__clang_call_terminate, .Lfunc_end5-__clang_call_terminate
                                        # -- End function
	.text
	.hidden	main                            # -- Begin function main
	.globl	main
	.p2align	5
	.type	main,@function
main:                                   # @main
	.cfi_startproc
# %bb.0:
	addi.d	$sp, $sp, -16
	.cfi_def_cfa_offset 16
	st.d	$ra, $sp, 8                     # 8-byte Folded Spill
	.cfi_offset 1, -8
	pcaddu18i	$ra, %call36(_Z14RunOutputTestsiPPc)
	jirl	$ra, $ra, 0
	move	$a0, $zero
	ld.d	$ra, $sp, 8                     # 8-byte Folded Reload
	addi.d	$sp, $sp, 16
	ret
.Lfunc_end6:
	.size	main, .Lfunc_end6-main
	.cfi_endproc
                                        # -- End function
	.section	.text._ZNSt16_Sp_counted_baseILN9__gnu_cxx12_Lock_policyE2EE24_M_release_last_use_coldEv,"axG",@progbits,_ZNSt16_Sp_counted_baseILN9__gnu_cxx12_Lock_policyE2EE24_M_release_last_use_coldEv,comdat
	.hidden	_ZNSt16_Sp_counted_baseILN9__gnu_cxx12_Lock_policyE2EE24_M_release_last_use_coldEv # -- Begin function _ZNSt16_Sp_counted_baseILN9__gnu_cxx12_Lock_policyE2EE24_M_release_last_use_coldEv
	.weak	_ZNSt16_Sp_counted_baseILN9__gnu_cxx12_Lock_policyE2EE24_M_release_last_use_coldEv
	.p2align	5
	.type	_ZNSt16_Sp_counted_baseILN9__gnu_cxx12_Lock_policyE2EE24_M_release_last_use_coldEv,@function
_ZNSt16_Sp_counted_baseILN9__gnu_cxx12_Lock_policyE2EE24_M_release_last_use_coldEv: # @_ZNSt16_Sp_counted_baseILN9__gnu_cxx12_Lock_policyE2EE24_M_release_last_use_coldEv
	.cfi_startproc
# %bb.0:
	addi.d	$sp, $sp, -16
	.cfi_def_cfa_offset 16
	st.d	$ra, $sp, 8                     # 8-byte Folded Spill
	st.d	$fp, $sp, 0                     # 8-byte Folded Spill
	.cfi_offset 1, -8
	.cfi_offset 22, -16
	move	$fp, $a0
	ld.d	$a0, $a0, 0
	ld.d	$a1, $a0, 16
	move	$a0, $fp
	jirl	$ra, $a1, 0
	pcalau12i	$a0, %got_pc_hi20(__libc_single_threaded)
	ld.d	$a0, $a0, %got_pc_lo12(__libc_single_threaded)
	ld.bu	$a0, $a0, 0
	beqz	$a0, .LBB7_3
# %bb.1:
	ld.w	$a0, $fp, 12
	addi.d	$a1, $a0, -1
	st.w	$a1, $fp, 12
	ori	$a1, $zero, 1
	bne	$a0, $a1, .LBB7_4
.LBB7_2:
	ld.d	$a0, $fp, 0
	ld.d	$a1, $a0, 24
	move	$a0, $fp
	ld.d	$fp, $sp, 0                     # 8-byte Folded Reload
	ld.d	$ra, $sp, 8                     # 8-byte Folded Reload
	addi.d	$sp, $sp, 16
	jr	$a1
.LBB7_3:
	addi.d	$a1, $fp, 12
	addi.w	$a2, $zero, -1
	amadd_db.w	$a0, $a2, $a1
	ori	$a1, $zero, 1
	beq	$a0, $a1, .LBB7_2
.LBB7_4:                                # %_ZNSt16_Sp_counted_baseILN9__gnu_cxx12_Lock_policyE2EE19_M_release_last_useEv.exit
	ld.d	$fp, $sp, 0                     # 8-byte Folded Reload
	ld.d	$ra, $sp, 8                     # 8-byte Folded Reload
	addi.d	$sp, $sp, 16
	ret
.Lfunc_end7:
	.size	_ZNSt16_Sp_counted_baseILN9__gnu_cxx12_Lock_policyE2EE24_M_release_last_use_coldEv, .Lfunc_end7-_ZNSt16_Sp_counted_baseILN9__gnu_cxx12_Lock_policyE2EE24_M_release_last_use_coldEv
	.cfi_endproc
                                        # -- End function
	.section	.text._ZN9benchmark8internal16CallAbortHandlerEv,"axG",@progbits,_ZN9benchmark8internal16CallAbortHandlerEv,comdat
	.hidden	_ZN9benchmark8internal16CallAbortHandlerEv # -- Begin function _ZN9benchmark8internal16CallAbortHandlerEv
	.weak	_ZN9benchmark8internal16CallAbortHandlerEv
	.p2align	5
	.type	_ZN9benchmark8internal16CallAbortHandlerEv,@function
_ZN9benchmark8internal16CallAbortHandlerEv: # @_ZN9benchmark8internal16CallAbortHandlerEv
	.cfi_startproc
# %bb.0:
	addi.d	$sp, $sp, -16
	.cfi_def_cfa_offset 16
	st.d	$ra, $sp, 8                     # 8-byte Folded Spill
	.cfi_offset 1, -8
	pcaddu18i	$ra, %call36(_ZN9benchmark8internal15GetAbortHandlerEv)
	jirl	$ra, $ra, 0
	ld.d	$a0, $a0, 0
	jirl	$ra, $a0, 0
	pcaddu18i	$ra, %call36(abort)
	jirl	$ra, $ra, 0
.Lfunc_end8:
	.size	_ZN9benchmark8internal16CallAbortHandlerEv, .Lfunc_end8-_ZN9benchmark8internal16CallAbortHandlerEv
	.cfi_endproc
                                        # -- End function
	.section	.text._ZNSt8_Rb_treeINSt7__cxx1112basic_stringIcSt11char_traitsIcESaIcEEESt4pairIKS5_N9benchmark7CounterEESt10_Select1stISA_ESt4lessIS5_ESaISA_EE17_M_insert_unique_IRKSA_NSG_11_Alloc_nodeEEESt17_Rb_tree_iteratorISA_ESt23_Rb_tree_const_iteratorISA_EOT_RT0_,"axG",@progbits,_ZNSt8_Rb_treeINSt7__cxx1112basic_stringIcSt11char_traitsIcESaIcEEESt4pairIKS5_N9benchmark7CounterEESt10_Select1stISA_ESt4lessIS5_ESaISA_EE17_M_insert_unique_IRKSA_NSG_11_Alloc_nodeEEESt17_Rb_tree_iteratorISA_ESt23_Rb_tree_const_iteratorISA_EOT_RT0_,comdat
	.hidden	_ZNSt8_Rb_treeINSt7__cxx1112basic_stringIcSt11char_traitsIcESaIcEEESt4pairIKS5_N9benchmark7CounterEESt10_Select1stISA_ESt4lessIS5_ESaISA_EE17_M_insert_unique_IRKSA_NSG_11_Alloc_nodeEEESt17_Rb_tree_iteratorISA_ESt23_Rb_tree_const_iteratorISA_EOT_RT0_ # -- Begin function _ZNSt8_Rb_treeINSt7__cxx1112basic_stringIcSt11char_traitsIcESaIcEEESt4pairIKS5_N9benchmark7CounterEESt10_Select1stISA_ESt4lessIS5_ESaISA_EE17_M_insert_unique_IRKSA_NSG_11_Alloc_nodeEEESt17_Rb_tree_iteratorISA_ESt23_Rb_tree_const_iteratorISA_EOT_RT0_
	.weak	_ZNSt8_Rb_treeINSt7__cxx1112basic_stringIcSt11char_traitsIcESaIcEEESt4pairIKS5_N9benchmark7CounterEESt10_Select1stISA_ESt4lessIS5_ESaISA_EE17_M_insert_unique_IRKSA_NSG_11_Alloc_nodeEEESt17_Rb_tree_iteratorISA_ESt23_Rb_tree_const_iteratorISA_EOT_RT0_
	.p2align	5
	.type	_ZNSt8_Rb_treeINSt7__cxx1112basic_stringIcSt11char_traitsIcESaIcEEESt4pairIKS5_N9benchmark7CounterEESt10_Select1stISA_ESt4lessIS5_ESaISA_EE17_M_insert_unique_IRKSA_NSG_11_Alloc_nodeEEESt17_Rb_tree_iteratorISA_ESt23_Rb_tree_const_iteratorISA_EOT_RT0_,@function
_ZNSt8_Rb_treeINSt7__cxx1112basic_stringIcSt11char_traitsIcESaIcEEESt4pairIKS5_N9benchmark7CounterEESt10_Select1stISA_ESt4lessIS5_ESaISA_EE17_M_insert_unique_IRKSA_NSG_11_Alloc_nodeEEESt17_Rb_tree_iteratorISA_ESt23_Rb_tree_const_iteratorISA_EOT_RT0_: # @_ZNSt8_Rb_treeINSt7__cxx1112basic_stringIcSt11char_traitsIcESaIcEEESt4pairIKS5_N9benchmark7CounterEESt10_Select1stISA_ESt4lessIS5_ESaISA_EE17_M_insert_unique_IRKSA_NSG_11_Alloc_nodeEEESt17_Rb_tree_iteratorISA_ESt23_Rb_tree_const_iteratorISA_EOT_RT0_
	.cfi_startproc
# %bb.0:
	addi.d	$sp, $sp, -64
	.cfi_def_cfa_offset 64
	st.d	$ra, $sp, 56                    # 8-byte Folded Spill
	st.d	$fp, $sp, 48                    # 8-byte Folded Spill
	st.d	$s0, $sp, 40                    # 8-byte Folded Spill
	st.d	$s1, $sp, 32                    # 8-byte Folded Spill
	st.d	$s2, $sp, 24                    # 8-byte Folded Spill
	st.d	$s3, $sp, 16                    # 8-byte Folded Spill
	st.d	$s4, $sp, 8                     # 8-byte Folded Spill
	st.d	$s5, $sp, 0                     # 8-byte Folded Spill
	.cfi_offset 1, -8
	.cfi_offset 22, -16
	.cfi_offset 23, -24
	.cfi_offset 24, -32
	.cfi_offset 25, -40
	.cfi_offset 26, -48
	.cfi_offset 27, -56
	.cfi_offset 28, -64
	move	$s3, $a3
	move	$s0, $a2
	move	$fp, $a0
	pcaddu18i	$ra, %call36(_ZNSt8_Rb_treeINSt7__cxx1112basic_stringIcSt11char_traitsIcESaIcEEESt4pairIKS5_N9benchmark7CounterEESt10_Select1stISA_ESt4lessIS5_ESaISA_EE29_M_get_insert_hint_unique_posESt23_Rb_tree_const_iteratorISA_ERS7_)
	jirl	$ra, $ra, 0
	beqz	$a1, .LBB9_8
# %bb.1:
	move	$s1, $a1
	addi.d	$s2, $fp, 8
	ori	$s4, $zero, 1
	bnez	$a0, .LBB9_7
# %bb.2:
	beq	$s2, $s1, .LBB9_7
# %bb.3:
	ld.d	$s4, $s0, 8
	ld.d	$s5, $s1, 40
	sltu	$a0, $s5, $s4
	masknez	$a1, $s4, $a0
	maskeqz	$a0, $s5, $a0
	or	$a2, $a0, $a1
	beqz	$a2, .LBB9_5
# %bb.4:                                # %_ZNSt11char_traitsIcE7compareEPKcS2_m.exit.i.i.i.i
	ld.d	$a1, $s1, 32
	ld.d	$a0, $s0, 0
	pcaddu18i	$ra, %call36(memcmp)
	jirl	$ra, $ra, 0
	bnez	$a0, .LBB9_6
.LBB9_5:                                # %_ZNSt11char_traitsIcE7compareEPKcS2_m.exit.thread.i.i.i.i
	sub.d	$a0, $s4, $s5
	lu12i.w	$a1, -524288
	slt	$a2, $a1, $a0
	maskeqz	$a0, $a0, $a2
	masknez	$a1, $a1, $a2
	or	$a0, $a0, $a1
	lu12i.w	$a1, 524287
	ori	$a1, $a1, 4095
	slt	$a2, $a0, $a1
	maskeqz	$a0, $a0, $a2
	masknez	$a1, $a1, $a2
	or	$a0, $a0, $a1
.LBB9_6:                                # %_ZNKSt4lessINSt7__cxx1112basic_stringIcSt11char_traitsIcESaIcEEEEclERKS5_S8_.exit.i
	addi.w	$a0, $a0, 0
	slti	$s4, $a0, 0
.LBB9_7:                                # %_ZNSt8_Rb_treeINSt7__cxx1112basic_stringIcSt11char_traitsIcESaIcEEESt4pairIKS5_N9benchmark7CounterEESt10_Select1stISA_ESt4lessIS5_ESaISA_EE10_M_insert_IRKSA_NSG_11_Alloc_nodeEEESt17_Rb_tree_iteratorISA_EPSt18_Rb_tree_node_baseSO_OT_RT0_.exit
	ld.d	$s3, $s3, 0
	ori	$a0, $zero, 80
	pcaddu18i	$ra, %call36(_Znwm)
	jirl	$ra, $ra, 0
	move	$s5, $a0
	move	$a0, $s3
	move	$a1, $s5
	move	$a2, $s0
	pcaddu18i	$ra, %call36(_ZNSt8_Rb_treeINSt7__cxx1112basic_stringIcSt11char_traitsIcESaIcEEESt4pairIKS5_N9benchmark7CounterEESt10_Select1stISA_ESt4lessIS5_ESaISA_EE17_M_construct_nodeIJRKSA_EEEvPSt13_Rb_tree_nodeISA_EDpOT_)
	jirl	$ra, $ra, 0
	move	$a0, $s4
	move	$a1, $s5
	move	$a2, $s1
	move	$a3, $s2
	pcaddu18i	$ra, %call36(_ZSt29_Rb_tree_insert_and_rebalancebPSt18_Rb_tree_node_baseS0_RS_)
	jirl	$ra, $ra, 0
	move	$a0, $s5
	ld.d	$a1, $fp, 40
	addi.d	$a1, $a1, 1
	st.d	$a1, $fp, 40
.LBB9_8:
	ld.d	$s5, $sp, 0                     # 8-byte Folded Reload
	ld.d	$s4, $sp, 8                     # 8-byte Folded Reload
	ld.d	$s3, $sp, 16                    # 8-byte Folded Reload
	ld.d	$s2, $sp, 24                    # 8-byte Folded Reload
	ld.d	$s1, $sp, 32                    # 8-byte Folded Reload
	ld.d	$s0, $sp, 40                    # 8-byte Folded Reload
	ld.d	$fp, $sp, 48                    # 8-byte Folded Reload
	ld.d	$ra, $sp, 56                    # 8-byte Folded Reload
	addi.d	$sp, $sp, 64
	ret
.Lfunc_end9:
	.size	_ZNSt8_Rb_treeINSt7__cxx1112basic_stringIcSt11char_traitsIcESaIcEEESt4pairIKS5_N9benchmark7CounterEESt10_Select1stISA_ESt4lessIS5_ESaISA_EE17_M_insert_unique_IRKSA_NSG_11_Alloc_nodeEEESt17_Rb_tree_iteratorISA_ESt23_Rb_tree_const_iteratorISA_EOT_RT0_, .Lfunc_end9-_ZNSt8_Rb_treeINSt7__cxx1112basic_stringIcSt11char_traitsIcESaIcEEESt4pairIKS5_N9benchmark7CounterEESt10_Select1stISA_ESt4lessIS5_ESaISA_EE17_M_insert_unique_IRKSA_NSG_11_Alloc_nodeEEESt17_Rb_tree_iteratorISA_ESt23_Rb_tree_const_iteratorISA_EOT_RT0_
	.cfi_endproc
                                        # -- End function
	.section	.text._ZNSt8_Rb_treeINSt7__cxx1112basic_stringIcSt11char_traitsIcESaIcEEESt4pairIKS5_N9benchmark7CounterEESt10_Select1stISA_ESt4lessIS5_ESaISA_EE29_M_get_insert_hint_unique_posESt23_Rb_tree_const_iteratorISA_ERS7_,"axG",@progbits,_ZNSt8_Rb_treeINSt7__cxx1112basic_stringIcSt11char_traitsIcESaIcEEESt4pairIKS5_N9benchmark7CounterEESt10_Select1stISA_ESt4lessIS5_ESaISA_EE29_M_get_insert_hint_unique_posESt23_Rb_tree_const_iteratorISA_ERS7_,comdat
	.hidden	_ZNSt8_Rb_treeINSt7__cxx1112basic_stringIcSt11char_traitsIcESaIcEEESt4pairIKS5_N9benchmark7CounterEESt10_Select1stISA_ESt4lessIS5_ESaISA_EE29_M_get_insert_hint_unique_posESt23_Rb_tree_const_iteratorISA_ERS7_ # -- Begin function _ZNSt8_Rb_treeINSt7__cxx1112basic_stringIcSt11char_traitsIcESaIcEEESt4pairIKS5_N9benchmark7CounterEESt10_Select1stISA_ESt4lessIS5_ESaISA_EE29_M_get_insert_hint_unique_posESt23_Rb_tree_const_iteratorISA_ERS7_
	.weak	_ZNSt8_Rb_treeINSt7__cxx1112basic_stringIcSt11char_traitsIcESaIcEEESt4pairIKS5_N9benchmark7CounterEESt10_Select1stISA_ESt4lessIS5_ESaISA_EE29_M_get_insert_hint_unique_posESt23_Rb_tree_const_iteratorISA_ERS7_
	.p2align	5
	.type	_ZNSt8_Rb_treeINSt7__cxx1112basic_stringIcSt11char_traitsIcESaIcEEESt4pairIKS5_N9benchmark7CounterEESt10_Select1stISA_ESt4lessIS5_ESaISA_EE29_M_get_insert_hint_unique_posESt23_Rb_tree_const_iteratorISA_ERS7_,@function
_ZNSt8_Rb_treeINSt7__cxx1112basic_stringIcSt11char_traitsIcESaIcEEESt4pairIKS5_N9benchmark7CounterEESt10_Select1stISA_ESt4lessIS5_ESaISA_EE29_M_get_insert_hint_unique_posESt23_Rb_tree_const_iteratorISA_ERS7_: # @_ZNSt8_Rb_treeINSt7__cxx1112basic_stringIcSt11char_traitsIcESaIcEEESt4pairIKS5_N9benchmark7CounterEESt10_Select1stISA_ESt4lessIS5_ESaISA_EE29_M_get_insert_hint_unique_posESt23_Rb_tree_const_iteratorISA_ERS7_
	.cfi_startproc
# %bb.0:
	addi.d	$sp, $sp, -80
	.cfi_def_cfa_offset 80
	st.d	$ra, $sp, 72                    # 8-byte Folded Spill
	st.d	$fp, $sp, 64                    # 8-byte Folded Spill
	st.d	$s0, $sp, 56                    # 8-byte Folded Spill
	st.d	$s1, $sp, 48                    # 8-byte Folded Spill
	st.d	$s2, $sp, 40                    # 8-byte Folded Spill
	st.d	$s3, $sp, 32                    # 8-byte Folded Spill
	st.d	$s4, $sp, 24                    # 8-byte Folded Spill
	st.d	$s5, $sp, 16                    # 8-byte Folded Spill
	st.d	$s6, $sp, 8                     # 8-byte Folded Spill
	.cfi_offset 1, -8
	.cfi_offset 22, -16
	.cfi_offset 23, -24
	.cfi_offset 24, -32
	.cfi_offset 25, -40
	.cfi_offset 26, -48
	.cfi_offset 27, -56
	.cfi_offset 28, -64
	.cfi_offset 29, -72
	move	$s1, $a0
	addi.d	$a0, $a0, 8
	move	$s0, $a2
	beq	$a0, $a1, .LBB10_4
# %bb.1:
	move	$fp, $a1
	ld.d	$s5, $s0, 8
	ld.d	$s6, $a1, 40
	sltu	$a0, $s6, $s5
	masknez	$a1, $s5, $a0
	maskeqz	$a0, $s6, $a0
	or	$s2, $a0, $a1
	beqz	$s2, .LBB10_10
# %bb.2:                                # %_ZNSt11char_traitsIcE7compareEPKcS2_m.exit.i.i.i22
	ld.d	$s3, $fp, 32
	ld.d	$s4, $s0, 0
	move	$a0, $s4
	move	$a1, $s3
	move	$a2, $s2
	pcaddu18i	$ra, %call36(memcmp)
	jirl	$ra, $ra, 0
	beqz	$a0, .LBB10_11
# %bb.3:                                # %_ZNKSt4lessINSt7__cxx1112basic_stringIcSt11char_traitsIcESaIcEEEEclERKS5_S8_.exit29.thread
	bltz	$a0, .LBB10_12
	b	.LBB10_18
.LBB10_4:
	ld.d	$a0, $s1, 40
	beqz	$a0, .LBB10_28
# %bb.5:
	ld.d	$a1, $s1, 32
	ld.d	$fp, $a1, 40
	ld.d	$s2, $s0, 8
	sltu	$a0, $s2, $fp
	masknez	$a2, $fp, $a0
	maskeqz	$a0, $s2, $a0
	or	$a2, $a0, $a2
	beqz	$a2, .LBB10_7
# %bb.6:                                # %_ZNSt11char_traitsIcE7compareEPKcS2_m.exit.i.i.i
	ld.d	$a3, $s0, 0
	ld.d	$a0, $a1, 32
	move	$s3, $a1
	move	$a1, $a3
	pcaddu18i	$ra, %call36(memcmp)
	jirl	$ra, $ra, 0
	move	$a1, $s3
	bnez	$a0, .LBB10_8
.LBB10_7:                               # %_ZNSt11char_traitsIcE7compareEPKcS2_m.exit.thread.i.i.i
	sub.d	$a0, $fp, $s2
	lu12i.w	$a2, -524288
	slt	$a3, $a2, $a0
	maskeqz	$a0, $a0, $a3
	masknez	$a2, $a2, $a3
	or	$a0, $a0, $a2
	lu12i.w	$a2, 524287
	ori	$a2, $a2, 4095
	slt	$a3, $a0, $a2
	maskeqz	$a0, $a0, $a3
	masknez	$a2, $a2, $a3
	or	$a0, $a0, $a2
.LBB10_8:                               # %_ZNKSt4lessINSt7__cxx1112basic_stringIcSt11char_traitsIcESaIcEEEEclERKS5_S8_.exit
	addi.w	$a0, $a0, 0
	bgez	$a0, .LBB10_28
# %bb.9:
	move	$fp, $zero
	b	.LBB10_29
.LBB10_10:                              # %_ZNKSt4lessINSt7__cxx1112basic_stringIcSt11char_traitsIcESaIcEEEEclERKS5_S8_.exit29
	bltu	$s5, $s6, .LBB10_12
	b	.LBB10_19
.LBB10_11:                              # %_ZNKSt4lessINSt7__cxx1112basic_stringIcSt11char_traitsIcESaIcEEEEclERKS5_S8_.exit29.thread81
	bgeu	$s5, $s6, .LBB10_18
.LBB10_12:
	ld.d	$a0, $s1, 24
	beq	$a0, $fp, .LBB10_22
# %bb.13:
	move	$a0, $fp
	pcaddu18i	$ra, %call36(_ZSt18_Rb_tree_decrementPSt18_Rb_tree_node_base)
	jirl	$ra, $ra, 0
	move	$s2, $a0
	ld.d	$s3, $a0, 40
	sltu	$a0, $s5, $s3
	masknez	$a1, $s3, $a0
	maskeqz	$a0, $s5, $a0
	or	$a2, $a0, $a1
	beqz	$a2, .LBB10_15
# %bb.14:                               # %_ZNSt11char_traitsIcE7compareEPKcS2_m.exit.i.i.i31
	ld.d	$a1, $s0, 0
	ld.d	$a0, $s2, 32
	pcaddu18i	$ra, %call36(memcmp)
	jirl	$ra, $ra, 0
	bnez	$a0, .LBB10_16
.LBB10_15:                              # %_ZNSt11char_traitsIcE7compareEPKcS2_m.exit.thread.i.i.i34
	sub.d	$a0, $s3, $s5
	lu12i.w	$a1, -524288
	slt	$a2, $a1, $a0
	maskeqz	$a0, $a0, $a2
	masknez	$a1, $a1, $a2
	or	$a0, $a0, $a1
	lu12i.w	$a1, 524287
	ori	$a1, $a1, 4095
	slt	$a2, $a0, $a1
	maskeqz	$a0, $a0, $a2
	masknez	$a1, $a1, $a2
	or	$a0, $a0, $a1
.LBB10_16:                              # %_ZNKSt4lessINSt7__cxx1112basic_stringIcSt11char_traitsIcESaIcEEEEclERKS5_S8_.exit38
	addi.w	$a0, $a0, 0
	bgez	$a0, .LBB10_28
# %bb.17:
	ld.d	$a0, $s2, 24
	sltui	$a0, $a0, 1
	masknez	$fp, $fp, $a0
	maskeqz	$a0, $s2, $a0
	or	$a1, $a0, $fp
	b	.LBB10_29
.LBB10_18:                              # %_ZNSt11char_traitsIcE7compareEPKcS2_m.exit.i.i.i40
	move	$a0, $s3
	move	$a1, $s4
	move	$a2, $s2
	pcaddu18i	$ra, %call36(memcmp)
	jirl	$ra, $ra, 0
	bnez	$a0, .LBB10_20
.LBB10_19:                              # %_ZNSt11char_traitsIcE7compareEPKcS2_m.exit.thread.i.i.i43
	sub.d	$a0, $s6, $s5
	lu12i.w	$a1, -524288
	slt	$a2, $a1, $a0
	maskeqz	$a0, $a0, $a2
	masknez	$a1, $a1, $a2
	or	$a0, $a0, $a1
	lu12i.w	$a1, 524287
	ori	$a1, $a1, 4095
	slt	$a2, $a0, $a1
	maskeqz	$a0, $a0, $a2
	masknez	$a1, $a1, $a2
	or	$a0, $a0, $a1
.LBB10_20:                              # %_ZNKSt4lessINSt7__cxx1112basic_stringIcSt11char_traitsIcESaIcEEEEclERKS5_S8_.exit47
	addi.w	$a0, $a0, 0
	bltz	$a0, .LBB10_23
# %bb.21:
	move	$a1, $zero
	b	.LBB10_29
.LBB10_22:
	move	$a1, $fp
	b	.LBB10_29
.LBB10_23:
	ld.d	$a0, $s1, 32
	beq	$a0, $fp, .LBB10_30
# %bb.24:
	move	$a0, $fp
	pcaddu18i	$ra, %call36(_ZSt18_Rb_tree_incrementPSt18_Rb_tree_node_base)
	jirl	$ra, $ra, 0
	move	$s2, $a0
	ld.d	$s3, $a0, 40
	sltu	$a0, $s3, $s5
	masknez	$a1, $s5, $a0
	maskeqz	$a0, $s3, $a0
	or	$a2, $a0, $a1
	beqz	$a2, .LBB10_26
# %bb.25:                               # %_ZNSt11char_traitsIcE7compareEPKcS2_m.exit.i.i.i49
	ld.d	$a1, $s2, 32
	ld.d	$a0, $s0, 0
	pcaddu18i	$ra, %call36(memcmp)
	jirl	$ra, $ra, 0
	bnez	$a0, .LBB10_27
.LBB10_26:                              # %_ZNSt11char_traitsIcE7compareEPKcS2_m.exit.thread.i.i.i52
	sub.d	$a0, $s5, $s3
	lu12i.w	$a1, -524288
	slt	$a2, $a1, $a0
	maskeqz	$a0, $a0, $a2
	masknez	$a1, $a1, $a2
	or	$a0, $a0, $a1
	lu12i.w	$a1, 524287
	ori	$a1, $a1, 4095
	slt	$a2, $a0, $a1
	maskeqz	$a0, $a0, $a2
	masknez	$a1, $a1, $a2
	or	$a0, $a0, $a1
.LBB10_27:                              # %_ZNKSt4lessINSt7__cxx1112basic_stringIcSt11char_traitsIcESaIcEEEEclERKS5_S8_.exit56
	addi.w	$a0, $a0, 0
	bltz	$a0, .LBB10_31
.LBB10_28:
	move	$a0, $s1
	move	$a1, $s0
	pcaddu18i	$ra, %call36(_ZNSt8_Rb_treeINSt7__cxx1112basic_stringIcSt11char_traitsIcESaIcEEESt4pairIKS5_N9benchmark7CounterEESt10_Select1stISA_ESt4lessIS5_ESaISA_EE24_M_get_insert_unique_posERS7_)
	jirl	$ra, $ra, 0
	move	$fp, $a0
.LBB10_29:
	move	$a0, $fp
	ld.d	$s6, $sp, 8                     # 8-byte Folded Reload
	ld.d	$s5, $sp, 16                    # 8-byte Folded Reload
	ld.d	$s4, $sp, 24                    # 8-byte Folded Reload
	ld.d	$s3, $sp, 32                    # 8-byte Folded Reload
	ld.d	$s2, $sp, 40                    # 8-byte Folded Reload
	ld.d	$s1, $sp, 48                    # 8-byte Folded Reload
	ld.d	$s0, $sp, 56                    # 8-byte Folded Reload
	ld.d	$fp, $sp, 64                    # 8-byte Folded Reload
	ld.d	$ra, $sp, 72                    # 8-byte Folded Reload
	addi.d	$sp, $sp, 80
	ret
.LBB10_30:
	move	$a1, $fp
	move	$fp, $zero
	b	.LBB10_29
.LBB10_31:
	ld.d	$a0, $fp, 24
	sltui	$a0, $a0, 1
	maskeqz	$a1, $fp, $a0
	masknez	$fp, $s2, $a0
	or	$a1, $a1, $fp
	b	.LBB10_29
.Lfunc_end10:
	.size	_ZNSt8_Rb_treeINSt7__cxx1112basic_stringIcSt11char_traitsIcESaIcEEESt4pairIKS5_N9benchmark7CounterEESt10_Select1stISA_ESt4lessIS5_ESaISA_EE29_M_get_insert_hint_unique_posESt23_Rb_tree_const_iteratorISA_ERS7_, .Lfunc_end10-_ZNSt8_Rb_treeINSt7__cxx1112basic_stringIcSt11char_traitsIcESaIcEEESt4pairIKS5_N9benchmark7CounterEESt10_Select1stISA_ESt4lessIS5_ESaISA_EE29_M_get_insert_hint_unique_posESt23_Rb_tree_const_iteratorISA_ERS7_
	.cfi_endproc
                                        # -- End function
	.section	.text._ZNSt8_Rb_treeINSt7__cxx1112basic_stringIcSt11char_traitsIcESaIcEEESt4pairIKS5_N9benchmark7CounterEESt10_Select1stISA_ESt4lessIS5_ESaISA_EE24_M_get_insert_unique_posERS7_,"axG",@progbits,_ZNSt8_Rb_treeINSt7__cxx1112basic_stringIcSt11char_traitsIcESaIcEEESt4pairIKS5_N9benchmark7CounterEESt10_Select1stISA_ESt4lessIS5_ESaISA_EE24_M_get_insert_unique_posERS7_,comdat
	.hidden	_ZNSt8_Rb_treeINSt7__cxx1112basic_stringIcSt11char_traitsIcESaIcEEESt4pairIKS5_N9benchmark7CounterEESt10_Select1stISA_ESt4lessIS5_ESaISA_EE24_M_get_insert_unique_posERS7_ # -- Begin function _ZNSt8_Rb_treeINSt7__cxx1112basic_stringIcSt11char_traitsIcESaIcEEESt4pairIKS5_N9benchmark7CounterEESt10_Select1stISA_ESt4lessIS5_ESaISA_EE24_M_get_insert_unique_posERS7_
	.weak	_ZNSt8_Rb_treeINSt7__cxx1112basic_stringIcSt11char_traitsIcESaIcEEESt4pairIKS5_N9benchmark7CounterEESt10_Select1stISA_ESt4lessIS5_ESaISA_EE24_M_get_insert_unique_posERS7_
	.p2align	5
	.type	_ZNSt8_Rb_treeINSt7__cxx1112basic_stringIcSt11char_traitsIcESaIcEEESt4pairIKS5_N9benchmark7CounterEESt10_Select1stISA_ESt4lessIS5_ESaISA_EE24_M_get_insert_unique_posERS7_,@function
_ZNSt8_Rb_treeINSt7__cxx1112basic_stringIcSt11char_traitsIcESaIcEEESt4pairIKS5_N9benchmark7CounterEESt10_Select1stISA_ESt4lessIS5_ESaISA_EE24_M_get_insert_unique_posERS7_: # @_ZNSt8_Rb_treeINSt7__cxx1112basic_stringIcSt11char_traitsIcESaIcEEESt4pairIKS5_N9benchmark7CounterEESt10_Select1stISA_ESt4lessIS5_ESaISA_EE24_M_get_insert_unique_posERS7_
	.cfi_startproc
# %bb.0:
	addi.d	$sp, $sp, -96
	.cfi_def_cfa_offset 96
	st.d	$ra, $sp, 88                    # 8-byte Folded Spill
	st.d	$fp, $sp, 80                    # 8-byte Folded Spill
	st.d	$s0, $sp, 72                    # 8-byte Folded Spill
	st.d	$s1, $sp, 64                    # 8-byte Folded Spill
	st.d	$s2, $sp, 56                    # 8-byte Folded Spill
	st.d	$s3, $sp, 48                    # 8-byte Folded Spill
	st.d	$s4, $sp, 40                    # 8-byte Folded Spill
	st.d	$s5, $sp, 32                    # 8-byte Folded Spill
	st.d	$s6, $sp, 24                    # 8-byte Folded Spill
	st.d	$s7, $sp, 16                    # 8-byte Folded Spill
	st.d	$s8, $sp, 8                     # 8-byte Folded Spill
	.cfi_offset 1, -8
	.cfi_offset 22, -16
	.cfi_offset 23, -24
	.cfi_offset 24, -32
	.cfi_offset 25, -40
	.cfi_offset 26, -48
	.cfi_offset 27, -56
	.cfi_offset 28, -64
	.cfi_offset 29, -72
	.cfi_offset 30, -80
	.cfi_offset 31, -88
	move	$s1, $a0
	ld.d	$a0, $a0, 16
	move	$s0, $a1
	lu12i.w	$s4, -524288
	lu12i.w	$s3, 524287
	beqz	$a0, .LBB11_13
# %bb.1:                                # %.lr.ph
	ld.d	$s5, $s0, 8
	ld.d	$s2, $s0, 0
	ori	$s6, $s3, 4095
	ori	$s7, $zero, 24
	ori	$s8, $zero, 16
	b	.LBB11_4
	.p2align	4, , 16
.LBB11_2:                               # %_ZNSt11char_traitsIcE7compareEPKcS2_m.exit.thread.i.i.i
                                        #   in Loop: Header=BB11_4 Depth=1
	sub.d	$a0, $s5, $s3
	slt	$a1, $s4, $a0
	maskeqz	$a0, $a0, $a1
	masknez	$a1, $s4, $a1
	or	$a0, $a0, $a1
	slt	$a1, $a0, $s6
	maskeqz	$a0, $a0, $a1
	masknez	$a1, $s6, $a1
	or	$a0, $a0, $a1
.LBB11_3:                               # %_ZNKSt4lessINSt7__cxx1112basic_stringIcSt11char_traitsIcESaIcEEEEclERKS5_S8_.exit
                                        #   in Loop: Header=BB11_4 Depth=1
	addi.w	$a1, $a0, 0
	slti	$a0, $a1, 0
	masknez	$a2, $s7, $a0
	maskeqz	$a0, $s8, $a0
	or	$a0, $a0, $a2
	ldx.d	$a0, $fp, $a0
	beqz	$a0, .LBB11_6
.LBB11_4:                               # =>This Inner Loop Header: Depth=1
	move	$fp, $a0
	ld.d	$s3, $a0, 40
	sltu	$a0, $s3, $s5
	masknez	$a1, $s5, $a0
	maskeqz	$a0, $s3, $a0
	or	$a2, $a0, $a1
	beqz	$a2, .LBB11_2
# %bb.5:                                # %_ZNSt11char_traitsIcE7compareEPKcS2_m.exit.i.i.i
                                        #   in Loop: Header=BB11_4 Depth=1
	ld.d	$a1, $fp, 32
	move	$a0, $s2
	pcaddu18i	$ra, %call36(memcmp)
	jirl	$ra, $ra, 0
	bnez	$a0, .LBB11_3
	b	.LBB11_2
.LBB11_6:                               # %._crit_edge
	move	$s2, $fp
	lu12i.w	$s3, 524287
	bgez	$a1, .LBB11_9
# %bb.7:                                # %._crit_edge.thread
	ld.d	$a0, $s1, 24
	beq	$fp, $a0, .LBB11_14
.LBB11_8:
	move	$a0, $fp
	pcaddu18i	$ra, %call36(_ZSt18_Rb_tree_decrementPSt18_Rb_tree_node_base)
	jirl	$ra, $ra, 0
	move	$s2, $a0
.LBB11_9:
	ld.d	$s1, $s2, 40
	ld.d	$s5, $s0, 8
	sltu	$a0, $s5, $s1
	masknez	$a1, $s1, $a0
	maskeqz	$a0, $s5, $a0
	or	$a2, $a0, $a1
	beqz	$a2, .LBB11_11
# %bb.10:                               # %_ZNSt11char_traitsIcE7compareEPKcS2_m.exit.i.i.i6
	ld.d	$a1, $s0, 0
	ld.d	$a0, $s2, 32
	pcaddu18i	$ra, %call36(memcmp)
	jirl	$ra, $ra, 0
	bnez	$a0, .LBB11_12
.LBB11_11:                              # %_ZNSt11char_traitsIcE7compareEPKcS2_m.exit.thread.i.i.i9
	sub.d	$a0, $s1, $s5
	slt	$a1, $s4, $a0
	maskeqz	$a0, $a0, $a1
	masknez	$a1, $s4, $a1
	or	$a0, $a0, $a1
	ori	$a1, $s3, 4095
	slt	$a2, $a0, $a1
	maskeqz	$a0, $a0, $a2
	masknez	$a1, $a1, $a2
	or	$a0, $a0, $a1
.LBB11_12:                              # %_ZNKSt4lessINSt7__cxx1112basic_stringIcSt11char_traitsIcESaIcEEEEclERKS5_S8_.exit13
	addi.w	$a0, $a0, 0
	slti	$a1, $a0, 0
	srai.d	$a0, $a0, 63
	and	$fp, $a0, $fp
	masknez	$a0, $s2, $a1
	b	.LBB11_15
.LBB11_13:
	addi.d	$fp, $s1, 8
	ld.d	$a0, $s1, 24
	bne	$fp, $a0, .LBB11_8
.LBB11_14:
	move	$a0, $zero
.LBB11_15:
	move	$a1, $fp
	ld.d	$s8, $sp, 8                     # 8-byte Folded Reload
	ld.d	$s7, $sp, 16                    # 8-byte Folded Reload
	ld.d	$s6, $sp, 24                    # 8-byte Folded Reload
	ld.d	$s5, $sp, 32                    # 8-byte Folded Reload
	ld.d	$s4, $sp, 40                    # 8-byte Folded Reload
	ld.d	$s3, $sp, 48                    # 8-byte Folded Reload
	ld.d	$s2, $sp, 56                    # 8-byte Folded Reload
	ld.d	$s1, $sp, 64                    # 8-byte Folded Reload
	ld.d	$s0, $sp, 72                    # 8-byte Folded Reload
	ld.d	$fp, $sp, 80                    # 8-byte Folded Reload
	ld.d	$ra, $sp, 88                    # 8-byte Folded Reload
	addi.d	$sp, $sp, 96
	ret
.Lfunc_end11:
	.size	_ZNSt8_Rb_treeINSt7__cxx1112basic_stringIcSt11char_traitsIcESaIcEEESt4pairIKS5_N9benchmark7CounterEESt10_Select1stISA_ESt4lessIS5_ESaISA_EE24_M_get_insert_unique_posERS7_, .Lfunc_end11-_ZNSt8_Rb_treeINSt7__cxx1112basic_stringIcSt11char_traitsIcESaIcEEESt4pairIKS5_N9benchmark7CounterEESt10_Select1stISA_ESt4lessIS5_ESaISA_EE24_M_get_insert_unique_posERS7_
	.cfi_endproc
                                        # -- End function
	.section	.text._ZNSt8_Rb_treeINSt7__cxx1112basic_stringIcSt11char_traitsIcESaIcEEESt4pairIKS5_N9benchmark7CounterEESt10_Select1stISA_ESt4lessIS5_ESaISA_EE17_M_construct_nodeIJRKSA_EEEvPSt13_Rb_tree_nodeISA_EDpOT_,"axG",@progbits,_ZNSt8_Rb_treeINSt7__cxx1112basic_stringIcSt11char_traitsIcESaIcEEESt4pairIKS5_N9benchmark7CounterEESt10_Select1stISA_ESt4lessIS5_ESaISA_EE17_M_construct_nodeIJRKSA_EEEvPSt13_Rb_tree_nodeISA_EDpOT_,comdat
	.hidden	_ZNSt8_Rb_treeINSt7__cxx1112basic_stringIcSt11char_traitsIcESaIcEEESt4pairIKS5_N9benchmark7CounterEESt10_Select1stISA_ESt4lessIS5_ESaISA_EE17_M_construct_nodeIJRKSA_EEEvPSt13_Rb_tree_nodeISA_EDpOT_ # -- Begin function _ZNSt8_Rb_treeINSt7__cxx1112basic_stringIcSt11char_traitsIcESaIcEEESt4pairIKS5_N9benchmark7CounterEESt10_Select1stISA_ESt4lessIS5_ESaISA_EE17_M_construct_nodeIJRKSA_EEEvPSt13_Rb_tree_nodeISA_EDpOT_
	.weak	_ZNSt8_Rb_treeINSt7__cxx1112basic_stringIcSt11char_traitsIcESaIcEEESt4pairIKS5_N9benchmark7CounterEESt10_Select1stISA_ESt4lessIS5_ESaISA_EE17_M_construct_nodeIJRKSA_EEEvPSt13_Rb_tree_nodeISA_EDpOT_
	.p2align	5
	.type	_ZNSt8_Rb_treeINSt7__cxx1112basic_stringIcSt11char_traitsIcESaIcEEESt4pairIKS5_N9benchmark7CounterEESt10_Select1stISA_ESt4lessIS5_ESaISA_EE17_M_construct_nodeIJRKSA_EEEvPSt13_Rb_tree_nodeISA_EDpOT_,@function
_ZNSt8_Rb_treeINSt7__cxx1112basic_stringIcSt11char_traitsIcESaIcEEESt4pairIKS5_N9benchmark7CounterEESt10_Select1stISA_ESt4lessIS5_ESaISA_EE17_M_construct_nodeIJRKSA_EEEvPSt13_Rb_tree_nodeISA_EDpOT_: # @_ZNSt8_Rb_treeINSt7__cxx1112basic_stringIcSt11char_traitsIcESaIcEEESt4pairIKS5_N9benchmark7CounterEESt10_Select1stISA_ESt4lessIS5_ESaISA_EE17_M_construct_nodeIJRKSA_EEEvPSt13_Rb_tree_nodeISA_EDpOT_
.Lfunc_begin2:
	.cfi_startproc
	.cfi_personality 155, DW.ref.__gxx_personality_v0
	.cfi_lsda 27, .Lexception2
# %bb.0:
	addi.d	$sp, $sp, -64
	.cfi_def_cfa_offset 64
	st.d	$ra, $sp, 56                    # 8-byte Folded Spill
	st.d	$fp, $sp, 48                    # 8-byte Folded Spill
	st.d	$s0, $sp, 40                    # 8-byte Folded Spill
	st.d	$s1, $sp, 32                    # 8-byte Folded Spill
	st.d	$s2, $sp, 24                    # 8-byte Folded Spill
	st.d	$s3, $sp, 16                    # 8-byte Folded Spill
	.cfi_offset 1, -8
	.cfi_offset 22, -16
	.cfi_offset 23, -24
	.cfi_offset 24, -32
	.cfi_offset 25, -40
	.cfi_offset 26, -48
	move	$s0, $a2
	move	$fp, $a1
	addi.d	$s1, $a1, 48
	st.d	$s1, $a1, 32
	ld.d	$a1, $a2, 8
	ld.d	$s2, $a2, 0
	ori	$a0, $zero, 16
	st.d	$a1, $sp, 8
	bltu	$a1, $a0, .LBB12_3
# %bb.1:                                # %.noexc.i.i
.Ltmp546:
	addi.d	$s3, $fp, 32
	addi.d	$a1, $sp, 8
	move	$a0, $s3
	move	$a2, $zero
	pcaddu18i	$ra, %call36(_ZNSt7__cxx1112basic_stringIcSt11char_traitsIcESaIcEE9_M_createERmm)
	jirl	$ra, $ra, 0
.Ltmp547:
# %bb.2:                                # %.noexc
	ld.d	$a1, $sp, 8
	st.d	$a0, $s3, 0
	st.d	$a1, $s1, 0
	move	$s1, $a0
.LBB12_3:                               # %._crit_edge.i.i.i
	addi.w	$a0, $zero, -1
	beq	$a1, $a0, .LBB12_7
# %bb.4:                                # %._crit_edge.i.i.i
	bnez	$a1, .LBB12_6
# %bb.5:
	ld.b	$a0, $s2, 0
	st.b	$a0, $s1, 0
	b	.LBB12_7
.LBB12_6:
	addi.d	$a2, $a1, 1
	move	$a0, $s1
	move	$a1, $s2
	pcaddu18i	$ra, %call36(memcpy)
	jirl	$ra, $ra, 0
.LBB12_7:
	ld.d	$a0, $sp, 8
	st.d	$a0, $fp, 40
	vld	$vr0, $s0, 32
	vst	$vr0, $fp, 64
	ld.d	$s3, $sp, 16                    # 8-byte Folded Reload
	ld.d	$s2, $sp, 24                    # 8-byte Folded Reload
	ld.d	$s1, $sp, 32                    # 8-byte Folded Reload
	ld.d	$s0, $sp, 40                    # 8-byte Folded Reload
	ld.d	$fp, $sp, 48                    # 8-byte Folded Reload
	ld.d	$ra, $sp, 56                    # 8-byte Folded Reload
	addi.d	$sp, $sp, 64
	ret
.LBB12_8:
.Ltmp548:
	pcaddu18i	$ra, %call36(__cxa_begin_catch)
	jirl	$ra, $ra, 0
	ori	$a1, $zero, 80
	move	$a0, $fp
	pcaddu18i	$ra, %call36(_ZdlPvm)
	jirl	$ra, $ra, 0
.Ltmp549:
	pcaddu18i	$ra, %call36(__cxa_rethrow)
	jirl	$ra, $ra, 0
.Ltmp550:
# %bb.9:
.LBB12_10:
.Ltmp551:
	move	$fp, $a0
.Ltmp552:
	pcaddu18i	$ra, %call36(__cxa_end_catch)
	jirl	$ra, $ra, 0
.Ltmp553:
# %bb.11:
	move	$a0, $fp
	pcaddu18i	$ra, %call36(_Unwind_Resume)
	jirl	$ra, $ra, 0
.LBB12_12:
.Ltmp554:
	pcaddu18i	$ra, %call36(__clang_call_terminate)
	jirl	$ra, $ra, 0
.Lfunc_end12:
	.size	_ZNSt8_Rb_treeINSt7__cxx1112basic_stringIcSt11char_traitsIcESaIcEEESt4pairIKS5_N9benchmark7CounterEESt10_Select1stISA_ESt4lessIS5_ESaISA_EE17_M_construct_nodeIJRKSA_EEEvPSt13_Rb_tree_nodeISA_EDpOT_, .Lfunc_end12-_ZNSt8_Rb_treeINSt7__cxx1112basic_stringIcSt11char_traitsIcESaIcEEESt4pairIKS5_N9benchmark7CounterEESt10_Select1stISA_ESt4lessIS5_ESaISA_EE17_M_construct_nodeIJRKSA_EEEvPSt13_Rb_tree_nodeISA_EDpOT_
	.cfi_endproc
	.section	.gcc_except_table._ZNSt8_Rb_treeINSt7__cxx1112basic_stringIcSt11char_traitsIcESaIcEEESt4pairIKS5_N9benchmark7CounterEESt10_Select1stISA_ESt4lessIS5_ESaISA_EE17_M_construct_nodeIJRKSA_EEEvPSt13_Rb_tree_nodeISA_EDpOT_,"aG",@progbits,_ZNSt8_Rb_treeINSt7__cxx1112basic_stringIcSt11char_traitsIcESaIcEEESt4pairIKS5_N9benchmark7CounterEESt10_Select1stISA_ESt4lessIS5_ESaISA_EE17_M_construct_nodeIJRKSA_EEEvPSt13_Rb_tree_nodeISA_EDpOT_,comdat
	.p2align	2, 0x0
GCC_except_table12:
.Lexception2:
	.byte	255                             # @LPStart Encoding = omit
	.byte	155                             # @TType Encoding = indirect pcrel sdata4
	.uleb128 .Lttbase1-.Lttbaseref1
.Lttbaseref1:
	.byte	1                               # Call site Encoding = uleb128
	.uleb128 .Lcst_end2-.Lcst_begin2
.Lcst_begin2:
	.uleb128 .Ltmp546-.Lfunc_begin2         # >> Call Site 1 <<
	.uleb128 .Ltmp547-.Ltmp546              #   Call between .Ltmp546 and .Ltmp547
	.uleb128 .Ltmp548-.Lfunc_begin2         #     jumps to .Ltmp548
	.byte	1                               #   On action: 1
	.uleb128 .Ltmp547-.Lfunc_begin2         # >> Call Site 2 <<
	.uleb128 .Ltmp549-.Ltmp547              #   Call between .Ltmp547 and .Ltmp549
	.byte	0                               #     has no landing pad
	.byte	0                               #   On action: cleanup
	.uleb128 .Ltmp549-.Lfunc_begin2         # >> Call Site 3 <<
	.uleb128 .Ltmp550-.Ltmp549              #   Call between .Ltmp549 and .Ltmp550
	.uleb128 .Ltmp551-.Lfunc_begin2         #     jumps to .Ltmp551
	.byte	0                               #   On action: cleanup
	.uleb128 .Ltmp552-.Lfunc_begin2         # >> Call Site 4 <<
	.uleb128 .Ltmp553-.Ltmp552              #   Call between .Ltmp552 and .Ltmp553
	.uleb128 .Ltmp554-.Lfunc_begin2         #     jumps to .Ltmp554
	.byte	1                               #   On action: 1
	.uleb128 .Ltmp553-.Lfunc_begin2         # >> Call Site 5 <<
	.uleb128 .Lfunc_end12-.Ltmp553          #   Call between .Ltmp553 and .Lfunc_end12
	.byte	0                               #     has no landing pad
	.byte	0                               #   On action: cleanup
.Lcst_end2:
	.byte	1                               # >> Action Record 1 <<
                                        #   Catch TypeInfo 1
	.byte	0                               #   No further actions
	.p2align	2, 0x0
                                        # >> Catch TypeInfos <<
	.word	0                               # TypeInfo 1
.Lttbase1:
	.p2align	2, 0x0
                                        # -- End function
	.section	.text._ZNK7Results5GetAsIdEET_RKNSt7__cxx1112basic_stringIcSt11char_traitsIcESaIcEEE,"axG",@progbits,_ZNK7Results5GetAsIdEET_RKNSt7__cxx1112basic_stringIcSt11char_traitsIcESaIcEEE,comdat
	.hidden	_ZNK7Results5GetAsIdEET_RKNSt7__cxx1112basic_stringIcSt11char_traitsIcESaIcEEE # -- Begin function _ZNK7Results5GetAsIdEET_RKNSt7__cxx1112basic_stringIcSt11char_traitsIcESaIcEEE
	.weak	_ZNK7Results5GetAsIdEET_RKNSt7__cxx1112basic_stringIcSt11char_traitsIcESaIcEEE
	.p2align	5
	.type	_ZNK7Results5GetAsIdEET_RKNSt7__cxx1112basic_stringIcSt11char_traitsIcESaIcEEE,@function
_ZNK7Results5GetAsIdEET_RKNSt7__cxx1112basic_stringIcSt11char_traitsIcESaIcEEE: # @_ZNK7Results5GetAsIdEET_RKNSt7__cxx1112basic_stringIcSt11char_traitsIcESaIcEEE
.Lfunc_begin3:
	.cfi_startproc
	.cfi_personality 155, DW.ref.__gxx_personality_v0
	.cfi_lsda 27, .Lexception3
# %bb.0:
	addi.d	$sp, $sp, -512
	.cfi_def_cfa_offset 512
	st.d	$ra, $sp, 504                   # 8-byte Folded Spill
	st.d	$fp, $sp, 496                   # 8-byte Folded Spill
	st.d	$s0, $sp, 488                   # 8-byte Folded Spill
	st.d	$s1, $sp, 480                   # 8-byte Folded Spill
	st.d	$s2, $sp, 472                   # 8-byte Folded Spill
	st.d	$s3, $sp, 464                   # 8-byte Folded Spill
	st.d	$s4, $sp, 456                   # 8-byte Folded Spill
	st.d	$s5, $sp, 448                   # 8-byte Folded Spill
	st.d	$s6, $sp, 440                   # 8-byte Folded Spill
	st.d	$s7, $sp, 432                   # 8-byte Folded Spill
	st.d	$s8, $sp, 424                   # 8-byte Folded Spill
	fst.d	$fs0, $sp, 416                  # 8-byte Folded Spill
	.cfi_offset 1, -8
	.cfi_offset 22, -16
	.cfi_offset 23, -24
	.cfi_offset 24, -32
	.cfi_offset 25, -40
	.cfi_offset 26, -48
	.cfi_offset 27, -56
	.cfi_offset 28, -64
	.cfi_offset 29, -72
	.cfi_offset 30, -80
	.cfi_offset 31, -88
	.cfi_offset 56, -96
	ld.d	$s5, $a0, 48
	beqz	$s5, .LBB13_20
# %bb.1:                                # %.lr.ph.i.i.i.i
	addi.d	$s1, $a0, 40
	ld.d	$s4, $a1, 8
	ld.d	$fp, $a1, 0
	lu12i.w	$s3, -524288
	lu12i.w	$a0, 524287
	ori	$s2, $a0, 4095
	ori	$s6, $zero, 16
	ori	$s7, $zero, 24
	move	$s0, $s1
	b	.LBB13_4
	.p2align	4, , 16
.LBB13_2:                               # %_ZNSt11char_traitsIcE7compareEPKcS2_m.exit.thread.i.i.i.i.i.i.i
                                        #   in Loop: Header=BB13_4 Depth=1
	sub.d	$a0, $s8, $s4
	slt	$a1, $s3, $a0
	maskeqz	$a0, $a0, $a1
	masknez	$a1, $s3, $a1
	or	$a0, $a0, $a1
	slt	$a1, $a0, $s2
	maskeqz	$a0, $a0, $a1
	masknez	$a1, $s2, $a1
	or	$a0, $a0, $a1
.LBB13_3:                               # %_ZNKSt4lessINSt7__cxx1112basic_stringIcSt11char_traitsIcESaIcEEEEclERKS5_S8_.exit.i.i.i.i
                                        #   in Loop: Header=BB13_4 Depth=1
	addi.w	$a0, $a0, 0
	slti	$a0, $a0, 0
	masknez	$a1, $s5, $a0
	masknez	$a2, $s6, $a0
	maskeqz	$a3, $s7, $a0
	or	$a2, $a3, $a2
	ldx.d	$s5, $s5, $a2
	maskeqz	$a0, $s0, $a0
	or	$s0, $a0, $a1
	beqz	$s5, .LBB13_6
.LBB13_4:                               # =>This Inner Loop Header: Depth=1
	ld.d	$s8, $s5, 40
	sltu	$a0, $s4, $s8
	masknez	$a1, $s8, $a0
	maskeqz	$a0, $s4, $a0
	or	$a2, $a0, $a1
	beqz	$a2, .LBB13_2
# %bb.5:                                # %_ZNSt11char_traitsIcE7compareEPKcS2_m.exit.i.i.i.i.i.i.i
                                        #   in Loop: Header=BB13_4 Depth=1
	ld.d	$a0, $s5, 32
	move	$a1, $fp
	pcaddu18i	$ra, %call36(memcmp)
	jirl	$ra, $ra, 0
	bnez	$a0, .LBB13_3
	b	.LBB13_2
.LBB13_6:                               # %_ZNKSt8_Rb_treeINSt7__cxx1112basic_stringIcSt11char_traitsIcESaIcEEESt4pairIKS5_S5_ESt10_Select1stIS8_ESt4lessIS5_ESaIS8_EE14_M_lower_boundEPSt18_Rb_tree_node_baseSG_RS7_.exit.i.i.i
	beq	$s0, $s1, .LBB13_20
# %bb.7:
	ld.d	$s5, $s0, 40
	sltu	$a0, $s5, $s4
	masknez	$a1, $s4, $a0
	maskeqz	$a0, $s5, $a0
	or	$a2, $a0, $a1
	beqz	$a2, .LBB13_9
# %bb.8:                                # %_ZNSt11char_traitsIcE7compareEPKcS2_m.exit.i.i.i.i.i.i
	ld.d	$a1, $s0, 32
	move	$a0, $fp
	pcaddu18i	$ra, %call36(memcmp)
	jirl	$ra, $ra, 0
	bnez	$a0, .LBB13_10
.LBB13_9:                               # %_ZNSt11char_traitsIcE7compareEPKcS2_m.exit.thread.i.i.i.i.i.i
	sub.d	$a0, $s4, $s5
	slt	$a1, $s3, $a0
	maskeqz	$a0, $a0, $a1
	masknez	$a1, $s3, $a1
	or	$a0, $a0, $a1
	slt	$a1, $a0, $s2
	maskeqz	$a0, $a0, $a1
	masknez	$a1, $s2, $a1
	or	$a0, $a0, $a1
.LBB13_10:                              # %_ZNK7Results3GetERKNSt7__cxx1112basic_stringIcSt11char_traitsIcESaIcEEE.exit
	addi.w	$a0, $a0, 0
	bltz	$a0, .LBB13_20
# %bb.11:
	ld.d	$a1, $s0, 72
	beqz	$a1, .LBB13_20
# %bb.12:
	slti	$a0, $a0, 0
	pcalau12i	$fp, %pc_hi20(_ZGVZN9benchmark8internal18GetNullLogInstanceEvE8null_log)
	ld.b	$a1, $fp, %pc_lo12(_ZGVZN9benchmark8internal18GetNullLogInstanceEvE8null_log)
	masknez	$a2, $s0, $a0
	maskeqz	$a0, $s1, $a0
	or	$s1, $a0, $a2
	dbar	20
	beqz	$a1, .LBB13_21
.LBB13_13:                              # %_ZN9benchmark8internal18GetNullLogInstanceEv.exit
	addi.d	$a0, $sp, 24
	pcaddu18i	$ra, %call36(_ZNSt7__cxx1118basic_stringstreamIcSt11char_traitsIcESaIcEEC1Ev)
	jirl	$ra, $ra, 0
	ld.d	$a1, $s1, 64
	ld.d	$a2, $s0, 72
	addi.d	$a0, $sp, 40
.Ltmp555:
	pcaddu18i	$ra, %call36(_ZSt16__ostream_insertIcSt11char_traitsIcEERSt13basic_ostreamIT_T0_ES6_PKS3_l)
	jirl	$ra, $ra, 0
.Ltmp556:
# %bb.14:                               # %_ZStlsIcSt11char_traitsIcESaIcEERSt13basic_ostreamIT_T0_ES7_RKNSt7__cxx1112basic_stringIS4_S5_T1_EE.exit
.Ltmp558:
	addi.d	$a0, $sp, 24
	addi.d	$a1, $sp, 16
	addi.d	$s0, $sp, 24
	pcaddu18i	$ra, %call36(_ZNSi10_M_extractIdEERSiRT_)
	jirl	$ra, $ra, 0
.Ltmp559:
# %bb.15:                               # %_ZNSirsERd.exit
	ld.d	$a0, $sp, 24
	ld.d	$a0, $a0, -24
	add.d	$a0, $s0, $a0
	ld.bu	$a0, $a0, 32
	andi	$a0, $a0, 5
	bnez	$a0, .LBB13_23
# %bb.16:
	ld.b	$a0, $fp, %pc_lo12(_ZGVZN9benchmark8internal18GetNullLogInstanceEvE8null_log)
	dbar	20
	beqz	$a0, .LBB13_26
.LBB13_17:
	pcalau12i	$a0, %got_pc_hi20(_ZTTNSt7__cxx1118basic_stringstreamIcSt11char_traitsIcESaIcEEE)
	ld.d	$fp, $a0, %got_pc_lo12(_ZTTNSt7__cxx1118basic_stringstreamIcSt11char_traitsIcESaIcEEE)
	ld.d	$a0, $fp, 0
	st.d	$a0, $sp, 24
	ld.d	$a1, $fp, 64
	ld.d	$a0, $a0, -24
	addi.d	$s0, $sp, 24
	stx.d	$a1, $a0, $s0
	ld.d	$a1, $fp, 72
	pcalau12i	$a0, %got_pc_hi20(_ZTVNSt7__cxx1115basic_stringbufIcSt11char_traitsIcESaIcEEE)
	ld.d	$a2, $a0, %got_pc_lo12(_ZTVNSt7__cxx1115basic_stringbufIcSt11char_traitsIcESaIcEEE)
	fld.d	$fs0, $sp, 16
	ld.d	$a0, $sp, 120
	st.d	$a1, $sp, 40
	addi.d	$a1, $a2, 16
	addi.d	$a2, $sp, 136
	st.d	$a1, $sp, 48
	beq	$a0, $a2, .LBB13_19
# %bb.18:                               # %_ZNKSt7__cxx1112basic_stringIcSt11char_traitsIcESaIcEE11_M_is_localEv.exit.i.i.i.i.i
	ld.d	$a1, $sp, 136
	addi.d	$a1, $a1, 1
	pcaddu18i	$ra, %call36(_ZdlPvm)
	jirl	$ra, $ra, 0
.LBB13_19:                              # %_ZNSt7__cxx1118basic_stringstreamIcSt11char_traitsIcESaIcEED1Ev.exit
	pcalau12i	$a0, %got_pc_hi20(_ZTVSt15basic_streambufIcSt11char_traitsIcEE)
	ld.d	$a0, $a0, %got_pc_lo12(_ZTVSt15basic_streambufIcSt11char_traitsIcEE)
	addi.d	$a0, $a0, 16
	st.d	$a0, $sp, 48
	addi.d	$a0, $sp, 104
	pcaddu18i	$ra, %call36(_ZNSt6localeD1Ev)
	jirl	$ra, $ra, 0
	ld.d	$a0, $fp, 16
	st.d	$a0, $sp, 24
	ld.d	$a1, $fp, 24
	ld.d	$a0, $a0, -24
	stx.d	$a1, $a0, $s0
	st.d	$zero, $sp, 32
	addi.d	$a0, $sp, 152
	pcaddu18i	$ra, %call36(_ZNSt8ios_baseD2Ev)
	jirl	$ra, $ra, 0
	fmov.d	$fa0, $fs0
	fld.d	$fs0, $sp, 416                  # 8-byte Folded Reload
	ld.d	$s8, $sp, 424                   # 8-byte Folded Reload
	ld.d	$s7, $sp, 432                   # 8-byte Folded Reload
	ld.d	$s6, $sp, 440                   # 8-byte Folded Reload
	ld.d	$s5, $sp, 448                   # 8-byte Folded Reload
	ld.d	$s4, $sp, 456                   # 8-byte Folded Reload
	ld.d	$s3, $sp, 464                   # 8-byte Folded Reload
	ld.d	$s2, $sp, 472                   # 8-byte Folded Reload
	ld.d	$s1, $sp, 480                   # 8-byte Folded Reload
	ld.d	$s0, $sp, 488                   # 8-byte Folded Reload
	ld.d	$fp, $sp, 496                   # 8-byte Folded Reload
	ld.d	$ra, $sp, 504                   # 8-byte Folded Reload
	addi.d	$sp, $sp, 512
	ret
.LBB13_20:                              # %.critedge
	pcalau12i	$a0, %pc_hi20(.L.str.82)
	addi.d	$a1, $a0, %pc_lo12(.L.str.82)
	pcalau12i	$a0, %pc_hi20(.L.str.83)
	addi.d	$a2, $a0, %pc_lo12(.L.str.83)
	pcalau12i	$a0, %pc_hi20(.L__func__._ZNK7Results5GetAsIdEET_RKNSt7__cxx1112basic_stringIcSt11char_traitsIcESaIcEEE)
	addi.d	$a3, $a0, %pc_lo12(.L__func__._ZNK7Results5GetAsIdEET_RKNSt7__cxx1112basic_stringIcSt11char_traitsIcESaIcEEE)
	addi.d	$a0, $sp, 24
	ori	$a4, $zero, 144
	pcaddu18i	$ra, %call36(_ZN9benchmark8internal12CheckHandlerC2EPKcS3_S3_i)
	jirl	$ra, $ra, 0
	addi.d	$a0, $sp, 24
	pcaddu18i	$ra, %call36(_ZN9benchmark8internal12CheckHandlerD2Ev)
	jirl	$ra, $ra, 0
.LBB13_21:
	pcalau12i	$a0, %pc_hi20(_ZGVZN9benchmark8internal18GetNullLogInstanceEvE8null_log)
	addi.d	$a0, $a0, %pc_lo12(_ZGVZN9benchmark8internal18GetNullLogInstanceEvE8null_log)
	pcaddu18i	$ra, %call36(__cxa_guard_acquire)
	jirl	$ra, $ra, 0
	addi.w	$a0, $a0, 0
	beqz	$a0, .LBB13_13
# %bb.22:
	pcalau12i	$a0, %pc_hi20(_ZZN9benchmark8internal18GetNullLogInstanceEvE8null_log)
	st.d	$zero, $a0, %pc_lo12(_ZZN9benchmark8internal18GetNullLogInstanceEvE8null_log)
	pcalau12i	$a0, %pc_hi20(_ZGVZN9benchmark8internal18GetNullLogInstanceEvE8null_log)
	addi.d	$a0, $a0, %pc_lo12(_ZGVZN9benchmark8internal18GetNullLogInstanceEvE8null_log)
	pcaddu18i	$ra, %call36(__cxa_guard_release)
	jirl	$ra, $ra, 0
	b	.LBB13_13
.LBB13_23:
.Ltmp561:
	pcalau12i	$a0, %pc_hi20(.L.str.84)
	addi.d	$a1, $a0, %pc_lo12(.L.str.84)
	pcalau12i	$a0, %pc_hi20(.L.str.83)
	addi.d	$a2, $a0, %pc_lo12(.L.str.83)
	pcalau12i	$a0, %pc_hi20(.L__func__._ZNK7Results5GetAsIdEET_RKNSt7__cxx1112basic_stringIcSt11char_traitsIcESaIcEEE)
	addi.d	$a3, $a0, %pc_lo12(.L__func__._ZNK7Results5GetAsIdEET_RKNSt7__cxx1112basic_stringIcSt11char_traitsIcESaIcEEE)
	addi.d	$a0, $sp, 8
	ori	$a4, $zero, 149
	pcaddu18i	$ra, %call36(_ZN9benchmark8internal12CheckHandlerC2EPKcS3_S3_i)
	jirl	$ra, $ra, 0
.Ltmp562:
# %bb.24:                               # %_ZN9benchmark8internal18GetNullLogInstanceEv.exit20
.Ltmp563:
	addi.d	$a0, $sp, 8
	pcaddu18i	$ra, %call36(_ZN9benchmark8internal12CheckHandlerD2Ev)
	jirl	$ra, $ra, 0
.Ltmp564:
# %bb.25:
.LBB13_26:
	pcalau12i	$a0, %pc_hi20(_ZGVZN9benchmark8internal18GetNullLogInstanceEvE8null_log)
	addi.d	$a0, $a0, %pc_lo12(_ZGVZN9benchmark8internal18GetNullLogInstanceEvE8null_log)
	pcaddu18i	$ra, %call36(__cxa_guard_acquire)
	jirl	$ra, $ra, 0
	addi.w	$a0, $a0, 0
	beqz	$a0, .LBB13_17
# %bb.27:
	pcalau12i	$a0, %pc_hi20(_ZZN9benchmark8internal18GetNullLogInstanceEvE8null_log)
	st.d	$zero, $a0, %pc_lo12(_ZZN9benchmark8internal18GetNullLogInstanceEvE8null_log)
	pcalau12i	$a0, %pc_hi20(_ZGVZN9benchmark8internal18GetNullLogInstanceEvE8null_log)
	addi.d	$a0, $a0, %pc_lo12(_ZGVZN9benchmark8internal18GetNullLogInstanceEvE8null_log)
	pcaddu18i	$ra, %call36(__cxa_guard_release)
	jirl	$ra, $ra, 0
	b	.LBB13_17
.LBB13_28:
.Ltmp565:
	b	.LBB13_31
.LBB13_29:
.Ltmp560:
	b	.LBB13_31
.LBB13_30:
.Ltmp557:
.LBB13_31:
	move	$fp, $a0
	addi.d	$a0, $sp, 24
	pcaddu18i	$ra, %call36(_ZNSt7__cxx1118basic_stringstreamIcSt11char_traitsIcESaIcEED1Ev)
	jirl	$ra, $ra, 0
	move	$a0, $fp
	pcaddu18i	$ra, %call36(_Unwind_Resume)
	jirl	$ra, $ra, 0
.Lfunc_end13:
	.size	_ZNK7Results5GetAsIdEET_RKNSt7__cxx1112basic_stringIcSt11char_traitsIcESaIcEEE, .Lfunc_end13-_ZNK7Results5GetAsIdEET_RKNSt7__cxx1112basic_stringIcSt11char_traitsIcESaIcEEE
	.cfi_endproc
	.section	.gcc_except_table._ZNK7Results5GetAsIdEET_RKNSt7__cxx1112basic_stringIcSt11char_traitsIcESaIcEEE,"aG",@progbits,_ZNK7Results5GetAsIdEET_RKNSt7__cxx1112basic_stringIcSt11char_traitsIcESaIcEEE,comdat
	.p2align	2, 0x0
GCC_except_table13:
.Lexception3:
	.byte	255                             # @LPStart Encoding = omit
	.byte	255                             # @TType Encoding = omit
	.byte	1                               # Call site Encoding = uleb128
	.uleb128 .Lcst_end3-.Lcst_begin3
.Lcst_begin3:
	.uleb128 .Lfunc_begin3-.Lfunc_begin3    # >> Call Site 1 <<
	.uleb128 .Ltmp555-.Lfunc_begin3         #   Call between .Lfunc_begin3 and .Ltmp555
	.byte	0                               #     has no landing pad
	.byte	0                               #   On action: cleanup
	.uleb128 .Ltmp555-.Lfunc_begin3         # >> Call Site 2 <<
	.uleb128 .Ltmp556-.Ltmp555              #   Call between .Ltmp555 and .Ltmp556
	.uleb128 .Ltmp557-.Lfunc_begin3         #     jumps to .Ltmp557
	.byte	0                               #   On action: cleanup
	.uleb128 .Ltmp558-.Lfunc_begin3         # >> Call Site 3 <<
	.uleb128 .Ltmp559-.Ltmp558              #   Call between .Ltmp558 and .Ltmp559
	.uleb128 .Ltmp560-.Lfunc_begin3         #     jumps to .Ltmp560
	.byte	0                               #   On action: cleanup
	.uleb128 .Ltmp559-.Lfunc_begin3         # >> Call Site 4 <<
	.uleb128 .Ltmp561-.Ltmp559              #   Call between .Ltmp559 and .Ltmp561
	.byte	0                               #     has no landing pad
	.byte	0                               #   On action: cleanup
	.uleb128 .Ltmp561-.Lfunc_begin3         # >> Call Site 5 <<
	.uleb128 .Ltmp564-.Ltmp561              #   Call between .Ltmp561 and .Ltmp564
	.uleb128 .Ltmp565-.Lfunc_begin3         #     jumps to .Ltmp565
	.byte	0                               #   On action: cleanup
	.uleb128 .Ltmp564-.Lfunc_begin3         # >> Call Site 6 <<
	.uleb128 .Lfunc_end13-.Ltmp564          #   Call between .Ltmp564 and .Lfunc_end13
	.byte	0                               #     has no landing pad
	.byte	0                               #   On action: cleanup
.Lcst_end3:
	.p2align	2, 0x0
                                        # -- End function
	.section	.text._ZNSt17_Function_handlerIFvRK7ResultsEPS3_E9_M_invokeERKSt9_Any_dataS2_,"axG",@progbits,_ZNSt17_Function_handlerIFvRK7ResultsEPS3_E9_M_invokeERKSt9_Any_dataS2_,comdat
	.hidden	_ZNSt17_Function_handlerIFvRK7ResultsEPS3_E9_M_invokeERKSt9_Any_dataS2_ # -- Begin function _ZNSt17_Function_handlerIFvRK7ResultsEPS3_E9_M_invokeERKSt9_Any_dataS2_
	.weak	_ZNSt17_Function_handlerIFvRK7ResultsEPS3_E9_M_invokeERKSt9_Any_dataS2_
	.p2align	5
	.type	_ZNSt17_Function_handlerIFvRK7ResultsEPS3_E9_M_invokeERKSt9_Any_dataS2_,@function
_ZNSt17_Function_handlerIFvRK7ResultsEPS3_E9_M_invokeERKSt9_Any_dataS2_: # @_ZNSt17_Function_handlerIFvRK7ResultsEPS3_E9_M_invokeERKSt9_Any_dataS2_
	.cfi_startproc
# %bb.0:
	ld.d	$a2, $a0, 0
	move	$a0, $a1
	jr	$a2
.Lfunc_end14:
	.size	_ZNSt17_Function_handlerIFvRK7ResultsEPS3_E9_M_invokeERKSt9_Any_dataS2_, .Lfunc_end14-_ZNSt17_Function_handlerIFvRK7ResultsEPS3_E9_M_invokeERKSt9_Any_dataS2_
	.cfi_endproc
                                        # -- End function
	.section	.text._ZNSt17_Function_handlerIFvRK7ResultsEPS3_E10_M_managerERSt9_Any_dataRKS6_St18_Manager_operation,"axG",@progbits,_ZNSt17_Function_handlerIFvRK7ResultsEPS3_E10_M_managerERSt9_Any_dataRKS6_St18_Manager_operation,comdat
	.hidden	_ZNSt17_Function_handlerIFvRK7ResultsEPS3_E10_M_managerERSt9_Any_dataRKS6_St18_Manager_operation # -- Begin function _ZNSt17_Function_handlerIFvRK7ResultsEPS3_E10_M_managerERSt9_Any_dataRKS6_St18_Manager_operation
	.weak	_ZNSt17_Function_handlerIFvRK7ResultsEPS3_E10_M_managerERSt9_Any_dataRKS6_St18_Manager_operation
	.p2align	5
	.type	_ZNSt17_Function_handlerIFvRK7ResultsEPS3_E10_M_managerERSt9_Any_dataRKS6_St18_Manager_operation,@function
_ZNSt17_Function_handlerIFvRK7ResultsEPS3_E10_M_managerERSt9_Any_dataRKS6_St18_Manager_operation: # @_ZNSt17_Function_handlerIFvRK7ResultsEPS3_E10_M_managerERSt9_Any_dataRKS6_St18_Manager_operation
	.cfi_startproc
# %bb.0:
	beqz	$a2, .LBB15_6
# %bb.1:
	ori	$a3, $zero, 2
	beq	$a2, $a3, .LBB15_4
# %bb.2:
	ori	$a3, $zero, 1
	beq	$a2, $a3, .LBB15_5
# %bb.3:                                # %_ZNSt14_Function_base13_Base_managerIPFvRK7ResultsEE10_M_managerERSt9_Any_dataRKS7_St18_Manager_operation.exit
	move	$a0, $zero
	ret
.LBB15_4:                               # %.sink.split.i
	ld.d	$a1, $a1, 0
.LBB15_5:                               # %_ZNSt14_Function_base13_Base_managerIPFvRK7ResultsEE10_M_managerERSt9_Any_dataRKS7_St18_Manager_operation.exit.sink.split
	st.d	$a1, $a0, 0
	move	$a0, $zero
	ret
.LBB15_6:
	pcalau12i	$a1, %pc_hi20(_ZTIPFvRK7ResultsE)
	addi.d	$a1, $a1, %pc_lo12(_ZTIPFvRK7ResultsE)
	st.d	$a1, $a0, 0
	move	$a0, $zero
	ret
.Lfunc_end15:
	.size	_ZNSt17_Function_handlerIFvRK7ResultsEPS3_E10_M_managerERSt9_Any_dataRKS6_St18_Manager_operation, .Lfunc_end15-_ZNSt17_Function_handlerIFvRK7ResultsEPS3_E10_M_managerERSt9_Any_dataRKS6_St18_Manager_operation
	.cfi_endproc
                                        # -- End function
	.section	.text.startup,"ax",@progbits
	.p2align	5                               # -- Begin function _GLOBAL__sub_I_user_counters_thousands_test.cc
	.type	_GLOBAL__sub_I_user_counters_thousands_test.cc,@function
_GLOBAL__sub_I_user_counters_thousands_test.cc: # @_GLOBAL__sub_I_user_counters_thousands_test.cc
.Lfunc_begin4:
	.cfi_startproc
	.cfi_personality 155, DW.ref.__gxx_personality_v0
	.cfi_lsda 27, .Lexception4
# %bb.0:
	addi.d	$sp, $sp, -2032
	.cfi_def_cfa_offset 2032
	st.d	$ra, $sp, 2024                  # 8-byte Folded Spill
	st.d	$fp, $sp, 2016                  # 8-byte Folded Spill
	st.d	$s0, $sp, 2008                  # 8-byte Folded Spill
	st.d	$s1, $sp, 2000                  # 8-byte Folded Spill
	st.d	$s2, $sp, 1992                  # 8-byte Folded Spill
	st.d	$s3, $sp, 1984                  # 8-byte Folded Spill
	st.d	$s4, $sp, 1976                  # 8-byte Folded Spill
	st.d	$s5, $sp, 1968                  # 8-byte Folded Spill
	st.d	$s6, $sp, 1960                  # 8-byte Folded Spill
	st.d	$s7, $sp, 1952                  # 8-byte Folded Spill
	st.d	$s8, $sp, 1944                  # 8-byte Folded Spill
	.cfi_offset 1, -8
	.cfi_offset 22, -16
	.cfi_offset 23, -24
	.cfi_offset 24, -32
	.cfi_offset 25, -40
	.cfi_offset 26, -48
	.cfi_offset 27, -56
	.cfi_offset 28, -64
	.cfi_offset 29, -72
	.cfi_offset 30, -80
	.cfi_offset 31, -88
	addi.d	$sp, $sp, -656
	.cfi_def_cfa_offset 2688
	pcaddu18i	$ra, %call36(_ZN9benchmark8internal17InitializeStreamsEv)
	jirl	$ra, $ra, 0
	ori	$a0, $zero, 232
	pcaddu18i	$ra, %call36(_Znwm)
	jirl	$ra, $ra, 0
	move	$fp, $a0
	addi.d	$s2, $sp, 784
	st.d	$s2, $sp, 768
	ori	$a0, $zero, 21
	ori	$a1, $zero, 2568
	add.d	$a1, $sp, $a1
	st.d	$a0, $a1, 0
.Ltmp566:
	addi.d	$a0, $sp, 768
	ori	$a1, $zero, 2568
	add.d	$a1, $sp, $a1
	move	$a2, $zero
	pcaddu18i	$ra, %call36(_ZNSt7__cxx1112basic_stringIcSt11char_traitsIcESaIcEE9_M_createERmm)
	jirl	$ra, $ra, 0
.Ltmp567:
# %bb.1:                                # %.noexc.i
	ori	$a1, $zero, 2568
	add.d	$a1, $sp, $a1
	ld.d	$a1, $a1, 0
	pcalau12i	$a2, %pc_hi20(.L.str.6)
	addi.d	$s4, $a2, %pc_lo12(.L.str.6)
	vld	$vr0, $s4, 0
	ld.d	$a2, $s4, 13
	st.d	$a0, $sp, 768
	st.d	$a1, $sp, 784
	vst	$vr0, $a0, 0
	st.d	$a2, $sp, 16                    # 8-byte Folded Spill
	st.d	$a2, $a0, 13
	ld.d	$a0, $sp, 768
	st.d	$a1, $sp, 776
	stx.b	$zero, $a0, $a1
	ori	$s1, $zero, 1
.Ltmp569:
	addi.d	$a1, $sp, 768
	move	$a0, $fp
	pcaddu18i	$ra, %call36(_ZN9benchmark8internal9BenchmarkC2ERKNSt7__cxx1112basic_stringIcSt11char_traitsIcESaIcEEE)
	jirl	$ra, $ra, 0
.Ltmp570:
# %bb.2:
	pcalau12i	$a0, %got_pc_hi20(_ZTVN9benchmark8internal17FunctionBenchmarkE)
	ld.d	$a0, $a0, %got_pc_lo12(_ZTVN9benchmark8internal17FunctionBenchmarkE)
	addi.d	$a0, $a0, 16
	st.d	$a0, $fp, 0
	pcalau12i	$a0, %pc_hi20(_Z21BM_Counters_ThousandsRN9benchmark5StateE)
	addi.d	$a0, $a0, %pc_lo12(_Z21BM_Counters_ThousandsRN9benchmark5StateE)
	st.d	$a0, $fp, 224
.Ltmp571:
	move	$s1, $zero
	move	$a0, $fp
	pcaddu18i	$ra, %call36(_ZN9benchmark8internal25RegisterBenchmarkInternalEPNS0_9BenchmarkE)
	jirl	$ra, $ra, 0
.Ltmp572:
# %bb.3:
.Ltmp573:
	ori	$a1, $zero, 2
	move	$s1, $zero
	pcaddu18i	$ra, %call36(_ZN9benchmark8internal9Benchmark11RepetitionsEi)
	jirl	$ra, $ra, 0
.Ltmp574:
# %bb.4:
	move	$s0, $a0
	ld.d	$a0, $sp, 768
	beq	$a0, $s2, .LBB16_6
# %bb.5:                                # %_ZNKSt7__cxx1112basic_stringIcSt11char_traitsIcESaIcEE11_M_is_localEv.exit.i.i.i
	ld.d	$a1, $sp, 784
	addi.d	$a1, $a1, 1
	pcaddu18i	$ra, %call36(_ZdlPvm)
	jirl	$ra, $ra, 0
.LBB16_6:                               # %__cxx_global_var_init.5.exit
	pcalau12i	$a0, %pc_hi20(_ZL27benchmark_uniq_2_benchmark_)
	st.d	$s0, $a0, %pc_lo12(_ZL27benchmark_uniq_2_benchmark_)
	ori	$a0, $zero, 2584
	add.d	$a0, $sp, $a0
	ori	$a1, $zero, 2568
	add.d	$a1, $sp, $a1
	st.d	$a0, $a1, 0
	ori	$s1, $zero, 179
	ori	$a0, $zero, 2536
	add.d	$a0, $sp, $a0
	st.d	$s1, $a0, 0
	ori	$a0, $zero, 2568
	add.d	$a0, $sp, $a0
	ori	$a1, $zero, 2536
	add.d	$a1, $sp, $a1
	move	$a2, $zero
	pcaddu18i	$ra, %call36(_ZNSt7__cxx1112basic_stringIcSt11char_traitsIcESaIcEE9_M_createERmm)
	jirl	$ra, $ra, 0
	ori	$a1, $zero, 2536
	add.d	$a1, $sp, $a1
	ld.d	$s0, $a1, 0
	move	$fp, $a0
	ori	$a1, $zero, 2568
	add.d	$a1, $sp, $a1
	st.d	$a0, $a1, 0
	ori	$a0, $zero, 2584
	add.d	$a0, $sp, $a0
	st.d	$s0, $a0, 0
	pcalau12i	$a0, %pc_hi20(.L.str.8)
	addi.d	$a1, $a0, %pc_lo12(.L.str.8)
	ori	$a2, $zero, 179
	move	$a0, $fp
	pcaddu18i	$ra, %call36(memcpy)
	jirl	$ra, $ra, 0
	ori	$a0, $zero, 2576
	add.d	$a0, $sp, $a0
	st.d	$s0, $a0, 0
	stx.b	$zero, $fp, $s0
.Ltmp576:
	addi.d	$a0, $sp, 768
	ori	$a1, $zero, 2568
	add.d	$a1, $sp, $a1
	addi.d	$s0, $sp, 768
	move	$a2, $zero
	pcaddu18i	$ra, %call36(_ZN8TestCaseC1ENSt7__cxx1112basic_stringIcSt11char_traitsIcESaIcEEEi)
	jirl	$ra, $ra, 0
.Ltmp577:
# %bb.7:                                # %.noexc.i44.i
	addi.d	$s0, $sp, 856
	ori	$a0, $zero, 2552
	add.d	$a0, $sp, $a0
	ori	$a1, $zero, 2536
	add.d	$a1, $sp, $a1
	st.d	$a0, $a1, 0
	ori	$a0, $zero, 2504
	add.d	$a0, $sp, $a0
	st.d	$s1, $a0, 0
.Ltmp579:
	ori	$a0, $zero, 2536
	add.d	$a0, $sp, $a0
	ori	$a1, $zero, 2504
	add.d	$a1, $sp, $a1
	move	$a2, $zero
	pcaddu18i	$ra, %call36(_ZNSt7__cxx1112basic_stringIcSt11char_traitsIcESaIcEE9_M_createERmm)
	jirl	$ra, $ra, 0
.Ltmp580:
# %bb.8:                                # %.noexc45.i
	move	$fp, $a0
	ori	$a0, $zero, 2504
	add.d	$a0, $sp, $a0
	ld.d	$s1, $a0, 0
	ori	$a0, $zero, 2536
	add.d	$a0, $sp, $a0
	st.d	$fp, $a0, 0
	ori	$a0, $zero, 2552
	add.d	$a0, $sp, $a0
	st.d	$s1, $a0, 0
	pcalau12i	$a0, %pc_hi20(.L.str.8)
	addi.d	$a1, $a0, %pc_lo12(.L.str.8)
	ori	$a2, $zero, 179
	move	$a0, $fp
	pcaddu18i	$ra, %call36(memcpy)
	jirl	$ra, $ra, 0
	ori	$a0, $zero, 2544
	add.d	$a0, $sp, $a0
	st.d	$s1, $a0, 0
	stx.b	$zero, $fp, $s1
.Ltmp582:
	ori	$a0, $zero, 2536
	add.d	$a1, $sp, $a0
	move	$a0, $s0
	move	$a2, $zero
	pcaddu18i	$ra, %call36(_ZN8TestCaseC1ENSt7__cxx1112basic_stringIcSt11char_traitsIcESaIcEEEi)
	jirl	$ra, $ra, 0
.Ltmp583:
# %bb.9:                                # %.noexc.i48.i
	addi.d	$s1, $sp, 944
	ori	$a0, $zero, 2520
	add.d	$a0, $sp, $a0
	ori	$a1, $zero, 2504
	add.d	$a1, $sp, $a1
	st.d	$a0, $a1, 0
	ori	$a0, $zero, 184
	ori	$a1, $zero, 2472
	add.d	$a1, $sp, $a1
	st.d	$a0, $a1, 0
.Ltmp585:
	ori	$a0, $zero, 2504
	add.d	$a0, $sp, $a0
	ori	$a1, $zero, 2472
	add.d	$a1, $sp, $a1
	move	$a2, $zero
	pcaddu18i	$ra, %call36(_ZNSt7__cxx1112basic_stringIcSt11char_traitsIcESaIcEE9_M_createERmm)
	jirl	$ra, $ra, 0
.Ltmp586:
# %bb.10:                               # %.noexc49.i
	move	$fp, $a0
	ori	$a0, $zero, 2472
	add.d	$a0, $sp, $a0
	ld.d	$s2, $a0, 0
	ori	$a0, $zero, 2504
	add.d	$a0, $sp, $a0
	st.d	$fp, $a0, 0
	ori	$a0, $zero, 2520
	add.d	$a0, $sp, $a0
	st.d	$s2, $a0, 0
	pcalau12i	$a0, %pc_hi20(.L.str.9)
	addi.d	$a1, $a0, %pc_lo12(.L.str.9)
	ori	$a2, $zero, 184
	move	$a0, $fp
	pcaddu18i	$ra, %call36(memcpy)
	jirl	$ra, $ra, 0
	ori	$a0, $zero, 2512
	add.d	$a0, $sp, $a0
	st.d	$s2, $a0, 0
	stx.b	$zero, $fp, $s2
.Ltmp588:
	ori	$a0, $zero, 2504
	add.d	$a1, $sp, $a0
	move	$a0, $s1
	move	$a2, $zero
	pcaddu18i	$ra, %call36(_ZN8TestCaseC1ENSt7__cxx1112basic_stringIcSt11char_traitsIcESaIcEEEi)
	jirl	$ra, $ra, 0
.Ltmp589:
# %bb.11:                               # %.noexc.i52.i
	addi.d	$s2, $sp, 1032
	ori	$a0, $zero, 2488
	add.d	$a0, $sp, $a0
	ori	$a1, $zero, 2472
	add.d	$a1, $sp, $a1
	st.d	$a0, $a1, 0
	ori	$a0, $zero, 186
	ori	$a1, $zero, 2440
	add.d	$a1, $sp, $a1
	st.d	$a0, $a1, 0
.Ltmp591:
	ori	$a0, $zero, 2472
	add.d	$a0, $sp, $a0
	ori	$a1, $zero, 2440
	add.d	$a1, $sp, $a1
	move	$a2, $zero
	pcaddu18i	$ra, %call36(_ZNSt7__cxx1112basic_stringIcSt11char_traitsIcESaIcEE9_M_createERmm)
	jirl	$ra, $ra, 0
.Ltmp592:
# %bb.12:                               # %.noexc53.i
	move	$fp, $a0
	ori	$a0, $zero, 2440
	add.d	$a0, $sp, $a0
	ld.d	$s3, $a0, 0
	ori	$a0, $zero, 2472
	add.d	$a0, $sp, $a0
	st.d	$fp, $a0, 0
	ori	$a0, $zero, 2488
	add.d	$a0, $sp, $a0
	st.d	$s3, $a0, 0
	pcalau12i	$a0, %pc_hi20(.L.str.10)
	addi.d	$a1, $a0, %pc_lo12(.L.str.10)
	ori	$a2, $zero, 186
	move	$a0, $fp
	pcaddu18i	$ra, %call36(memcpy)
	jirl	$ra, $ra, 0
	ori	$a0, $zero, 2480
	add.d	$a0, $sp, $a0
	st.d	$s3, $a0, 0
	stx.b	$zero, $fp, $s3
.Ltmp594:
	ori	$a0, $zero, 2472
	add.d	$a1, $sp, $a0
	move	$a0, $s2
	move	$a2, $zero
	pcaddu18i	$ra, %call36(_ZN8TestCaseC1ENSt7__cxx1112basic_stringIcSt11char_traitsIcESaIcEEEi)
	jirl	$ra, $ra, 0
.Ltmp595:
# %bb.13:                               # %.noexc.i56.i
	st.d	$s4, $sp, 8                     # 8-byte Folded Spill
	addi.d	$s3, $sp, 1120
	ori	$a0, $zero, 2456
	add.d	$a0, $sp, $a0
	ori	$a1, $zero, 2440
	add.d	$a1, $sp, $a1
	st.d	$a0, $a1, 0
	ori	$a0, $zero, 180
	st.d	$a0, $sp, 736
.Ltmp597:
	ori	$a0, $zero, 2440
	add.d	$a0, $sp, $a0
	addi.d	$a1, $sp, 736
	move	$a2, $zero
	pcaddu18i	$ra, %call36(_ZNSt7__cxx1112basic_stringIcSt11char_traitsIcESaIcEE9_M_createERmm)
	jirl	$ra, $ra, 0
.Ltmp598:
# %bb.14:                               # %.noexc57.i
	move	$fp, $a0
	ld.d	$s4, $sp, 736
	ori	$a0, $zero, 2440
	add.d	$a0, $sp, $a0
	st.d	$fp, $a0, 0
	ori	$a0, $zero, 2456
	add.d	$a0, $sp, $a0
	st.d	$s4, $a0, 0
	pcalau12i	$a0, %pc_hi20(.L.str.11)
	addi.d	$a1, $a0, %pc_lo12(.L.str.11)
	ori	$a2, $zero, 180
	move	$a0, $fp
	pcaddu18i	$ra, %call36(memcpy)
	jirl	$ra, $ra, 0
	ori	$a0, $zero, 2448
	add.d	$a0, $sp, $a0
	st.d	$s4, $a0, 0
	stx.b	$zero, $fp, $s4
.Ltmp600:
	ori	$a0, $zero, 2440
	add.d	$a1, $sp, $a0
	move	$a0, $s3
	move	$a2, $zero
	pcaddu18i	$ra, %call36(_ZN8TestCaseC1ENSt7__cxx1112basic_stringIcSt11char_traitsIcESaIcEEEi)
	jirl	$ra, $ra, 0
.Ltmp601:
# %bb.15:
.Ltmp603:
	addi.d	$a1, $sp, 768
	ori	$a2, $zero, 5
	move	$a0, $zero
	pcaddu18i	$ra, %call36(_Z8AddCases10TestCaseIDSt16initializer_listI8TestCaseE)
	jirl	$ra, $ra, 0
.Ltmp604:
# %bb.16:
	move	$fp, $a0
	ld.d	$s0, $sp, 1200
	addi.d	$s1, $sp, 784
	beqz	$s0, .LBB16_21
# %bb.17:
	ld.d	$a0, $s0, 8
	ori	$a1, $zero, 1
	lu32i.d	$a1, 1
	dbar	20
	bne	$a0, $a1, .LBB16_19
# %bb.18:
	ld.d	$a0, $s0, 0
	st.d	$zero, $s0, 8
	ld.d	$a1, $a0, 16
	move	$a0, $s0
	jirl	$ra, $a1, 0
	ld.d	$a0, $s0, 0
	ld.d	$a1, $a0, 24
	move	$a0, $s0
	jirl	$ra, $a1, 0
	ld.d	$a0, $sp, 1160
	addi.d	$a1, $sp, 1176
	bne	$a0, $a1, .LBB16_22
	b	.LBB16_23
.LBB16_19:
	pcalau12i	$a1, %got_pc_hi20(__libc_single_threaded)
	ld.d	$a1, $a1, %got_pc_lo12(__libc_single_threaded)
	ld.bu	$a1, $a1, 0
	beqz	$a1, .LBB16_569
# %bb.20:
	addi.d	$a1, $a0, -1
	st.w	$a1, $s0, 8
	addi.w	$a0, $a0, 0
	ori	$a1, $zero, 1
	beq	$a0, $a1, .LBB16_570
.LBB16_21:                              # %_ZNSt12__shared_ptrIN9benchmark5RegexELN9__gnu_cxx12_Lock_policyE2EED2Ev.exit.i.i
	ld.d	$a0, $sp, 1160
	addi.d	$a1, $sp, 1176
	beq	$a0, $a1, .LBB16_23
.LBB16_22:                              # %_ZNKSt7__cxx1112basic_stringIcSt11char_traitsIcESaIcEE11_M_is_localEv.exit.i.i.i.i
	ld.d	$a1, $sp, 1176
	addi.d	$a1, $a1, 1
	pcaddu18i	$ra, %call36(_ZdlPvm)
	jirl	$ra, $ra, 0
.LBB16_23:                              # %_ZNSt7__cxx1112basic_stringIcSt11char_traitsIcESaIcEED2Ev.exit.i.i
	ld.d	$a0, $sp, 1120
	addi.d	$a1, $sp, 1136
	beq	$a0, $a1, .LBB16_25
# %bb.24:                               # %_ZNKSt7__cxx1112basic_stringIcSt11char_traitsIcESaIcEE11_M_is_localEv.exit.i.i1.i.i
	ld.d	$a1, $sp, 1136
	addi.d	$a1, $a1, 1
	pcaddu18i	$ra, %call36(_ZdlPvm)
	jirl	$ra, $ra, 0
.LBB16_25:                              # %_ZN8TestCaseD2Ev.exit.i
	ld.d	$s0, $sp, 1112
	beqz	$s0, .LBB16_30
# %bb.26:
	ld.d	$a0, $s0, 8
	ori	$a1, $zero, 1
	lu32i.d	$a1, 1
	dbar	20
	bne	$a0, $a1, .LBB16_28
# %bb.27:
	ld.d	$a0, $s0, 0
	st.d	$zero, $s0, 8
	ld.d	$a1, $a0, 16
	move	$a0, $s0
	jirl	$ra, $a1, 0
	ld.d	$a0, $s0, 0
	ld.d	$a1, $a0, 24
	move	$a0, $s0
	jirl	$ra, $a1, 0
	ld.d	$a0, $sp, 1072
	addi.d	$a1, $sp, 1088
	bne	$a0, $a1, .LBB16_31
	b	.LBB16_32
.LBB16_28:
	pcalau12i	$a1, %got_pc_hi20(__libc_single_threaded)
	ld.d	$a1, $a1, %got_pc_lo12(__libc_single_threaded)
	ld.bu	$a1, $a1, 0
	beqz	$a1, .LBB16_571
# %bb.29:
	addi.d	$a1, $a0, -1
	st.w	$a1, $s0, 8
	addi.w	$a0, $a0, 0
	ori	$a1, $zero, 1
	beq	$a0, $a1, .LBB16_572
.LBB16_30:                              # %_ZNSt12__shared_ptrIN9benchmark5RegexELN9__gnu_cxx12_Lock_policyE2EED2Ev.exit.i.1.i
	ld.d	$a0, $sp, 1072
	addi.d	$a1, $sp, 1088
	beq	$a0, $a1, .LBB16_32
.LBB16_31:                              # %_ZNKSt7__cxx1112basic_stringIcSt11char_traitsIcESaIcEE11_M_is_localEv.exit.i.i.i.1.i
	ld.d	$a1, $sp, 1088
	addi.d	$a1, $a1, 1
	pcaddu18i	$ra, %call36(_ZdlPvm)
	jirl	$ra, $ra, 0
.LBB16_32:                              # %_ZNSt7__cxx1112basic_stringIcSt11char_traitsIcESaIcEED2Ev.exit.i.1.i
	ld.d	$a0, $sp, 1032
	addi.d	$a1, $sp, 1048
	beq	$a0, $a1, .LBB16_34
# %bb.33:                               # %_ZNKSt7__cxx1112basic_stringIcSt11char_traitsIcESaIcEE11_M_is_localEv.exit.i.i1.i.1.i
	ld.d	$a1, $sp, 1048
	addi.d	$a1, $a1, 1
	pcaddu18i	$ra, %call36(_ZdlPvm)
	jirl	$ra, $ra, 0
.LBB16_34:                              # %_ZN8TestCaseD2Ev.exit.1.i
	ld.d	$s0, $sp, 1024
	beqz	$s0, .LBB16_39
# %bb.35:
	ld.d	$a0, $s0, 8
	ori	$a1, $zero, 1
	lu32i.d	$a1, 1
	dbar	20
	bne	$a0, $a1, .LBB16_37
# %bb.36:
	ld.d	$a0, $s0, 0
	st.d	$zero, $s0, 8
	ld.d	$a1, $a0, 16
	move	$a0, $s0
	jirl	$ra, $a1, 0
	ld.d	$a0, $s0, 0
	ld.d	$a1, $a0, 24
	move	$a0, $s0
	jirl	$ra, $a1, 0
	ld.d	$a0, $sp, 984
	addi.d	$a1, $sp, 1000
	bne	$a0, $a1, .LBB16_40
	b	.LBB16_41
.LBB16_37:
	pcalau12i	$a1, %got_pc_hi20(__libc_single_threaded)
	ld.d	$a1, $a1, %got_pc_lo12(__libc_single_threaded)
	ld.bu	$a1, $a1, 0
	beqz	$a1, .LBB16_573
# %bb.38:
	addi.d	$a1, $a0, -1
	st.w	$a1, $s0, 8
	addi.w	$a0, $a0, 0
	ori	$a1, $zero, 1
	beq	$a0, $a1, .LBB16_574
.LBB16_39:                              # %_ZNSt12__shared_ptrIN9benchmark5RegexELN9__gnu_cxx12_Lock_policyE2EED2Ev.exit.i.2.i
	ld.d	$a0, $sp, 984
	addi.d	$a1, $sp, 1000
	beq	$a0, $a1, .LBB16_41
.LBB16_40:                              # %_ZNKSt7__cxx1112basic_stringIcSt11char_traitsIcESaIcEE11_M_is_localEv.exit.i.i.i.2.i
	ld.d	$a1, $sp, 1000
	addi.d	$a1, $a1, 1
	pcaddu18i	$ra, %call36(_ZdlPvm)
	jirl	$ra, $ra, 0
.LBB16_41:                              # %_ZNSt7__cxx1112basic_stringIcSt11char_traitsIcESaIcEED2Ev.exit.i.2.i
	ld.d	$a0, $sp, 944
	addi.d	$a1, $sp, 960
	beq	$a0, $a1, .LBB16_43
# %bb.42:                               # %_ZNKSt7__cxx1112basic_stringIcSt11char_traitsIcESaIcEE11_M_is_localEv.exit.i.i1.i.2.i
	ld.d	$a1, $sp, 960
	addi.d	$a1, $a1, 1
	pcaddu18i	$ra, %call36(_ZdlPvm)
	jirl	$ra, $ra, 0
.LBB16_43:                              # %_ZN8TestCaseD2Ev.exit.2.i
	ld.d	$s0, $sp, 936
	beqz	$s0, .LBB16_48
# %bb.44:
	ld.d	$a0, $s0, 8
	ori	$a1, $zero, 1
	lu32i.d	$a1, 1
	dbar	20
	bne	$a0, $a1, .LBB16_46
# %bb.45:
	ld.d	$a0, $s0, 0
	st.d	$zero, $s0, 8
	ld.d	$a1, $a0, 16
	move	$a0, $s0
	jirl	$ra, $a1, 0
	ld.d	$a0, $s0, 0
	ld.d	$a1, $a0, 24
	move	$a0, $s0
	jirl	$ra, $a1, 0
	ld.d	$a0, $sp, 896
	addi.d	$a1, $sp, 912
	bne	$a0, $a1, .LBB16_49
	b	.LBB16_50
.LBB16_46:
	pcalau12i	$a1, %got_pc_hi20(__libc_single_threaded)
	ld.d	$a1, $a1, %got_pc_lo12(__libc_single_threaded)
	ld.bu	$a1, $a1, 0
	beqz	$a1, .LBB16_575
# %bb.47:
	addi.d	$a1, $a0, -1
	st.w	$a1, $s0, 8
	addi.w	$a0, $a0, 0
	ori	$a1, $zero, 1
	beq	$a0, $a1, .LBB16_576
.LBB16_48:                              # %_ZNSt12__shared_ptrIN9benchmark5RegexELN9__gnu_cxx12_Lock_policyE2EED2Ev.exit.i.3.i
	ld.d	$a0, $sp, 896
	addi.d	$a1, $sp, 912
	beq	$a0, $a1, .LBB16_50
.LBB16_49:                              # %_ZNKSt7__cxx1112basic_stringIcSt11char_traitsIcESaIcEE11_M_is_localEv.exit.i.i.i.3.i
	ld.d	$a1, $sp, 912
	addi.d	$a1, $a1, 1
	pcaddu18i	$ra, %call36(_ZdlPvm)
	jirl	$ra, $ra, 0
.LBB16_50:                              # %_ZNSt7__cxx1112basic_stringIcSt11char_traitsIcESaIcEED2Ev.exit.i.3.i
	ld.d	$a0, $sp, 856
	addi.d	$a1, $sp, 872
	beq	$a0, $a1, .LBB16_52
# %bb.51:                               # %_ZNKSt7__cxx1112basic_stringIcSt11char_traitsIcESaIcEE11_M_is_localEv.exit.i.i1.i.3.i
	ld.d	$a1, $sp, 872
	addi.d	$a1, $a1, 1
	pcaddu18i	$ra, %call36(_ZdlPvm)
	jirl	$ra, $ra, 0
.LBB16_52:                              # %_ZN8TestCaseD2Ev.exit.3.i
	ld.d	$s0, $sp, 848
	beqz	$s0, .LBB16_57
# %bb.53:
	ld.d	$a0, $s0, 8
	ori	$a1, $zero, 1
	lu32i.d	$a1, 1
	dbar	20
	bne	$a0, $a1, .LBB16_55
# %bb.54:
	ld.d	$a0, $s0, 0
	st.d	$zero, $s0, 8
	ld.d	$a1, $a0, 16
	move	$a0, $s0
	jirl	$ra, $a1, 0
	ld.d	$a0, $s0, 0
	ld.d	$a1, $a0, 24
	move	$a0, $s0
	jirl	$ra, $a1, 0
	ld.d	$a0, $sp, 808
	addi.d	$a1, $sp, 824
	bne	$a0, $a1, .LBB16_58
	b	.LBB16_59
.LBB16_55:
	pcalau12i	$a1, %got_pc_hi20(__libc_single_threaded)
	ld.d	$a1, $a1, %got_pc_lo12(__libc_single_threaded)
	ld.bu	$a1, $a1, 0
	beqz	$a1, .LBB16_577
# %bb.56:
	addi.d	$a1, $a0, -1
	st.w	$a1, $s0, 8
	addi.w	$a0, $a0, 0
	ori	$a1, $zero, 1
	beq	$a0, $a1, .LBB16_578
.LBB16_57:                              # %_ZNSt12__shared_ptrIN9benchmark5RegexELN9__gnu_cxx12_Lock_policyE2EED2Ev.exit.i.4.i
	ld.d	$a0, $sp, 808
	addi.d	$a1, $sp, 824
	beq	$a0, $a1, .LBB16_59
.LBB16_58:                              # %_ZNKSt7__cxx1112basic_stringIcSt11char_traitsIcESaIcEE11_M_is_localEv.exit.i.i.i.4.i
	ld.d	$a1, $sp, 824
	addi.d	$a1, $a1, 1
	pcaddu18i	$ra, %call36(_ZdlPvm)
	jirl	$ra, $ra, 0
.LBB16_59:                              # %_ZNSt7__cxx1112basic_stringIcSt11char_traitsIcESaIcEED2Ev.exit.i.4.i
	ld.d	$a0, $sp, 768
	beq	$a0, $s1, .LBB16_61
# %bb.60:                               # %_ZNKSt7__cxx1112basic_stringIcSt11char_traitsIcESaIcEE11_M_is_localEv.exit.i.i1.i.4.i
	ld.d	$a1, $sp, 784
	addi.d	$a1, $a1, 1
	pcaddu18i	$ra, %call36(_ZdlPvm)
	jirl	$ra, $ra, 0
.LBB16_61:                              # %_ZN8TestCaseD2Ev.exit.4.i
	ori	$a0, $zero, 2440
	add.d	$a0, $sp, $a0
	ld.d	$a0, $a0, 0
	ori	$a1, $zero, 2456
	add.d	$a1, $sp, $a1
	beq	$a0, $a1, .LBB16_63
# %bb.62:                               # %_ZNKSt7__cxx1112basic_stringIcSt11char_traitsIcESaIcEE11_M_is_localEv.exit.i.i.i1
	ori	$a1, $zero, 2456
	add.d	$a1, $sp, $a1
	ld.d	$a1, $a1, 0
	addi.d	$a1, $a1, 1
	pcaddu18i	$ra, %call36(_ZdlPvm)
	jirl	$ra, $ra, 0
.LBB16_63:                              # %_ZNSt7__cxx1112basic_stringIcSt11char_traitsIcESaIcEED2Ev.exit.i
	ori	$a0, $zero, 2472
	add.d	$a0, $sp, $a0
	ld.d	$a0, $a0, 0
	ori	$a1, $zero, 2488
	add.d	$a1, $sp, $a1
	beq	$a0, $a1, .LBB16_65
# %bb.64:                               # %_ZNKSt7__cxx1112basic_stringIcSt11char_traitsIcESaIcEE11_M_is_localEv.exit.i.i59.i
	ori	$a1, $zero, 2488
	add.d	$a1, $sp, $a1
	ld.d	$a1, $a1, 0
	addi.d	$a1, $a1, 1
	pcaddu18i	$ra, %call36(_ZdlPvm)
	jirl	$ra, $ra, 0
.LBB16_65:                              # %_ZNSt7__cxx1112basic_stringIcSt11char_traitsIcESaIcEED2Ev.exit61.i
	ori	$a0, $zero, 2504
	add.d	$a0, $sp, $a0
	ld.d	$a0, $a0, 0
	ori	$a1, $zero, 2520
	add.d	$a1, $sp, $a1
	beq	$a0, $a1, .LBB16_67
# %bb.66:                               # %_ZNKSt7__cxx1112basic_stringIcSt11char_traitsIcESaIcEE11_M_is_localEv.exit.i.i62.i
	ori	$a1, $zero, 2520
	add.d	$a1, $sp, $a1
	ld.d	$a1, $a1, 0
	addi.d	$a1, $a1, 1
	pcaddu18i	$ra, %call36(_ZdlPvm)
	jirl	$ra, $ra, 0
.LBB16_67:                              # %_ZNSt7__cxx1112basic_stringIcSt11char_traitsIcESaIcEED2Ev.exit64.i
	ori	$a0, $zero, 2536
	add.d	$a0, $sp, $a0
	ld.d	$a0, $a0, 0
	ori	$a1, $zero, 2552
	add.d	$a1, $sp, $a1
	beq	$a0, $a1, .LBB16_69
# %bb.68:                               # %_ZNKSt7__cxx1112basic_stringIcSt11char_traitsIcESaIcEE11_M_is_localEv.exit.i.i65.i
	ori	$a1, $zero, 2552
	add.d	$a1, $sp, $a1
	ld.d	$a1, $a1, 0
	addi.d	$a1, $a1, 1
	pcaddu18i	$ra, %call36(_ZdlPvm)
	jirl	$ra, $ra, 0
.LBB16_69:                              # %_ZNSt7__cxx1112basic_stringIcSt11char_traitsIcESaIcEED2Ev.exit67.i
	ori	$a0, $zero, 2568
	add.d	$a0, $sp, $a0
	ld.d	$a0, $a0, 0
	ori	$a1, $zero, 2584
	add.d	$a1, $sp, $a1
	beq	$a0, $a1, .LBB16_71
# %bb.70:                               # %_ZNKSt7__cxx1112basic_stringIcSt11char_traitsIcESaIcEE11_M_is_localEv.exit.i.i68.i
	ori	$a1, $zero, 2584
	add.d	$a1, $sp, $a1
	ld.d	$a1, $a1, 0
	addi.d	$a1, $a1, 1
	pcaddu18i	$ra, %call36(_ZdlPvm)
	jirl	$ra, $ra, 0
.LBB16_71:                              # %__cxx_global_var_init.7.exit
	pcalau12i	$a0, %pc_hi20(dummy51)
	st.w	$fp, $a0, %pc_lo12(dummy51)
	ori	$a0, $zero, 2584
	add.d	$a0, $sp, $a0
	ori	$a1, $zero, 2568
	add.d	$a1, $sp, $a1
	st.d	$a0, $a1, 0
	ori	$a0, $zero, 43
	ori	$a1, $zero, 2536
	add.d	$a1, $sp, $a1
	st.d	$a0, $a1, 0
	ori	$a0, $zero, 2568
	add.d	$a0, $sp, $a0
	ori	$a1, $zero, 2536
	add.d	$a1, $sp, $a1
	move	$a2, $zero
	pcaddu18i	$ra, %call36(_ZNSt7__cxx1112basic_stringIcSt11char_traitsIcESaIcEE9_M_createERmm)
	jirl	$ra, $ra, 0
	ori	$a1, $zero, 2536
	add.d	$a1, $sp, $a1
	ld.d	$a1, $a1, 0
	pcalau12i	$a2, %pc_hi20(.L.str.13)
	addi.d	$s2, $a2, %pc_lo12(.L.str.13)
	vld	$vr0, $s2, 0
	ori	$a2, $zero, 2568
	add.d	$a2, $sp, $a2
	st.d	$a0, $a2, 0
	ori	$a2, $zero, 2584
	add.d	$a2, $sp, $a2
	st.d	$a1, $a2, 0
	vst	$vr0, $a0, 0
	vld	$vr0, $s2, 16
	ld.d	$s1, $s2, 32
	ld.w	$fp, $s2, 39
	vst	$vr0, $a0, 16
	st.d	$s1, $a0, 32
	st.w	$fp, $a0, 39
	ori	$a2, $zero, 2576
	add.d	$a2, $sp, $a2
	st.d	$a1, $a2, 0
	stx.b	$zero, $a0, $a1
.Ltmp606:
	addi.d	$a0, $sp, 768
	ori	$a1, $zero, 2568
	add.d	$a1, $sp, $a1
	addi.d	$s0, $sp, 768
	move	$a2, $zero
	pcaddu18i	$ra, %call36(_ZN8TestCaseC1ENSt7__cxx1112basic_stringIcSt11char_traitsIcESaIcEEEi)
	jirl	$ra, $ra, 0
.Ltmp607:
# %bb.72:                               # %.noexc.i153.i
	addi.d	$s0, $sp, 856
	ori	$a0, $zero, 2552
	add.d	$a0, $sp, $a0
	ori	$a1, $zero, 2536
	add.d	$a1, $sp, $a1
	st.d	$a0, $a1, 0
	ori	$a0, $zero, 19
	ori	$a1, $zero, 2504
	add.d	$a1, $sp, $a1
	st.d	$a0, $a1, 0
.Ltmp609:
	ori	$a0, $zero, 2536
	add.d	$a0, $sp, $a0
	ori	$a1, $zero, 2504
	add.d	$a1, $sp, $a1
	move	$a2, $zero
	pcaddu18i	$ra, %call36(_ZNSt7__cxx1112basic_stringIcSt11char_traitsIcESaIcEE9_M_createERmm)
	jirl	$ra, $ra, 0
.Ltmp610:
# %bb.73:                               # %.noexc154.i
	ori	$a1, $zero, 2504
	add.d	$a1, $sp, $a1
	ld.d	$a1, $a1, 0
	pcalau12i	$a2, %pc_hi20(.L.str.14)
	addi.d	$a2, $a2, %pc_lo12(.L.str.14)
	vld	$vr0, $a2, 0
	st.d	$a2, $sp, 304                   # 8-byte Folded Spill
	ld.w	$a2, $a2, 15
	ori	$a3, $zero, 2536
	add.d	$a3, $sp, $a3
	st.d	$a0, $a3, 0
	ori	$a3, $zero, 2552
	add.d	$a3, $sp, $a3
	st.d	$a1, $a3, 0
	vst	$vr0, $a0, 0
	st.d	$a2, $sp, 312                   # 8-byte Folded Spill
	st.w	$a2, $a0, 15
	ori	$a0, $zero, 2536
	add.d	$a0, $sp, $a0
	ld.d	$a0, $a0, 0
	ori	$a2, $zero, 2544
	add.d	$a2, $sp, $a2
	st.d	$a1, $a2, 0
	stx.b	$zero, $a0, $a1
.Ltmp612:
	ori	$a0, $zero, 2536
	add.d	$a1, $sp, $a0
	ori	$a2, $zero, 1
	move	$a0, $s0
	pcaddu18i	$ra, %call36(_ZN8TestCaseC1ENSt7__cxx1112basic_stringIcSt11char_traitsIcESaIcEEEi)
	jirl	$ra, $ra, 0
.Ltmp613:
# %bb.74:                               # %.noexc.i157.i
	addi.d	$s4, $sp, 944
	ori	$a0, $zero, 2520
	add.d	$a0, $sp, $a0
	ori	$a1, $zero, 2504
	add.d	$a1, $sp, $a1
	st.d	$a0, $a1, 0
	ori	$a0, $zero, 32
	ori	$a1, $zero, 2472
	add.d	$a1, $sp, $a1
	st.d	$a0, $a1, 0
.Ltmp615:
	ori	$a0, $zero, 2504
	add.d	$a0, $sp, $a0
	ori	$a1, $zero, 2472
	add.d	$a1, $sp, $a1
	move	$a2, $zero
	pcaddu18i	$ra, %call36(_ZNSt7__cxx1112basic_stringIcSt11char_traitsIcESaIcEE9_M_createERmm)
	jirl	$ra, $ra, 0
.Ltmp616:
# %bb.75:                               # %.noexc158.i
	ori	$a1, $zero, 2472
	add.d	$a1, $sp, $a1
	ld.d	$a1, $a1, 0
	pcalau12i	$a2, %pc_hi20(.L.str.15)
	addi.d	$a2, $a2, %pc_lo12(.L.str.15)
	vld	$vr0, $a2, 16
	ori	$a3, $zero, 2504
	add.d	$a3, $sp, $a3
	st.d	$a0, $a3, 0
	ori	$a3, $zero, 2520
	add.d	$a3, $sp, $a3
	st.d	$a1, $a3, 0
	vst	$vr0, $a0, 16
	st.d	$a2, $sp, 296                   # 8-byte Folded Spill
	vld	$vr0, $a2, 0
	vst	$vr0, $a0, 0
	ori	$a0, $zero, 2504
	add.d	$a0, $sp, $a0
	ld.d	$a0, $a0, 0
	ori	$a2, $zero, 2512
	add.d	$a2, $sp, $a2
	st.d	$a1, $a2, 0
	stx.b	$zero, $a0, $a1
.Ltmp618:
	ori	$a0, $zero, 2504
	add.d	$a1, $sp, $a0
	ori	$a2, $zero, 1
	move	$a0, $s4
	pcaddu18i	$ra, %call36(_ZN8TestCaseC1ENSt7__cxx1112basic_stringIcSt11char_traitsIcESaIcEEEi)
	jirl	$ra, $ra, 0
.Ltmp619:
# %bb.76:                               # %.noexc.i161.i
	addi.d	$s4, $sp, 1032
	ori	$a0, $zero, 2488
	add.d	$a0, $sp, $a0
	ori	$a1, $zero, 2472
	add.d	$a1, $sp, $a1
	st.d	$a0, $a1, 0
	ori	$a0, $zero, 47
	ori	$a1, $zero, 2440
	add.d	$a1, $sp, $a1
	st.d	$a0, $a1, 0
.Ltmp621:
	ori	$a0, $zero, 2472
	add.d	$a0, $sp, $a0
	ori	$a1, $zero, 2440
	add.d	$a1, $sp, $a1
	move	$a2, $zero
	pcaddu18i	$ra, %call36(_ZNSt7__cxx1112basic_stringIcSt11char_traitsIcESaIcEE9_M_createERmm)
	jirl	$ra, $ra, 0
.Ltmp622:
# %bb.77:                               # %.noexc162.i
	ori	$a1, $zero, 2440
	add.d	$a1, $sp, $a1
	ld.d	$a1, $a1, 0
	pcalau12i	$a2, %pc_hi20(.L.str.16)
	addi.d	$a2, $a2, %pc_lo12(.L.str.16)
	vld	$vr0, $a2, 16
	ori	$a3, $zero, 2472
	add.d	$a3, $sp, $a3
	st.d	$a0, $a3, 0
	ori	$a3, $zero, 2488
	add.d	$a3, $sp, $a3
	st.d	$a1, $a3, 0
	vst	$vr0, $a0, 16
	vld	$vr0, $a2, 0
	ld.d	$a3, $a2, 32
	st.d	$a2, $sp, 288                   # 8-byte Folded Spill
	ld.d	$a2, $a2, 39
	vst	$vr0, $a0, 0
	st.d	$a3, $sp, 280                   # 8-byte Folded Spill
	st.d	$a3, $a0, 32
	st.d	$a2, $sp, 272                   # 8-byte Folded Spill
	st.d	$a2, $a0, 39
	ori	$a2, $zero, 2480
	add.d	$a2, $sp, $a2
	st.d	$a1, $a2, 0
	stx.b	$zero, $a0, $a1
.Ltmp624:
	ori	$a0, $zero, 2472
	add.d	$a1, $sp, $a0
	ori	$a2, $zero, 1
	move	$a0, $s4
	pcaddu18i	$ra, %call36(_ZN8TestCaseC1ENSt7__cxx1112basic_stringIcSt11char_traitsIcESaIcEEEi)
	jirl	$ra, $ra, 0
.Ltmp625:
# %bb.78:                               # %.noexc.i165.i
	addi.d	$s6, $sp, 1120
	ori	$a0, $zero, 2456
	add.d	$a0, $sp, $a0
	ori	$a1, $zero, 2440
	add.d	$a1, $sp, $a1
	st.d	$a0, $a1, 0
	ori	$a0, $zero, 25
	st.d	$a0, $sp, 736
.Ltmp627:
	ori	$a0, $zero, 2440
	add.d	$a0, $sp, $a0
	addi.d	$a1, $sp, 736
	move	$a2, $zero
	pcaddu18i	$ra, %call36(_ZNSt7__cxx1112basic_stringIcSt11char_traitsIcESaIcEE9_M_createERmm)
	jirl	$ra, $ra, 0
.Ltmp628:
# %bb.79:                               # %.noexc166.i
	ori	$a1, $zero, 2440
	add.d	$a1, $sp, $a1
	st.d	$a0, $a1, 0
	ld.d	$a1, $sp, 736
	pcalau12i	$a2, %pc_hi20(.L.str.17)
	addi.d	$s4, $a2, %pc_lo12(.L.str.17)
	vld	$vr0, $s4, 0
	ld.b	$s3, $s4, 24
	ld.d	$s5, $s4, 16
	ori	$a2, $zero, 2456
	add.d	$a2, $sp, $a2
	st.d	$a1, $a2, 0
	vst	$vr0, $a0, 0
	st.b	$s3, $a0, 24
	st.d	$s5, $a0, 16
	ori	$a0, $zero, 2440
	add.d	$a0, $sp, $a0
	ld.d	$a0, $a0, 0
	ori	$a2, $zero, 2448
	add.d	$a2, $sp, $a2
	st.d	$a1, $a2, 0
	stx.b	$zero, $a0, $a1
.Ltmp630:
	ori	$a0, $zero, 2440
	add.d	$a1, $sp, $a0
	ori	$a2, $zero, 1
	move	$a0, $s6
	pcaddu18i	$ra, %call36(_ZN8TestCaseC1ENSt7__cxx1112basic_stringIcSt11char_traitsIcESaIcEEEi)
	jirl	$ra, $ra, 0
.Ltmp631:
# %bb.80:                               # %.noexc.i169.i
	addi.d	$s6, $sp, 1208
	addi.d	$a0, $sp, 752
	st.d	$a0, $sp, 736
	ori	$a0, $zero, 18
	st.d	$a0, $sp, 704
.Ltmp633:
	addi.d	$a0, $sp, 736
	addi.d	$a1, $sp, 704
	move	$a2, $zero
	pcaddu18i	$ra, %call36(_ZNSt7__cxx1112basic_stringIcSt11char_traitsIcESaIcEE9_M_createERmm)
	jirl	$ra, $ra, 0
.Ltmp634:
# %bb.81:                               # %.noexc170.i
	ld.d	$a1, $sp, 704
	pcalau12i	$a2, %pc_hi20(.L.str.18)
	addi.d	$a2, $a2, %pc_lo12(.L.str.18)
	vld	$vr0, $a2, 0
	st.d	$a2, $sp, 256                   # 8-byte Folded Spill
	ld.h	$a2, $a2, 16
	st.d	$a0, $sp, 736
	st.d	$a1, $sp, 752
	vst	$vr0, $a0, 0
	st.d	$a2, $sp, 264                   # 8-byte Folded Spill
	st.h	$a2, $a0, 16
	ld.d	$a0, $sp, 736
	st.d	$a1, $sp, 744
	stx.b	$zero, $a0, $a1
.Ltmp636:
	addi.d	$a1, $sp, 736
	ori	$a2, $zero, 1
	move	$a0, $s6
	pcaddu18i	$ra, %call36(_ZN8TestCaseC1ENSt7__cxx1112basic_stringIcSt11char_traitsIcESaIcEEEi)
	jirl	$ra, $ra, 0
.Ltmp637:
# %bb.82:                               # %.noexc.i173.i
	addi.d	$s6, $sp, 1296
	addi.d	$a0, $sp, 720
	st.d	$a0, $sp, 704
	ori	$a0, $zero, 23
	st.d	$a0, $sp, 672
.Ltmp639:
	addi.d	$a0, $sp, 704
	addi.d	$a1, $sp, 672
	move	$a2, $zero
	pcaddu18i	$ra, %call36(_ZNSt7__cxx1112basic_stringIcSt11char_traitsIcESaIcEE9_M_createERmm)
	jirl	$ra, $ra, 0
.Ltmp640:
# %bb.83:                               # %.noexc174.i
	ld.d	$a1, $sp, 672
	pcalau12i	$a2, %pc_hi20(.L.str.19)
	addi.d	$a2, $a2, %pc_lo12(.L.str.19)
	vld	$vr0, $a2, 0
	ld.d	$a2, $a2, 15
	st.d	$a0, $sp, 704
	st.d	$a1, $sp, 720
	vst	$vr0, $a0, 0
	st.d	$a2, $a0, 15
	ld.d	$a0, $sp, 704
	st.d	$a1, $sp, 712
	stx.b	$zero, $a0, $a1
.Ltmp642:
	addi.d	$a1, $sp, 704
	ori	$a2, $zero, 1
	move	$a0, $s6
	pcaddu18i	$ra, %call36(_ZN8TestCaseC1ENSt7__cxx1112basic_stringIcSt11char_traitsIcESaIcEEEi)
	jirl	$ra, $ra, 0
.Ltmp643:
# %bb.84:                               # %._crit_edge.i.i176.i
	addi.d	$s6, $sp, 1384
	pcalau12i	$a0, %pc_hi20(.L.str.20)
	addi.d	$a0, $a0, %pc_lo12(.L.str.20)
	ld.d	$a1, $a0, 0
	ld.d	$a2, $a0, 6
	addi.d	$a0, $sp, 688
	st.d	$a0, $sp, 672
	st.d	$a1, $sp, 248                   # 8-byte Folded Spill
	st.d	$a1, $sp, 688
	st.d	$a2, $sp, 240                   # 8-byte Folded Spill
	st.d	$a2, $sp, 694
	ori	$a0, $zero, 14
	st.d	$a0, $sp, 680
	st.b	$zero, $sp, 702
.Ltmp645:
	addi.d	$a1, $sp, 672
	ori	$a2, $zero, 1
	move	$a0, $s6
	pcaddu18i	$ra, %call36(_ZN8TestCaseC1ENSt7__cxx1112basic_stringIcSt11char_traitsIcESaIcEEEi)
	jirl	$ra, $ra, 0
.Ltmp646:
# %bb.85:                               # %.noexc.i181.i
	addi.d	$s6, $sp, 1472
	addi.d	$a0, $sp, 656
	st.d	$a0, $sp, 640
	ori	$a0, $zero, 20
	st.d	$a0, $sp, 608
.Ltmp648:
	addi.d	$a0, $sp, 640
	addi.d	$a1, $sp, 608
	move	$a2, $zero
	pcaddu18i	$ra, %call36(_ZNSt7__cxx1112basic_stringIcSt11char_traitsIcESaIcEE9_M_createERmm)
	jirl	$ra, $ra, 0
.Ltmp649:
# %bb.86:                               # %.noexc182.i
	ld.d	$a1, $sp, 608
	pcalau12i	$a2, %pc_hi20(.L.str.21)
	addi.d	$a2, $a2, %pc_lo12(.L.str.21)
	vld	$vr0, $a2, 0
	st.d	$a2, $sp, 56                    # 8-byte Folded Spill
	ld.w	$s7, $a2, 16
	st.d	$a0, $sp, 640
	st.d	$a1, $sp, 656
	vst	$vr0, $a0, 0
	st.w	$s7, $a0, 16
	ld.d	$a0, $sp, 640
	st.d	$a1, $sp, 648
	stx.b	$zero, $a0, $a1
.Ltmp651:
	addi.d	$a1, $sp, 640
	ori	$a2, $zero, 1
	move	$a0, $s6
	pcaddu18i	$ra, %call36(_ZN8TestCaseC1ENSt7__cxx1112basic_stringIcSt11char_traitsIcESaIcEEEi)
	jirl	$ra, $ra, 0
.Ltmp652:
# %bb.87:                               # %.noexc.i185.i
	addi.d	$s6, $sp, 1560
	addi.d	$a0, $sp, 624
	st.d	$a0, $sp, 608
	ori	$a0, $zero, 21
	st.d	$a0, $sp, 576
.Ltmp654:
	addi.d	$a0, $sp, 608
	addi.d	$a1, $sp, 576
	move	$a2, $zero
	pcaddu18i	$ra, %call36(_ZNSt7__cxx1112basic_stringIcSt11char_traitsIcESaIcEE9_M_createERmm)
	jirl	$ra, $ra, 0
.Ltmp655:
# %bb.88:                               # %.noexc186.i
	ld.d	$a1, $sp, 576
	pcalau12i	$a2, %pc_hi20(.L.str.22)
	addi.d	$a2, $a2, %pc_lo12(.L.str.22)
	vld	$vr0, $a2, 0
	st.d	$a2, $sp, 224                   # 8-byte Folded Spill
	ld.d	$a2, $a2, 13
	st.d	$a0, $sp, 608
	st.d	$a1, $sp, 624
	vst	$vr0, $a0, 0
	st.d	$a2, $sp, 232                   # 8-byte Folded Spill
	st.d	$a2, $a0, 13
	ld.d	$a0, $sp, 608
	st.d	$a1, $sp, 616
	stx.b	$zero, $a0, $a1
.Ltmp657:
	addi.d	$a1, $sp, 608
	ori	$a2, $zero, 1
	move	$a0, $s6
	pcaddu18i	$ra, %call36(_ZN8TestCaseC1ENSt7__cxx1112basic_stringIcSt11char_traitsIcESaIcEEEi)
	jirl	$ra, $ra, 0
.Ltmp658:
# %bb.89:                               # %.noexc.i189.i
	addi.d	$s6, $sp, 1648
	addi.d	$a0, $sp, 592
	st.d	$a0, $sp, 576
	ori	$a0, $zero, 20
	st.d	$a0, $sp, 544
.Ltmp660:
	addi.d	$a0, $sp, 576
	addi.d	$a1, $sp, 544
	move	$a2, $zero
	pcaddu18i	$ra, %call36(_ZNSt7__cxx1112basic_stringIcSt11char_traitsIcESaIcEE9_M_createERmm)
	jirl	$ra, $ra, 0
.Ltmp661:
# %bb.90:                               # %.noexc190.i
	ld.d	$a1, $sp, 544
	pcalau12i	$a2, %pc_hi20(.L.str.23)
	addi.d	$a2, $a2, %pc_lo12(.L.str.23)
	vld	$vr0, $a2, 0
	st.d	$a2, $sp, 208                   # 8-byte Folded Spill
	ld.w	$a2, $a2, 16
	st.d	$a0, $sp, 576
	st.d	$a1, $sp, 592
	vst	$vr0, $a0, 0
	st.d	$a2, $sp, 216                   # 8-byte Folded Spill
	st.w	$a2, $a0, 16
	ld.d	$a0, $sp, 576
	st.d	$a1, $sp, 584
	stx.b	$zero, $a0, $a1
.Ltmp663:
	addi.d	$a1, $sp, 576
	ori	$a2, $zero, 1
	move	$a0, $s6
	pcaddu18i	$ra, %call36(_ZN8TestCaseC1ENSt7__cxx1112basic_stringIcSt11char_traitsIcESaIcEEEi)
	jirl	$ra, $ra, 0
.Ltmp664:
# %bb.91:                               # %.noexc.i193.i
	addi.d	$s6, $sp, 1736
	addi.d	$a0, $sp, 560
	st.d	$a0, $sp, 544
	ori	$a0, $zero, 19
	st.d	$a0, $sp, 512
.Ltmp666:
	addi.d	$a0, $sp, 544
	addi.d	$a1, $sp, 512
	move	$a2, $zero
	pcaddu18i	$ra, %call36(_ZNSt7__cxx1112basic_stringIcSt11char_traitsIcESaIcEE9_M_createERmm)
	jirl	$ra, $ra, 0
.Ltmp667:
# %bb.92:                               # %.noexc194.i
	ld.d	$a1, $sp, 512
	pcalau12i	$a2, %pc_hi20(.L.str.24)
	addi.d	$a2, $a2, %pc_lo12(.L.str.24)
	vld	$vr0, $a2, 0
	st.d	$a2, $sp, 192                   # 8-byte Folded Spill
	ld.w	$a2, $a2, 15
	st.d	$a0, $sp, 544
	st.d	$a1, $sp, 560
	vst	$vr0, $a0, 0
	st.d	$a2, $sp, 200                   # 8-byte Folded Spill
	st.w	$a2, $a0, 15
	ld.d	$a0, $sp, 544
	st.d	$a1, $sp, 552
	stx.b	$zero, $a0, $a1
.Ltmp669:
	addi.d	$a1, $sp, 544
	ori	$a2, $zero, 1
	move	$a0, $s6
	pcaddu18i	$ra, %call36(_ZN8TestCaseC1ENSt7__cxx1112basic_stringIcSt11char_traitsIcESaIcEEEi)
	jirl	$ra, $ra, 0
.Ltmp670:
# %bb.93:                               # %.noexc.i197.i
	addi.d	$s6, $sp, 1824
	addi.d	$a0, $sp, 528
	st.d	$a0, $sp, 512
	ori	$a0, $zero, 42
	st.d	$a0, $sp, 480
.Ltmp672:
	addi.d	$a0, $sp, 512
	addi.d	$a1, $sp, 480
	move	$a2, $zero
	pcaddu18i	$ra, %call36(_ZNSt7__cxx1112basic_stringIcSt11char_traitsIcESaIcEE9_M_createERmm)
	jirl	$ra, $ra, 0
.Ltmp673:
# %bb.94:                               # %.noexc198.i
	st.d	$s4, $sp, 40                    # 8-byte Folded Spill
	st.d	$s3, $sp, 48                    # 8-byte Folded Spill
	ld.d	$a1, $sp, 480
	pcalau12i	$a2, %pc_hi20(.L.str.25)
	addi.d	$a2, $a2, %pc_lo12(.L.str.25)
	vld	$vr0, $a2, 16
	st.d	$a0, $sp, 512
	st.d	$a1, $sp, 528
	vst	$vr0, $a0, 16
	vld	$vr0, $a2, 0
	ld.d	$a3, $a2, 32
	st.d	$a2, $sp, 184                   # 8-byte Folded Spill
	ld.h	$a2, $a2, 40
	vst	$vr0, $a0, 0
	st.d	$a3, $sp, 176                   # 8-byte Folded Spill
	st.d	$a3, $a0, 32
	st.d	$a2, $sp, 168                   # 8-byte Folded Spill
	st.h	$a2, $a0, 40
	st.d	$a1, $sp, 520
	stx.b	$zero, $a0, $a1
.Ltmp675:
	addi.d	$a1, $sp, 512
	ori	$a2, $zero, 1
	move	$a0, $s6
	pcaddu18i	$ra, %call36(_ZN8TestCaseC1ENSt7__cxx1112basic_stringIcSt11char_traitsIcESaIcEEEi)
	jirl	$ra, $ra, 0
.Ltmp676:
# %bb.95:                               # %.noexc.i201.i
	addi.d	$s4, $sp, 1912
	addi.d	$a0, $sp, 496
	st.d	$a0, $sp, 480
	ori	$a0, $zero, 39
	st.d	$a0, $sp, 448
.Ltmp678:
	addi.d	$a0, $sp, 480
	addi.d	$a1, $sp, 448
	move	$a2, $zero
	pcaddu18i	$ra, %call36(_ZNSt7__cxx1112basic_stringIcSt11char_traitsIcESaIcEE9_M_createERmm)
	jirl	$ra, $ra, 0
.Ltmp679:
# %bb.96:                               # %.noexc202.i
	ld.d	$a1, $sp, 448
	pcalau12i	$a2, %pc_hi20(.L.str.26)
	addi.d	$a2, $a2, %pc_lo12(.L.str.26)
	vld	$vr0, $a2, 16
	st.d	$a0, $sp, 480
	st.d	$a1, $sp, 496
	vst	$vr0, $a0, 16
	vld	$vr0, $a2, 0
	st.d	$a2, $sp, 160                   # 8-byte Folded Spill
	ld.d	$a2, $a2, 31
	vst	$vr0, $a0, 0
	st.d	$a2, $sp, 152                   # 8-byte Folded Spill
	st.d	$a2, $a0, 31
	st.d	$a1, $sp, 488
	stx.b	$zero, $a0, $a1
.Ltmp681:
	addi.d	$a1, $sp, 480
	ori	$a2, $zero, 1
	move	$a0, $s4
	pcaddu18i	$ra, %call36(_ZN8TestCaseC1ENSt7__cxx1112basic_stringIcSt11char_traitsIcESaIcEEEi)
	jirl	$ra, $ra, 0
.Ltmp682:
# %bb.97:                               # %.noexc.i205.i
	addi.d	$s6, $sp, 2000
	addi.d	$a0, $sp, 464
	st.d	$a0, $sp, 448
	ori	$a0, $zero, 39
	st.d	$a0, $sp, 416
.Ltmp684:
	addi.d	$a0, $sp, 448
	addi.d	$a1, $sp, 416
	move	$a2, $zero
	pcaddu18i	$ra, %call36(_ZNSt7__cxx1112basic_stringIcSt11char_traitsIcESaIcEE9_M_createERmm)
	jirl	$ra, $ra, 0
.Ltmp685:
# %bb.98:                               # %.noexc206.i
