	.file	"GenMesh.cc"
                                        # Start of file scope inline assembly
	.globl	_ZSt21ios_base_library_initv

                                        # End of file scope inline assembly
	.section	.rodata.cst16,"aM",@progbits,16
	.p2align	4, 0x0                          # -- Begin function _ZN7GenMeshC2EPK9InputFile
.LCPI0_0:
	.dword	8                               # 0x8
	.dword	7309475736097875309             # 0x657079746873656d
	.section	.rodata.cst8,"aM",@progbits,8
	.p2align	3, 0x0
.LCPI0_1:
	.dword	0x4071abe4b73fefb5              # double 282.74333882308139
.LCPI0_2:
	.dword	0x400921fb54442d18              # double 3.1415926535897931
.LCPI0_3:
	.dword	0x4066800000000000              # double 180
.LCPI0_4:
	.dword	0x401921fb54442d18              # double 6.2831853071795862
	.text
	.globl	_ZN7GenMeshC2EPK9InputFile
	.p2align	5
	.type	_ZN7GenMeshC2EPK9InputFile,@function
_ZN7GenMeshC2EPK9InputFile:             # @_ZN7GenMeshC2EPK9InputFile
.Lfunc_begin0:
	.cfi_startproc
	.cfi_personality 155, DW.ref.__gxx_personality_v0
	.cfi_lsda 27, .Lexception0
# %bb.0:                                # %._crit_edge.i.i
	addi.d	$sp, $sp, -224
	.cfi_def_cfa_offset 224
	st.d	$ra, $sp, 216                   # 8-byte Folded Spill
	st.d	$fp, $sp, 208                   # 8-byte Folded Spill
	st.d	$s0, $sp, 200                   # 8-byte Folded Spill
	st.d	$s1, $sp, 192                   # 8-byte Folded Spill
	st.d	$s2, $sp, 184                   # 8-byte Folded Spill
	st.d	$s3, $sp, 176                   # 8-byte Folded Spill
	st.d	$s4, $sp, 168                   # 8-byte Folded Spill
	st.d	$s5, $sp, 160                   # 8-byte Folded Spill
	st.d	$s6, $sp, 152                   # 8-byte Folded Spill
	st.d	$s7, $sp, 144                   # 8-byte Folded Spill
	st.d	$s8, $sp, 136                   # 8-byte Folded Spill
	.cfi_offset 1, -8
	.cfi_offset 22, -16
	.cfi_offset 23, -24
	.cfi_offset 24, -32
	.cfi_offset 25, -40
	.cfi_offset 26, -48
	.cfi_offset 27, -56
	.cfi_offset 28, -64
	.cfi_offset 29, -72
	.cfi_offset 30, -80
	.cfi_offset 31, -88
	move	$s0, $a1
	move	$fp, $a0
	addi.d	$s3, $a0, 16
	st.d	$s3, $a0, 0
	st.d	$zero, $a0, 8
	pcalau12i	$a0, %pc_hi20(.LCPI0_0)
	vld	$vr0, $a0, %pc_lo12(.LCPI0_0)
	st.b	$zero, $fp, 16
	addi.d	$s1, $sp, 88
	st.d	$s1, $sp, 72
	vst	$vr0, $sp, 80
	st.b	$zero, $sp, 96
	addi.d	$s2, $sp, 56
	st.d	$s2, $sp, 40
	st.d	$zero, $sp, 48
	st.b	$zero, $sp, 56
.Ltmp0:                                 # EH_LABEL
	addi.d	$a0, $sp, 104
	addi.d	$a2, $sp, 72
	addi.d	$a3, $sp, 40
	pcaddu18i	$ra, %call36(_ZNK9InputFile9getStringERKNSt7__cxx1112basic_stringIcSt11char_traitsIcESaIcEEES7_)
	jirl	$ra, $ra, 0
.Ltmp1:                                 # EH_LABEL
# %bb.1:
	ld.d	$a0, $fp, 0
	ld.d	$a1, $sp, 104
	addi.d	$s4, $sp, 120
	beq	$a0, $s3, .LBB0_42
# %bb.2:                                # %_ZNKSt7__cxx1112basic_stringIcSt11char_traitsIcESaIcEE11_M_is_localEv.exit.thread.i
	beq	$a1, $s4, .LBB0_45
# %bb.3:                                # %_ZNKSt7__cxx1112basic_stringIcSt11char_traitsIcESaIcEE11_M_is_localEv.exit23.thread25.i
	ld.d	$a2, $s3, 0
	vld	$vr0, $sp, 112
	st.d	$a1, $fp, 0
	vst	$vr0, $fp, 8
	beqz	$a0, .LBB0_44
.LBB0_4:
	st.d	$a0, $sp, 104
	st.d	$a2, $sp, 120
	st.d	$zero, $sp, 112
	st.b	$zero, $a0, 0
	ld.d	$a0, $sp, 104
	beq	$a0, $s4, .LBB0_6
.LBB0_5:                                # %_ZNKSt7__cxx1112basic_stringIcSt11char_traitsIcESaIcEE11_M_is_localEv.exit.i.i
	ld.d	$a1, $sp, 120
	addi.d	$a1, $a1, 1
	pcaddu18i	$ra, %call36(_ZdlPvm)
	jirl	$ra, $ra, 0
.LBB0_6:                                # %_ZNSt7__cxx1112basic_stringIcSt11char_traitsIcESaIcEED2Ev.exit
	ld.d	$a0, $sp, 40
	beq	$a0, $s2, .LBB0_8
# %bb.7:                                # %_ZNKSt7__cxx1112basic_stringIcSt11char_traitsIcESaIcEE11_M_is_localEv.exit.i.i25
	ld.d	$a1, $sp, 56
	addi.d	$a1, $a1, 1
	pcaddu18i	$ra, %call36(_ZdlPvm)
	jirl	$ra, $ra, 0
.LBB0_8:                                # %_ZNSt7__cxx1112basic_stringIcSt11char_traitsIcESaIcEED2Ev.exit27
	ld.d	$a0, $sp, 72
	beq	$a0, $s1, .LBB0_10
# %bb.9:                                # %_ZNKSt7__cxx1112basic_stringIcSt11char_traitsIcESaIcEE11_M_is_localEv.exit.i.i28
	ld.d	$a1, $sp, 88
	addi.d	$a1, $a1, 1
	pcaddu18i	$ra, %call36(_ZdlPvm)
	jirl	$ra, $ra, 0
.LBB0_10:                               # %_ZNSt7__cxx1112basic_stringIcSt11char_traitsIcESaIcEED2Ev.exit30
	ld.d	$s1, $fp, 8
	beqz	$s1, .LBB0_63
# %bb.11:
	ori	$a0, $zero, 4
	beq	$s1, $a0, .LBB0_15
# %bb.12:
	ori	$a0, $zero, 3
	bne	$s1, $a0, .LBB0_59
# %bb.13:                               # %_ZStneIcSt11char_traitsIcESaIcEEbRKNSt7__cxx1112basic_stringIT_T0_T1_EEPKS5_.exit
	ld.d	$s2, $fp, 0
	pcalau12i	$a0, %pc_hi20(.L.str.3)
	addi.d	$a1, $a0, %pc_lo12(.L.str.3)
	ori	$a2, $zero, 3
	move	$a0, $s2
	pcaddu18i	$ra, %call36(bcmp)
	jirl	$ra, $ra, 0
	beqz	$a0, .LBB0_17
# %bb.14:                               # %_ZStneIcSt11char_traitsIcESaIcEEbRKNSt7__cxx1112basic_stringIT_T0_T1_EEPKS5_.exit42
	pcalau12i	$a0, %pc_hi20(.L.str.5)
	addi.d	$a1, $a0, %pc_lo12(.L.str.5)
	move	$a0, $s2
	b	.LBB0_16
.LBB0_15:                               # %_ZStneIcSt11char_traitsIcESaIcEEbRKNSt7__cxx1112basic_stringIT_T0_T1_EEPKS5_.exit40
	ld.d	$a0, $fp, 0
	pcalau12i	$a1, %pc_hi20(.L.str.4)
	addi.d	$a1, $a1, %pc_lo12(.L.str.4)
.LBB0_16:                               # %_ZStneIcSt11char_traitsIcESaIcEEbRKNSt7__cxx1112basic_stringIT_T0_T1_EEPKS5_.exit42
	move	$a2, $s1
	pcaddu18i	$ra, %call36(bcmp)
	jirl	$ra, $ra, 0
	bnez	$a0, .LBB0_59
.LBB0_17:                               # %._crit_edge.i.i48
	addi.d	$s1, $sp, 120
	st.d	$s1, $sp, 104
	pcalau12i	$a0, %pc_hi20(.L.str.7)
	addi.d	$a0, $a0, %pc_lo12(.L.str.7)
	ld.d	$a1, $a0, 0
	ld.h	$a0, $a0, 8
	st.d	$a1, $sp, 120
	st.h	$a0, $sp, 128
	ori	$a0, $zero, 10
	st.d	$a0, $sp, 112
	st.b	$zero, $sp, 130
	st.d	$zero, $sp, 56
	vrepli.b	$vr0, 0
	vst	$vr0, $sp, 40
.Ltmp3:                                 # EH_LABEL
	addi.d	$a0, $sp, 72
	addi.d	$a2, $sp, 104
	addi.d	$a3, $sp, 40
	move	$a1, $s0
	pcaddu18i	$ra, %call36(_ZNK9InputFile13getDoubleListERKNSt7__cxx1112basic_stringIcSt11char_traitsIcESaIcEEERKSt6vectorIdSaIdEE)
	jirl	$ra, $ra, 0
.Ltmp4:                                 # EH_LABEL
# %bb.18:
	ld.d	$a0, $sp, 40
	beqz	$a0, .LBB0_20
# %bb.19:
	ld.d	$a1, $sp, 56
	sub.d	$a1, $a1, $a0
	pcaddu18i	$ra, %call36(_ZdlPvm)
	jirl	$ra, $ra, 0
.LBB0_20:                               # %_ZNSt6vectorIdSaIdEED2Ev.exit
	ld.d	$a0, $sp, 104
	beq	$a0, $s1, .LBB0_22
# %bb.21:                               # %_ZNKSt7__cxx1112basic_stringIcSt11char_traitsIcESaIcEE11_M_is_localEv.exit.i.i52
	ld.d	$a1, $sp, 120
	addi.d	$a1, $a1, 1
	pcaddu18i	$ra, %call36(_ZdlPvm)
	jirl	$ra, $ra, 0
.LBB0_22:                               # %_ZNSt7__cxx1112basic_stringIcSt11char_traitsIcESaIcEED2Ev.exit54
	ld.d	$s0, $sp, 72
	ld.d	$a0, $sp, 80
	beq	$s0, $a0, .LBB0_66
# %bb.23:
	sub.d	$s4, $a0, $s0
	srai.d	$s6, $s4, 3
	ori	$a0, $zero, 5
	bgeu	$s6, $a0, .LBB0_69
# %bb.24:
	fld.d	$fa0, $s0, 0
	ftintrz.w.d	$fa0, $fa0
	movfr2gr.s	$s1, $fa0
	ori	$a0, $zero, 2
	st.w	$s1, $fp, 32
	bltu	$s6, $a0, .LBB0_26
# %bb.25:
	fld.d	$fa0, $s0, 8
	b	.LBB0_27
.LBB0_26:
	movgr2fr.w	$fa0, $s1
	ffint.d.w	$fa0, $fa0
.LBB0_27:
	ld.d	$s2, $fp, 8
	ftintrz.w.d	$fa0, $fa0
	movfr2gr.s	$s5, $fa0
	ori	$s7, $zero, 3
	st.w	$s5, $fp, 36
	bne	$s2, $s7, .LBB0_29
# %bb.28:                               # %_ZStneIcSt11char_traitsIcESaIcEEbRKNSt7__cxx1112basic_stringIT_T0_T1_EEPKS5_.exit71
	ld.d	$a0, $fp, 0
	pcalau12i	$a1, %pc_hi20(.L.str.3)
	addi.d	$a1, $a1, %pc_lo12(.L.str.3)
	ori	$a2, $zero, 3
	ori	$s8, $zero, 3
	pcaddu18i	$ra, %call36(bcmp)
	jirl	$ra, $ra, 0
	beqz	$a0, .LBB0_49
.LBB0_29:                               # %_ZStneIcSt11char_traitsIcESaIcEEbRKNSt7__cxx1112basic_stringIT_T0_T1_EEPKS5_.exit71.thread
	bltu	$s6, $s7, .LBB0_32
# %bb.30:
	fld.d	$fa2, $s0, 16
	ori	$a0, $zero, 32
	fst.d	$fa2, $fp, 40
	bne	$s4, $a0, .LBB0_33
.LBB0_31:
	fld.d	$fa0, $s0, 24
	b	.LBB0_34
.LBB0_32:
	vldi	$vr2, -912
	ori	$a0, $zero, 32
	fst.d	$fa2, $fp, 40
	beq	$s4, $a0, .LBB0_31
.LBB0_33:
	vldi	$vr0, -912
.LBB0_34:
	fst.d	$fa0, $fp, 48
	blez	$s1, .LBB0_56
# %bb.35:
	blez	$s5, .LBB0_56
# %bb.36:
	movgr2fr.d	$fa1, $zero
	fcmp.cle.d	$fcc0, $fa2, $fa1
	bcnez	$fcc0, .LBB0_56
# %bb.37:
	fcmp.cult.d	$fcc0, $fa1, $fa0
	bceqz	$fcc0, .LBB0_56
# %bb.38:
	ori	$a0, $zero, 3
	bne	$s2, $a0, .LBB0_41
# %bb.39:                               # %_ZSteqIcSt11char_traitsIcESaIcEEbRKNSt7__cxx1112basic_stringIT_T0_T1_EEPKS5_.exit
	ld.d	$a0, $fp, 0
	pcalau12i	$a1, %pc_hi20(.L.str.3)
	addi.d	$a1, $a1, %pc_lo12(.L.str.3)
	ori	$a2, $zero, 3
	vst	$vr2, $sp, 16                   # 16-byte Folded Spill
	pcaddu18i	$ra, %call36(bcmp)
	jirl	$ra, $ra, 0
	pcalau12i	$a1, %pc_hi20(.LCPI0_4)
	fld.d	$fa0, $a1, %pc_lo12(.LCPI0_4)
	vld	$vr1, $sp, 16                   # 16-byte Folded Reload
	fcmp.cult.d	$fcc0, $fa1, $fa0
	bcnez	$fcc0, .LBB0_41
# %bb.40:                               # %_ZSteqIcSt11char_traitsIcESaIcEEbRKNSt7__cxx1112basic_stringIT_T0_T1_EEPKS5_.exit
	beqz	$a0, .LBB0_72
.LBB0_41:                               # %_ZNSt6vectorIdSaIdEED2Ev.exit81
	ld.d	$a0, $sp, 88
	sub.d	$a1, $a0, $s0
	move	$a0, $s0
	pcaddu18i	$ra, %call36(_ZdlPvm)
	jirl	$ra, $ra, 0
	ld.d	$s8, $sp, 136                   # 8-byte Folded Reload
	ld.d	$s7, $sp, 144                   # 8-byte Folded Reload
	ld.d	$s6, $sp, 152                   # 8-byte Folded Reload
	ld.d	$s5, $sp, 160                   # 8-byte Folded Reload
	ld.d	$s4, $sp, 168                   # 8-byte Folded Reload
	ld.d	$s3, $sp, 176                   # 8-byte Folded Reload
	ld.d	$s2, $sp, 184                   # 8-byte Folded Reload
	ld.d	$s1, $sp, 192                   # 8-byte Folded Reload
	ld.d	$s0, $sp, 200                   # 8-byte Folded Reload
	ld.d	$fp, $sp, 208                   # 8-byte Folded Reload
	ld.d	$ra, $sp, 216                   # 8-byte Folded Reload
	addi.d	$sp, $sp, 224
	ret
.LBB0_42:                               # %_ZNKSt7__cxx1112basic_stringIcSt11char_traitsIcESaIcEE11_M_is_localEv.exit.i
	beq	$a1, $s4, .LBB0_45
# %bb.43:
	move	$a0, $zero
                                        # implicit-def: $r6
	vld	$vr0, $sp, 112
	st.d	$a1, $fp, 0
	vst	$vr0, $fp, 8
	bnez	$a0, .LBB0_4
.LBB0_44:
	st.d	$s4, $sp, 104
	move	$a0, $s4
	st.d	$zero, $sp, 112
	st.b	$zero, $a0, 0
	ld.d	$a0, $sp, 104
	bne	$a0, $s4, .LBB0_5
	b	.LBB0_6
.LBB0_45:
	addi.d	$a2, $sp, 104
	beq	$a2, $fp, .LBB0_55
# %bb.46:
	ld.d	$a2, $sp, 112
	beqz	$a2, .LBB0_52
# %bb.47:
	ori	$a3, $zero, 1
	bne	$a2, $a3, .LBB0_51
# %bb.48:
	ld.b	$a1, $a1, 0
	st.b	$a1, $a0, 0
	b	.LBB0_52
.LBB0_49:                               # %_ZStneIcSt11char_traitsIcESaIcEEbRKNSt7__cxx1112basic_stringIT_T0_T1_EEPKS5_.exit71.thread87
	bltu	$s6, $s8, .LBB0_53
# %bb.50:
	fld.d	$fa0, $s0, 16
	pcalau12i	$a0, %pc_hi20(.LCPI0_2)
	fld.d	$fa1, $a0, %pc_lo12(.LCPI0_2)
	fmul.d	$fa0, $fa0, $fa1
	b	.LBB0_54
.LBB0_51:
	pcaddu18i	$ra, %call36(memcpy)
	jirl	$ra, $ra, 0
.LBB0_52:                               # %_ZNSt7__cxx1112basic_stringIcSt11char_traitsIcESaIcEE7_S_copyEPcPKcm.exit.i
	ld.d	$a0, $sp, 112
	ld.d	$a1, $fp, 0
	st.d	$a0, $fp, 8
	stx.b	$zero, $a1, $a0
	ld.d	$a0, $sp, 104
	st.d	$zero, $sp, 112
	st.b	$zero, $a0, 0
	ld.d	$a0, $sp, 104
	bne	$a0, $s4, .LBB0_5
	b	.LBB0_6
.LBB0_53:
	pcalau12i	$a0, %pc_hi20(.LCPI0_1)
	fld.d	$fa0, $a0, %pc_lo12(.LCPI0_1)
.LBB0_54:
	pcalau12i	$a0, %pc_hi20(.LCPI0_3)
	fld.d	$fa1, $a0, %pc_lo12(.LCPI0_3)
	fdiv.d	$fa2, $fa0, $fa1
	ori	$a0, $zero, 32
	fst.d	$fa2, $fp, 40
	beq	$s4, $a0, .LBB0_31
	b	.LBB0_33
.LBB0_55:
	move	$a0, $a1
	st.d	$zero, $sp, 112
	st.b	$zero, $a0, 0
	ld.d	$a0, $sp, 104
	bne	$a0, $s4, .LBB0_5
	b	.LBB0_6
.LBB0_56:
	pcalau12i	$a0, %got_pc_hi20(_ZN8Parallel4mypeE)
	ld.d	$a0, $a0, %got_pc_lo12(_ZN8Parallel4mypeE)
	ld.w	$a0, $a0, 0
	bnez	$a0, .LBB0_75
# %bb.57:
.Ltmp10:                                # EH_LABEL
	pcalau12i	$a0, %got_pc_hi20(_ZSt4cerr)
	ld.d	$a0, $a0, %got_pc_lo12(_ZSt4cerr)
	pcalau12i	$a1, %pc_hi20(.L.str.10)
	addi.d	$a1, $a1, %pc_lo12(.L.str.10)
	ori	$a2, $zero, 42
	pcaddu18i	$ra, %call36(_ZSt16__ostream_insertIcSt11char_traitsIcEERSt13basic_ostreamIT_T0_ES6_PKS3_l)
	jirl	$ra, $ra, 0
.Ltmp11:                                # EH_LABEL
# %bb.58:                               # %_ZStlsISt11char_traitsIcEERSt13basic_ostreamIcT_ES5_PKc.exit73
.Ltmp12:                                # EH_LABEL
	pcalau12i	$a0, %got_pc_hi20(_ZSt4cerr)
	ld.d	$a0, $a0, %got_pc_lo12(_ZSt4cerr)
	pcaddu18i	$ra, %call36(_ZSt4endlIcSt11char_traitsIcEERSt13basic_ostreamIT_T0_ES6_)
	jirl	$ra, $ra, 0
.Ltmp13:                                # EH_LABEL
	b	.LBB0_75
.LBB0_59:                               # %_ZStneIcSt11char_traitsIcESaIcEEbRKNSt7__cxx1112basic_stringIT_T0_T1_EEPKS5_.exit42.thread
	pcalau12i	$a0, %got_pc_hi20(_ZN8Parallel4mypeE)
	ld.d	$a0, $a0, %got_pc_lo12(_ZN8Parallel4mypeE)
	ld.w	$a0, $a0, 0
	bnez	$a0, .LBB0_75
# %bb.60:
.Ltmp23:                                # EH_LABEL
	pcalau12i	$a0, %got_pc_hi20(_ZSt4cerr)
	ld.d	$a0, $a0, %got_pc_lo12(_ZSt4cerr)
	pcalau12i	$a1, %pc_hi20(.L.str.6)
	addi.d	$a1, $a1, %pc_lo12(.L.str.6)
	ori	$a2, $zero, 25
	pcaddu18i	$ra, %call36(_ZSt16__ostream_insertIcSt11char_traitsIcEERSt13basic_ostreamIT_T0_ES6_PKS3_l)
	jirl	$ra, $ra, 0
.Ltmp24:                                # EH_LABEL
# %bb.61:                               # %_ZStlsISt11char_traitsIcEERSt13basic_ostreamIcT_ES5_PKc.exit44
	ld.d	$a1, $fp, 0
	ld.d	$a2, $fp, 8
.Ltmp25:                                # EH_LABEL
	pcalau12i	$a0, %got_pc_hi20(_ZSt4cerr)
	ld.d	$a0, $a0, %got_pc_lo12(_ZSt4cerr)
	pcaddu18i	$ra, %call36(_ZSt16__ostream_insertIcSt11char_traitsIcEERSt13basic_ostreamIT_T0_ES6_PKS3_l)
	jirl	$ra, $ra, 0
.Ltmp26:                                # EH_LABEL
# %bb.62:                               # %_ZStlsIcSt11char_traitsIcESaIcEERSt13basic_ostreamIT_T0_ES7_RKNSt7__cxx1112basic_stringIS4_S5_T1_EE.exit
.Ltmp27:                                # EH_LABEL
	pcaddu18i	$ra, %call36(_ZSt4endlIcSt11char_traitsIcEERSt13basic_ostreamIT_T0_ES6_)
	jirl	$ra, $ra, 0
.Ltmp28:                                # EH_LABEL
	b	.LBB0_75
.LBB0_63:
	pcalau12i	$a0, %got_pc_hi20(_ZN8Parallel4mypeE)
	ld.d	$a0, $a0, %got_pc_lo12(_ZN8Parallel4mypeE)
	ld.w	$a0, $a0, 0
	bnez	$a0, .LBB0_75
# %bb.64:
.Ltmp29:                                # EH_LABEL
	pcalau12i	$a0, %got_pc_hi20(_ZSt4cerr)
	ld.d	$a0, $a0, %got_pc_lo12(_ZSt4cerr)
	pcalau12i	$a1, %pc_hi20(.L.str.2)
	addi.d	$a1, $a1, %pc_lo12(.L.str.2)
	ori	$a2, $zero, 29
	pcaddu18i	$ra, %call36(_ZSt16__ostream_insertIcSt11char_traitsIcEERSt13basic_ostreamIT_T0_ES6_PKS3_l)
	jirl	$ra, $ra, 0
.Ltmp30:                                # EH_LABEL
# %bb.65:                               # %_ZStlsISt11char_traitsIcEERSt13basic_ostreamIcT_ES5_PKc.exit
.Ltmp31:                                # EH_LABEL
	pcalau12i	$a0, %got_pc_hi20(_ZSt4cerr)
	ld.d	$a0, $a0, %got_pc_lo12(_ZSt4cerr)
	pcaddu18i	$ra, %call36(_ZSt4endlIcSt11char_traitsIcEERSt13basic_ostreamIT_T0_ES6_)
	jirl	$ra, $ra, 0
.Ltmp32:                                # EH_LABEL
	b	.LBB0_75
.LBB0_66:
	pcalau12i	$a0, %got_pc_hi20(_ZN8Parallel4mypeE)
	ld.d	$a0, $a0, %got_pc_lo12(_ZN8Parallel4mypeE)
	ld.w	$a0, $a0, 0
	bnez	$a0, .LBB0_75
# %bb.67:
.Ltmp18:                                # EH_LABEL
	pcalau12i	$a0, %got_pc_hi20(_ZSt4cerr)
	ld.d	$a0, $a0, %got_pc_lo12(_ZSt4cerr)
	pcalau12i	$a1, %pc_hi20(.L.str.8)
	addi.d	$a1, $a1, %pc_lo12(.L.str.8)
	ori	$a2, $zero, 31
	pcaddu18i	$ra, %call36(_ZSt16__ostream_insertIcSt11char_traitsIcEERSt13basic_ostreamIT_T0_ES6_PKS3_l)
	jirl	$ra, $ra, 0
.Ltmp19:                                # EH_LABEL
# %bb.68:                               # %_ZStlsISt11char_traitsIcEERSt13basic_ostreamIcT_ES5_PKc.exit56
.Ltmp20:                                # EH_LABEL
	pcalau12i	$a0, %got_pc_hi20(_ZSt4cerr)
	ld.d	$a0, $a0, %got_pc_lo12(_ZSt4cerr)
	pcaddu18i	$ra, %call36(_ZSt4endlIcSt11char_traitsIcEERSt13basic_ostreamIT_T0_ES6_)
	jirl	$ra, $ra, 0
.Ltmp21:                                # EH_LABEL
	b	.LBB0_75
.LBB0_69:
	pcalau12i	$a0, %got_pc_hi20(_ZN8Parallel4mypeE)
	ld.d	$a0, $a0, %got_pc_lo12(_ZN8Parallel4mypeE)
	ld.w	$a0, $a0, 0
	bnez	$a0, .LBB0_75
# %bb.70:
.Ltmp14:                                # EH_LABEL
	pcalau12i	$a0, %got_pc_hi20(_ZSt4cerr)
	ld.d	$a0, $a0, %got_pc_lo12(_ZSt4cerr)
	pcalau12i	$a1, %pc_hi20(.L.str.9)
	addi.d	$a1, $a1, %pc_lo12(.L.str.9)
	ori	$a2, $zero, 40
	pcaddu18i	$ra, %call36(_ZSt16__ostream_insertIcSt11char_traitsIcEERSt13basic_ostreamIT_T0_ES6_PKS3_l)
	jirl	$ra, $ra, 0
.Ltmp15:                                # EH_LABEL
# %bb.71:                               # %_ZStlsISt11char_traitsIcEERSt13basic_ostreamIcT_ES5_PKc.exit67
.Ltmp16:                                # EH_LABEL
	pcalau12i	$a0, %got_pc_hi20(_ZSt4cerr)
	ld.d	$a0, $a0, %got_pc_lo12(_ZSt4cerr)
	pcaddu18i	$ra, %call36(_ZSt4endlIcSt11char_traitsIcEERSt13basic_ostreamIT_T0_ES6_)
	jirl	$ra, $ra, 0
.Ltmp17:                                # EH_LABEL
	b	.LBB0_75
.LBB0_72:
	pcalau12i	$a0, %got_pc_hi20(_ZN8Parallel4mypeE)
	ld.d	$a0, $a0, %got_pc_lo12(_ZN8Parallel4mypeE)
	ld.w	$a0, $a0, 0
	bnez	$a0, .LBB0_75
# %bb.73:
.Ltmp6:                                 # EH_LABEL
	pcalau12i	$a0, %got_pc_hi20(_ZSt4cerr)
	ld.d	$a0, $a0, %got_pc_lo12(_ZSt4cerr)
	pcalau12i	$a1, %pc_hi20(.L.str.11)
	addi.d	$a1, $a1, %pc_lo12(.L.str.11)
	ori	$a2, $zero, 38
	pcaddu18i	$ra, %call36(_ZSt16__ostream_insertIcSt11char_traitsIcEERSt13basic_ostreamIT_T0_ES6_PKS3_l)
	jirl	$ra, $ra, 0
.Ltmp7:                                 # EH_LABEL
# %bb.74:                               # %_ZStlsISt11char_traitsIcEERSt13basic_ostreamIcT_ES5_PKc.exit77
.Ltmp8:                                 # EH_LABEL
	pcalau12i	$a0, %got_pc_hi20(_ZSt4cerr)
	ld.d	$a0, $a0, %got_pc_lo12(_ZSt4cerr)
	pcaddu18i	$ra, %call36(_ZSt4endlIcSt11char_traitsIcEERSt13basic_ostreamIT_T0_ES6_)
	jirl	$ra, $ra, 0
.Ltmp9:                                 # EH_LABEL
.LBB0_75:                               # %_ZNSolsEPFRSoS_E.exit
	ori	$a0, $zero, 1
	pcaddu18i	$ra, %call36(exit)
	jirl	$ra, $ra, 0
.LBB0_76:
.Ltmp33:                                # EH_LABEL
	move	$s0, $a0
	b	.LBB0_89
.LBB0_77:
.Ltmp5:                                 # EH_LABEL
	ld.d	$a2, $sp, 40
	move	$s0, $a0
	beqz	$a2, .LBB0_79
# %bb.78:
	ld.d	$a0, $sp, 56
	sub.d	$a1, $a0, $a2
	move	$a0, $a2
	pcaddu18i	$ra, %call36(_ZdlPvm)
	jirl	$ra, $ra, 0
.LBB0_79:                               # %_ZNSt6vectorIdSaIdEED2Ev.exit60
	ld.d	$a0, $sp, 104
	beq	$a0, $s1, .LBB0_89
# %bb.80:                               # %_ZNKSt7__cxx1112basic_stringIcSt11char_traitsIcESaIcEE11_M_is_localEv.exit.i.i61
	ld.d	$a1, $sp, 120
	b	.LBB0_85
.LBB0_81:
.Ltmp2:                                 # EH_LABEL
	ld.d	$a2, $sp, 40
	move	$s0, $a0
	beq	$a2, $s2, .LBB0_83
# %bb.82:                               # %_ZNKSt7__cxx1112basic_stringIcSt11char_traitsIcESaIcEE11_M_is_localEv.exit.i.i33
	ld.d	$a0, $sp, 56
	addi.d	$a1, $a0, 1
	move	$a0, $a2
	pcaddu18i	$ra, %call36(_ZdlPvm)
	jirl	$ra, $ra, 0
.LBB0_83:                               # %_ZNSt7__cxx1112basic_stringIcSt11char_traitsIcESaIcEED2Ev.exit35
	ld.d	$a0, $sp, 72
	beq	$a0, $s1, .LBB0_89
# %bb.84:                               # %_ZNKSt7__cxx1112basic_stringIcSt11char_traitsIcESaIcEE11_M_is_localEv.exit.i.i36
	ld.d	$a1, $sp, 88
.LBB0_85:
	addi.d	$a1, $a1, 1
	b	.LBB0_88
.LBB0_86:
.Ltmp22:                                # EH_LABEL
	ld.d	$a2, $sp, 72
	move	$s0, $a0
	beqz	$a2, .LBB0_89
# %bb.87:
	ld.d	$a0, $sp, 88
	sub.d	$a1, $a0, $a2
	move	$a0, $a2
.LBB0_88:
	pcaddu18i	$ra, %call36(_ZdlPvm)
	jirl	$ra, $ra, 0
.LBB0_89:
	ld.d	$a0, $fp, 0
	beq	$a0, $s3, .LBB0_91
# %bb.90:                               # %_ZNKSt7__cxx1112basic_stringIcSt11char_traitsIcESaIcEE11_M_is_localEv.exit.i.i82
	ld.d	$a1, $s3, 0
	addi.d	$a1, $a1, 1
	pcaddu18i	$ra, %call36(_ZdlPvm)
	jirl	$ra, $ra, 0
.LBB0_91:                               # %_ZNSt7__cxx1112basic_stringIcSt11char_traitsIcESaIcEED2Ev.exit84
	move	$a0, $s0
	pcaddu18i	$ra, %call36(_Unwind_Resume)
	jirl	$ra, $ra, 0
.Lfunc_end0:
	.size	_ZN7GenMeshC2EPK9InputFile, .Lfunc_end0-_ZN7GenMeshC2EPK9InputFile
	.cfi_endproc
	.section	.gcc_except_table,"a",@progbits
	.p2align	2, 0x0
GCC_except_table0:
.Lexception0:
	.byte	255                             # @LPStart Encoding = omit
	.byte	255                             # @TType Encoding = omit
	.byte	1                               # Call site Encoding = uleb128
	.uleb128 .Lcst_end0-.Lcst_begin0
.Lcst_begin0:
	.uleb128 .Ltmp0-.Lfunc_begin0           # >> Call Site 1 <<
	.uleb128 .Ltmp1-.Ltmp0                  #   Call between .Ltmp0 and .Ltmp1
	.uleb128 .Ltmp2-.Lfunc_begin0           #     jumps to .Ltmp2
	.byte	0                               #   On action: cleanup
	.uleb128 .Ltmp1-.Lfunc_begin0           # >> Call Site 2 <<
	.uleb128 .Ltmp3-.Ltmp1                  #   Call between .Ltmp1 and .Ltmp3
	.byte	0                               #     has no landing pad
	.byte	0                               #   On action: cleanup
	.uleb128 .Ltmp3-.Lfunc_begin0           # >> Call Site 3 <<
	.uleb128 .Ltmp4-.Ltmp3                  #   Call between .Ltmp3 and .Ltmp4
	.uleb128 .Ltmp5-.Lfunc_begin0           #     jumps to .Ltmp5
	.byte	0                               #   On action: cleanup
	.uleb128 .Ltmp4-.Lfunc_begin0           # >> Call Site 4 <<
	.uleb128 .Ltmp10-.Ltmp4                 #   Call between .Ltmp4 and .Ltmp10
	.byte	0                               #     has no landing pad
	.byte	0                               #   On action: cleanup
	.uleb128 .Ltmp10-.Lfunc_begin0          # >> Call Site 5 <<
	.uleb128 .Ltmp13-.Ltmp10                #   Call between .Ltmp10 and .Ltmp13
	.uleb128 .Ltmp22-.Lfunc_begin0          #     jumps to .Ltmp22
	.byte	0                               #   On action: cleanup
	.uleb128 .Ltmp23-.Lfunc_begin0          # >> Call Site 6 <<
	.uleb128 .Ltmp32-.Ltmp23                #   Call between .Ltmp23 and .Ltmp32
	.uleb128 .Ltmp33-.Lfunc_begin0          #     jumps to .Ltmp33
	.byte	0                               #   On action: cleanup
	.uleb128 .Ltmp18-.Lfunc_begin0          # >> Call Site 7 <<
	.uleb128 .Ltmp9-.Ltmp18                 #   Call between .Ltmp18 and .Ltmp9
	.uleb128 .Ltmp22-.Lfunc_begin0          #     jumps to .Ltmp22
	.byte	0                               #   On action: cleanup
	.uleb128 .Ltmp9-.Lfunc_begin0           # >> Call Site 8 <<
	.uleb128 .Lfunc_end0-.Ltmp9             #   Call between .Ltmp9 and .Lfunc_end0
	.byte	0                               #     has no landing pad
	.byte	0                               #   On action: cleanup
.Lcst_end0:
	.p2align	2, 0x0
                                        # -- End function
	.text
	.globl	_ZN7GenMeshD2Ev                 # -- Begin function _ZN7GenMeshD2Ev
	.p2align	5
	.type	_ZN7GenMeshD2Ev,@function
_ZN7GenMeshD2Ev:                        # @_ZN7GenMeshD2Ev
	.cfi_startproc
# %bb.0:
	move	$a1, $a0
	ld.d	$a0, $a0, 0
	addi.d	$a1, $a1, 16
	beq	$a0, $a1, .LBB1_2
# %bb.1:                                # %_ZNKSt7__cxx1112basic_stringIcSt11char_traitsIcESaIcEE11_M_is_localEv.exit.i.i
	ld.d	$a1, $a1, 0
	addi.d	$a1, $a1, 1
	pcaddu18i	$t8, %call36(_ZdlPvm)
	jr	$t8
.LBB1_2:                                # %_ZNSt7__cxx1112basic_stringIcSt11char_traitsIcESaIcEED2Ev.exit
	ret
.Lfunc_end1:
	.size	_ZN7GenMeshD2Ev, .Lfunc_end1-_ZN7GenMeshD2Ev
	.cfi_endproc
                                        # -- End function
	.globl	_ZN7GenMesh8generateERSt6vectorI7double2SaIS1_EERS0_IiSaIiEES7_S7_S7_S7_S7_S7_S7_S7_ # -- Begin function _ZN7GenMesh8generateERSt6vectorI7double2SaIS1_EERS0_IiSaIiEES7_S7_S7_S7_S7_S7_S7_S7_
	.p2align	5
	.type	_ZN7GenMesh8generateERSt6vectorI7double2SaIS1_EERS0_IiSaIiEES7_S7_S7_S7_S7_S7_S7_S7_,@function
_ZN7GenMesh8generateERSt6vectorI7double2SaIS1_EERS0_IiSaIiEES7_S7_S7_S7_S7_S7_S7_S7_: # @_ZN7GenMesh8generateERSt6vectorI7double2SaIS1_EERS0_IiSaIiEES7_S7_S7_S7_S7_S7_S7_S7_
	.cfi_startproc
# %bb.0:
	addi.d	$sp, $sp, -144
	.cfi_def_cfa_offset 144
	st.d	$ra, $sp, 136                   # 8-byte Folded Spill
	st.d	$fp, $sp, 128                   # 8-byte Folded Spill
	st.d	$s0, $sp, 120                   # 8-byte Folded Spill
	st.d	$s1, $sp, 112                   # 8-byte Folded Spill
	st.d	$s2, $sp, 104                   # 8-byte Folded Spill
	st.d	$s3, $sp, 96                    # 8-byte Folded Spill
	st.d	$s4, $sp, 88                    # 8-byte Folded Spill
	st.d	$s5, $sp, 80                    # 8-byte Folded Spill
	st.d	$s6, $sp, 72                    # 8-byte Folded Spill
	st.d	$s7, $sp, 64                    # 8-byte Folded Spill
	st.d	$s8, $sp, 56                    # 8-byte Folded Spill
	.cfi_offset 1, -8
	.cfi_offset 22, -16
	.cfi_offset 23, -24
	.cfi_offset 24, -32
	.cfi_offset 25, -40
	.cfi_offset 26, -48
	.cfi_offset 27, -56
	.cfi_offset 28, -64
	.cfi_offset 29, -72
	.cfi_offset 30, -80
	.cfi_offset 31, -88
	ld.d	$t0, $sp, 160
	st.d	$t0, $sp, 40                    # 8-byte Folded Spill
	ld.d	$t0, $sp, 152
	st.d	$t0, $sp, 48                    # 8-byte Folded Spill
	ld.d	$s5, $sp, 144
	move	$s8, $a7
	move	$s2, $a6
	move	$s3, $a5
	move	$s4, $a4
	move	$fp, $a3
	move	$s0, $a2
	move	$s1, $a1
	move	$s6, $a0
	pcaddu18i	$ra, %call36(_ZN7GenMesh9calcNumPEEv)
	jirl	$ra, $ra, 0
	ld.w	$a0, $s6, 64
	ld.w	$a1, $s6, 32
	ld.w	$a2, $s6, 56
	mul.w	$a3, $a1, $a0
	div.w	$a3, $a3, $a2
	st.w	$a3, $s6, 80
	addi.d	$a0, $a0, 1
	mul.w	$a0, $a0, $a1
	div.w	$a0, $a0, $a2
	ld.w	$a1, $s6, 68
	ld.w	$a2, $s6, 36
	ld.w	$a4, $s6, 60
	sub.d	$a0, $a0, $a3
	st.w	$a0, $s6, 72
	mul.w	$a0, $a2, $a1
	div.w	$a0, $a0, $a4
	st.w	$a0, $s6, 84
	addi.d	$a1, $a1, 1
	mul.w	$a1, $a1, $a2
	ld.d	$s7, $s6, 8
	div.w	$a1, $a1, $a4
	sub.d	$a0, $a1, $a0
	ori	$a1, $zero, 4
	st.w	$a0, $s6, 76
	beq	$s7, $a1, .LBB2_5
# %bb.1:
	ori	$a0, $zero, 3
	bne	$s7, $a0, .LBB2_8
# %bb.2:                                # %_ZSteqIcSt11char_traitsIcESaIcEEbRKNSt7__cxx1112basic_stringIT_T0_T1_EEPKS5_.exit
	st.d	$s8, $sp, 32                    # 8-byte Folded Spill
	ld.d	$s8, $s6, 0
	pcalau12i	$a0, %pc_hi20(.L.str.3)
	addi.d	$a1, $a0, %pc_lo12(.L.str.3)
	ori	$a2, $zero, 3
	move	$a0, $s8
	pcaddu18i	$ra, %call36(bcmp)
	jirl	$ra, $ra, 0
	beqz	$a0, .LBB2_7
# %bb.3:                                # %_ZSteqIcSt11char_traitsIcESaIcEEbRKNSt7__cxx1112basic_stringIT_T0_T1_EEPKS5_.exit35
	pcalau12i	$a0, %pc_hi20(.L.str.5)
	addi.d	$a1, $a0, %pc_lo12(.L.str.5)
	move	$a0, $s8
	move	$a2, $s7
	pcaddu18i	$ra, %call36(bcmp)
	jirl	$ra, $ra, 0
	ld.d	$a7, $sp, 32                    # 8-byte Folded Reload
	bnez	$a0, .LBB2_8
# %bb.4:                                # %_ZSteqIcSt11char_traitsIcESaIcEEbRKNSt7__cxx1112basic_stringIT_T0_T1_EEPKS5_.exit35.thread
	ld.d	$a0, $sp, 40                    # 8-byte Folded Reload
	st.d	$a0, $sp, 16
	ld.d	$a0, $sp, 48                    # 8-byte Folded Reload
	st.d	$a0, $sp, 8
	st.d	$s5, $sp, 0
	move	$a0, $s6
	move	$a1, $s1
	move	$a2, $s0
	move	$a3, $fp
	move	$a4, $s4
	move	$a5, $s3
	move	$a6, $s2
	pcaddu18i	$ra, %call36(_ZN7GenMesh11generateHexERSt6vectorI7double2SaIS1_EERS0_IiSaIiEES7_S7_S7_S7_S7_S7_S7_S7_)
	jirl	$ra, $ra, 0
	b	.LBB2_8
.LBB2_5:                                # %_ZSteqIcSt11char_traitsIcESaIcEEbRKNSt7__cxx1112basic_stringIT_T0_T1_EEPKS5_.exit33
	ld.d	$a0, $s6, 0
	pcalau12i	$a1, %pc_hi20(.L.str.4)
	addi.d	$a1, $a1, %pc_lo12(.L.str.4)
	move	$a2, $s7
	pcaddu18i	$ra, %call36(bcmp)
	jirl	$ra, $ra, 0
	bnez	$a0, .LBB2_8
# %bb.6:                                # %_ZSteqIcSt11char_traitsIcESaIcEEbRKNSt7__cxx1112basic_stringIT_T0_T1_EEPKS5_.exit33.thread
	ld.d	$a0, $sp, 40                    # 8-byte Folded Reload
	st.d	$a0, $sp, 16
	ld.d	$a0, $sp, 48                    # 8-byte Folded Reload
	st.d	$a0, $sp, 8
	st.d	$s5, $sp, 0
	move	$a0, $s6
	move	$a1, $s1
	move	$a2, $s0
	move	$a3, $fp
	move	$a4, $s4
	move	$a5, $s3
	move	$a6, $s2
	move	$a7, $s8
	pcaddu18i	$ra, %call36(_ZN7GenMesh12generateRectERSt6vectorI7double2SaIS1_EERS0_IiSaIiEES7_S7_S7_S7_S7_S7_S7_S7_)
	jirl	$ra, $ra, 0
	b	.LBB2_8
.LBB2_7:                                # %_ZSteqIcSt11char_traitsIcESaIcEEbRKNSt7__cxx1112basic_stringIT_T0_T1_EEPKS5_.exit.thread
	ld.d	$a0, $sp, 40                    # 8-byte Folded Reload
	st.d	$a0, $sp, 16
	ld.d	$a0, $sp, 48                    # 8-byte Folded Reload
	st.d	$a0, $sp, 8
	st.d	$s5, $sp, 0
	move	$a0, $s6
	move	$a1, $s1
	move	$a2, $s0
	move	$a3, $fp
	move	$a4, $s4
	move	$a5, $s3
	move	$a6, $s2
	ld.d	$a7, $sp, 32                    # 8-byte Folded Reload
	pcaddu18i	$ra, %call36(_ZN7GenMesh11generatePieERSt6vectorI7double2SaIS1_EERS0_IiSaIiEES7_S7_S7_S7_S7_S7_S7_S7_)
	jirl	$ra, $ra, 0
.LBB2_8:                                # %_ZSteqIcSt11char_traitsIcESaIcEEbRKNSt7__cxx1112basic_stringIT_T0_T1_EEPKS5_.exit35.thread38
	ld.d	$s8, $sp, 56                    # 8-byte Folded Reload
	ld.d	$s7, $sp, 64                    # 8-byte Folded Reload
	ld.d	$s6, $sp, 72                    # 8-byte Folded Reload
	ld.d	$s5, $sp, 80                    # 8-byte Folded Reload
	ld.d	$s4, $sp, 88                    # 8-byte Folded Reload
	ld.d	$s3, $sp, 96                    # 8-byte Folded Reload
	ld.d	$s2, $sp, 104                   # 8-byte Folded Reload
	ld.d	$s1, $sp, 112                   # 8-byte Folded Reload
	ld.d	$s0, $sp, 120                   # 8-byte Folded Reload
	ld.d	$fp, $sp, 128                   # 8-byte Folded Reload
	ld.d	$ra, $sp, 136                   # 8-byte Folded Reload
	addi.d	$sp, $sp, 144
	ret
.Lfunc_end2:
	.size	_ZN7GenMesh8generateERSt6vectorI7double2SaIS1_EERS0_IiSaIiEES7_S7_S7_S7_S7_S7_S7_S7_, .Lfunc_end2-_ZN7GenMesh8generateERSt6vectorI7double2SaIS1_EERS0_IiSaIiEES7_S7_S7_S7_S7_S7_S7_S7_
	.cfi_endproc
                                        # -- End function
	.section	.rodata.cst8,"aM",@progbits,8
	.p2align	3, 0x0                          # -- Begin function _ZN7GenMesh9calcNumPEEv
.LCPI3_0:
	.dword	0x3d719799812dea11              # double 9.9999999999999998E-13
.LCPI3_1:
	.dword	0xbd719799812dea11              # double -9.9999999999999998E-13
	.text
	.globl	_ZN7GenMesh9calcNumPEEv
	.p2align	5
	.type	_ZN7GenMesh9calcNumPEEv,@function
_ZN7GenMesh9calcNumPEEv:                # @_ZN7GenMesh9calcNumPEEv
# %bb.0:
	addi.d	$sp, $sp, -96
	st.d	$ra, $sp, 88                    # 8-byte Folded Spill
	st.d	$fp, $sp, 80                    # 8-byte Folded Spill
	st.d	$s0, $sp, 72                    # 8-byte Folded Spill
	fst.d	$fs0, $sp, 64                   # 8-byte Folded Spill
	fst.d	$fs1, $sp, 56                   # 8-byte Folded Spill
	ld.w	$a1, $a0, 32
	ld.w	$a2, $a0, 36
	movgr2fr.w	$fa0, $a1
	ffint.d.w	$fs0, $fa0
	movgr2fr.w	$fa0, $a2
	ffint.d.w	$fs1, $fa0
	fcmp.clt.d	$fcc0, $fs1, $fs0
	fsel	$fa3, $fs1, $fs0, $fcc0
	fsel	$fa2, $fs0, $fs1, $fcc0
	pcalau12i	$a1, %got_pc_hi20(_ZN8Parallel5numpeE)
	ld.d	$fp, $a1, %got_pc_lo12(_ZN8Parallel5numpeE)
	ld.w	$a1, $fp, 0
	movgr2fr.w	$fa0, $a1
	ffint.d.w	$fa0, $fa0
	fmul.d	$fa0, $fa2, $fa0
	fdiv.d	$fa1, $fa0, $fa3
	fsqrt.d	$fa0, $fa1
	fcmp.cor.d	$fcc0, $fa0, $fa0
	bceqz	$fcc0, .LBB3_9
.LBB3_1:                                # %.split
	pcalau12i	$a1, %pc_hi20(.LCPI3_0)
	fld.d	$fa1, $a1, %pc_lo12(.LCPI3_0)
	fadd.d	$fa1, $fa0, $fa1
	vreplvei.d	$vr1, $vr1, 0
	vfrintrm.d	$vr1, $vr1
	ftintrz.w.d	$fa1, $fa1
	movfr2gr.s	$a2, $fa1
	ori	$a3, $zero, 1
	slt	$a4, $a3, $a2
	ld.w	$a1, $fp, 0
	maskeqz	$a2, $a2, $a4
	masknez	$a3, $a3, $a4
	or	$a2, $a2, $a3
	.p2align	4, , 16
.LBB3_2:                                # =>This Inner Loop Header: Depth=1
	mod.w	$a3, $a1, $a2
	addi.w	$a2, $a2, -1
	bnez	$a3, .LBB3_2
# %bb.3:
	pcalau12i	$a3, %pc_hi20(.LCPI3_1)
	fld.d	$fa1, $a3, %pc_lo12(.LCPI3_1)
	fadd.d	$fa0, $fa0, $fa1
	vreplvei.d	$vr0, $vr0, 0
	vfrintrp.d	$vr0, $vr0
	ftintrz.w.d	$fa0, $fa0
	movfr2gr.s	$a3, $fa0
	addi.w	$a2, $a2, 1
	.p2align	4, , 16
.LBB3_4:                                # =>This Inner Loop Header: Depth=1
	mod.w	$a4, $a1, $a3
	addi.w	$a3, $a3, 1
	bnez	$a4, .LBB3_4
# %bb.5:
	addi.d	$a3, $a3, -1
	addi.w	$a4, $a3, 0
	movgr2fr.w	$fa0, $a2
	ffint.d.w	$fa0, $fa0
	movgr2fr.w	$fa1, $a3
	ffint.d.w	$fa1, $fa1
	vextrins.d	$vr0, $vr1, 16
	vreplvei.d	$vr1, $vr2, 0
	vfdiv.d	$vr0, $vr1, $vr0
	div.w	$a3, $a1, $a4
	div.w	$a5, $a1, $a2
	movgr2fr.w	$fa1, $a5
	ffint.d.w	$fa1, $fa1
	movgr2fr.w	$fa2, $a3
	ffint.d.w	$fa2, $fa2
	vextrins.d	$vr1, $vr2, 16
	vreplvei.d	$vr2, $vr3, 0
	vfdiv.d	$vr1, $vr2, $vr1
	vfcmp.clt.d	$vr2, $vr0, $vr1
	vbitsel.v	$vr0, $vr0, $vr1, $vr2
	vreplvei.d	$vr1, $vr0, 0
	vreplvei.d	$vr0, $vr0, 1
	fcmp.cle.d	$fcc0, $fa1, $fa0
	movcf2gr	$a3, $fcc0
	masknez	$a4, $a4, $a3
	maskeqz	$a2, $a2, $a3
	or	$a2, $a2, $a4
	st.w	$a2, $a0, 56
	div.w	$a1, $a1, $a2
	fcmp.cule.d	$fcc0, $fs0, $fs1
	st.w	$a1, $a0, 60
	bcnez	$fcc0, .LBB3_7
# %bb.6:
	st.w	$a1, $a0, 56
	st.w	$a2, $a0, 60
	b	.LBB3_8
.LBB3_7:
	move	$a1, $a2
.LBB3_8:
	pcalau12i	$a2, %got_pc_hi20(_ZN8Parallel4mypeE)
	ld.d	$a2, $a2, %got_pc_lo12(_ZN8Parallel4mypeE)
	ld.w	$a2, $a2, 0
	div.w	$a3, $a2, $a1
	mul.d	$a1, $a3, $a1
	sub.d	$a1, $a2, $a1
	st.w	$a1, $a0, 64
	st.w	$a3, $a0, 68
	fld.d	$fs1, $sp, 56                   # 8-byte Folded Reload
	fld.d	$fs0, $sp, 64                   # 8-byte Folded Reload
	ld.d	$s0, $sp, 72                    # 8-byte Folded Reload
	ld.d	$fp, $sp, 80                    # 8-byte Folded Reload
	ld.d	$ra, $sp, 88                    # 8-byte Folded Reload
	addi.d	$sp, $sp, 96
	ret
.LBB3_9:                                # %call.sqrt
	fmov.d	$fa0, $fa1
	move	$s0, $a0
	vst	$vr3, $sp, 32                   # 16-byte Folded Spill
	vst	$vr2, $sp, 16                   # 16-byte Folded Spill
	pcaddu18i	$ra, %call36(sqrt)
	jirl	$ra, $ra, 0
	vld	$vr2, $sp, 16                   # 16-byte Folded Reload
	vld	$vr3, $sp, 32                   # 16-byte Folded Reload
	move	$a0, $s0
	b	.LBB3_1
.Lfunc_end3:
	.size	_ZN7GenMesh9calcNumPEEv, .Lfunc_end3-_ZN7GenMesh9calcNumPEEv
                                        # -- End function
	.globl	_ZN7GenMesh11generatePieERSt6vectorI7double2SaIS1_EERS0_IiSaIiEES7_S7_S7_S7_S7_S7_S7_S7_ # -- Begin function _ZN7GenMesh11generatePieERSt6vectorI7double2SaIS1_EERS0_IiSaIiEES7_S7_S7_S7_S7_S7_S7_S7_
	.p2align	5
	.type	_ZN7GenMesh11generatePieERSt6vectorI7double2SaIS1_EERS0_IiSaIiEES7_S7_S7_S7_S7_S7_S7_S7_,@function
_ZN7GenMesh11generatePieERSt6vectorI7double2SaIS1_EERS0_IiSaIiEES7_S7_S7_S7_S7_S7_S7_S7_: # @_ZN7GenMesh11generatePieERSt6vectorI7double2SaIS1_EERS0_IiSaIiEES7_S7_S7_S7_S7_S7_S7_S7_
	.cfi_startproc
# %bb.0:
	addi.d	$sp, $sp, -272
	.cfi_def_cfa_offset 272
	st.d	$ra, $sp, 264                   # 8-byte Folded Spill
	st.d	$fp, $sp, 256                   # 8-byte Folded Spill
	st.d	$s0, $sp, 248                   # 8-byte Folded Spill
	st.d	$s1, $sp, 240                   # 8-byte Folded Spill
	st.d	$s2, $sp, 232                   # 8-byte Folded Spill
	st.d	$s3, $sp, 224                   # 8-byte Folded Spill
	st.d	$s4, $sp, 216                   # 8-byte Folded Spill
	st.d	$s5, $sp, 208                   # 8-byte Folded Spill
	st.d	$s6, $sp, 200                   # 8-byte Folded Spill
	st.d	$s7, $sp, 192                   # 8-byte Folded Spill
	st.d	$s8, $sp, 184                   # 8-byte Folded Spill
	fst.d	$fs0, $sp, 176                  # 8-byte Folded Spill
	fst.d	$fs1, $sp, 168                  # 8-byte Folded Spill
	fst.d	$fs2, $sp, 160                  # 8-byte Folded Spill
	fst.d	$fs3, $sp, 152                  # 8-byte Folded Spill
	fst.d	$fs4, $sp, 144                  # 8-byte Folded Spill
	.cfi_offset 1, -8
	.cfi_offset 22, -16
	.cfi_offset 23, -24
	.cfi_offset 24, -32
	.cfi_offset 25, -40
	.cfi_offset 26, -48
	.cfi_offset 27, -56
	.cfi_offset 28, -64
	.cfi_offset 29, -72
	.cfi_offset 30, -80
	.cfi_offset 31, -88
	.cfi_offset 56, -96
	.cfi_offset 57, -104
	.cfi_offset 58, -112
	.cfi_offset 59, -120
	.cfi_offset 60, -128
	ld.w	$s4, $a0, 72
	ld.w	$t0, $a0, 76
	st.d	$a0, $sp, 136                   # 8-byte Folded Spill
	ld.w	$a0, $a0, 68
	addi.d	$t1, $s4, 1
	addi.d	$t2, $t0, 1
	sltui	$a0, $a0, 1
	st.d	$t0, $sp, 80                    # 8-byte Folded Spill
	mul.d	$t0, $t1, $t0
	st.d	$t0, $sp, 16                    # 8-byte Folded Spill
	addi.d	$t0, $t0, 1
	st.d	$t1, $sp, 96                    # 8-byte Folded Spill
	st.d	$t2, $sp, 24                    # 8-byte Folded Spill
	mulw.d.w	$t1, $t2, $t1
	st.d	$t1, $sp, 8                     # 8-byte Folded Spill
	masknez	$t1, $t1, $a0
	maskeqz	$a0, $t0, $a0
	or	$a0, $a0, $t1
	addi.w	$s1, $a0, 0
	st.d	$a7, $sp, 72                    # 8-byte Folded Spill
	st.d	$a6, $sp, 40                    # 8-byte Folded Spill
	st.d	$a5, $sp, 32                    # 8-byte Folded Spill
	st.d	$a3, $sp, 128                   # 8-byte Folded Spill
	bltz	$s1, .LBB4_379
# %bb.1:
	move	$s3, $a4
	move	$s5, $a2
	move	$s6, $a1
	ld.d	$fp, $a1, 16
	ld.d	$s0, $a1, 0
	sub.d	$s8, $fp, $s0
	srai.d	$a0, $s8, 4
	bgeu	$a0, $s1, .LBB4_8
# %bb.2:                                # %_ZNSt12_Vector_baseI7double2SaIS0_EE11_M_allocateEm.exit.i.i
	ld.d	$fp, $s6, 8
	slli.d	$a0, $s1, 4
	pcaddu18i	$ra, %call36(_Znwm)
	jirl	$ra, $ra, 0
	move	$s7, $a0
	beq	$fp, $s0, .LBB4_5
# %bb.3:                                # %.lr.ph.i.i.i.i.i.preheader
	move	$a0, $s0
	move	$a1, $s7
	.p2align	4, , 16
.LBB4_4:                                # %.lr.ph.i.i.i.i.i
                                        # =>This Inner Loop Header: Depth=1
	vld	$vr0, $a0, 0
	vst	$vr0, $a1, 0
	addi.d	$a0, $a0, 16
	addi.d	$a1, $a1, 16
	bne	$a0, $fp, .LBB4_4
.LBB4_5:                                # %_ZNSt6vectorI7double2SaIS0_EE20_M_allocate_and_copyIPKS0_EEPS0_mT_S7_.exit.i
	sub.d	$fp, $fp, $s0
	beqz	$s0, .LBB4_7
# %bb.6:
	move	$a0, $s0
	move	$a1, $s8
	pcaddu18i	$ra, %call36(_ZdlPvm)
	jirl	$ra, $ra, 0
.LBB4_7:                                # %_ZNSt12_Vector_baseI7double2SaIS0_EE13_M_deallocateEPS0_m.exit.i
	st.d	$s7, $s6, 0
	add.d	$a0, $s7, $fp
	st.d	$a0, $s6, 8
	alsl.d	$fp, $s1, $s7, 4
	st.d	$fp, $s6, 16
	st.d	$s4, $sp, 112                   # 8-byte Folded Spill
	ld.d	$s1, $sp, 136                   # 8-byte Folded Reload
	ld.d	$a0, $sp, 80                    # 8-byte Folded Reload
	bgez	$a0, .LBB4_9
	b	.LBB4_33
.LBB4_8:
	move	$s7, $s0
	st.d	$s4, $sp, 112                   # 8-byte Folded Spill
	ld.d	$s1, $sp, 136                   # 8-byte Folded Reload
	ld.d	$a0, $sp, 80                    # 8-byte Folded Reload
	bltz	$a0, .LBB4_33
.LBB4_9:                                # %.lr.ph553
	ld.w	$a1, $s1, 32
	move	$a0, $zero
	fld.d	$fa0, $s1, 40
	movgr2fr.w	$fa1, $a1
	ld.w	$a1, $s1, 36
	ffint.d.w	$fa1, $fa1
	fld.d	$fa2, $s1, 48
	fdiv.d	$fs1, $fa0, $fa1
	movgr2fr.w	$fa0, $a1
	ffint.d.w	$fa0, $fa0
	fdiv.d	$fs2, $fa2, $fa0
	addi.w	$a1, $zero, -16
	lu52i.d	$a1, $a1, 2047
	st.d	$a1, $sp, 120                   # 8-byte Folded Spill
	addi.w	$a1, $zero, -1
	lu52i.d	$a1, $a1, 127
	st.d	$a1, $sp, 104                   # 8-byte Folded Spill
	vrepli.b	$vr0, 0
	vst	$vr0, $sp, 48                   # 16-byte Folded Spill
	b	.LBB4_14
	.p2align	4, , 16
.LBB4_10:                               #   in Loop: Header=BB4_14 Depth=1
	ld.d	$a0, $s6, 8
	beq	$a0, $fp, .LBB4_26
# %bb.11:                               #   in Loop: Header=BB4_14 Depth=1
	addi.d	$a1, $a0, 16
	vld	$vr0, $sp, 48                   # 16-byte Folded Reload
	vst	$vr0, $a0, 0
	st.d	$a1, $s6, 8
.LBB4_12:                               #   in Loop: Header=BB4_14 Depth=1
	move	$s8, $s7
.LBB4_13:                               # %_ZNSt6vectorI7double2SaIS0_EE9push_backEOS0_.exit
                                        #   in Loop: Header=BB4_14 Depth=1
	ld.d	$a2, $sp, 88                    # 8-byte Folded Reload
	addi.w	$a0, $a2, 1
	move	$s7, $s8
	ld.d	$a1, $sp, 80                    # 8-byte Folded Reload
	beq	$a2, $a1, .LBB4_33
.LBB4_14:                               # =>This Loop Header: Depth=1
                                        #     Child Loop BB4_18 Depth 2
                                        #       Child Loop BB4_22 Depth 3
                                        #     Child Loop BB4_29 Depth 2
	ld.w	$a1, $s1, 84
	add.w	$a1, $a1, $a0
	st.d	$a0, $sp, 88                    # 8-byte Folded Spill
	beqz	$a1, .LBB4_10
# %bb.15:                               #   in Loop: Header=BB4_14 Depth=1
	bltz	$s4, .LBB4_12
# %bb.16:                               # %.lr.ph.preheader
                                        #   in Loop: Header=BB4_14 Depth=1
	move	$a0, $zero
	ld.d	$s0, $s6, 8
	movgr2fr.w	$fa0, $a1
	ffint.d.w	$fa0, $fa0
	fmul.d	$fs3, $fs2, $fa0
	b	.LBB4_18
	.p2align	4, , 16
.LBB4_17:                               #   in Loop: Header=BB4_18 Depth=2
	fst.d	$fs4, $s0, 0
	fst.d	$fs0, $s0, 8
	addi.d	$s0, $s0, 16
	st.d	$s0, $s6, 8
	move	$s8, $s7
	addi.w	$a0, $s2, 1
	beq	$s2, $s4, .LBB4_13
.LBB4_18:                               # %.lr.ph
                                        #   Parent Loop BB4_14 Depth=1
                                        # =>  This Loop Header: Depth=2
                                        #       Child Loop BB4_22 Depth 3
	ld.w	$a1, $s1, 80
	ld.w	$a2, $s1, 32
	move	$s2, $a0
	add.d	$a0, $a0, $a1
	sub.d	$a0, $a2, $a0
	movgr2fr.w	$fa0, $a0
	ffint.d.w	$fa0, $fa0
	fmul.d	$fs0, $fs1, $fa0
	fmov.d	$fa0, $fs0
	pcaddu18i	$ra, %call36(cos)
	jirl	$ra, $ra, 0
	fmul.d	$fs4, $fs3, $fa0
	fmov.d	$fa0, $fs0
	pcaddu18i	$ra, %call36(sin)
	jirl	$ra, $ra, 0
	fmul.d	$fs0, $fs3, $fa0
	bne	$s0, $fp, .LBB4_17
# %bb.19:                               #   in Loop: Header=BB4_18 Depth=2
	sub.d	$s0, $fp, $s7
	ld.d	$a0, $sp, 120                   # 8-byte Folded Reload
	beq	$s0, $a0, .LBB4_378
# %bb.20:                               # %.noexc452
                                        #   in Loop: Header=BB4_18 Depth=2
	srai.d	$a0, $s0, 4
	ori	$a2, $zero, 1
	sltu	$a1, $a2, $a0
	masknez	$a2, $a2, $a1
	maskeqz	$a1, $a0, $a1
	or	$a1, $a1, $a2
	add.d	$a0, $a1, $a0
	ld.d	$a2, $sp, 104                   # 8-byte Folded Reload
	sltu	$a1, $a0, $a2
	maskeqz	$a0, $a0, $a1
	masknez	$a1, $a2, $a1
	or	$s1, $a0, $a1
	slli.d	$a0, $s1, 4
	pcaddu18i	$ra, %call36(_Znwm)
	jirl	$ra, $ra, 0
	move	$s8, $a0
	add.d	$a0, $a0, $s0
	fstx.d	$fs4, $s8, $s0
	fst.d	$fs0, $a0, 8
	move	$s4, $s8
	beq	$s7, $fp, .LBB4_23
# %bb.21:                               # %.lr.ph.i.i.i.i.i.i442.preheader
                                        #   in Loop: Header=BB4_18 Depth=2
	move	$a0, $s7
	move	$s4, $s8
	.p2align	4, , 16
.LBB4_22:                               # %.lr.ph.i.i.i.i.i.i442
                                        #   Parent Loop BB4_14 Depth=1
                                        #     Parent Loop BB4_18 Depth=2
                                        # =>    This Inner Loop Header: Depth=3
	vld	$vr0, $a0, 0
	vst	$vr0, $s4, 0
	addi.d	$a0, $a0, 16
	addi.d	$s4, $s4, 16
	bne	$a0, $fp, .LBB4_22
.LBB4_23:                               # %_ZSt34__uninitialized_move_if_noexcept_aIP7double2S1_SaIS0_EET0_T_S4_S3_RT1_.exit.i.i446
                                        #   in Loop: Header=BB4_18 Depth=2
	beqz	$s7, .LBB4_25
# %bb.24:                               # %_ZNSt12_Vector_baseI7double2SaIS0_EE13_M_deallocateEPS0_m.exit.i.i.i449
                                        #   in Loop: Header=BB4_18 Depth=2
	move	$a0, $s7
	move	$a1, $s0
	pcaddu18i	$ra, %call36(_ZdlPvm)
	jirl	$ra, $ra, 0
.LBB4_25:                               # %_ZNSt6vectorI7double2SaIS0_EE17_M_realloc_appendIJS0_EEEvDpOT_.exit.i450
                                        #   in Loop: Header=BB4_18 Depth=2
	addi.d	$s0, $s4, 16
	st.d	$s8, $s6, 0
	st.d	$s0, $s6, 8
	alsl.d	$fp, $s1, $s8, 4
	st.d	$fp, $s6, 16
	move	$s7, $s8
	ld.d	$s4, $sp, 112                   # 8-byte Folded Reload
	ld.d	$s1, $sp, 136                   # 8-byte Folded Reload
	addi.w	$a0, $s2, 1
	bne	$s2, $s4, .LBB4_18
	b	.LBB4_13
.LBB4_26:                               #   in Loop: Header=BB4_14 Depth=1
	sub.d	$s0, $fp, $s7
	ld.d	$a0, $sp, 120                   # 8-byte Folded Reload
	beq	$s0, $a0, .LBB4_378
# %bb.27:                               # %.noexc438
                                        #   in Loop: Header=BB4_14 Depth=1
	srai.d	$a0, $s0, 4
	ori	$a2, $zero, 1
	sltu	$a1, $a2, $a0
	masknez	$a2, $a2, $a1
	maskeqz	$a1, $a0, $a1
	or	$a1, $a1, $a2
	add.d	$a0, $a1, $a0
	ld.d	$a2, $sp, 104                   # 8-byte Folded Reload
	sltu	$a1, $a0, $a2
	maskeqz	$a0, $a0, $a1
	masknez	$a1, $a2, $a1
	or	$s1, $a0, $a1
	slli.d	$a0, $s1, 4
	pcaddu18i	$ra, %call36(_Znwm)
	jirl	$ra, $ra, 0
	move	$s8, $a0
	vld	$vr0, $sp, 48                   # 16-byte Folded Reload
	vstx	$vr0, $a0, $s0
	move	$s2, $a0
	beq	$s7, $fp, .LBB4_30
# %bb.28:                               # %.lr.ph.i.i.i.i.i.i.preheader
                                        #   in Loop: Header=BB4_14 Depth=1
	move	$a0, $s7
	move	$s2, $s8
	.p2align	4, , 16
.LBB4_29:                               # %.lr.ph.i.i.i.i.i.i
                                        #   Parent Loop BB4_14 Depth=1
                                        # =>  This Inner Loop Header: Depth=2
	vld	$vr0, $a0, 0
	vst	$vr0, $s2, 0
	addi.d	$a0, $a0, 16
	addi.d	$s2, $s2, 16
	bne	$a0, $fp, .LBB4_29
.LBB4_30:                               # %_ZSt34__uninitialized_move_if_noexcept_aIP7double2S1_SaIS0_EET0_T_S4_S3_RT1_.exit.i.i
                                        #   in Loop: Header=BB4_14 Depth=1
	beqz	$s7, .LBB4_32
# %bb.31:                               # %_ZNSt12_Vector_baseI7double2SaIS0_EE13_M_deallocateEPS0_m.exit.i.i.i
                                        #   in Loop: Header=BB4_14 Depth=1
	move	$a0, $s7
	move	$a1, $s0
	pcaddu18i	$ra, %call36(_ZdlPvm)
	jirl	$ra, $ra, 0
.LBB4_32:                               # %_ZNSt6vectorI7double2SaIS0_EE17_M_realloc_appendIJS0_EEEvDpOT_.exit.i
                                        #   in Loop: Header=BB4_14 Depth=1
	addi.d	$a0, $s2, 16
	st.d	$s8, $s6, 0
	st.d	$a0, $s6, 8
	alsl.d	$fp, $s1, $s8, 4
	st.d	$fp, $s6, 16
	ld.d	$s1, $sp, 136                   # 8-byte Folded Reload
	b	.LBB4_13
.LBB4_33:                               # %._crit_edge
	ld.d	$a0, $sp, 80                    # 8-byte Folded Reload
	mul.w	$fp, $a0, $s4
	bltz	$fp, .LBB4_379
# %bb.34:
	ld.d	$a0, $s5, 16
	ld.d	$s0, $s5, 0
	sub.d	$s7, $a0, $s0
	srai.d	$a0, $s7, 2
	slli.d	$s6, $fp, 2
	bgeu	$a0, $fp, .LBB4_40
# %bb.35:                               # %_ZNSt12_Vector_baseIiSaIiEE11_M_allocateEm.exit.i
	ld.d	$s1, $s5, 8
	sub.d	$s8, $s1, $s0
	move	$a0, $s6
	pcaddu18i	$ra, %call36(_Znwm)
	jirl	$ra, $ra, 0
	move	$s2, $a0
	beq	$s1, $s0, .LBB4_37
# %bb.36:
	move	$a0, $s2
	move	$a1, $s0
	move	$a2, $s8
	pcaddu18i	$ra, %call36(memcpy)
	jirl	$ra, $ra, 0
.LBB4_37:                               # %_ZNSt6vectorIiSaIiEE11_S_relocateEPiS2_S2_RS0_.exit.i
	beqz	$s0, .LBB4_39
# %bb.38:
	move	$a0, $s0
	move	$a1, $s7
	pcaddu18i	$ra, %call36(_ZdlPvm)
	jirl	$ra, $ra, 0
.LBB4_39:                               # %_ZNSt12_Vector_baseIiSaIiEE13_M_deallocateEPim.exit.i
	st.d	$s2, $s5, 0
	add.d	$a0, $s2, $s8
	st.d	$a0, $s5, 8
	alsl.d	$a0, $fp, $s2, 2
	st.d	$a0, $s5, 16
	ld.d	$s1, $sp, 136                   # 8-byte Folded Reload
.LBB4_40:                               # %_ZNSt6vectorIiSaIiEE7reserveEm.exit
	ld.d	$a1, $sp, 128                   # 8-byte Folded Reload
	ld.d	$a0, $a1, 16
	ld.d	$s0, $a1, 0
	sub.d	$s7, $a0, $s0
	srai.d	$a0, $s7, 2
	bgeu	$a0, $fp, .LBB4_46
# %bb.41:                               # %_ZNSt12_Vector_baseIiSaIiEE11_M_allocateEm.exit.i160
	ld.d	$a0, $sp, 128                   # 8-byte Folded Reload
	ld.d	$s1, $a0, 8
	sub.d	$s8, $s1, $s0
	move	$a0, $s6
	pcaddu18i	$ra, %call36(_Znwm)
	jirl	$ra, $ra, 0
	move	$s2, $a0
	beq	$s1, $s0, .LBB4_43
# %bb.42:
	move	$a0, $s2
	move	$a1, $s0
	move	$a2, $s8
	pcaddu18i	$ra, %call36(memcpy)
	jirl	$ra, $ra, 0
.LBB4_43:                               # %_ZNSt6vectorIiSaIiEE11_S_relocateEPiS2_S2_RS0_.exit.i162
	beqz	$s0, .LBB4_45
# %bb.44:
	move	$a0, $s0
	move	$a1, $s7
	pcaddu18i	$ra, %call36(_ZdlPvm)
	jirl	$ra, $ra, 0
.LBB4_45:                               # %_ZNSt12_Vector_baseIiSaIiEE13_M_deallocateEPim.exit.i164
	ld.d	$a1, $sp, 128                   # 8-byte Folded Reload
	st.d	$s2, $a1, 0
	add.d	$a0, $s2, $s8
	st.d	$a0, $a1, 8
	alsl.d	$a0, $fp, $s2, 2
	st.d	$a0, $a1, 16
	ld.d	$s1, $sp, 136                   # 8-byte Folded Reload
.LBB4_46:                               # %_ZNSt6vectorIiSaIiEE7reserveEm.exit165
	ld.d	$a0, $s3, 16
	ld.d	$s0, $s3, 0
	addi.w	$fp, $s6, 0
	sub.d	$s6, $a0, $s0
	srai.d	$a0, $s6, 2
	bgeu	$a0, $fp, .LBB4_52
# %bb.47:                               # %_ZNSt12_Vector_baseIiSaIiEE11_M_allocateEm.exit.i166
	ld.d	$s1, $s3, 8
	sub.d	$s7, $s1, $s0
	slli.d	$a0, $fp, 2
	pcaddu18i	$ra, %call36(_Znwm)
	jirl	$ra, $ra, 0
	move	$s2, $a0
	beq	$s1, $s0, .LBB4_49
# %bb.48:
	move	$a0, $s2
	move	$a1, $s0
	move	$a2, $s7
	pcaddu18i	$ra, %call36(memcpy)
	jirl	$ra, $ra, 0
.LBB4_49:                               # %_ZNSt6vectorIiSaIiEE11_S_relocateEPiS2_S2_RS0_.exit.i168
	beqz	$s0, .LBB4_51
# %bb.50:
	move	$a0, $s0
	move	$a1, $s6
	pcaddu18i	$ra, %call36(_ZdlPvm)
	jirl	$ra, $ra, 0
.LBB4_51:                               # %_ZNSt12_Vector_baseIiSaIiEE13_M_deallocateEPim.exit.i170
	st.d	$s2, $s3, 0
	add.d	$a0, $s2, $s7
	st.d	$a0, $s3, 8
	alsl.d	$a0, $fp, $s2, 2
	st.d	$a0, $s3, 16
	ld.d	$s1, $sp, 136                   # 8-byte Folded Reload
.LBB4_52:                               # %_ZNSt6vectorIiSaIiEE7reserveEm.exit171
	ld.w	$a1, $s1, 76
	blez	$a1, .LBB4_116
# %bb.53:                               # %.preheader547.lr.ph
	ld.w	$a0, $s1, 72
	blez	$a0, .LBB4_116
# %bb.54:                               # %.preheader547.preheader
	st.d	$zero, $sp, 104                 # 8-byte Folded Spill
	addi.w	$a2, $zero, -4
	lu52i.d	$a2, $a2, 2047
	st.d	$a2, $sp, 120                   # 8-byte Folded Spill
	addi.w	$a2, $zero, -1
	lu52i.d	$fp, $a2, 511
	b	.LBB4_57
	.p2align	4, , 16
.LBB4_55:                               # %._crit_edge556.loopexit
                                        #   in Loop: Header=BB4_57 Depth=1
	ld.w	$a1, $s1, 76
.LBB4_56:                               # %._crit_edge556
                                        #   in Loop: Header=BB4_57 Depth=1
	ld.d	$a2, $sp, 104                   # 8-byte Folded Reload
	addi.w	$a2, $a2, 1
	st.d	$a2, $sp, 104                   # 8-byte Folded Spill
	bge	$a2, $a1, .LBB4_116
.LBB4_57:                               # %.preheader547
                                        # =>This Loop Header: Depth=1
                                        #     Child Loop BB4_60 Depth 2
	blez	$a0, .LBB4_56
# %bb.58:                               # %.lr.ph555
                                        #   in Loop: Header=BB4_57 Depth=1
	ld.d	$a1, $s3, 8
	move	$s2, $zero
	ld.d	$a0, $sp, 96                    # 8-byte Folded Reload
	ld.d	$a2, $sp, 104                   # 8-byte Folded Reload
	mul.d	$a0, $a2, $a0
	st.d	$a0, $sp, 88                    # 8-byte Folded Spill
	b	.LBB4_60
	.p2align	4, , 16
.LBB4_59:                               #   in Loop: Header=BB4_60 Depth=2
	st.w	$s8, $a1, 0
	addi.d	$a1, $a1, 4
	st.d	$a1, $s3, 8
	ld.w	$a0, $s1, 72
	addi.w	$s2, $s2, 1
	bge	$s2, $a0, .LBB4_55
.LBB4_60:                               #   Parent Loop BB4_57 Depth=1
                                        # =>  This Inner Loop Header: Depth=2
	ld.d	$a2, $s3, 0
	ld.d	$a0, $s5, 8
	ld.d	$a3, $s5, 16
	sub.d	$a1, $a1, $a2
	srai.d	$s8, $a1, 2
	beq	$a0, $a3, .LBB4_62
# %bb.61:                               #   in Loop: Header=BB4_60 Depth=2
	st.w	$s8, $a0, 0
	addi.d	$a0, $a0, 4
	st.d	$a0, $s5, 8
	b	.LBB4_68
	.p2align	4, , 16
.LBB4_62:                               #   in Loop: Header=BB4_60 Depth=2
	ld.d	$s6, $s5, 0
	sub.d	$s0, $a0, $s6
	ld.d	$a0, $sp, 120                   # 8-byte Folded Reload
	beq	$s0, $a0, .LBB4_378
# %bb.63:                               # %_ZNKSt6vectorIiSaIiEE12_M_check_lenEmPKc.exit.i.i.i
                                        #   in Loop: Header=BB4_60 Depth=2
	srai.d	$a0, $s0, 2
	ori	$a2, $zero, 1
	sltu	$a1, $a2, $a0
	masknez	$a2, $a2, $a1
	maskeqz	$a1, $a0, $a1
	or	$a1, $a1, $a2
	add.d	$a0, $a1, $a0
	sltu	$a1, $a0, $fp
	maskeqz	$a0, $a0, $a1
	masknez	$a1, $fp, $a1
	or	$s1, $a0, $a1
	slli.d	$a0, $s1, 2
	pcaddu18i	$ra, %call36(_Znwm)
	jirl	$ra, $ra, 0
	move	$s7, $a0
	stx.w	$s8, $a0, $s0
	blez	$s0, .LBB4_65
# %bb.64:                               #   in Loop: Header=BB4_60 Depth=2
	move	$a0, $s7
	move	$a1, $s6
	move	$a2, $s0
	pcaddu18i	$ra, %call36(memcpy)
	jirl	$ra, $ra, 0
.LBB4_65:                               # %_ZNSt6vectorIiSaIiEE11_S_relocateEPiS2_S2_RS0_.exit.i.i.i
                                        #   in Loop: Header=BB4_60 Depth=2
	beqz	$s6, .LBB4_67
# %bb.66:                               # %_ZNSt12_Vector_baseIiSaIiEE13_M_deallocateEPim.exit.i.i.i.i
                                        #   in Loop: Header=BB4_60 Depth=2
	move	$a0, $s6
	move	$a1, $s0
	pcaddu18i	$ra, %call36(_ZdlPvm)
	jirl	$ra, $ra, 0
.LBB4_67:                               # %_ZNSt6vectorIiSaIiEE17_M_realloc_appendIJiEEEvDpOT_.exit.i.i
                                        #   in Loop: Header=BB4_60 Depth=2
	add.d	$a0, $s7, $s0
	addi.d	$a0, $a0, 4
	st.d	$s7, $s5, 0
	st.d	$a0, $s5, 8
	alsl.d	$a0, $s1, $s7, 2
	st.d	$a0, $s5, 16
	ld.d	$s1, $sp, 136                   # 8-byte Folded Reload
.LBB4_68:                               # %_ZNSt6vectorIiSaIiEE9push_backEOi.exit
                                        #   in Loop: Header=BB4_60 Depth=2
	ld.w	$a0, $s1, 68
	ld.d	$a1, $sp, 88                    # 8-byte Folded Reload
	add.d	$a2, $s2, $a1
	sltui	$a3, $a0, 1
	ld.w	$a4, $s1, 84
	ld.d	$a1, $sp, 128                   # 8-byte Folded Reload
	ld.d	$a0, $a1, 8
	ld.d	$a1, $a1, 16
	maskeqz	$a3, $s4, $a3
	sub.w	$a4, $zero, $a4
	sub.d	$s8, $a2, $a3
	ld.d	$a2, $sp, 104                   # 8-byte Folded Reload
	bne	$a2, $a4, .LBB4_72
# %bb.69:                               #   in Loop: Header=BB4_60 Depth=2
	beq	$a0, $a1, .LBB4_78
# %bb.70:                               #   in Loop: Header=BB4_60 Depth=2
	ori	$a1, $zero, 3
	st.w	$a1, $a0, 0
	addi.d	$a0, $a0, 4
	ld.d	$a1, $sp, 128                   # 8-byte Folded Reload
	st.d	$a0, $a1, 8
	ld.d	$a1, $s3, 8
	ld.d	$a0, $s3, 16
	beq	$a1, $a0, .LBB4_84
.LBB4_71:                               #   in Loop: Header=BB4_60 Depth=2
	st.w	$zero, $a1, 0
	b	.LBB4_76
	.p2align	4, , 16
.LBB4_72:                               #   in Loop: Header=BB4_60 Depth=2
	beq	$a0, $a1, .LBB4_102
# %bb.73:                               #   in Loop: Header=BB4_60 Depth=2
	ori	$a1, $zero, 4
	st.w	$a1, $a0, 0
	addi.d	$a0, $a0, 4
	ld.d	$a1, $sp, 128                   # 8-byte Folded Reload
	st.d	$a0, $a1, 8
	ld.d	$a1, $s3, 8
	ld.d	$a0, $s3, 16
	beq	$a1, $a0, .LBB4_108
.LBB4_74:                               #   in Loop: Header=BB4_60 Depth=2
	st.w	$s8, $a1, 0
	addi.d	$a1, $a1, 4
	st.d	$a1, $s3, 8
	addi.d	$s4, $s8, 1
	beq	$a1, $a0, .LBB4_114
.LBB4_75:                               #   in Loop: Header=BB4_60 Depth=2
	st.w	$s4, $a1, 0
.LBB4_76:                               # %_ZNSt6vectorIiSaIiEE9push_backEOi.exit189
                                        #   in Loop: Header=BB4_60 Depth=2
	addi.d	$a1, $a1, 4
	st.d	$a1, $s3, 8
	ld.d	$a2, $sp, 96                    # 8-byte Folded Reload
	add.d	$s8, $s8, $a2
	addi.d	$s4, $s8, 1
	beq	$a1, $a0, .LBB4_90
.LBB4_77:                               #   in Loop: Header=BB4_60 Depth=2
	st.w	$s4, $a1, 0
	addi.d	$a1, $a1, 4
	st.d	$a1, $s3, 8
	ld.d	$s4, $sp, 112                   # 8-byte Folded Reload
	bne	$a1, $a0, .LBB4_59
	b	.LBB4_96
.LBB4_78:                               #   in Loop: Header=BB4_60 Depth=2
	ld.d	$a1, $sp, 128                   # 8-byte Folded Reload
	ld.d	$s6, $a1, 0
	sub.d	$s0, $a0, $s6
	ld.d	$a0, $sp, 120                   # 8-byte Folded Reload
	beq	$s0, $a0, .LBB4_378
# %bb.79:                               # %_ZNKSt6vectorIiSaIiEE12_M_check_lenEmPKc.exit.i.i.i175
                                        #   in Loop: Header=BB4_60 Depth=2
	srai.d	$a0, $s0, 2
	ori	$a2, $zero, 1
	sltu	$a1, $a2, $a0
	masknez	$a2, $a2, $a1
	maskeqz	$a1, $a0, $a1
	or	$a1, $a1, $a2
	add.d	$a0, $a1, $a0
	sltu	$a1, $a0, $fp
	maskeqz	$a0, $a0, $a1
	masknez	$a1, $fp, $a1
	or	$s1, $a0, $a1
	slli.d	$a0, $s1, 2
	pcaddu18i	$ra, %call36(_Znwm)
	jirl	$ra, $ra, 0
	move	$s7, $a0
	ori	$a0, $zero, 3
	stx.w	$a0, $s7, $s0
	blez	$s0, .LBB4_81
# %bb.80:                               #   in Loop: Header=BB4_60 Depth=2
	move	$a0, $s7
	move	$a1, $s6
	move	$a2, $s0
	pcaddu18i	$ra, %call36(memcpy)
	jirl	$ra, $ra, 0
.LBB4_81:                               # %_ZNSt6vectorIiSaIiEE11_S_relocateEPiS2_S2_RS0_.exit.i.i.i177
                                        #   in Loop: Header=BB4_60 Depth=2
	beqz	$s6, .LBB4_83
# %bb.82:                               # %_ZNSt12_Vector_baseIiSaIiEE13_M_deallocateEPim.exit.i.i.i.i179
                                        #   in Loop: Header=BB4_60 Depth=2
	move	$a0, $s6
	move	$a1, $s0
	pcaddu18i	$ra, %call36(_ZdlPvm)
	jirl	$ra, $ra, 0
.LBB4_83:                               # %_ZNSt6vectorIiSaIiEE17_M_realloc_appendIJiEEEvDpOT_.exit.i.i180
                                        #   in Loop: Header=BB4_60 Depth=2
	add.d	$a0, $s7, $s0
	addi.d	$a0, $a0, 4
	ld.d	$a1, $sp, 128                   # 8-byte Folded Reload
	st.d	$s7, $a1, 0
	st.d	$a0, $a1, 8
	alsl.d	$a0, $s1, $s7, 2
	st.d	$a0, $a1, 16
	ld.d	$s1, $sp, 136                   # 8-byte Folded Reload
	ld.d	$a1, $s3, 8
	ld.d	$a0, $s3, 16
	bne	$a1, $a0, .LBB4_71
.LBB4_84:                               #   in Loop: Header=BB4_60 Depth=2
	ld.d	$s6, $s3, 0
	sub.d	$s0, $a1, $s6
	ld.d	$a0, $sp, 120                   # 8-byte Folded Reload
	beq	$s0, $a0, .LBB4_378
# %bb.85:                               # %_ZNKSt6vectorIiSaIiEE12_M_check_lenEmPKc.exit.i.i.i183
                                        #   in Loop: Header=BB4_60 Depth=2
	srai.d	$a0, $s0, 2
	ori	$a2, $zero, 1
	sltu	$a1, $a2, $a0
	masknez	$a2, $a2, $a1
	maskeqz	$a1, $a0, $a1
	or	$a1, $a1, $a2
	add.d	$a0, $a1, $a0
	sltu	$a1, $a0, $fp
	maskeqz	$a0, $a0, $a1
	masknez	$a1, $fp, $a1
	or	$s1, $a0, $a1
	slli.d	$a0, $s1, 2
	pcaddu18i	$ra, %call36(_Znwm)
	jirl	$ra, $ra, 0
	move	$s7, $a0
	stx.w	$zero, $a0, $s0
	blez	$s0, .LBB4_87
.LBB4_86:                               #   in Loop: Header=BB4_60 Depth=2
	move	$a0, $s7
	move	$a1, $s6
	move	$a2, $s0
	pcaddu18i	$ra, %call36(memcpy)
	jirl	$ra, $ra, 0
.LBB4_87:                               # %_ZNSt6vectorIiSaIiEE11_S_relocateEPiS2_S2_RS0_.exit.i.i.i185
                                        #   in Loop: Header=BB4_60 Depth=2
	beqz	$s6, .LBB4_89
# %bb.88:                               # %_ZNSt12_Vector_baseIiSaIiEE13_M_deallocateEPim.exit.i.i.i.i204
                                        #   in Loop: Header=BB4_60 Depth=2
	move	$a0, $s6
	move	$a1, $s0
	pcaddu18i	$ra, %call36(_ZdlPvm)
	jirl	$ra, $ra, 0
.LBB4_89:                               # %_ZNSt6vectorIiSaIiEE17_M_realloc_appendIJiEEEvDpOT_.exit.i.i205
                                        #   in Loop: Header=BB4_60 Depth=2
	add.d	$a0, $s7, $s0
	addi.d	$a1, $a0, 4
	st.d	$s7, $s3, 0
	st.d	$a1, $s3, 8
	alsl.d	$a0, $s1, $s7, 2
	st.d	$a0, $s3, 16
	ld.d	$s1, $sp, 136                   # 8-byte Folded Reload
	ld.d	$a2, $sp, 96                    # 8-byte Folded Reload
	add.d	$s8, $s8, $a2
	addi.d	$s4, $s8, 1
	bne	$a1, $a0, .LBB4_77
.LBB4_90:                               #   in Loop: Header=BB4_60 Depth=2
	ld.d	$s6, $s3, 0
	sub.d	$s0, $a0, $s6
	ld.d	$a0, $sp, 120                   # 8-byte Folded Reload
	beq	$s0, $a0, .LBB4_378
# %bb.91:                               # %_ZNKSt6vectorIiSaIiEE12_M_check_lenEmPKc.exit.i.i.i208
                                        #   in Loop: Header=BB4_60 Depth=2
	srai.d	$a0, $s0, 2
	ori	$a2, $zero, 1
	sltu	$a1, $a2, $a0
	masknez	$a2, $a2, $a1
	maskeqz	$a1, $a0, $a1
	or	$a1, $a1, $a2
	add.d	$a0, $a1, $a0
	sltu	$a1, $a0, $fp
	maskeqz	$a0, $a0, $a1
	masknez	$a1, $fp, $a1
	or	$s1, $a0, $a1
	slli.d	$a0, $s1, 2
	pcaddu18i	$ra, %call36(_Znwm)
	jirl	$ra, $ra, 0
	move	$s7, $a0
	stx.w	$s4, $a0, $s0
	blez	$s0, .LBB4_93
# %bb.92:                               #   in Loop: Header=BB4_60 Depth=2
	move	$a0, $s7
	move	$a1, $s6
	move	$a2, $s0
	pcaddu18i	$ra, %call36(memcpy)
	jirl	$ra, $ra, 0
.LBB4_93:                               # %_ZNSt6vectorIiSaIiEE11_S_relocateEPiS2_S2_RS0_.exit.i.i.i210
                                        #   in Loop: Header=BB4_60 Depth=2
	ld.d	$s4, $sp, 112                   # 8-byte Folded Reload
	beqz	$s6, .LBB4_95
# %bb.94:                               # %_ZNSt12_Vector_baseIiSaIiEE13_M_deallocateEPim.exit.i.i.i.i212
                                        #   in Loop: Header=BB4_60 Depth=2
	move	$a0, $s6
	move	$a1, $s0
	pcaddu18i	$ra, %call36(_ZdlPvm)
	jirl	$ra, $ra, 0
.LBB4_95:                               # %_ZNSt6vectorIiSaIiEE17_M_realloc_appendIJiEEEvDpOT_.exit.i.i213
                                        #   in Loop: Header=BB4_60 Depth=2
	add.d	$a0, $s7, $s0
	addi.d	$a1, $a0, 4
	st.d	$s7, $s3, 0
	st.d	$a1, $s3, 8
	alsl.d	$a0, $s1, $s7, 2
	st.d	$a0, $s3, 16
	ld.d	$s1, $sp, 136                   # 8-byte Folded Reload
	bne	$a1, $a0, .LBB4_59
.LBB4_96:                               #   in Loop: Header=BB4_60 Depth=2
	ld.d	$s6, $s3, 0
	sub.d	$s0, $a0, $s6
	ld.d	$a0, $sp, 120                   # 8-byte Folded Reload
	beq	$s0, $a0, .LBB4_378
# %bb.97:                               # %_ZNKSt6vectorIiSaIiEE12_M_check_lenEmPKc.exit.i.i.i216
                                        #   in Loop: Header=BB4_60 Depth=2
	srai.d	$a0, $s0, 2
	ori	$a2, $zero, 1
	sltu	$a1, $a2, $a0
	masknez	$a2, $a2, $a1
	maskeqz	$a1, $a0, $a1
	or	$a1, $a1, $a2
	add.d	$a0, $a1, $a0
	sltu	$a1, $a0, $fp
	maskeqz	$a0, $a0, $a1
	masknez	$a1, $fp, $a1
	or	$s1, $a0, $a1
	slli.d	$a0, $s1, 2
	pcaddu18i	$ra, %call36(_Znwm)
	jirl	$ra, $ra, 0
	move	$s7, $a0
	stx.w	$s8, $a0, $s0
	blez	$s0, .LBB4_99
# %bb.98:                               #   in Loop: Header=BB4_60 Depth=2
	move	$a0, $s7
	move	$a1, $s6
	move	$a2, $s0
	pcaddu18i	$ra, %call36(memcpy)
	jirl	$ra, $ra, 0
.LBB4_99:                               # %_ZNSt6vectorIiSaIiEE11_S_relocateEPiS2_S2_RS0_.exit.i.i.i218
                                        #   in Loop: Header=BB4_60 Depth=2
	beqz	$s6, .LBB4_101
# %bb.100:                              # %_ZNSt12_Vector_baseIiSaIiEE13_M_deallocateEPim.exit.i.i.i.i220
                                        #   in Loop: Header=BB4_60 Depth=2
	move	$a0, $s6
	move	$a1, $s0
	pcaddu18i	$ra, %call36(_ZdlPvm)
	jirl	$ra, $ra, 0
.LBB4_101:                              # %_ZNSt6vectorIiSaIiEE17_M_realloc_appendIJiEEEvDpOT_.exit.i.i221
                                        #   in Loop: Header=BB4_60 Depth=2
	add.d	$a0, $s7, $s0
	addi.d	$a1, $a0, 4
	st.d	$s7, $s3, 0
	st.d	$a1, $s3, 8
	alsl.d	$a0, $s1, $s7, 2
	st.d	$a0, $s3, 16
	ld.d	$s1, $sp, 136                   # 8-byte Folded Reload
	ld.w	$a0, $s1, 72
	addi.w	$s2, $s2, 1
	blt	$s2, $a0, .LBB4_60
	b	.LBB4_55
.LBB4_102:                              #   in Loop: Header=BB4_60 Depth=2
	ld.d	$a1, $sp, 128                   # 8-byte Folded Reload
	ld.d	$s6, $a1, 0
	sub.d	$s0, $a0, $s6
	ld.d	$a0, $sp, 120                   # 8-byte Folded Reload
	beq	$s0, $a0, .LBB4_378
# %bb.103:                              # %_ZNKSt6vectorIiSaIiEE12_M_check_lenEmPKc.exit.i.i.i191
                                        #   in Loop: Header=BB4_60 Depth=2
	srai.d	$a0, $s0, 2
	ori	$a2, $zero, 1
	sltu	$a1, $a2, $a0
	masknez	$a2, $a2, $a1
	maskeqz	$a1, $a0, $a1
	or	$a1, $a1, $a2
	add.d	$a0, $a1, $a0
	sltu	$a1, $a0, $fp
	maskeqz	$a0, $a0, $a1
	masknez	$a1, $fp, $a1
	or	$s1, $a0, $a1
	slli.d	$a0, $s1, 2
	pcaddu18i	$ra, %call36(_Znwm)
	jirl	$ra, $ra, 0
	move	$s7, $a0
	ori	$a0, $zero, 4
	stx.w	$a0, $s7, $s0
	blez	$s0, .LBB4_105
# %bb.104:                              #   in Loop: Header=BB4_60 Depth=2
	move	$a0, $s7
	move	$a1, $s6
	move	$a2, $s0
	pcaddu18i	$ra, %call36(memcpy)
	jirl	$ra, $ra, 0
.LBB4_105:                              # %_ZNSt6vectorIiSaIiEE11_S_relocateEPiS2_S2_RS0_.exit.i.i.i193
                                        #   in Loop: Header=BB4_60 Depth=2
	beqz	$s6, .LBB4_107
# %bb.106:                              # %_ZNSt12_Vector_baseIiSaIiEE13_M_deallocateEPim.exit.i.i.i.i195
                                        #   in Loop: Header=BB4_60 Depth=2
	move	$a0, $s6
	move	$a1, $s0
	pcaddu18i	$ra, %call36(_ZdlPvm)
	jirl	$ra, $ra, 0
.LBB4_107:                              # %_ZNSt6vectorIiSaIiEE17_M_realloc_appendIJiEEEvDpOT_.exit.i.i196
                                        #   in Loop: Header=BB4_60 Depth=2
	add.d	$a0, $s7, $s0
	addi.d	$a0, $a0, 4
	ld.d	$a1, $sp, 128                   # 8-byte Folded Reload
	st.d	$s7, $a1, 0
	st.d	$a0, $a1, 8
	alsl.d	$a0, $s1, $s7, 2
	st.d	$a0, $a1, 16
	ld.d	$s1, $sp, 136                   # 8-byte Folded Reload
	ld.d	$a1, $s3, 8
	ld.d	$a0, $s3, 16
	bne	$a1, $a0, .LBB4_74
.LBB4_108:                              #   in Loop: Header=BB4_60 Depth=2
	ld.d	$s6, $s3, 0
	sub.d	$s0, $a1, $s6
	ld.d	$a0, $sp, 120                   # 8-byte Folded Reload
	beq	$s0, $a0, .LBB4_378
# %bb.109:                              # %_ZNKSt6vectorIiSaIiEE12_M_check_lenEmPKc.exit.i.i
                                        #   in Loop: Header=BB4_60 Depth=2
	srai.d	$a0, $s0, 2
	ori	$a2, $zero, 1
	sltu	$a1, $a2, $a0
	masknez	$a2, $a2, $a1
	maskeqz	$a1, $a0, $a1
	or	$a1, $a1, $a2
	add.d	$a0, $a1, $a0
	sltu	$a1, $a0, $fp
	maskeqz	$a0, $a0, $a1
	masknez	$a1, $fp, $a1
	or	$s1, $a0, $a1
	slli.d	$a0, $s1, 2
	pcaddu18i	$ra, %call36(_Znwm)
	jirl	$ra, $ra, 0
	move	$s7, $a0
	stx.w	$s8, $a0, $s0
	blez	$s0, .LBB4_111
# %bb.110:                              #   in Loop: Header=BB4_60 Depth=2
	move	$a0, $s7
	move	$a1, $s6
	move	$a2, $s0
	pcaddu18i	$ra, %call36(memcpy)
	jirl	$ra, $ra, 0
.LBB4_111:                              # %_ZNSt6vectorIiSaIiEE11_S_relocateEPiS2_S2_RS0_.exit.i.i
                                        #   in Loop: Header=BB4_60 Depth=2
	beqz	$s6, .LBB4_113
# %bb.112:                              # %_ZNSt12_Vector_baseIiSaIiEE13_M_deallocateEPim.exit.i.i.i
                                        #   in Loop: Header=BB4_60 Depth=2
	move	$a0, $s6
	move	$a1, $s0
	pcaddu18i	$ra, %call36(_ZdlPvm)
	jirl	$ra, $ra, 0
.LBB4_113:                              # %_ZNSt6vectorIiSaIiEE17_M_realloc_appendIJRKiEEEvDpOT_.exit.i
                                        #   in Loop: Header=BB4_60 Depth=2
	add.d	$a0, $s7, $s0
	addi.d	$a1, $a0, 4
	st.d	$s7, $s3, 0
	st.d	$a1, $s3, 8
	alsl.d	$a0, $s1, $s7, 2
	st.d	$a0, $s3, 16
	ld.d	$s1, $sp, 136                   # 8-byte Folded Reload
	addi.d	$s4, $s8, 1
	bne	$a1, $a0, .LBB4_75
.LBB4_114:                              #   in Loop: Header=BB4_60 Depth=2
	ld.d	$s6, $s3, 0
	sub.d	$s0, $a0, $s6
	ld.d	$a0, $sp, 120                   # 8-byte Folded Reload
	beq	$s0, $a0, .LBB4_378
# %bb.115:                              # %_ZNKSt6vectorIiSaIiEE12_M_check_lenEmPKc.exit.i.i.i200
                                        #   in Loop: Header=BB4_60 Depth=2
	srai.d	$a0, $s0, 2
	ori	$a2, $zero, 1
	sltu	$a1, $a2, $a0
	masknez	$a2, $a2, $a1
	maskeqz	$a1, $a0, $a1
	or	$a1, $a1, $a2
	add.d	$a0, $a1, $a0
	sltu	$a1, $a0, $fp
	maskeqz	$a0, $a0, $a1
	masknez	$a1, $fp, $a1
	or	$s1, $a0, $a1
	slli.d	$a0, $s1, 2
	pcaddu18i	$ra, %call36(_Znwm)
	jirl	$ra, $ra, 0
	move	$s7, $a0
	stx.w	$s4, $a0, $s0
	bgtz	$s0, .LBB4_86
	b	.LBB4_87
.LBB4_116:                              # %._crit_edge558
	pcalau12i	$a0, %got_pc_hi20(_ZN8Parallel5numpeE)
	ld.d	$a0, $a0, %got_pc_lo12(_ZN8Parallel5numpeE)
	ld.w	$a0, $a0, 0
	ori	$a1, $zero, 1
	beq	$a0, $a1, .LBB4_353
# %bb.117:
	move	$a0, $s1
	ld.w	$s1, $s1, 68
	ld.w	$fp, $a0, 64
	sltui	$a0, $s1, 1
	ld.d	$a1, $sp, 96                    # 8-byte Folded Reload
	masknez	$a0, $a1, $a0
	sltui	$a1, $fp, 1
	ld.d	$a3, $sp, 24                    # 8-byte Folded Reload
	masknez	$a1, $a3, $a1
	add.w	$s2, $a1, $a0
	bltz	$s2, .LBB4_379
# %bb.118:
	ld.d	$a1, $sp, 72                    # 8-byte Folded Reload
	ld.d	$a0, $a1, 16
	ld.d	$s4, $a1, 0
	sub.d	$s5, $a0, $s4
	srai.d	$a0, $s5, 2
	bgeu	$a0, $s2, .LBB4_124
# %bb.119:                              # %_ZNSt12_Vector_baseIiSaIiEE11_M_allocateEm.exit.i223
	ld.d	$s6, $a1, 8
	sub.d	$s0, $s6, $s4
	slli.d	$a0, $s2, 2
	pcaddu18i	$ra, %call36(_Znwm)
	jirl	$ra, $ra, 0
	move	$s3, $a0
	beq	$s6, $s4, .LBB4_121
# %bb.120:
	move	$a0, $s3
	move	$a1, $s4
	move	$a2, $s0
	pcaddu18i	$ra, %call36(memcpy)
	jirl	$ra, $ra, 0
.LBB4_121:                              # %_ZNSt6vectorIiSaIiEE11_S_relocateEPiS2_S2_RS0_.exit.i225
	beqz	$s4, .LBB4_123
# %bb.122:
	move	$a0, $s4
	move	$a1, $s5
	pcaddu18i	$ra, %call36(_ZdlPvm)
	jirl	$ra, $ra, 0
	ld.d	$a0, $sp, 136                   # 8-byte Folded Reload
	ld.w	$s1, $a0, 68
	ld.w	$fp, $a0, 64
.LBB4_123:                              # %_ZNSt12_Vector_baseIiSaIiEE13_M_deallocateEPim.exit.i227
	ld.d	$a1, $sp, 72                    # 8-byte Folded Reload
	st.d	$s3, $a1, 0
	add.d	$a0, $s3, $s0
	st.d	$a0, $a1, 8
	alsl.d	$a0, $s2, $s3, 2
	st.d	$a0, $a1, 16
	ld.d	$a3, $sp, 24                    # 8-byte Folded Reload
.LBB4_124:                              # %_ZNSt6vectorIiSaIiEE7reserveEm.exit228
	ld.d	$a1, $sp, 136                   # 8-byte Folded Reload
	ld.w	$a0, $a1, 60
	addi.w	$a0, $a0, -1
	ld.w	$a1, $a1, 56
	xor	$a0, $s1, $a0
	sltui	$a0, $a0, 1
	ld.d	$a2, $sp, 96                    # 8-byte Folded Reload
	masknez	$a0, $a2, $a0
	addi.w	$a1, $a1, -1
	xor	$a1, $fp, $a1
	sltui	$a1, $a1, 1
	masknez	$a1, $a3, $a1
	add.w	$a0, $a1, $a0
	addi.w	$a1, $zero, -2
	ld.d	$s5, $sp, 40                    # 8-byte Folded Reload
	bge	$a1, $a0, .LBB4_379
# %bb.125:
	ld.d	$s6, $sp, 288
	ld.d	$a1, $s6, 16
	ld.d	$s3, $s6, 0
	addi.w	$s2, $a0, 1
	sub.d	$s4, $a1, $s3
	srai.d	$a0, $s4, 2
	bgeu	$a0, $s2, .LBB4_131
# %bb.126:                              # %_ZNSt12_Vector_baseIiSaIiEE11_M_allocateEm.exit.i229
	ld.d	$s1, $s6, 8
	sub.d	$s0, $s1, $s3
	slli.d	$a0, $s2, 2
	pcaddu18i	$ra, %call36(_Znwm)
	jirl	$ra, $ra, 0
	move	$s5, $a0
	beq	$s1, $s3, .LBB4_128
# %bb.127:
	move	$a0, $s5
	move	$a1, $s3
	move	$a2, $s0
	pcaddu18i	$ra, %call36(memcpy)
	jirl	$ra, $ra, 0
.LBB4_128:                              # %_ZNSt6vectorIiSaIiEE11_S_relocateEPiS2_S2_RS0_.exit.i231
	ld.d	$s1, $sp, 136                   # 8-byte Folded Reload
	beqz	$s3, .LBB4_130
# %bb.129:
	move	$a0, $s3
	move	$a1, $s4
	pcaddu18i	$ra, %call36(_ZdlPvm)
	jirl	$ra, $ra, 0
	ld.w	$fp, $s1, 64
.LBB4_130:                              # %_ZNSt12_Vector_baseIiSaIiEE13_M_deallocateEPim.exit.i233
	st.d	$s5, $s6, 0
	add.d	$a0, $s5, $s0
	st.d	$a0, $s6, 8
	alsl.d	$a0, $s2, $s5, 2
	st.d	$a0, $s6, 16
	ld.w	$s1, $s1, 68
	ld.d	$s5, $sp, 40                    # 8-byte Folded Reload
.LBB4_131:                              # %_ZNSt6vectorIiSaIiEE7reserveEm.exit234
	ld.d	$s4, $sp, 112                   # 8-byte Folded Reload
	ld.d	$a3, $sp, 72                    # 8-byte Folded Reload
	beqz	$fp, .LBB4_157
# %bb.132:                              # %_ZNSt6vectorIiSaIiEE7reserveEm.exit234
	beqz	$s1, .LBB4_157
# %bb.133:
	pcalau12i	$a0, %got_pc_hi20(_ZN8Parallel4mypeE)
	ld.d	$a0, $a0, %got_pc_lo12(_ZN8Parallel4mypeE)
	ld.w	$fp, $a0, 0
	ld.d	$a0, $a3, 8
	ld.d	$a1, $a3, 16
	ld.d	$a2, $sp, 136                   # 8-byte Folded Reload
	ld.w	$s1, $a2, 56
	beq	$a0, $a1, .LBB4_135
# %bb.134:
	st.w	$zero, $a0, 0
	addi.d	$a0, $a0, 4
	st.d	$a0, $a3, 8
	b	.LBB4_141
.LBB4_135:
	ld.d	$s0, $a3, 0
	sub.d	$s3, $a0, $s0
	addi.w	$a0, $zero, -4
	lu52i.d	$a0, $a0, 2047
	beq	$s3, $a0, .LBB4_378
# %bb.136:                              # %_ZNKSt6vectorIiSaIiEE12_M_check_lenEmPKc.exit.i.i.i236
	srai.d	$a0, $s3, 2
	ori	$a1, $zero, 1
	sltu	$a2, $a1, $a0
	masknez	$a1, $a1, $a2
	maskeqz	$a2, $a0, $a2
	or	$a1, $a2, $a1
	add.d	$a0, $a1, $a0
	addi.w	$a1, $zero, -1
	lu52i.d	$a1, $a1, 511
	sltu	$a2, $a0, $a1
	maskeqz	$a0, $a0, $a2
	masknez	$a1, $a1, $a2
	or	$s2, $a0, $a1
	slli.d	$a0, $s2, 2
	pcaddu18i	$ra, %call36(_Znwm)
	jirl	$ra, $ra, 0
	move	$s4, $a0
	stx.w	$zero, $a0, $s3
	blez	$s3, .LBB4_138
# %bb.137:
	move	$a0, $s4
	move	$a1, $s0
	move	$a2, $s3
	pcaddu18i	$ra, %call36(memcpy)
	jirl	$ra, $ra, 0
.LBB4_138:                              # %_ZNSt6vectorIiSaIiEE11_S_relocateEPiS2_S2_RS0_.exit.i.i.i238
	add.d	$s5, $s4, $s3
	beqz	$s0, .LBB4_140
# %bb.139:                              # %_ZNSt12_Vector_baseIiSaIiEE13_M_deallocateEPim.exit.i.i.i.i240
	move	$a0, $s0
	move	$a1, $s3
	pcaddu18i	$ra, %call36(_ZdlPvm)
	jirl	$ra, $ra, 0
.LBB4_140:                              # %_ZNSt6vectorIiSaIiEE17_M_realloc_appendIJiEEEvDpOT_.exit.i.i241
	addi.d	$a0, $s5, 4
	ld.d	$a3, $sp, 72                    # 8-byte Folded Reload
	st.d	$s4, $a3, 0
	st.d	$a0, $a3, 8
	alsl.d	$a0, $s2, $s4, 2
	st.d	$a0, $a3, 16
	ld.d	$s4, $sp, 112                   # 8-byte Folded Reload
	ld.d	$s5, $sp, 40                    # 8-byte Folded Reload
.LBB4_141:                              # %_ZNSt6vectorIiSaIiEE9push_backEOi.exit242
	ld.d	$a4, $sp, 32                    # 8-byte Folded Reload
	ld.d	$a0, $a4, 8
	ld.d	$a1, $a4, 16
	nor	$a2, $s1, $zero
	add.d	$s1, $fp, $a2
	beq	$a0, $a1, .LBB4_144
# %bb.142:
	st.w	$s1, $a0, 0
	addi.d	$a0, $a0, 4
	st.d	$a0, $a4, 8
	ld.d	$a0, $s5, 8
	ld.d	$a1, $s5, 16
	ld.d	$a2, $sp, 136                   # 8-byte Folded Reload
	beq	$a0, $a1, .LBB4_150
.LBB4_143:
	ori	$a1, $zero, 1
	st.w	$a1, $a0, 0
	addi.d	$a0, $a0, 4
	st.d	$a0, $s5, 8
	b	.LBB4_156
.LBB4_144:
	ld.d	$s0, $a4, 0
	sub.d	$s3, $a0, $s0
	addi.w	$a0, $zero, -4
	lu52i.d	$a0, $a0, 2047
	beq	$s3, $a0, .LBB4_378
# %bb.145:                              # %_ZNKSt6vectorIiSaIiEE12_M_check_lenEmPKc.exit.i.i244
	srai.d	$a0, $s3, 2
	ori	$a1, $zero, 1
	sltu	$a2, $a1, $a0
	masknez	$a1, $a1, $a2
	maskeqz	$a2, $a0, $a2
	or	$a1, $a2, $a1
	add.d	$a0, $a1, $a0
	addi.w	$a1, $zero, -1
	lu52i.d	$a1, $a1, 511
	sltu	$a2, $a0, $a1
	maskeqz	$a0, $a0, $a2
	masknez	$a1, $a1, $a2
	or	$fp, $a0, $a1
	slli.d	$a0, $fp, 2
	pcaddu18i	$ra, %call36(_Znwm)
	jirl	$ra, $ra, 0
	move	$s4, $a0
	stx.w	$s1, $a0, $s3
	blez	$s3, .LBB4_147
# %bb.146:
	move	$a0, $s4
	move	$a1, $s0
	move	$a2, $s3
	pcaddu18i	$ra, %call36(memcpy)
	jirl	$ra, $ra, 0
.LBB4_147:                              # %_ZNSt6vectorIiSaIiEE11_S_relocateEPiS2_S2_RS0_.exit.i.i246
	add.d	$s1, $s4, $s3
	beqz	$s0, .LBB4_149
# %bb.148:                              # %_ZNSt12_Vector_baseIiSaIiEE13_M_deallocateEPim.exit.i.i.i248
	move	$a0, $s0
	move	$a1, $s3
	pcaddu18i	$ra, %call36(_ZdlPvm)
	jirl	$ra, $ra, 0
.LBB4_149:                              # %_ZNSt6vectorIiSaIiEE17_M_realloc_appendIJRKiEEEvDpOT_.exit.i249
	addi.d	$a0, $s1, 4
	ld.d	$a1, $sp, 32                    # 8-byte Folded Reload
	st.d	$s4, $a1, 0
	st.d	$a0, $a1, 8
	alsl.d	$a0, $fp, $s4, 2
	st.d	$a0, $a1, 16
	ld.d	$s4, $sp, 112                   # 8-byte Folded Reload
	ld.d	$a3, $sp, 72                    # 8-byte Folded Reload
	ld.d	$a0, $s5, 8
	ld.d	$a1, $s5, 16
	ld.d	$a2, $sp, 136                   # 8-byte Folded Reload
	bne	$a0, $a1, .LBB4_143
.LBB4_150:
	ld.d	$s0, $s5, 0
	sub.d	$s3, $a0, $s0
	addi.w	$a0, $zero, -4
	lu52i.d	$a0, $a0, 2047
	beq	$s3, $a0, .LBB4_378
# %bb.151:                              # %_ZNKSt6vectorIiSaIiEE12_M_check_lenEmPKc.exit.i.i.i252
	srai.d	$a0, $s3, 2
	ori	$s1, $zero, 1
	sltu	$a1, $s1, $a0
	masknez	$a2, $s1, $a1
	maskeqz	$a1, $a0, $a1
	or	$a1, $a1, $a2
	add.d	$a0, $a1, $a0
	addi.w	$a1, $zero, -1
	lu52i.d	$a1, $a1, 511
	sltu	$a2, $a0, $a1
	maskeqz	$a0, $a0, $a2
	masknez	$a1, $a1, $a2
	or	$fp, $a0, $a1
	slli.d	$a0, $fp, 2
	pcaddu18i	$ra, %call36(_Znwm)
	jirl	$ra, $ra, 0
	move	$s4, $a0
	stx.w	$s1, $a0, $s3
	blez	$s3, .LBB4_153
# %bb.152:
	move	$a0, $s4
	move	$a1, $s0
	move	$a2, $s3
	pcaddu18i	$ra, %call36(memcpy)
	jirl	$ra, $ra, 0
.LBB4_153:                              # %_ZNSt6vectorIiSaIiEE11_S_relocateEPiS2_S2_RS0_.exit.i.i.i254
	add.d	$s1, $s4, $s3
	beqz	$s0, .LBB4_155
# %bb.154:                              # %_ZNSt12_Vector_baseIiSaIiEE13_M_deallocateEPim.exit.i.i.i.i256
	move	$a0, $s0
	move	$a1, $s3
	pcaddu18i	$ra, %call36(_ZdlPvm)
	jirl	$ra, $ra, 0
.LBB4_155:                              # %_ZNSt6vectorIiSaIiEE17_M_realloc_appendIJiEEEvDpOT_.exit.i.i257
	addi.d	$a0, $s1, 4
	st.d	$s4, $s5, 0
	st.d	$a0, $s5, 8
	alsl.d	$a0, $fp, $s4, 2
	st.d	$a0, $s5, 16
	ld.d	$s4, $sp, 112                   # 8-byte Folded Reload
	ld.d	$a2, $sp, 136                   # 8-byte Folded Reload
	ld.d	$a3, $sp, 72                    # 8-byte Folded Reload
.LBB4_156:                              # %_ZNSt6vectorIiSaIiEE9push_backEOi.exit258thread-pre-split
	ld.w	$s1, $a2, 68
.LBB4_157:                              # %_ZNSt6vectorIiSaIiEE9push_backEOi.exit258
	beqz	$s1, .LBB4_190
# %bb.158:
	pcalau12i	$a0, %got_pc_hi20(_ZN8Parallel4mypeE)
	ld.d	$a1, $a0, %got_pc_lo12(_ZN8Parallel4mypeE)
	ld.d	$a0, $a3, 8
	ld.d	$s3, $a3, 0
	ld.w	$a1, $a1, 0
	st.d	$a1, $sp, 120                   # 8-byte Folded Spill
	ld.d	$a1, $sp, 136                   # 8-byte Folded Reload
	ld.w	$s2, $a1, 56
	sub.d	$s5, $a0, $s3
	srai.d	$a2, $s5, 2
	st.d	$a2, $sp, 128                   # 8-byte Folded Spill
	bltz	$s4, .LBB4_173
# %bb.159:                              # %.lr.ph563.preheader
	ld.w	$a1, $a1, 64
	beqz	$a1, .LBB4_170
# %bb.160:
	move	$s4, $s3
	ld.d	$a1, $sp, 112                   # 8-byte Folded Reload
	beqz	$a1, .LBB4_172
.LBB4_161:                              # %.lr.ph563.peel.next.preheader
	move	$s5, $zero
	addi.w	$a1, $zero, -4
	lu52i.d	$s7, $a1, 2047
	ori	$s8, $zero, 1
	addi.w	$a1, $zero, -1
	lu52i.d	$fp, $a1, 511
	b	.LBB4_163
	.p2align	4, , 16
.LBB4_162:                              #   in Loop: Header=BB4_163 Depth=1
	st.w	$s5, $a0, 0
	addi.d	$a0, $a0, 4
	st.d	$a0, $a2, 8
	move	$s3, $s4
	ld.d	$a1, $sp, 112                   # 8-byte Folded Reload
	beq	$a1, $s5, .LBB4_173
.LBB4_163:                              # %.lr.ph563.peel.next
                                        # =>This Inner Loop Header: Depth=1
	ld.d	$a2, $sp, 72                    # 8-byte Folded Reload
	ld.d	$a1, $a2, 16
	addi.w	$s5, $s5, 1
	bne	$a0, $a1, .LBB4_162
# %bb.164:                              #   in Loop: Header=BB4_163 Depth=1
	sub.d	$s0, $a0, $s4
	beq	$s0, $s7, .LBB4_378
# %bb.165:                              # %_ZNKSt6vectorIiSaIiEE12_M_check_lenEmPKc.exit.i.i276
                                        #   in Loop: Header=BB4_163 Depth=1
	srai.d	$a0, $s0, 2
	sltu	$a1, $s8, $a0
	masknez	$a2, $s8, $a1
	maskeqz	$a1, $a0, $a1
	or	$a1, $a1, $a2
	add.d	$a0, $a1, $a0
	sltu	$a1, $a0, $fp
	maskeqz	$a0, $a0, $a1
	masknez	$a1, $fp, $a1
	or	$s1, $a0, $a1
	slli.d	$a0, $s1, 2
	pcaddu18i	$ra, %call36(_Znwm)
	jirl	$ra, $ra, 0
	move	$s3, $a0
	stx.w	$s5, $a0, $s0
	blez	$s0, .LBB4_167
# %bb.166:                              #   in Loop: Header=BB4_163 Depth=1
	move	$a0, $s3
	move	$a1, $s4
	move	$a2, $s0
	pcaddu18i	$ra, %call36(memcpy)
	jirl	$ra, $ra, 0
.LBB4_167:                              # %_ZNSt6vectorIiSaIiEE11_S_relocateEPiS2_S2_RS0_.exit.i.i278
                                        #   in Loop: Header=BB4_163 Depth=1
	beqz	$s4, .LBB4_169
# %bb.168:                              # %_ZNSt12_Vector_baseIiSaIiEE13_M_deallocateEPim.exit.i.i.i280
                                        #   in Loop: Header=BB4_163 Depth=1
	move	$a0, $s4
	move	$a1, $s0
	pcaddu18i	$ra, %call36(_ZdlPvm)
	jirl	$ra, $ra, 0
.LBB4_169:                              # %_ZNSt6vectorIiSaIiEE17_M_realloc_appendIJRKiEEEvDpOT_.exit.i281
                                        #   in Loop: Header=BB4_163 Depth=1
	add.d	$a0, $s3, $s0
	addi.d	$a0, $a0, 4
	ld.d	$a2, $sp, 72                    # 8-byte Folded Reload
	st.d	$s3, $a2, 0
	st.d	$a0, $a2, 8
	alsl.d	$a1, $s1, $s3, 2
	st.d	$a1, $a2, 16
	move	$s4, $s3
	ld.d	$a1, $sp, 112                   # 8-byte Folded Reload
	bne	$a1, $s5, .LBB4_163
	b	.LBB4_173
.LBB4_170:
	ld.d	$a2, $sp, 72                    # 8-byte Folded Reload
	ld.d	$a1, $a2, 16
	beq	$a0, $a1, .LBB4_354
# %bb.171:
	st.w	$zero, $a0, 0
	addi.d	$a0, $a0, 4
	st.d	$a0, $a2, 8
	move	$s4, $s3
	ld.d	$a1, $sp, 112                   # 8-byte Folded Reload
	bnez	$a1, .LBB4_161
.LBB4_172:
	move	$s3, $s4
.LBB4_173:                              # %._crit_edge564
	ld.d	$a2, $sp, 32                    # 8-byte Folded Reload
	ld.d	$a0, $a2, 8
	ld.d	$a1, $a2, 16
	ld.d	$a3, $sp, 120                   # 8-byte Folded Reload
	sub.d	$s1, $a3, $s2
	beq	$a0, $a1, .LBB4_175
# %bb.174:
	st.w	$s1, $a0, 0
	addi.d	$a0, $a0, 4
	st.d	$a0, $a2, 8
	ld.d	$s4, $sp, 112                   # 8-byte Folded Reload
	ld.d	$s5, $sp, 40                    # 8-byte Folded Reload
	ld.d	$a1, $sp, 72                    # 8-byte Folded Reload
	b	.LBB4_181
.LBB4_175:
	ld.d	$s0, $a2, 0
	sub.d	$s3, $a0, $s0
	addi.w	$a0, $zero, -4
	lu52i.d	$a0, $a0, 2047
	ld.d	$s5, $sp, 40                    # 8-byte Folded Reload
	beq	$s3, $a0, .LBB4_378
# %bb.176:                              # %_ZNKSt6vectorIiSaIiEE12_M_check_lenEmPKc.exit.i.i260
	srai.d	$a0, $s3, 2
	ori	$a1, $zero, 1
	sltu	$a2, $a1, $a0
	masknez	$a1, $a1, $a2
	maskeqz	$a2, $a0, $a2
	or	$a1, $a2, $a1
	add.d	$a0, $a1, $a0
	addi.w	$a1, $zero, -1
	lu52i.d	$a1, $a1, 511
	sltu	$a2, $a0, $a1
	maskeqz	$a0, $a0, $a2
	masknez	$a1, $a1, $a2
	or	$fp, $a0, $a1
	slli.d	$a0, $fp, 2
	pcaddu18i	$ra, %call36(_Znwm)
	jirl	$ra, $ra, 0
	move	$s4, $a0
	stx.w	$s1, $a0, $s3
	blez	$s3, .LBB4_178
# %bb.177:
	move	$a0, $s4
	move	$a1, $s0
	move	$a2, $s3
	pcaddu18i	$ra, %call36(memcpy)
	jirl	$ra, $ra, 0
.LBB4_178:                              # %_ZNSt6vectorIiSaIiEE11_S_relocateEPiS2_S2_RS0_.exit.i.i262
	add.d	$s1, $s4, $s3
	beqz	$s0, .LBB4_180
# %bb.179:                              # %_ZNSt12_Vector_baseIiSaIiEE13_M_deallocateEPim.exit.i.i.i264
	move	$a0, $s0
	move	$a1, $s3
	pcaddu18i	$ra, %call36(_ZdlPvm)
	jirl	$ra, $ra, 0
.LBB4_180:                              # %_ZNSt6vectorIiSaIiEE17_M_realloc_appendIJRKiEEEvDpOT_.exit.i265
	addi.d	$a0, $s1, 4
	ld.d	$a2, $sp, 32                    # 8-byte Folded Reload
	st.d	$s4, $a2, 0
	ld.d	$a1, $sp, 72                    # 8-byte Folded Reload
	ld.d	$s3, $a1, 0
	st.d	$a0, $a2, 8
	alsl.d	$a0, $fp, $s4, 2
	st.d	$a0, $a2, 16
	ld.d	$s4, $sp, 112                   # 8-byte Folded Reload
.LBB4_181:                              # %_ZNSt6vectorIiSaIiEE9push_backERKi.exit266
	ld.d	$a1, $a1, 8
	ld.d	$a0, $s5, 8
	ld.d	$a2, $s5, 16
	sub.d	$a1, $a1, $s3
	srai.d	$a1, $a1, 2
	ld.d	$a3, $sp, 128                   # 8-byte Folded Reload
	sub.d	$s1, $a1, $a3
	beq	$a0, $a2, .LBB4_183
# %bb.182:
	st.w	$s1, $a0, 0
	addi.d	$a0, $a0, 4
	st.d	$a0, $s5, 8
	b	.LBB4_189
.LBB4_183:
	ld.d	$s0, $s5, 0
	sub.d	$s3, $a0, $s0
	addi.w	$a0, $zero, -4
	lu52i.d	$a0, $a0, 2047
	beq	$s3, $a0, .LBB4_378
# %bb.184:                              # %_ZNKSt6vectorIiSaIiEE12_M_check_lenEmPKc.exit.i.i.i268
	srai.d	$a0, $s3, 2
	ori	$a1, $zero, 1
	sltu	$a2, $a1, $a0
	masknez	$a1, $a1, $a2
	maskeqz	$a2, $a0, $a2
	or	$a1, $a2, $a1
	add.d	$a0, $a1, $a0
	addi.w	$a1, $zero, -1
	lu52i.d	$a1, $a1, 511
	sltu	$a2, $a0, $a1
	maskeqz	$a0, $a0, $a2
	masknez	$a1, $a1, $a2
	or	$fp, $a0, $a1
	slli.d	$a0, $fp, 2
	pcaddu18i	$ra, %call36(_Znwm)
	jirl	$ra, $ra, 0
	move	$s4, $a0
	stx.w	$s1, $a0, $s3
	blez	$s3, .LBB4_186
# %bb.185:
	move	$a0, $s4
	move	$a1, $s0
	move	$a2, $s3
	pcaddu18i	$ra, %call36(memcpy)
	jirl	$ra, $ra, 0
.LBB4_186:                              # %_ZNSt6vectorIiSaIiEE11_S_relocateEPiS2_S2_RS0_.exit.i.i.i270
	add.d	$s1, $s4, $s3
	beqz	$s0, .LBB4_188
# %bb.187:                              # %_ZNSt12_Vector_baseIiSaIiEE13_M_deallocateEPim.exit.i.i.i.i272
	move	$a0, $s0
	move	$a1, $s3
	pcaddu18i	$ra, %call36(_ZdlPvm)
	jirl	$ra, $ra, 0
.LBB4_188:                              # %_ZNSt6vectorIiSaIiEE17_M_realloc_appendIJiEEEvDpOT_.exit.i.i273
	addi.d	$a0, $s1, 4
	st.d	$s4, $s5, 0
	st.d	$a0, $s5, 8
	alsl.d	$a0, $fp, $s4, 2
	st.d	$a0, $s5, 16
	ld.d	$s4, $sp, 112                   # 8-byte Folded Reload
.LBB4_189:                              # %_ZNSt6vectorIiSaIiEE9push_backEOi.exit274
	ld.d	$a3, $sp, 72                    # 8-byte Folded Reload
.LBB4_190:                              # %_ZNSt6vectorIiSaIiEE9push_backEOi.exit274
	ld.d	$a4, $sp, 136                   # 8-byte Folded Reload
	ld.w	$a0, $a4, 64
	beqz	$a0, .LBB4_230
# %bb.191:
	pcalau12i	$a0, %got_pc_hi20(_ZN8Parallel4mypeE)
	ld.d	$a1, $a0, %got_pc_lo12(_ZN8Parallel4mypeE)
	ld.d	$a0, $a3, 8
	ld.d	$s3, $a3, 0
	ld.w	$a2, $a4, 68
	ld.w	$s7, $a1, 0
	sub.d	$s4, $a0, $s3
	srai.d	$s2, $s4, 2
	st.d	$s7, $sp, 128                   # 8-byte Folded Spill
	beqz	$a2, .LBB4_193
# %bb.192:
	st.d	$s2, $sp, 120                   # 8-byte Folded Spill
	ld.d	$s4, $sp, 112                   # 8-byte Folded Reload
	ld.d	$a0, $sp, 80                    # 8-byte Folded Reload
	bgtz	$a0, .LBB4_205
	b	.LBB4_214
.LBB4_193:
	ld.d	$a1, $a3, 16
	beq	$a0, $a1, .LBB4_198
# %bb.194:
	st.w	$zero, $a0, 0
	addi.d	$a0, $a0, 4
	st.d	$a0, $a3, 8
	ld.w	$a0, $a4, 64
	ori	$a1, $zero, 2
	ld.d	$s4, $sp, 112                   # 8-byte Folded Reload
	blt	$a0, $a1, .LBB4_204
.LBB4_195:
	ld.d	$a2, $sp, 32                    # 8-byte Folded Reload
	ld.d	$a0, $a2, 8
	ld.d	$a1, $a2, 16
	beq	$a0, $a1, .LBB4_360
# %bb.196:
	st.w	$zero, $a0, 0
	addi.d	$a0, $a0, 4
	st.d	$a0, $a2, 8
	ld.d	$a0, $s5, 8
	ld.d	$a1, $s5, 16
	beq	$a0, $a1, .LBB4_366
.LBB4_197:
	ori	$a1, $zero, 1
	st.w	$a1, $a0, 0
	addi.d	$a0, $a0, 4
	st.d	$a0, $s5, 8
	addi.d	$s2, $s2, 1
	st.d	$s2, $sp, 120                   # 8-byte Folded Spill
	ld.d	$a0, $sp, 80                    # 8-byte Folded Reload
	bgtz	$a0, .LBB4_205
	b	.LBB4_214
.LBB4_198:
	addi.w	$a0, $zero, -4
	lu52i.d	$a0, $a0, 2047
	beq	$s4, $a0, .LBB4_378
# %bb.199:                              # %_ZNKSt6vectorIiSaIiEE12_M_check_lenEmPKc.exit.i.i.i284
	ori	$a0, $zero, 1
	sltu	$a1, $a0, $s2
	masknez	$a0, $a0, $a1
	maskeqz	$a1, $s2, $a1
	or	$a0, $a1, $a0
	add.d	$a0, $a0, $s2
	addi.w	$a1, $zero, -1
	lu52i.d	$a1, $a1, 511
	sltu	$a2, $a0, $a1
	maskeqz	$a0, $a0, $a2
	masknez	$a1, $a1, $a2
	or	$s1, $a0, $a1
	slli.d	$a0, $s1, 2
	pcaddu18i	$ra, %call36(_Znwm)
	jirl	$ra, $ra, 0
	move	$s0, $a0
	stx.w	$zero, $a0, $s4
	blez	$s4, .LBB4_201
# %bb.200:
	move	$a0, $s0
	move	$a1, $s3
	move	$a2, $s4
	pcaddu18i	$ra, %call36(memcpy)
	jirl	$ra, $ra, 0
.LBB4_201:                              # %_ZNSt6vectorIiSaIiEE11_S_relocateEPiS2_S2_RS0_.exit.i.i.i286
	add.d	$fp, $s0, $s4
	beqz	$s3, .LBB4_203
# %bb.202:                              # %_ZNSt12_Vector_baseIiSaIiEE13_M_deallocateEPim.exit.i.i.i.i288
	move	$a0, $s3
	move	$a1, $s4
	pcaddu18i	$ra, %call36(_ZdlPvm)
	jirl	$ra, $ra, 0
.LBB4_203:                              # %_ZNSt6vectorIiSaIiEE17_M_realloc_appendIJiEEEvDpOT_.exit.i.i289
	addi.d	$a0, $fp, 4
	ld.d	$a3, $sp, 72                    # 8-byte Folded Reload
	st.d	$s0, $a3, 0
	st.d	$a0, $a3, 8
	alsl.d	$a0, $s1, $s0, 2
	st.d	$a0, $a3, 16
	ld.d	$a4, $sp, 136                   # 8-byte Folded Reload
	ld.w	$a0, $a4, 64
	ori	$a1, $zero, 2
	ld.d	$s4, $sp, 112                   # 8-byte Folded Reload
	bge	$a0, $a1, .LBB4_195
.LBB4_204:
	st.d	$s2, $sp, 120                   # 8-byte Folded Spill
	ld.d	$a0, $sp, 80                    # 8-byte Folded Reload
	blez	$a0, .LBB4_214
.LBB4_205:                              # %.lr.ph569.preheader
	ld.d	$a0, $sp, 136                   # 8-byte Folded Reload
	ld.w	$a0, $a0, 68
	slti	$a0, $a0, 1
	ld.d	$a1, $sp, 96                    # 8-byte Folded Reload
	masknez	$a1, $a1, $a0
	ori	$s2, $zero, 1
	maskeqz	$a0, $s2, $a0
	or	$s5, $a0, $a1
	ld.d	$a0, $a3, 8
	ld.d	$a1, $a3, 16
	addi.w	$a2, $zero, -4
	lu52i.d	$s7, $a2, 2047
	addi.w	$a2, $zero, -1
	lu52i.d	$s8, $a2, 511
	ld.d	$s1, $sp, 80                    # 8-byte Folded Reload
	b	.LBB4_207
	.p2align	4, , 16
.LBB4_206:                              #   in Loop: Header=BB4_207 Depth=1
	st.w	$s5, $a0, 0
	addi.d	$a0, $a0, 4
	st.d	$a0, $a3, 8
	addi.w	$s1, $s1, -1
	ld.d	$a2, $sp, 96                    # 8-byte Folded Reload
	add.d	$s5, $s5, $a2
	beqz	$s1, .LBB4_214
.LBB4_207:                              # %.lr.ph569
                                        # =>This Inner Loop Header: Depth=1
	bne	$a0, $a1, .LBB4_206
# %bb.208:                              #   in Loop: Header=BB4_207 Depth=1
	ld.d	$s3, $a3, 0
	sub.d	$s0, $a1, $s3
	beq	$s0, $s7, .LBB4_378
# %bb.209:                              # %_ZNKSt6vectorIiSaIiEE12_M_check_lenEmPKc.exit.i.i324
                                        #   in Loop: Header=BB4_207 Depth=1
	srai.d	$a0, $s0, 2
	sltu	$a1, $s2, $a0
	masknez	$a2, $s2, $a1
	maskeqz	$a1, $a0, $a1
	or	$a1, $a1, $a2
	add.d	$a0, $a1, $a0
	sltu	$a1, $a0, $s8
	maskeqz	$a0, $a0, $a1
	masknez	$a1, $s8, $a1
	or	$fp, $a0, $a1
	slli.d	$a0, $fp, 2
	pcaddu18i	$ra, %call36(_Znwm)
	jirl	$ra, $ra, 0
	move	$s4, $a0
	stx.w	$s5, $a0, $s0
	blez	$s0, .LBB4_211
# %bb.210:                              #   in Loop: Header=BB4_207 Depth=1
	move	$a0, $s4
	move	$a1, $s3
	move	$a2, $s0
	pcaddu18i	$ra, %call36(memcpy)
	jirl	$ra, $ra, 0
.LBB4_211:                              # %_ZNSt6vectorIiSaIiEE11_S_relocateEPiS2_S2_RS0_.exit.i.i326
                                        #   in Loop: Header=BB4_207 Depth=1
	beqz	$s3, .LBB4_213
# %bb.212:                              # %_ZNSt12_Vector_baseIiSaIiEE13_M_deallocateEPim.exit.i.i.i328
                                        #   in Loop: Header=BB4_207 Depth=1
	move	$a0, $s3
	move	$a1, $s0
	pcaddu18i	$ra, %call36(_ZdlPvm)
	jirl	$ra, $ra, 0
.LBB4_213:                              # %_ZNSt6vectorIiSaIiEE17_M_realloc_appendIJRKiEEEvDpOT_.exit.i329
                                        #   in Loop: Header=BB4_207 Depth=1
	add.d	$a0, $s4, $s0
	addi.d	$a0, $a0, 4
	ld.d	$a3, $sp, 72                    # 8-byte Folded Reload
	st.d	$s4, $a3, 0
	st.d	$a0, $a3, 8
	alsl.d	$a1, $fp, $s4, 2
	st.d	$a1, $a3, 16
	ld.d	$s4, $sp, 112                   # 8-byte Folded Reload
	addi.w	$s1, $s1, -1
	ld.d	$a2, $sp, 96                    # 8-byte Folded Reload
	add.d	$s5, $s5, $a2
	bnez	$s1, .LBB4_207
.LBB4_214:                              # %._crit_edge570
	ld.d	$a2, $sp, 32                    # 8-byte Folded Reload
	ld.d	$a0, $a2, 8
	ld.d	$a1, $a2, 16
	ld.d	$a4, $sp, 128                   # 8-byte Folded Reload
	addi.d	$fp, $a4, -1
	beq	$a0, $a1, .LBB4_216
# %bb.215:
	st.w	$fp, $a0, 0
	addi.d	$a0, $a0, 4
	st.d	$a0, $a2, 8
	ld.d	$a4, $sp, 136                   # 8-byte Folded Reload
	ld.d	$s5, $sp, 40                    # 8-byte Folded Reload
	ld.d	$s2, $sp, 120                   # 8-byte Folded Reload
	b	.LBB4_222
.LBB4_216:
	ld.d	$s0, $a2, 0
	sub.d	$s3, $a0, $s0
	addi.w	$a0, $zero, -4
	lu52i.d	$a0, $a0, 2047
	ld.d	$s5, $sp, 40                    # 8-byte Folded Reload
	ld.d	$s2, $sp, 120                   # 8-byte Folded Reload
	beq	$s3, $a0, .LBB4_378
# %bb.217:                              # %_ZNKSt6vectorIiSaIiEE12_M_check_lenEmPKc.exit.i.i308
	srai.d	$a0, $s3, 2
	ori	$a1, $zero, 1
	sltu	$a2, $a1, $a0
	masknez	$a1, $a1, $a2
	maskeqz	$a2, $a0, $a2
	or	$a1, $a2, $a1
	add.d	$a0, $a1, $a0
	addi.w	$a1, $zero, -1
	lu52i.d	$a1, $a1, 511
	sltu	$a2, $a0, $a1
	maskeqz	$a0, $a0, $a2
	masknez	$a1, $a1, $a2
	or	$s1, $a0, $a1
	slli.d	$a0, $s1, 2
	pcaddu18i	$ra, %call36(_Znwm)
	jirl	$ra, $ra, 0
	move	$s4, $a0
	stx.w	$fp, $a0, $s3
	blez	$s3, .LBB4_219
# %bb.218:
	move	$a0, $s4
	move	$a1, $s0
	move	$a2, $s3
	pcaddu18i	$ra, %call36(memcpy)
	jirl	$ra, $ra, 0
.LBB4_219:                              # %_ZNSt6vectorIiSaIiEE11_S_relocateEPiS2_S2_RS0_.exit.i.i310
	add.d	$fp, $s4, $s3
	beqz	$s0, .LBB4_221
# %bb.220:                              # %_ZNSt12_Vector_baseIiSaIiEE13_M_deallocateEPim.exit.i.i.i312
	move	$a0, $s0
	move	$a1, $s3
	pcaddu18i	$ra, %call36(_ZdlPvm)
	jirl	$ra, $ra, 0
.LBB4_221:                              # %_ZNSt6vectorIiSaIiEE17_M_realloc_appendIJRKiEEEvDpOT_.exit.i313
	addi.d	$a0, $fp, 4
	ld.d	$a1, $sp, 32                    # 8-byte Folded Reload
	st.d	$s4, $a1, 0
	st.d	$a0, $a1, 8
	alsl.d	$a0, $s1, $s4, 2
	st.d	$a0, $a1, 16
	ld.d	$s4, $sp, 112                   # 8-byte Folded Reload
	ld.d	$a4, $sp, 136                   # 8-byte Folded Reload
	ld.d	$a3, $sp, 72                    # 8-byte Folded Reload
.LBB4_222:                              # %_ZNSt6vectorIiSaIiEE9push_backERKi.exit314
	ld.d	$a1, $a3, 8
	ld.d	$a2, $a3, 0
	ld.d	$a0, $s5, 8
	ld.d	$a3, $s5, 16
	sub.d	$a1, $a1, $a2
	srai.d	$a1, $a1, 2
	sub.d	$s3, $a1, $s2
	beq	$a0, $a3, .LBB4_224
# %bb.223:
	st.w	$s3, $a0, 0
	addi.d	$a0, $a0, 4
	st.d	$a0, $s5, 8
	b	.LBB4_230
.LBB4_224:
	ld.d	$s0, $s5, 0
	sub.d	$s1, $a0, $s0
	addi.w	$a0, $zero, -4
	lu52i.d	$a0, $a0, 2047
	beq	$s1, $a0, .LBB4_378
# %bb.225:                              # %_ZNKSt6vectorIiSaIiEE12_M_check_lenEmPKc.exit.i.i.i316
	srai.d	$a0, $s1, 2
	ori	$a1, $zero, 1
	sltu	$a2, $a1, $a0
	masknez	$a1, $a1, $a2
	maskeqz	$a2, $a0, $a2
	or	$a1, $a2, $a1
	add.d	$a0, $a1, $a0
	addi.w	$a1, $zero, -1
	lu52i.d	$a1, $a1, 511
	sltu	$a2, $a0, $a1
	maskeqz	$a0, $a0, $a2
	masknez	$a1, $a1, $a2
	or	$fp, $a0, $a1
	slli.d	$a0, $fp, 2
	pcaddu18i	$ra, %call36(_Znwm)
	jirl	$ra, $ra, 0
	move	$s2, $a0
	stx.w	$s3, $a0, $s1
	blez	$s1, .LBB4_227
# %bb.226:
	move	$a0, $s2
	move	$a1, $s0
	move	$a2, $s1
	pcaddu18i	$ra, %call36(memcpy)
	jirl	$ra, $ra, 0
.LBB4_227:                              # %_ZNSt6vectorIiSaIiEE11_S_relocateEPiS2_S2_RS0_.exit.i.i.i318
	add.d	$s3, $s2, $s1
	beqz	$s0, .LBB4_229
# %bb.228:                              # %_ZNSt12_Vector_baseIiSaIiEE13_M_deallocateEPim.exit.i.i.i.i320
	move	$a0, $s0
	move	$a1, $s1
	pcaddu18i	$ra, %call36(_ZdlPvm)
	jirl	$ra, $ra, 0
.LBB4_229:                              # %_ZNSt6vectorIiSaIiEE17_M_realloc_appendIJiEEEvDpOT_.exit.i.i321
	addi.d	$a0, $s3, 4
	st.d	$s2, $s5, 0
	st.d	$a0, $s5, 8
	alsl.d	$a0, $fp, $s2, 2
	st.d	$a0, $s5, 16
	ld.d	$a4, $sp, 136                   # 8-byte Folded Reload
.LBB4_230:                              # %_ZNSt6vectorIiSaIiEE9push_backEOi.exit322
	ld.d	$a5, $sp, 280
	ld.d	$a6, $sp, 272
	ld.w	$a0, $a4, 56
	ld.w	$a2, $a4, 64
	ld.w	$a1, $a4, 68
	addi.w	$a0, $a0, -1
	st.d	$a5, $sp, 120                   # 8-byte Folded Spill
	st.d	$a6, $sp, 128                   # 8-byte Folded Spill
	beq	$a2, $a0, .LBB4_294
# %bb.231:
	pcalau12i	$a0, %got_pc_hi20(_ZN8Parallel4mypeE)
	ld.d	$a3, $a0, %got_pc_lo12(_ZN8Parallel4mypeE)
	ld.d	$a0, $s6, 8
	ld.d	$s1, $s6, 0
	ld.w	$s5, $a3, 0
	sub.d	$s2, $a0, $s1
	or	$a1, $a2, $a1
	srai.d	$a2, $s2, 2
	st.d	$a2, $sp, 88                    # 8-byte Folded Spill
	bnez	$a1, .LBB4_234
# %bb.232:
	ld.d	$a1, $s6, 16
	beq	$a0, $a1, .LBB4_245
# %bb.233:
	st.w	$zero, $a0, 0
	addi.d	$a0, $a0, 4
	st.d	$a0, $s6, 8
.LBB4_234:
	move	$s0, $s1
	st.d	$s5, $sp, 104                   # 8-byte Folded Spill
	ld.d	$a1, $sp, 136                   # 8-byte Folded Reload
	ld.d	$a2, $sp, 80                    # 8-byte Folded Reload
	blez	$a2, .LBB4_251
.LBB4_235:                              # %.lr.ph574.preheader
	ld.w	$a1, $a1, 68
	slt	$a1, $zero, $a1
	addi.w	$a2, $zero, -1
	ld.d	$a4, $sp, 96                    # 8-byte Folded Reload
	alsl.w	$a3, $a4, $a2, 1
	maskeqz	$a3, $a3, $a1
	masknez	$a1, $a4, $a1
	or	$s7, $a3, $a1
	ld.d	$a1, $s6, 16
	addi.w	$a3, $zero, -4
	lu52i.d	$s8, $a3, 2047
	ori	$fp, $zero, 1
	lu52i.d	$s5, $a2, 511
	b	.LBB4_238
	.p2align	4, , 16
.LBB4_236:                              #   in Loop: Header=BB4_238 Depth=1
	st.w	$s7, $a0, 0
	addi.d	$a0, $a0, 4
	st.d	$a0, $s6, 8
	move	$s1, $s0
.LBB4_237:                              # %_ZNSt6vectorIiSaIiEE9push_backERKi.exit362
                                        #   in Loop: Header=BB4_238 Depth=1
	ld.d	$a2, $sp, 80                    # 8-byte Folded Reload
	addi.w	$a2, $a2, -1
	ld.d	$a3, $sp, 96                    # 8-byte Folded Reload
	add.d	$s7, $s7, $a3
	st.d	$a2, $sp, 80                    # 8-byte Folded Spill
	beqz	$a2, .LBB4_252
.LBB4_238:                              # %.lr.ph574
                                        # =>This Inner Loop Header: Depth=1
	bne	$a0, $a1, .LBB4_236
# %bb.239:                              #   in Loop: Header=BB4_238 Depth=1
	sub.d	$s2, $a1, $s0
	beq	$s2, $s8, .LBB4_378
# %bb.240:                              # %_ZNKSt6vectorIiSaIiEE12_M_check_lenEmPKc.exit.i.i356
                                        #   in Loop: Header=BB4_238 Depth=1
	srai.d	$a0, $s2, 2
	sltu	$a1, $fp, $a0
	masknez	$a2, $fp, $a1
	maskeqz	$a1, $a0, $a1
	or	$a1, $a1, $a2
	add.d	$a0, $a1, $a0
	sltu	$a1, $a0, $s5
	maskeqz	$a0, $a0, $a1
	masknez	$a1, $s5, $a1
	or	$s3, $a0, $a1
	slli.d	$a0, $s3, 2
	pcaddu18i	$ra, %call36(_Znwm)
	jirl	$ra, $ra, 0
	move	$s1, $a0
	stx.w	$s7, $a0, $s2
	blez	$s2, .LBB4_242
# %bb.241:                              #   in Loop: Header=BB4_238 Depth=1
	move	$a0, $s1
	move	$a1, $s0
	move	$a2, $s2
	pcaddu18i	$ra, %call36(memcpy)
	jirl	$ra, $ra, 0
.LBB4_242:                              # %_ZNSt6vectorIiSaIiEE11_S_relocateEPiS2_S2_RS0_.exit.i.i358
                                        #   in Loop: Header=BB4_238 Depth=1
	beqz	$s0, .LBB4_244
# %bb.243:                              # %_ZNSt12_Vector_baseIiSaIiEE13_M_deallocateEPim.exit.i.i.i360
                                        #   in Loop: Header=BB4_238 Depth=1
	move	$a0, $s0
	move	$a1, $s2
	pcaddu18i	$ra, %call36(_ZdlPvm)
	jirl	$ra, $ra, 0
.LBB4_244:                              # %_ZNSt6vectorIiSaIiEE17_M_realloc_appendIJRKiEEEvDpOT_.exit.i361
                                        #   in Loop: Header=BB4_238 Depth=1
	add.d	$a0, $s1, $s2
	addi.d	$a0, $a0, 4
	st.d	$s1, $s6, 0
	st.d	$a0, $s6, 8
	alsl.d	$a1, $s3, $s1, 2
	st.d	$a1, $s6, 16
	move	$s0, $s1
	b	.LBB4_237
.LBB4_245:
	addi.w	$a0, $zero, -4
	lu52i.d	$a0, $a0, 2047
	beq	$s2, $a0, .LBB4_378
# %bb.246:                              # %_ZNKSt6vectorIiSaIiEE12_M_check_lenEmPKc.exit.i.i.i332
	ori	$a0, $zero, 1
	sltu	$a1, $a0, $a2
	masknez	$a0, $a0, $a1
	maskeqz	$a1, $a2, $a1
	or	$a0, $a1, $a0
	add.d	$a0, $a0, $a2
	addi.w	$a1, $zero, -1
	lu52i.d	$a1, $a1, 511
	sltu	$a2, $a0, $a1
	maskeqz	$a0, $a0, $a2
	masknez	$a1, $a1, $a2
	or	$fp, $a0, $a1
	slli.d	$a0, $fp, 2
	pcaddu18i	$ra, %call36(_Znwm)
	jirl	$ra, $ra, 0
	move	$s0, $a0
	stx.w	$zero, $a0, $s2
	blez	$s2, .LBB4_248
# %bb.247:
	move	$a0, $s0
	move	$a1, $s1
	move	$a2, $s2
	pcaddu18i	$ra, %call36(memcpy)
	jirl	$ra, $ra, 0
.LBB4_248:                              # %_ZNSt6vectorIiSaIiEE11_S_relocateEPiS2_S2_RS0_.exit.i.i.i334
	add.d	$s3, $s0, $s2
	beqz	$s1, .LBB4_250
# %bb.249:                              # %_ZNSt12_Vector_baseIiSaIiEE13_M_deallocateEPim.exit.i.i.i.i336
	move	$a0, $s1
	move	$a1, $s2
	pcaddu18i	$ra, %call36(_ZdlPvm)
	jirl	$ra, $ra, 0
.LBB4_250:                              # %_ZNSt6vectorIiSaIiEE17_M_realloc_appendIJiEEEvDpOT_.exit.i.i337
	addi.d	$a0, $s3, 4
	st.d	$s0, $s6, 0
	st.d	$a0, $s6, 8
	alsl.d	$a1, $fp, $s0, 2
	st.d	$a1, $s6, 16
	st.d	$s5, $sp, 104                   # 8-byte Folded Spill
	ld.d	$a1, $sp, 136                   # 8-byte Folded Reload
	ld.d	$a2, $sp, 80                    # 8-byte Folded Reload
	bgtz	$a2, .LBB4_235
.LBB4_251:
	move	$s1, $s0
.LBB4_252:                              # %._crit_edge575
	ld.d	$a6, $sp, 128                   # 8-byte Folded Reload
	ld.d	$a0, $a6, 8
	ld.d	$a1, $a6, 16
	ld.d	$a2, $sp, 104                   # 8-byte Folded Reload
	addi.d	$s3, $a2, 1
	beq	$a0, $a1, .LBB4_254
# %bb.253:
	st.w	$s3, $a0, 0
	addi.d	$a0, $a0, 4
	st.d	$a0, $a6, 8
	b	.LBB4_260
.LBB4_254:
	ld.d	$s0, $a6, 0
	sub.d	$s1, $a0, $s0
	addi.w	$a0, $zero, -4
	lu52i.d	$a0, $a0, 2047
	beq	$s1, $a0, .LBB4_378
# %bb.255:                              # %_ZNKSt6vectorIiSaIiEE12_M_check_lenEmPKc.exit.i.i340
	srai.d	$a0, $s1, 2
	ori	$a1, $zero, 1
	sltu	$a2, $a1, $a0
	masknez	$a1, $a1, $a2
	maskeqz	$a2, $a0, $a2
	or	$a1, $a2, $a1
	add.d	$a0, $a1, $a0
	addi.w	$a1, $zero, -1
	lu52i.d	$a1, $a1, 511
	sltu	$a2, $a0, $a1
	maskeqz	$a0, $a0, $a2
	masknez	$a1, $a1, $a2
	or	$fp, $a0, $a1
	slli.d	$a0, $fp, 2
	pcaddu18i	$ra, %call36(_Znwm)
	jirl	$ra, $ra, 0
	move	$s2, $a0
	stx.w	$s3, $a0, $s1
	blez	$s1, .LBB4_257
# %bb.256:
	move	$a0, $s2
	move	$a1, $s0
	move	$a2, $s1
	pcaddu18i	$ra, %call36(memcpy)
	jirl	$ra, $ra, 0
.LBB4_257:                              # %_ZNSt6vectorIiSaIiEE11_S_relocateEPiS2_S2_RS0_.exit.i.i342
	add.d	$s3, $s2, $s1
	beqz	$s0, .LBB4_259
# %bb.258:                              # %_ZNSt12_Vector_baseIiSaIiEE13_M_deallocateEPim.exit.i.i.i344
	move	$a0, $s0
	move	$a1, $s1
	pcaddu18i	$ra, %call36(_ZdlPvm)
	jirl	$ra, $ra, 0
.LBB4_259:                              # %_ZNSt6vectorIiSaIiEE17_M_realloc_appendIJRKiEEEvDpOT_.exit.i345
	addi.d	$a0, $s3, 4
	ld.d	$a6, $sp, 128                   # 8-byte Folded Reload
	st.d	$s2, $a6, 0
	ld.d	$s1, $s6, 0
	st.d	$a0, $a6, 8
	alsl.d	$a0, $fp, $s2, 2
	st.d	$a0, $a6, 16
.LBB4_260:                              # %_ZNSt6vectorIiSaIiEE9push_backERKi.exit346
	ld.d	$a1, $s6, 8
	ld.d	$a5, $sp, 120                   # 8-byte Folded Reload
	ld.d	$a0, $a5, 8
	ld.d	$a2, $a5, 16
	sub.d	$a1, $a1, $s1
	srai.d	$a1, $a1, 2
	ld.d	$a3, $sp, 88                    # 8-byte Folded Reload
	sub.d	$s3, $a1, $a3
	beq	$a0, $a2, .LBB4_262
# %bb.261:
	st.w	$s3, $a0, 0
	addi.d	$a0, $a0, 4
	st.d	$a0, $a5, 8
	b	.LBB4_268
.LBB4_262:
	ld.d	$s0, $a5, 0
	sub.d	$s1, $a0, $s0
	addi.w	$a0, $zero, -4
	lu52i.d	$a0, $a0, 2047
	beq	$s1, $a0, .LBB4_378
# %bb.263:                              # %_ZNKSt6vectorIiSaIiEE12_M_check_lenEmPKc.exit.i.i.i348
	srai.d	$a0, $s1, 2
	ori	$a1, $zero, 1
	sltu	$a2, $a1, $a0
	masknez	$a1, $a1, $a2
	maskeqz	$a2, $a0, $a2
	or	$a1, $a2, $a1
	add.d	$a0, $a1, $a0
	addi.w	$a1, $zero, -1
	lu52i.d	$a1, $a1, 511
	sltu	$a2, $a0, $a1
	maskeqz	$a0, $a0, $a2
	masknez	$a1, $a1, $a2
	or	$fp, $a0, $a1
	slli.d	$a0, $fp, 2
	pcaddu18i	$ra, %call36(_Znwm)
	jirl	$ra, $ra, 0
	move	$s2, $a0
	stx.w	$s3, $a0, $s1
	blez	$s1, .LBB4_265
# %bb.264:
	move	$a0, $s2
	move	$a1, $s0
	move	$a2, $s1
	pcaddu18i	$ra, %call36(memcpy)
	jirl	$ra, $ra, 0
.LBB4_265:                              # %_ZNSt6vectorIiSaIiEE11_S_relocateEPiS2_S2_RS0_.exit.i.i.i350
	add.d	$s3, $s2, $s1
	beqz	$s0, .LBB4_267
# %bb.266:                              # %_ZNSt12_Vector_baseIiSaIiEE13_M_deallocateEPim.exit.i.i.i.i352
	move	$a0, $s0
	move	$a1, $s1
	pcaddu18i	$ra, %call36(_ZdlPvm)
	jirl	$ra, $ra, 0
.LBB4_267:                              # %_ZNSt6vectorIiSaIiEE17_M_realloc_appendIJiEEEvDpOT_.exit.i.i353
	addi.d	$a0, $s3, 4
	ld.d	$a5, $sp, 120                   # 8-byte Folded Reload
	st.d	$s2, $a5, 0
	st.d	$a0, $a5, 8
	alsl.d	$a0, $fp, $s2, 2
	st.d	$a0, $a5, 16
	ld.d	$a6, $sp, 128                   # 8-byte Folded Reload
.LBB4_268:                              # %_ZNSt6vectorIiSaIiEE9push_backEOi.exit354
	ld.d	$a4, $sp, 136                   # 8-byte Folded Reload
	ld.w	$a0, $a4, 64
	ld.w	$a1, $a4, 68
	or	$a0, $a0, $a1
	bnez	$a0, .LBB4_294
# %bb.269:                              # %.preheader
	ld.w	$a0, $a4, 56
	ori	$a1, $zero, 3
	blt	$a0, $a1, .LBB4_296
# %bb.270:                              # %.lr.ph577.preheader
	ori	$fp, $zero, 2
	addi.w	$a0, $zero, -4
	lu52i.d	$s5, $a0, 2047
	ori	$s7, $zero, 1
	addi.w	$a0, $zero, -1
	lu52i.d	$s8, $a0, 511
	b	.LBB4_272
	.p2align	4, , 16
.LBB4_271:                              #   in Loop: Header=BB4_272 Depth=1
	st.w	$s7, $a0, 0
	addi.d	$a0, $a0, 4
	st.d	$a0, $a5, 8
	ld.w	$a0, $a4, 56
	addi.w	$fp, $fp, 1
	bge	$fp, $a0, .LBB4_293
.LBB4_272:                              # %.lr.ph577
                                        # =>This Inner Loop Header: Depth=1
	ld.d	$a0, $s6, 8
	ld.d	$a1, $s6, 16
	beq	$a0, $a1, .LBB4_275
# %bb.273:                              #   in Loop: Header=BB4_272 Depth=1
	st.w	$zero, $a0, 0
	addi.d	$a0, $a0, 4
	st.d	$a0, $s6, 8
	ld.d	$a0, $a6, 8
	ld.d	$a1, $a6, 16
	beq	$a0, $a1, .LBB4_281
.LBB4_274:                              #   in Loop: Header=BB4_272 Depth=1
	st.w	$fp, $a0, 0
	addi.d	$a0, $a0, 4
	st.d	$a0, $a6, 8
	ld.d	$a0, $a5, 8
	ld.d	$a1, $a5, 16
	bne	$a0, $a1, .LBB4_271
	b	.LBB4_287
	.p2align	4, , 16
.LBB4_275:                              #   in Loop: Header=BB4_272 Depth=1
	ld.d	$s1, $s6, 0
	sub.d	$s0, $a0, $s1
	beq	$s0, $s5, .LBB4_378
# %bb.276:                              # %_ZNKSt6vectorIiSaIiEE12_M_check_lenEmPKc.exit.i.i.i364
                                        #   in Loop: Header=BB4_272 Depth=1
	srai.d	$a0, $s0, 2
	sltu	$a1, $s7, $a0
	masknez	$a2, $s7, $a1
	maskeqz	$a1, $a0, $a1
	or	$a1, $a1, $a2
	add.d	$a0, $a1, $a0
	sltu	$a1, $a0, $s8
	maskeqz	$a0, $a0, $a1
	masknez	$a1, $s8, $a1
	or	$s3, $a0, $a1
	slli.d	$a0, $s3, 2
	pcaddu18i	$ra, %call36(_Znwm)
	jirl	$ra, $ra, 0
	move	$s2, $a0
	stx.w	$zero, $a0, $s0
	blez	$s0, .LBB4_278
# %bb.277:                              #   in Loop: Header=BB4_272 Depth=1
	move	$a0, $s2
	move	$a1, $s1
	move	$a2, $s0
	pcaddu18i	$ra, %call36(memcpy)
	jirl	$ra, $ra, 0
.LBB4_278:                              # %_ZNSt6vectorIiSaIiEE11_S_relocateEPiS2_S2_RS0_.exit.i.i.i366
                                        #   in Loop: Header=BB4_272 Depth=1
	beqz	$s1, .LBB4_280
# %bb.279:                              # %_ZNSt12_Vector_baseIiSaIiEE13_M_deallocateEPim.exit.i.i.i.i368
                                        #   in Loop: Header=BB4_272 Depth=1
	move	$a0, $s1
	move	$a1, $s0
	pcaddu18i	$ra, %call36(_ZdlPvm)
	jirl	$ra, $ra, 0
.LBB4_280:                              # %_ZNSt6vectorIiSaIiEE17_M_realloc_appendIJiEEEvDpOT_.exit.i.i369
                                        #   in Loop: Header=BB4_272 Depth=1
	add.d	$a0, $s2, $s0
	addi.d	$a0, $a0, 4
	st.d	$s2, $s6, 0
	st.d	$a0, $s6, 8
	alsl.d	$a0, $s3, $s2, 2
	st.d	$a0, $s6, 16
	ld.d	$a4, $sp, 136                   # 8-byte Folded Reload
	ld.d	$a5, $sp, 120                   # 8-byte Folded Reload
	ld.d	$a6, $sp, 128                   # 8-byte Folded Reload
	ld.d	$a0, $a6, 8
	ld.d	$a1, $a6, 16
	bne	$a0, $a1, .LBB4_274
.LBB4_281:                              #   in Loop: Header=BB4_272 Depth=1
	ld.d	$s1, $a6, 0
	sub.d	$s0, $a0, $s1
	beq	$s0, $s5, .LBB4_378
# %bb.282:                              # %_ZNKSt6vectorIiSaIiEE12_M_check_lenEmPKc.exit.i.i372
                                        #   in Loop: Header=BB4_272 Depth=1
	srai.d	$a0, $s0, 2
	sltu	$a1, $s7, $a0
	masknez	$a2, $s7, $a1
	maskeqz	$a1, $a0, $a1
	or	$a1, $a1, $a2
	add.d	$a0, $a1, $a0
	sltu	$a1, $a0, $s8
	maskeqz	$a0, $a0, $a1
	masknez	$a1, $s8, $a1
	or	$s3, $a0, $a1
	slli.d	$a0, $s3, 2
	pcaddu18i	$ra, %call36(_Znwm)
	jirl	$ra, $ra, 0
	move	$s2, $a0
	stx.w	$fp, $a0, $s0
	blez	$s0, .LBB4_284
# %bb.283:                              #   in Loop: Header=BB4_272 Depth=1
	move	$a0, $s2
	move	$a1, $s1
	move	$a2, $s0
	pcaddu18i	$ra, %call36(memcpy)
	jirl	$ra, $ra, 0
.LBB4_284:                              # %_ZNSt6vectorIiSaIiEE11_S_relocateEPiS2_S2_RS0_.exit.i.i374
                                        #   in Loop: Header=BB4_272 Depth=1
	beqz	$s1, .LBB4_286
# %bb.285:                              # %_ZNSt12_Vector_baseIiSaIiEE13_M_deallocateEPim.exit.i.i.i376
                                        #   in Loop: Header=BB4_272 Depth=1
	move	$a0, $s1
	move	$a1, $s0
	pcaddu18i	$ra, %call36(_ZdlPvm)
	jirl	$ra, $ra, 0
.LBB4_286:                              # %_ZNSt6vectorIiSaIiEE17_M_realloc_appendIJRKiEEEvDpOT_.exit.i377
                                        #   in Loop: Header=BB4_272 Depth=1
	add.d	$a0, $s2, $s0
	addi.d	$a0, $a0, 4
	ld.d	$a6, $sp, 128                   # 8-byte Folded Reload
	st.d	$s2, $a6, 0
	st.d	$a0, $a6, 8
	alsl.d	$a0, $s3, $s2, 2
	st.d	$a0, $a6, 16
	ld.d	$a4, $sp, 136                   # 8-byte Folded Reload
	ld.d	$a5, $sp, 120                   # 8-byte Folded Reload
	ld.d	$a0, $a5, 8
	ld.d	$a1, $a5, 16
	bne	$a0, $a1, .LBB4_271
.LBB4_287:                              #   in Loop: Header=BB4_272 Depth=1
	ld.d	$s1, $a5, 0
	sub.d	$s0, $a0, $s1
	beq	$s0, $s5, .LBB4_378
# %bb.288:                              # %_ZNKSt6vectorIiSaIiEE12_M_check_lenEmPKc.exit.i.i.i380
                                        #   in Loop: Header=BB4_272 Depth=1
	srai.d	$a0, $s0, 2
	sltu	$a1, $s7, $a0
	masknez	$a2, $s7, $a1
	maskeqz	$a1, $a0, $a1
	or	$a1, $a1, $a2
	add.d	$a0, $a1, $a0
	sltu	$a1, $a0, $s8
	maskeqz	$a0, $a0, $a1
	masknez	$a1, $s8, $a1
	or	$s3, $a0, $a1
	slli.d	$a0, $s3, 2
	pcaddu18i	$ra, %call36(_Znwm)
	jirl	$ra, $ra, 0
	move	$s2, $a0
	stx.w	$s7, $a0, $s0
	blez	$s0, .LBB4_290
# %bb.289:                              #   in Loop: Header=BB4_272 Depth=1
	move	$a0, $s2
	move	$a1, $s1
	move	$a2, $s0
	pcaddu18i	$ra, %call36(memcpy)
	jirl	$ra, $ra, 0
.LBB4_290:                              # %_ZNSt6vectorIiSaIiEE11_S_relocateEPiS2_S2_RS0_.exit.i.i.i382
                                        #   in Loop: Header=BB4_272 Depth=1
	beqz	$s1, .LBB4_292
# %bb.291:                              # %_ZNSt12_Vector_baseIiSaIiEE13_M_deallocateEPim.exit.i.i.i.i384
                                        #   in Loop: Header=BB4_272 Depth=1
	move	$a0, $s1
	move	$a1, $s0
	pcaddu18i	$ra, %call36(_ZdlPvm)
	jirl	$ra, $ra, 0
.LBB4_292:                              # %_ZNSt6vectorIiSaIiEE17_M_realloc_appendIJiEEEvDpOT_.exit.i.i385
                                        #   in Loop: Header=BB4_272 Depth=1
	add.d	$a0, $s2, $s0
	addi.d	$a0, $a0, 4
	ld.d	$a5, $sp, 120                   # 8-byte Folded Reload
	st.d	$s2, $a5, 0
	st.d	$a0, $a5, 8
	alsl.d	$a0, $s3, $s2, 2
	st.d	$a0, $a5, 16
	ld.d	$a4, $sp, 136                   # 8-byte Folded Reload
	ld.d	$a6, $sp, 128                   # 8-byte Folded Reload
	ld.w	$a0, $a4, 56
	addi.w	$fp, $fp, 1
	blt	$fp, $a0, .LBB4_272
.LBB4_293:                              # %thread-pre-split.loopexit
	ld.w	$a1, $a4, 68
.LBB4_294:                              # %thread-pre-split
	ld.w	$a0, $a4, 60
	addi.w	$a0, $a0, -1
	bne	$a1, $a0, .LBB4_297
.LBB4_295:                              # %_ZNSt6vectorIiSaIiEE9push_backEOi.exit402
	ld.w	$s5, $a4, 56
	ld.w	$a0, $a4, 64
	addi.w	$a1, $s5, -1
	bne	$a0, $a1, .LBB4_329
	b	.LBB4_353
.LBB4_296:
	move	$a1, $zero
	ld.w	$a0, $a4, 60
	addi.w	$a0, $a0, -1
	beq	$a1, $a0, .LBB4_295
.LBB4_297:
	pcalau12i	$a0, %got_pc_hi20(_ZN8Parallel4mypeE)
	ld.d	$a2, $a0, %got_pc_lo12(_ZN8Parallel4mypeE)
	ld.d	$a0, $s6, 8
	ld.d	$s0, $s6, 0
	ld.w	$a5, $a2, 0
	ld.w	$a6, $a4, 56
	sub.d	$s2, $a0, $s0
	srai.d	$a2, $s2, 2
	st.d	$a2, $sp, 104                   # 8-byte Folded Spill
	st.d	$a5, $sp, 96                    # 8-byte Folded Spill
	st.d	$a6, $sp, 88                    # 8-byte Folded Spill
	bltz	$s4, .LBB4_312
# %bb.298:                              # %.lr.ph582.preheader
	ld.w	$a2, $a4, 64
	sltui	$a1, $a1, 1
	maskeqz	$a1, $s4, $a1
	ld.d	$a3, $sp, 16                    # 8-byte Folded Reload
	sub.d	$fp, $a3, $a1
	beqz	$a2, .LBB4_309
# %bb.299:
	move	$s1, $s0
	beqz	$s4, .LBB4_311
.LBB4_300:                              # %.lr.ph582.peel.next.preheader
	addi.d	$s8, $fp, 1
	addi.w	$a1, $zero, -4
	lu52i.d	$fp, $a1, 2047
	ori	$s5, $zero, 1
	addi.w	$a1, $zero, -1
	lu52i.d	$s7, $a1, 511
	move	$s3, $s4
	b	.LBB4_302
	.p2align	4, , 16
.LBB4_301:                              #   in Loop: Header=BB4_302 Depth=1
	st.w	$s8, $a0, 0
	addi.d	$a0, $a0, 4
	st.d	$a0, $s6, 8
	move	$s0, $s1
	addi.w	$s3, $s3, -1
	addi.d	$s8, $s8, 1
	beqz	$s3, .LBB4_312
.LBB4_302:                              # %.lr.ph582.peel.next
                                        # =>This Inner Loop Header: Depth=1
	ld.d	$a1, $s6, 16
	bne	$a0, $a1, .LBB4_301
# %bb.303:                              #   in Loop: Header=BB4_302 Depth=1
	sub.d	$s2, $a0, $s1
	beq	$s2, $fp, .LBB4_378
# %bb.304:                              # %_ZNKSt6vectorIiSaIiEE12_M_check_lenEmPKc.exit.i.i404
                                        #   in Loop: Header=BB4_302 Depth=1
	srai.d	$a0, $s2, 2
	sltu	$a1, $s5, $a0
	masknez	$a2, $s5, $a1
	maskeqz	$a1, $a0, $a1
	or	$a1, $a1, $a2
	add.d	$a0, $a1, $a0
	sltu	$a1, $a0, $s7
	maskeqz	$a0, $a0, $a1
	masknez	$a1, $s7, $a1
	or	$s4, $a0, $a1
	slli.d	$a0, $s4, 2
	pcaddu18i	$ra, %call36(_Znwm)
	jirl	$ra, $ra, 0
	move	$s0, $a0
	stx.w	$s8, $a0, $s2
	blez	$s2, .LBB4_306
# %bb.305:                              #   in Loop: Header=BB4_302 Depth=1
	move	$a0, $s0
	move	$a1, $s1
	move	$a2, $s2
	pcaddu18i	$ra, %call36(memcpy)
	jirl	$ra, $ra, 0
.LBB4_306:                              # %_ZNSt6vectorIiSaIiEE11_S_relocateEPiS2_S2_RS0_.exit.i.i406
                                        #   in Loop: Header=BB4_302 Depth=1
	beqz	$s1, .LBB4_308
# %bb.307:                              # %_ZNSt12_Vector_baseIiSaIiEE13_M_deallocateEPim.exit.i.i.i408
                                        #   in Loop: Header=BB4_302 Depth=1
	move	$a0, $s1
	move	$a1, $s2
	pcaddu18i	$ra, %call36(_ZdlPvm)
	jirl	$ra, $ra, 0
.LBB4_308:                              # %_ZNSt6vectorIiSaIiEE17_M_realloc_appendIJRKiEEEvDpOT_.exit.i409
                                        #   in Loop: Header=BB4_302 Depth=1
	add.d	$a0, $s0, $s2
	addi.d	$a0, $a0, 4
	st.d	$s0, $s6, 0
	st.d	$a0, $s6, 8
	alsl.d	$a1, $s4, $s0, 2
	st.d	$a1, $s6, 16
	move	$s1, $s0
	ld.d	$s4, $sp, 112                   # 8-byte Folded Reload
	addi.w	$s3, $s3, -1
	addi.d	$s8, $s8, 1
	bnez	$s3, .LBB4_302
	b	.LBB4_312
.LBB4_309:
	ld.d	$a1, $s6, 16
	beq	$a0, $a1, .LBB4_372
# %bb.310:
	st.w	$fp, $a0, 0
	addi.d	$a0, $a0, 4
	st.d	$a0, $s6, 8
	move	$s1, $s0
	bnez	$s4, .LBB4_300
.LBB4_311:
	move	$s0, $s1
.LBB4_312:                              # %._crit_edge583
	ld.d	$a2, $sp, 128                   # 8-byte Folded Reload
	ld.d	$a0, $a2, 8
	ld.d	$a1, $a2, 16
	ld.d	$a3, $sp, 96                    # 8-byte Folded Reload
	ld.d	$a4, $sp, 88                    # 8-byte Folded Reload
	add.d	$s3, $a4, $a3
	beq	$a0, $a1, .LBB4_314
# %bb.313:
	st.w	$s3, $a0, 0
	addi.d	$a0, $a0, 4
	st.d	$a0, $a2, 8
	b	.LBB4_320
.LBB4_314:
	ld.d	$s0, $a2, 0
	sub.d	$s1, $a0, $s0
	addi.w	$a0, $zero, -4
	lu52i.d	$a0, $a0, 2047
	beq	$s1, $a0, .LBB4_378
# %bb.315:                              # %_ZNKSt6vectorIiSaIiEE12_M_check_lenEmPKc.exit.i.i388
	srai.d	$a0, $s1, 2
	ori	$a1, $zero, 1
	sltu	$a2, $a1, $a0
	masknez	$a1, $a1, $a2
	maskeqz	$a2, $a0, $a2
	or	$a1, $a2, $a1
	add.d	$a0, $a1, $a0
	addi.w	$a1, $zero, -1
	lu52i.d	$a1, $a1, 511
	sltu	$a2, $a0, $a1
	maskeqz	$a0, $a0, $a2
	masknez	$a1, $a1, $a2
	or	$fp, $a0, $a1
	slli.d	$a0, $fp, 2
	pcaddu18i	$ra, %call36(_Znwm)
	jirl	$ra, $ra, 0
	move	$s2, $a0
	stx.w	$s3, $a0, $s1
	blez	$s1, .LBB4_317
# %bb.316:
	move	$a0, $s2
	move	$a1, $s0
	move	$a2, $s1
	pcaddu18i	$ra, %call36(memcpy)
	jirl	$ra, $ra, 0
.LBB4_317:                              # %_ZNSt6vectorIiSaIiEE11_S_relocateEPiS2_S2_RS0_.exit.i.i390
	add.d	$s3, $s2, $s1
	beqz	$s0, .LBB4_319
# %bb.318:                              # %_ZNSt12_Vector_baseIiSaIiEE13_M_deallocateEPim.exit.i.i.i392
	move	$a0, $s0
	move	$a1, $s1
	pcaddu18i	$ra, %call36(_ZdlPvm)
	jirl	$ra, $ra, 0
.LBB4_319:                              # %_ZNSt6vectorIiSaIiEE17_M_realloc_appendIJRKiEEEvDpOT_.exit.i393
	addi.d	$a0, $s3, 4
	ld.d	$a1, $sp, 128                   # 8-byte Folded Reload
	st.d	$s2, $a1, 0
	ld.d	$s0, $s6, 0
	st.d	$a0, $a1, 8
	alsl.d	$a0, $fp, $s2, 2
	st.d	$a0, $a1, 16
.LBB4_320:                              # %_ZNSt6vectorIiSaIiEE9push_backERKi.exit394
	ld.d	$a1, $s6, 8
	ld.d	$a5, $sp, 120                   # 8-byte Folded Reload
	ld.d	$a0, $a5, 8
	ld.d	$a2, $a5, 16
	sub.d	$a1, $a1, $s0
	srai.d	$a1, $a1, 2
	ld.d	$a3, $sp, 104                   # 8-byte Folded Reload
	sub.d	$s3, $a1, $a3
	ld.d	$a4, $sp, 136                   # 8-byte Folded Reload
	beq	$a0, $a2, .LBB4_322
# %bb.321:
	st.w	$s3, $a0, 0
	addi.d	$a0, $a0, 4
	st.d	$a0, $a5, 8
	b	.LBB4_328
.LBB4_322:
	ld.d	$s0, $a5, 0
	sub.d	$s1, $a0, $s0
	addi.w	$a0, $zero, -4
	lu52i.d	$a0, $a0, 2047
	beq	$s1, $a0, .LBB4_378
# %bb.323:                              # %_ZNKSt6vectorIiSaIiEE12_M_check_lenEmPKc.exit.i.i.i396
	srai.d	$a0, $s1, 2
	ori	$a1, $zero, 1
	sltu	$a2, $a1, $a0
	masknez	$a1, $a1, $a2
	maskeqz	$a2, $a0, $a2
	or	$a1, $a2, $a1
	add.d	$a0, $a1, $a0
	addi.w	$a1, $zero, -1
	lu52i.d	$a1, $a1, 511
	sltu	$a2, $a0, $a1
	maskeqz	$a0, $a0, $a2
	masknez	$a1, $a1, $a2
	or	$fp, $a0, $a1
	slli.d	$a0, $fp, 2
	pcaddu18i	$ra, %call36(_Znwm)
	jirl	$ra, $ra, 0
	move	$s2, $a0
	stx.w	$s3, $a0, $s1
	blez	$s1, .LBB4_325
# %bb.324:
	move	$a0, $s2
	move	$a1, $s0
	move	$a2, $s1
	pcaddu18i	$ra, %call36(memcpy)
	jirl	$ra, $ra, 0
.LBB4_325:                              # %_ZNSt6vectorIiSaIiEE11_S_relocateEPiS2_S2_RS0_.exit.i.i.i398
	add.d	$s3, $s2, $s1
	beqz	$s0, .LBB4_327
# %bb.326:                              # %_ZNSt12_Vector_baseIiSaIiEE13_M_deallocateEPim.exit.i.i.i.i400
	move	$a0, $s0
	move	$a1, $s1
	pcaddu18i	$ra, %call36(_ZdlPvm)
	jirl	$ra, $ra, 0
.LBB4_327:                              # %_ZNSt6vectorIiSaIiEE17_M_realloc_appendIJiEEEvDpOT_.exit.i.i401
	addi.d	$a0, $s3, 4
	ld.d	$a5, $sp, 120                   # 8-byte Folded Reload
	st.d	$s2, $a5, 0
	st.d	$a0, $a5, 8
	alsl.d	$a0, $fp, $s2, 2
	st.d	$a0, $a5, 16
	ld.d	$a4, $sp, 136                   # 8-byte Folded Reload
.LBB4_328:                              # %_ZNSt6vectorIiSaIiEE9push_backEOi.exit402
	ld.d	$a6, $sp, 128                   # 8-byte Folded Reload
	ld.w	$s5, $a4, 56
	ld.w	$a0, $a4, 64
	addi.w	$a1, $s5, -1
	beq	$a0, $a1, .LBB4_353
.LBB4_329:
	ld.w	$a1, $a4, 60
	ld.w	$a0, $a4, 68
	addi.w	$a1, $a1, -1
	beq	$a0, $a1, .LBB4_353
# %bb.330:
	pcalau12i	$a1, %got_pc_hi20(_ZN8Parallel4mypeE)
	ld.d	$a1, $a1, %got_pc_lo12(_ZN8Parallel4mypeE)
	ld.w	$s3, $a1, 0
	sltui	$a1, $a0, 1
	nor	$a2, $s4, $zero
	addi.w	$s2, $zero, -1
	ld.d	$a0, $s6, 8
	ld.d	$a3, $s6, 16
	masknez	$a4, $s2, $a1
	maskeqz	$a1, $a2, $a1
	or	$a1, $a1, $a4
	ld.d	$a2, $sp, 8                     # 8-byte Folded Reload
	add.d	$s7, $a1, $a2
	beq	$a0, $a3, .LBB4_332
# %bb.331:
	st.w	$s7, $a0, 0
	addi.d	$a0, $a0, 4
	st.d	$a0, $s6, 8
	b	.LBB4_338
.LBB4_332:
	ld.d	$fp, $s6, 0
	sub.d	$s0, $a0, $fp
	addi.w	$a0, $zero, -4
	lu52i.d	$a0, $a0, 2047
	beq	$s0, $a0, .LBB4_378
# %bb.333:                              # %_ZNKSt6vectorIiSaIiEE12_M_check_lenEmPKc.exit.i.i412
	srai.d	$a0, $s0, 2
	ori	$a1, $zero, 1
	sltu	$a2, $a1, $a0
	masknez	$a1, $a1, $a2
	maskeqz	$a2, $a0, $a2
	or	$a1, $a2, $a1
	add.d	$a0, $a1, $a0
	lu52i.d	$a1, $s2, 511
	sltu	$a2, $a0, $a1
	maskeqz	$a0, $a0, $a2
	masknez	$a1, $a1, $a2
	or	$s4, $a0, $a1
	slli.d	$a0, $s4, 2
	pcaddu18i	$ra, %call36(_Znwm)
	jirl	$ra, $ra, 0
	move	$s1, $a0
	stx.w	$s7, $a0, $s0
	blez	$s0, .LBB4_335
# %bb.334:
	move	$a0, $s1
	move	$a1, $fp
	move	$a2, $s0
	pcaddu18i	$ra, %call36(memcpy)
	jirl	$ra, $ra, 0
.LBB4_335:                              # %_ZNSt6vectorIiSaIiEE11_S_relocateEPiS2_S2_RS0_.exit.i.i414
	add.d	$s7, $s1, $s0
	beqz	$fp, .LBB4_337
# %bb.336:                              # %_ZNSt12_Vector_baseIiSaIiEE13_M_deallocateEPim.exit.i.i.i416
	move	$a0, $fp
	move	$a1, $s0
	pcaddu18i	$ra, %call36(_ZdlPvm)
	jirl	$ra, $ra, 0
.LBB4_337:                              # %_ZNSt6vectorIiSaIiEE17_M_realloc_appendIJRKiEEEvDpOT_.exit.i417
	addi.d	$a0, $s7, 4
	st.d	$s1, $s6, 0
	st.d	$a0, $s6, 8
	alsl.d	$a0, $s4, $s1, 2
	st.d	$a0, $s6, 16
	ld.d	$a5, $sp, 120                   # 8-byte Folded Reload
	ld.d	$a6, $sp, 128                   # 8-byte Folded Reload
.LBB4_338:                              # %_ZNSt6vectorIiSaIiEE9push_backERKi.exit418
	ld.d	$a0, $a6, 8
	ld.d	$a1, $a6, 16
	add.d	$a2, $s5, $s3
	addi.d	$s4, $a2, 1
	beq	$a0, $a1, .LBB4_341
# %bb.339:
	st.w	$s4, $a0, 0
	addi.d	$a0, $a0, 4
	st.d	$a0, $a6, 8
	ld.d	$a0, $a5, 8
	ld.d	$a1, $a5, 16
	beq	$a0, $a1, .LBB4_347
.LBB4_340:
	ori	$a1, $zero, 1
	st.w	$a1, $a0, 0
	addi.d	$a0, $a0, 4
	st.d	$a0, $a5, 8
	b	.LBB4_353
.LBB4_341:
	ld.d	$fp, $a6, 0
	sub.d	$s0, $a0, $fp
	addi.w	$a0, $zero, -4
	lu52i.d	$a0, $a0, 2047
	beq	$s0, $a0, .LBB4_378
# %bb.342:                              # %_ZNKSt6vectorIiSaIiEE12_M_check_lenEmPKc.exit.i.i420
	srai.d	$a0, $s0, 2
	ori	$a1, $zero, 1
	sltu	$a2, $a1, $a0
	masknez	$a1, $a1, $a2
	maskeqz	$a2, $a0, $a2
	or	$a1, $a2, $a1
	add.d	$a0, $a1, $a0
	lu52i.d	$a1, $s2, 511
	sltu	$a2, $a0, $a1
	maskeqz	$a0, $a0, $a2
	masknez	$a1, $a1, $a2
	or	$s3, $a0, $a1
	slli.d	$a0, $s3, 2
	pcaddu18i	$ra, %call36(_Znwm)
	jirl	$ra, $ra, 0
	move	$s1, $a0
	stx.w	$s4, $a0, $s0
	blez	$s0, .LBB4_344
# %bb.343:
	move	$a0, $s1
	move	$a1, $fp
	move	$a2, $s0
	pcaddu18i	$ra, %call36(memcpy)
	jirl	$ra, $ra, 0
.LBB4_344:                              # %_ZNSt6vectorIiSaIiEE11_S_relocateEPiS2_S2_RS0_.exit.i.i422
	add.d	$s4, $s1, $s0
	beqz	$fp, .LBB4_346
# %bb.345:                              # %_ZNSt12_Vector_baseIiSaIiEE13_M_deallocateEPim.exit.i.i.i424
	move	$a0, $fp
	move	$a1, $s0
	pcaddu18i	$ra, %call36(_ZdlPvm)
	jirl	$ra, $ra, 0
.LBB4_346:                              # %_ZNSt6vectorIiSaIiEE17_M_realloc_appendIJRKiEEEvDpOT_.exit.i425
	addi.d	$a0, $s4, 4
	ld.d	$a1, $sp, 128                   # 8-byte Folded Reload
	st.d	$s1, $a1, 0
	st.d	$a0, $a1, 8
	alsl.d	$a0, $s3, $s1, 2
	st.d	$a0, $a1, 16
	ld.d	$a5, $sp, 120                   # 8-byte Folded Reload
	ld.d	$a0, $a5, 8
	ld.d	$a1, $a5, 16
	bne	$a0, $a1, .LBB4_340
.LBB4_347:
	ld.d	$fp, $a5, 0
	sub.d	$s0, $a0, $fp
	addi.w	$a0, $zero, -4
	lu52i.d	$a0, $a0, 2047
	beq	$s0, $a0, .LBB4_378
# %bb.348:                              # %_ZNKSt6vectorIiSaIiEE12_M_check_lenEmPKc.exit.i.i.i428
	srai.d	$a0, $s0, 2
	ori	$s3, $zero, 1
	sltu	$a1, $s3, $a0
	masknez	$a2, $s3, $a1
	maskeqz	$a1, $a0, $a1
	or	$a1, $a1, $a2
	add.d	$a0, $a1, $a0
	lu52i.d	$a1, $s2, 511
	sltu	$a2, $a0, $a1
	maskeqz	$a0, $a0, $a2
	masknez	$a1, $a1, $a2
	or	$s2, $a0, $a1
	slli.d	$a0, $s2, 2
	pcaddu18i	$ra, %call36(_Znwm)
	jirl	$ra, $ra, 0
	move	$s1, $a0
	stx.w	$s3, $a0, $s0
	blez	$s0, .LBB4_350
# %bb.349:
	move	$a0, $s1
	move	$a1, $fp
	move	$a2, $s0
	pcaddu18i	$ra, %call36(memcpy)
	jirl	$ra, $ra, 0
.LBB4_350:                              # %_ZNSt6vectorIiSaIiEE11_S_relocateEPiS2_S2_RS0_.exit.i.i.i430
	add.d	$s3, $s1, $s0
	beqz	$fp, .LBB4_352
# %bb.351:                              # %_ZNSt12_Vector_baseIiSaIiEE13_M_deallocateEPim.exit.i.i.i.i432
	move	$a0, $fp
	move	$a1, $s0
	pcaddu18i	$ra, %call36(_ZdlPvm)
	jirl	$ra, $ra, 0
.LBB4_352:                              # %_ZNSt6vectorIiSaIiEE17_M_realloc_appendIJiEEEvDpOT_.exit.i.i433
	addi.d	$a0, $s3, 4
	ld.d	$a1, $sp, 120                   # 8-byte Folded Reload
	st.d	$s1, $a1, 0
	st.d	$a0, $a1, 8
	alsl.d	$a0, $s2, $s1, 2
	st.d	$a0, $a1, 16
.LBB4_353:                              # %_ZNSt6vectorIiSaIiEE9push_backEOi.exit434
	fld.d	$fs4, $sp, 144                  # 8-byte Folded Reload
	fld.d	$fs3, $sp, 152                  # 8-byte Folded Reload
	fld.d	$fs2, $sp, 160                  # 8-byte Folded Reload
	fld.d	$fs1, $sp, 168                  # 8-byte Folded Reload
	fld.d	$fs0, $sp, 176                  # 8-byte Folded Reload
	ld.d	$s8, $sp, 184                   # 8-byte Folded Reload
	ld.d	$s7, $sp, 192                   # 8-byte Folded Reload
	ld.d	$s6, $sp, 200                   # 8-byte Folded Reload
	ld.d	$s5, $sp, 208                   # 8-byte Folded Reload
	ld.d	$s4, $sp, 216                   # 8-byte Folded Reload
	ld.d	$s3, $sp, 224                   # 8-byte Folded Reload
	ld.d	$s2, $sp, 232                   # 8-byte Folded Reload
	ld.d	$s1, $sp, 240                   # 8-byte Folded Reload
	ld.d	$s0, $sp, 248                   # 8-byte Folded Reload
	ld.d	$fp, $sp, 256                   # 8-byte Folded Reload
	ld.d	$ra, $sp, 264                   # 8-byte Folded Reload
	addi.d	$sp, $sp, 272
	ret
.LBB4_354:
	addi.w	$a0, $zero, -4
	lu52i.d	$a0, $a0, 2047
	beq	$s5, $a0, .LBB4_378
# %bb.355:                              # %_ZNKSt6vectorIiSaIiEE12_M_check_lenEmPKc.exit.i.i276.peel
	ori	$a0, $zero, 1
	ld.d	$a2, $sp, 128                   # 8-byte Folded Reload
	sltu	$a1, $a0, $a2
	masknez	$a0, $a0, $a1
	maskeqz	$a1, $a2, $a1
	or	$a0, $a1, $a0
	add.d	$a0, $a0, $a2
	addi.w	$a1, $zero, -1
	lu52i.d	$a1, $a1, 511
	sltu	$a2, $a0, $a1
	maskeqz	$a0, $a0, $a2
	masknez	$a1, $a1, $a2
	or	$fp, $a0, $a1
	slli.d	$a0, $fp, 2
	pcaddu18i	$ra, %call36(_Znwm)
	jirl	$ra, $ra, 0
	move	$s4, $a0
	stx.w	$zero, $a0, $s5
	blez	$s5, .LBB4_357
# %bb.356:
	move	$a0, $s4
	move	$a1, $s3
	move	$a2, $s5
	pcaddu18i	$ra, %call36(memcpy)
	jirl	$ra, $ra, 0
.LBB4_357:                              # %_ZNSt6vectorIiSaIiEE11_S_relocateEPiS2_S2_RS0_.exit.i.i278.peel
	add.d	$s0, $s4, $s5
	beqz	$s3, .LBB4_359
# %bb.358:                              # %_ZNSt12_Vector_baseIiSaIiEE13_M_deallocateEPim.exit.i.i.i280.peel
	move	$a0, $s3
	move	$a1, $s5
	pcaddu18i	$ra, %call36(_ZdlPvm)
	jirl	$ra, $ra, 0
.LBB4_359:                              # %_ZNSt6vectorIiSaIiEE17_M_realloc_appendIJRKiEEEvDpOT_.exit.i281.peel
	addi.d	$a0, $s0, 4
	ld.d	$a2, $sp, 72                    # 8-byte Folded Reload
	st.d	$s4, $a2, 0
	st.d	$a0, $a2, 8
	alsl.d	$a1, $fp, $s4, 2
	st.d	$a1, $a2, 16
	ld.d	$a1, $sp, 112                   # 8-byte Folded Reload
	bnez	$a1, .LBB4_161
	b	.LBB4_172
.LBB4_360:
	ld.d	$s0, $a2, 0
	sub.d	$s3, $a0, $s0
	addi.w	$a0, $zero, -4
	lu52i.d	$a0, $a0, 2047
	beq	$s3, $a0, .LBB4_378
# %bb.361:                              # %_ZNKSt6vectorIiSaIiEE12_M_check_lenEmPKc.exit.i.i.i292
	srai.d	$a0, $s3, 2
	ori	$a1, $zero, 1
	sltu	$a2, $a1, $a0
	masknez	$a1, $a1, $a2
	maskeqz	$a2, $a0, $a2
	or	$a1, $a2, $a1
	add.d	$a0, $a1, $a0
	addi.w	$a1, $zero, -1
	lu52i.d	$a1, $a1, 511
	sltu	$a2, $a0, $a1
	maskeqz	$a0, $a0, $a2
	masknez	$a1, $a1, $a2
	or	$s1, $a0, $a1
	slli.d	$a0, $s1, 2
	pcaddu18i	$ra, %call36(_Znwm)
	jirl	$ra, $ra, 0
	move	$s4, $a0
	stx.w	$zero, $a0, $s3
	blez	$s3, .LBB4_363
# %bb.362:
	move	$a0, $s4
	move	$a1, $s0
	move	$a2, $s3
	pcaddu18i	$ra, %call36(memcpy)
	jirl	$ra, $ra, 0
.LBB4_363:                              # %_ZNSt6vectorIiSaIiEE11_S_relocateEPiS2_S2_RS0_.exit.i.i.i294
	add.d	$fp, $s4, $s3
	beqz	$s0, .LBB4_365
# %bb.364:                              # %_ZNSt12_Vector_baseIiSaIiEE13_M_deallocateEPim.exit.i.i.i.i296
	move	$a0, $s0
	move	$a1, $s3
	pcaddu18i	$ra, %call36(_ZdlPvm)
	jirl	$ra, $ra, 0
.LBB4_365:                              # %_ZNSt6vectorIiSaIiEE17_M_realloc_appendIJiEEEvDpOT_.exit.i.i297
	addi.d	$a0, $fp, 4
	ld.d	$a1, $sp, 32                    # 8-byte Folded Reload
	st.d	$s4, $a1, 0
	st.d	$a0, $a1, 8
	alsl.d	$a0, $s1, $s4, 2
	st.d	$a0, $a1, 16
	ld.d	$s4, $sp, 112                   # 8-byte Folded Reload
	ld.d	$a3, $sp, 72                    # 8-byte Folded Reload
	ld.d	$a0, $s5, 8
	ld.d	$a1, $s5, 16
	bne	$a0, $a1, .LBB4_197
.LBB4_366:
	ld.d	$s0, $s5, 0
	sub.d	$s3, $a0, $s0
	addi.w	$a0, $zero, -4
	lu52i.d	$a0, $a0, 2047
	beq	$s3, $a0, .LBB4_378
# %bb.367:                              # %_ZNKSt6vectorIiSaIiEE12_M_check_lenEmPKc.exit.i.i.i300
	srai.d	$a0, $s3, 2
	ori	$fp, $zero, 1
	sltu	$a1, $fp, $a0
	masknez	$a2, $fp, $a1
	maskeqz	$a1, $a0, $a1
	or	$a1, $a1, $a2
	add.d	$a0, $a1, $a0
	addi.w	$a1, $zero, -1
	lu52i.d	$a1, $a1, 511
	sltu	$a2, $a0, $a1
	maskeqz	$a0, $a0, $a2
	masknez	$a1, $a1, $a2
	or	$s1, $a0, $a1
	slli.d	$a0, $s1, 2
	pcaddu18i	$ra, %call36(_Znwm)
	jirl	$ra, $ra, 0
	move	$s4, $a0
	stx.w	$fp, $a0, $s3
	blez	$s3, .LBB4_369
# %bb.368:
	move	$a0, $s4
	move	$a1, $s0
	move	$a2, $s3
	pcaddu18i	$ra, %call36(memcpy)
	jirl	$ra, $ra, 0
.LBB4_369:                              # %_ZNSt6vectorIiSaIiEE11_S_relocateEPiS2_S2_RS0_.exit.i.i.i302
	add.d	$fp, $s4, $s3
	beqz	$s0, .LBB4_371
# %bb.370:                              # %_ZNSt12_Vector_baseIiSaIiEE13_M_deallocateEPim.exit.i.i.i.i304
	move	$a0, $s0
	move	$a1, $s3
	pcaddu18i	$ra, %call36(_ZdlPvm)
	jirl	$ra, $ra, 0
.LBB4_371:                              # %_ZNSt6vectorIiSaIiEE17_M_realloc_appendIJiEEEvDpOT_.exit.i.i305
	addi.d	$a0, $fp, 4
	st.d	$s4, $s5, 0
	st.d	$a0, $s5, 8
	alsl.d	$a0, $s1, $s4, 2
	st.d	$a0, $s5, 16
	ld.d	$s4, $sp, 112                   # 8-byte Folded Reload
	ld.d	$a3, $sp, 72                    # 8-byte Folded Reload
	addi.d	$s2, $s2, 1
	st.d	$s2, $sp, 120                   # 8-byte Folded Spill
	ld.d	$a0, $sp, 80                    # 8-byte Folded Reload
	bgtz	$a0, .LBB4_205
	b	.LBB4_214
.LBB4_372:
	addi.w	$a0, $zero, -4
	lu52i.d	$a0, $a0, 2047
	beq	$s2, $a0, .LBB4_378
# %bb.373:                              # %_ZNKSt6vectorIiSaIiEE12_M_check_lenEmPKc.exit.i.i404.peel
	ori	$a0, $zero, 1
	ld.d	$a2, $sp, 104                   # 8-byte Folded Reload
	sltu	$a1, $a0, $a2
	masknez	$a0, $a0, $a1
	maskeqz	$a1, $a2, $a1
	or	$a0, $a1, $a0
	add.d	$a0, $a0, $a2
	addi.w	$a1, $zero, -1
	lu52i.d	$a1, $a1, 511
	sltu	$a2, $a0, $a1
	maskeqz	$a0, $a0, $a2
	masknez	$a1, $a1, $a2
	or	$s3, $a0, $a1
	slli.d	$a0, $s3, 2
	pcaddu18i	$ra, %call36(_Znwm)
	jirl	$ra, $ra, 0
	move	$s1, $a0
	stx.w	$fp, $a0, $s2
	blez	$s2, .LBB4_375
# %bb.374:
	move	$a0, $s1
	move	$a1, $s0
	move	$a2, $s2
	pcaddu18i	$ra, %call36(memcpy)
	jirl	$ra, $ra, 0
.LBB4_375:                              # %_ZNSt6vectorIiSaIiEE11_S_relocateEPiS2_S2_RS0_.exit.i.i406.peel
	add.d	$s4, $s1, $s2
	beqz	$s0, .LBB4_377
# %bb.376:                              # %_ZNSt12_Vector_baseIiSaIiEE13_M_deallocateEPim.exit.i.i.i408.peel
	move	$a0, $s0
	move	$a1, $s2
	pcaddu18i	$ra, %call36(_ZdlPvm)
	jirl	$ra, $ra, 0
.LBB4_377:                              # %_ZNSt6vectorIiSaIiEE17_M_realloc_appendIJRKiEEEvDpOT_.exit.i409.peel
	addi.d	$a0, $s4, 4
	st.d	$s1, $s6, 0
	st.d	$a0, $s6, 8
	alsl.d	$a1, $s3, $s1, 2
	st.d	$a1, $s6, 16
	ld.d	$s4, $sp, 112                   # 8-byte Folded Reload
	bnez	$s4, .LBB4_300
	b	.LBB4_311
.LBB4_378:                              # %.noexc
	pcalau12i	$a0, %pc_hi20(.L.str.14)
	addi.d	$a0, $a0, %pc_lo12(.L.str.14)
	pcaddu18i	$ra, %call36(_ZSt20__throw_length_errorPKc)
	jirl	$ra, $ra, 0
.LBB4_379:
	pcalau12i	$a0, %pc_hi20(.L.str.13)
	addi.d	$a0, $a0, %pc_lo12(.L.str.13)
	pcaddu18i	$ra, %call36(_ZSt20__throw_length_errorPKc)
	jirl	$ra, $ra, 0
.Lfunc_end4:
	.size	_ZN7GenMesh11generatePieERSt6vectorI7double2SaIS1_EERS0_IiSaIiEES7_S7_S7_S7_S7_S7_S7_S7_, .Lfunc_end4-_ZN7GenMesh11generatePieERSt6vectorI7double2SaIS1_EERS0_IiSaIiEES7_S7_S7_S7_S7_S7_S7_S7_
	.cfi_endproc
                                        # -- End function
	.globl	_ZN7GenMesh12generateRectERSt6vectorI7double2SaIS1_EERS0_IiSaIiEES7_S7_S7_S7_S7_S7_S7_S7_ # -- Begin function _ZN7GenMesh12generateRectERSt6vectorI7double2SaIS1_EERS0_IiSaIiEES7_S7_S7_S7_S7_S7_S7_S7_
	.p2align	5
	.type	_ZN7GenMesh12generateRectERSt6vectorI7double2SaIS1_EERS0_IiSaIiEES7_S7_S7_S7_S7_S7_S7_S7_,@function
_ZN7GenMesh12generateRectERSt6vectorI7double2SaIS1_EERS0_IiSaIiEES7_S7_S7_S7_S7_S7_S7_S7_: # @_ZN7GenMesh12generateRectERSt6vectorI7double2SaIS1_EERS0_IiSaIiEES7_S7_S7_S7_S7_S7_S7_S7_
	.cfi_startproc
# %bb.0:
	addi.d	$sp, $sp, -240
	.cfi_def_cfa_offset 240
	st.d	$ra, $sp, 232                   # 8-byte Folded Spill
	st.d	$fp, $sp, 224                   # 8-byte Folded Spill
	st.d	$s0, $sp, 216                   # 8-byte Folded Spill
	st.d	$s1, $sp, 208                   # 8-byte Folded Spill
	st.d	$s2, $sp, 200                   # 8-byte Folded Spill
	st.d	$s3, $sp, 192                   # 8-byte Folded Spill
	st.d	$s4, $sp, 184                   # 8-byte Folded Spill
	st.d	$s5, $sp, 176                   # 8-byte Folded Spill
	st.d	$s6, $sp, 168                   # 8-byte Folded Spill
	st.d	$s7, $sp, 160                   # 8-byte Folded Spill
	st.d	$s8, $sp, 152                   # 8-byte Folded Spill
	fst.d	$fs0, $sp, 144                  # 8-byte Folded Spill
	fst.d	$fs1, $sp, 136                  # 8-byte Folded Spill
	fst.d	$fs2, $sp, 128                  # 8-byte Folded Spill
	fst.d	$fs3, $sp, 120                  # 8-byte Folded Spill
	.cfi_offset 1, -8
	.cfi_offset 22, -16
	.cfi_offset 23, -24
	.cfi_offset 24, -32
	.cfi_offset 25, -40
	.cfi_offset 26, -48
	.cfi_offset 27, -56
	.cfi_offset 28, -64
	.cfi_offset 29, -72
	.cfi_offset 30, -80
	.cfi_offset 31, -88
	.cfi_offset 56, -96
	.cfi_offset 57, -104
	.cfi_offset 58, -112
	.cfi_offset 59, -120
	move	$s4, $a0
	ld.w	$a0, $a0, 72
	ld.w	$t0, $s4, 76
	st.d	$a0, $sp, 64                    # 8-byte Folded Spill
	addi.d	$a0, $a0, 1
	st.d	$t0, $sp, 48                    # 8-byte Folded Spill
	addi.d	$t0, $t0, 1
	st.d	$t0, $sp, 16                    # 8-byte Folded Spill
	mul.w	$s0, $t0, $a0
	st.d	$a7, $sp, 40                    # 8-byte Folded Spill
	bltz	$s0, .LBB5_318
# %bb.1:
	move	$s3, $a4
	move	$s6, $a1
	st.d	$a0, $sp, 56                    # 8-byte Folded Spill
	ld.d	$fp, $a1, 16
	ld.d	$s7, $a1, 0
	sub.d	$s8, $fp, $s7
	srai.d	$a0, $s8, 4
	st.d	$a6, $sp, 32                    # 8-byte Folded Spill
	st.d	$a5, $sp, 24                    # 8-byte Folded Spill
	st.d	$a3, $sp, 72                    # 8-byte Folded Spill
	st.d	$a2, $sp, 96                    # 8-byte Folded Spill
	st.d	$s0, $sp, 8                     # 8-byte Folded Spill
	bgeu	$a0, $s0, .LBB5_8
# %bb.2:                                # %_ZNSt12_Vector_baseI7double2SaIS0_EE11_M_allocateEm.exit.i.i
	ld.d	$fp, $s6, 8
	slli.d	$a0, $s0, 4
	pcaddu18i	$ra, %call36(_Znwm)
	jirl	$ra, $ra, 0
	move	$s5, $a0
	beq	$fp, $s7, .LBB5_5
# %bb.3:                                # %.lr.ph.i.i.i.i.i.preheader
	move	$a0, $s7
	move	$a1, $s5
	.p2align	4, , 16
.LBB5_4:                                # %.lr.ph.i.i.i.i.i
                                        # =>This Inner Loop Header: Depth=1
	vld	$vr0, $a0, 0
	vst	$vr0, $a1, 0
	addi.d	$a0, $a0, 16
	addi.d	$a1, $a1, 16
	bne	$a0, $fp, .LBB5_4
.LBB5_5:                                # %_ZNSt6vectorI7double2SaIS0_EE20_M_allocate_and_copyIPKS0_EEPS0_mT_S7_.exit.i
	sub.d	$fp, $fp, $s7
	beqz	$s7, .LBB5_7
# %bb.6:
	move	$a0, $s7
	move	$a1, $s8
	pcaddu18i	$ra, %call36(_ZdlPvm)
	jirl	$ra, $ra, 0
.LBB5_7:                                # %_ZNSt12_Vector_baseI7double2SaIS0_EE13_M_deallocateEPS0_m.exit.i
	st.d	$s5, $s6, 0
	add.d	$a0, $s5, $fp
	st.d	$a0, $s6, 8
	alsl.d	$fp, $s0, $s5, 4
	st.d	$fp, $s6, 16
	st.d	$s4, $sp, 104                   # 8-byte Folded Spill
	ld.d	$s8, $sp, 64                    # 8-byte Folded Reload
	ld.d	$a0, $sp, 48                    # 8-byte Folded Reload
	bgez	$a0, .LBB5_9
	b	.LBB5_22
.LBB5_8:
	move	$s5, $s7
	st.d	$s4, $sp, 104                   # 8-byte Folded Spill
	ld.d	$s8, $sp, 64                    # 8-byte Folded Reload
	ld.d	$a0, $sp, 48                    # 8-byte Folded Reload
	bltz	$a0, .LBB5_22
.LBB5_9:                                # %.lr.ph408
	bltz	$s8, .LBB5_22
# %bb.10:                               # %.lr.ph.preheader
	ld.w	$a0, $s4, 32
	move	$a1, $zero
	fld.d	$fa0, $s4, 40
	movgr2fr.w	$fa1, $a0
	ld.w	$a0, $s4, 36
	ffint.d.w	$fa1, $fa1
	fld.d	$fa2, $s4, 48
	fdiv.d	$fs0, $fa0, $fa1
	movgr2fr.w	$fa0, $a0
	ffint.d.w	$fa0, $fa0
	fdiv.d	$fs1, $fa2, $fa0
	ld.d	$a0, $s6, 8
	addi.w	$a2, $zero, -16
	lu52i.d	$a2, $a2, 2047
	st.d	$a2, $sp, 112                   # 8-byte Folded Spill
	addi.w	$a2, $zero, -1
	lu52i.d	$s1, $a2, 127
	b	.LBB5_12
	.p2align	4, , 16
.LBB5_11:                               # %._crit_edge
                                        #   in Loop: Header=BB5_12 Depth=1
	ld.d	$a3, $sp, 88                    # 8-byte Folded Reload
	addi.w	$a1, $a3, 1
	ld.d	$a2, $sp, 48                    # 8-byte Folded Reload
	beq	$a3, $a2, .LBB5_22
.LBB5_12:                               # %.lr.ph
                                        # =>This Loop Header: Depth=1
                                        #     Child Loop BB5_14 Depth 2
                                        #       Child Loop BB5_18 Depth 3
	ld.w	$a3, $s4, 84
	move	$a2, $zero
	st.d	$a1, $sp, 88                    # 8-byte Folded Spill
	add.d	$a1, $a3, $a1
	movgr2fr.w	$fa0, $a1
	ffint.d.w	$fa0, $fa0
	fmul.d	$fs2, $fs1, $fa0
	b	.LBB5_14
	.p2align	4, , 16
.LBB5_13:                               #   in Loop: Header=BB5_14 Depth=2
	fst.d	$fs3, $a0, 0
	fst.d	$fs2, $a0, 8
	addi.d	$a0, $a0, 16
	st.d	$a0, $s6, 8
	addi.w	$a2, $s2, 1
	beq	$s2, $s8, .LBB5_11
.LBB5_14:                               #   Parent Loop BB5_12 Depth=1
                                        # =>  This Loop Header: Depth=2
                                        #       Child Loop BB5_18 Depth 3
	ld.w	$a1, $s4, 80
	move	$s2, $a2
	add.d	$a1, $a1, $a2
	movgr2fr.w	$fa0, $a1
	ffint.d.w	$fa0, $fa0
	fmul.d	$fs3, $fs0, $fa0
	bne	$a0, $fp, .LBB5_13
# %bb.15:                               #   in Loop: Header=BB5_14 Depth=2
	sub.d	$s8, $fp, $s5
	ld.d	$a0, $sp, 112                   # 8-byte Folded Reload
	beq	$s8, $a0, .LBB5_317
# %bb.16:                               # %.noexc342
                                        #   in Loop: Header=BB5_14 Depth=2
	srai.d	$a0, $s8, 4
	ori	$a2, $zero, 1
	sltu	$a1, $a2, $a0
	masknez	$a2, $a2, $a1
	maskeqz	$a1, $a0, $a1
	or	$a1, $a1, $a2
	add.d	$a0, $a1, $a0
	sltu	$a1, $a0, $s1
	maskeqz	$a0, $a0, $a1
	masknez	$a1, $s1, $a1
	or	$s4, $a0, $a1
	slli.d	$a0, $s4, 4
	pcaddu18i	$ra, %call36(_Znwm)
	jirl	$ra, $ra, 0
	move	$s0, $a0
	add.d	$a0, $a0, $s8
	fstx.d	$fs3, $s0, $s8
	fst.d	$fs2, $a0, 8
	move	$s7, $s0
	beq	$s5, $fp, .LBB5_19
# %bb.17:                               # %.lr.ph.i.i.i.i.i.i.preheader
                                        #   in Loop: Header=BB5_14 Depth=2
	move	$a0, $s5
	move	$s7, $s0
	.p2align	4, , 16
.LBB5_18:                               # %.lr.ph.i.i.i.i.i.i
                                        #   Parent Loop BB5_12 Depth=1
                                        #     Parent Loop BB5_14 Depth=2
                                        # =>    This Inner Loop Header: Depth=3
	vld	$vr0, $a0, 0
	vst	$vr0, $s7, 0
	addi.d	$a0, $a0, 16
	addi.d	$s7, $s7, 16
	bne	$a0, $fp, .LBB5_18
.LBB5_19:                               # %_ZSt34__uninitialized_move_if_noexcept_aIP7double2S1_SaIS0_EET0_T_S4_S3_RT1_.exit.i.i
                                        #   in Loop: Header=BB5_14 Depth=2
	beqz	$s5, .LBB5_21
# %bb.20:                               # %_ZNSt12_Vector_baseI7double2SaIS0_EE13_M_deallocateEPS0_m.exit.i.i.i
                                        #   in Loop: Header=BB5_14 Depth=2
	move	$a0, $s5
	move	$a1, $s8
	pcaddu18i	$ra, %call36(_ZdlPvm)
	jirl	$ra, $ra, 0
.LBB5_21:                               # %_ZNSt6vectorI7double2SaIS0_EE17_M_realloc_appendIJS0_EEEvDpOT_.exit.i
                                        #   in Loop: Header=BB5_14 Depth=2
	addi.d	$a0, $s7, 16
	st.d	$s0, $s6, 0
	st.d	$a0, $s6, 8
	alsl.d	$fp, $s4, $s0, 4
	st.d	$fp, $s6, 16
	move	$s5, $s0
	ld.d	$s4, $sp, 104                   # 8-byte Folded Reload
	ld.d	$s8, $sp, 64                    # 8-byte Folded Reload
	addi.w	$a2, $s2, 1
	bne	$s2, $s8, .LBB5_14
	b	.LBB5_11
.LBB5_22:                               # %._crit_edge409
	ld.d	$a0, $sp, 48                    # 8-byte Folded Reload
	mul.w	$fp, $a0, $s8
	bltz	$fp, .LBB5_318
# %bb.23:
	ld.d	$a4, $sp, 96                    # 8-byte Folded Reload
	ld.d	$a0, $a4, 16
	ld.d	$s0, $a4, 0
	sub.d	$s6, $a0, $s0
	srai.d	$a0, $s6, 2
	ld.d	$s2, $sp, 72                    # 8-byte Folded Reload
	bgeu	$a0, $fp, .LBB5_29
# %bb.24:                               # %_ZNSt12_Vector_baseIiSaIiEE11_M_allocateEm.exit.i
	ld.d	$s1, $a4, 8
	sub.d	$s7, $s1, $s0
	slli.d	$a0, $fp, 2
	pcaddu18i	$ra, %call36(_Znwm)
	jirl	$ra, $ra, 0
	move	$s8, $a0
	beq	$s1, $s0, .LBB5_26
# %bb.25:
	move	$a0, $s8
	move	$a1, $s0
	move	$a2, $s7
	pcaddu18i	$ra, %call36(memcpy)
	jirl	$ra, $ra, 0
.LBB5_26:                               # %_ZNSt6vectorIiSaIiEE11_S_relocateEPiS2_S2_RS0_.exit.i
	beqz	$s0, .LBB5_28
# %bb.27:
	move	$a0, $s0
	move	$a1, $s6
	pcaddu18i	$ra, %call36(_ZdlPvm)
	jirl	$ra, $ra, 0
.LBB5_28:                               # %_ZNSt12_Vector_baseIiSaIiEE13_M_deallocateEPim.exit.i
	ld.d	$a4, $sp, 96                    # 8-byte Folded Reload
	st.d	$s8, $a4, 0
	add.d	$a0, $s8, $s7
	st.d	$a0, $a4, 8
	alsl.d	$a0, $fp, $s8, 2
	st.d	$a0, $a4, 16
	ld.d	$s8, $sp, 64                    # 8-byte Folded Reload
.LBB5_29:                               # %_ZNSt6vectorIiSaIiEE7reserveEm.exit
	ld.d	$a0, $s2, 16
	ld.d	$s0, $s2, 0
	sub.d	$s6, $a0, $s0
	srai.d	$a0, $s6, 2
	bgeu	$a0, $fp, .LBB5_35
# %bb.30:                               # %_ZNSt12_Vector_baseIiSaIiEE11_M_allocateEm.exit.i137
	ld.d	$s1, $s2, 8
	sub.d	$s7, $s1, $s0
	slli.d	$a0, $fp, 2
	pcaddu18i	$ra, %call36(_Znwm)
	jirl	$ra, $ra, 0
	move	$s8, $a0
	beq	$s1, $s0, .LBB5_32
# %bb.31:
	move	$a0, $s8
	move	$a1, $s0
	move	$a2, $s7
	pcaddu18i	$ra, %call36(memcpy)
	jirl	$ra, $ra, 0
.LBB5_32:                               # %_ZNSt6vectorIiSaIiEE11_S_relocateEPiS2_S2_RS0_.exit.i139
	beqz	$s0, .LBB5_34
# %bb.33:
	move	$a0, $s0
	move	$a1, $s6
	pcaddu18i	$ra, %call36(_ZdlPvm)
	jirl	$ra, $ra, 0
.LBB5_34:                               # %_ZNSt12_Vector_baseIiSaIiEE13_M_deallocateEPim.exit.i141
	st.d	$s8, $s2, 0
	add.d	$a0, $s8, $s7
	st.d	$a0, $s2, 8
	alsl.d	$a0, $fp, $s8, 2
	st.d	$a0, $s2, 16
	ld.d	$s8, $sp, 64                    # 8-byte Folded Reload
	ld.d	$a4, $sp, 96                    # 8-byte Folded Reload
.LBB5_35:                               # %_ZNSt6vectorIiSaIiEE7reserveEm.exit142
	ld.d	$a0, $s3, 16
	ld.d	$s0, $s3, 0
	slli.w	$fp, $fp, 2
	sub.d	$s6, $a0, $s0
	srai.d	$a0, $s6, 2
	bgeu	$a0, $fp, .LBB5_41
# %bb.36:                               # %_ZNSt12_Vector_baseIiSaIiEE11_M_allocateEm.exit.i143
	ld.d	$s1, $s3, 8
	sub.d	$s7, $s1, $s0
	slli.d	$a0, $fp, 2
	pcaddu18i	$ra, %call36(_Znwm)
	jirl	$ra, $ra, 0
	move	$s8, $a0
	beq	$s1, $s0, .LBB5_38
# %bb.37:
	move	$a0, $s8
	move	$a1, $s0
	move	$a2, $s7
	pcaddu18i	$ra, %call36(memcpy)
	jirl	$ra, $ra, 0
.LBB5_38:                               # %_ZNSt6vectorIiSaIiEE11_S_relocateEPiS2_S2_RS0_.exit.i145
	beqz	$s0, .LBB5_40
# %bb.39:
	move	$a0, $s0
	move	$a1, $s6
	pcaddu18i	$ra, %call36(_ZdlPvm)
	jirl	$ra, $ra, 0
.LBB5_40:                               # %_ZNSt12_Vector_baseIiSaIiEE13_M_deallocateEPim.exit.i147
	st.d	$s8, $s3, 0
	add.d	$a0, $s8, $s7
	st.d	$a0, $s3, 8
	alsl.d	$a0, $fp, $s8, 2
	st.d	$a0, $s3, 16
	ld.d	$s8, $sp, 64                    # 8-byte Folded Reload
	ld.d	$a4, $sp, 96                    # 8-byte Folded Reload
.LBB5_41:                               # %_ZNSt6vectorIiSaIiEE7reserveEm.exit148
	ld.w	$a1, $s4, 76
	blez	$a1, .LBB5_93
# %bb.42:                               # %.preheader.lr.ph
	ld.w	$a0, $s4, 72
	blez	$a0, .LBB5_93
# %bb.43:                               # %.preheader.preheader
	st.d	$zero, $sp, 88                  # 8-byte Folded Spill
	move	$s5, $zero
	addi.w	$a2, $zero, -4
	lu52i.d	$a2, $a2, 2047
	st.d	$a2, $sp, 112                   # 8-byte Folded Spill
	addi.w	$a2, $zero, -1
	lu52i.d	$fp, $a2, 511
	b	.LBB5_46
	.p2align	4, , 16
.LBB5_44:                               # %._crit_edge412.loopexit
                                        #   in Loop: Header=BB5_46 Depth=1
	ld.w	$a1, $s4, 76
	ld.d	$s8, $sp, 64                    # 8-byte Folded Reload
.LBB5_45:                               # %._crit_edge412
                                        #   in Loop: Header=BB5_46 Depth=1
	addi.w	$s5, $s5, 1
	ld.d	$a2, $sp, 88                    # 8-byte Folded Reload
	ld.d	$a3, $sp, 56                    # 8-byte Folded Reload
	add.d	$a2, $a2, $a3
	st.d	$a2, $sp, 88                    # 8-byte Folded Spill
	bge	$s5, $a1, .LBB5_93
.LBB5_46:                               # %.preheader
                                        # =>This Loop Header: Depth=1
                                        #     Child Loop BB5_50 Depth 2
	blez	$a0, .LBB5_45
# %bb.47:                               # %.lr.ph411
                                        #   in Loop: Header=BB5_46 Depth=1
	ld.d	$a1, $s3, 8
	move	$a0, $s8
	move	$s8, $zero
	ld.d	$a2, $sp, 88                    # 8-byte Folded Reload
	add.d	$a0, $a0, $a2
	st.d	$a0, $sp, 80                    # 8-byte Folded Spill
	b	.LBB5_50
	.p2align	4, , 16
.LBB5_48:                               #   in Loop: Header=BB5_50 Depth=2
	st.w	$s4, $a1, 0
	addi.d	$a1, $a1, 4
	st.d	$a1, $s3, 8
	ld.d	$s4, $sp, 104                   # 8-byte Folded Reload
.LBB5_49:                               # %_ZNSt6vectorIiSaIiEE9push_backEOi.exit182
                                        #   in Loop: Header=BB5_50 Depth=2
	ld.d	$a4, $sp, 96                    # 8-byte Folded Reload
	ld.w	$a0, $s4, 72
	addi.w	$s8, $s8, 1
	bge	$s8, $a0, .LBB5_44
.LBB5_50:                               #   Parent Loop BB5_46 Depth=1
                                        # =>  This Inner Loop Header: Depth=2
	ld.d	$a2, $s3, 0
	ld.d	$a0, $a4, 8
	ld.d	$a3, $a4, 16
	sub.d	$a1, $a1, $a2
	srai.d	$s4, $a1, 2
	beq	$a0, $a3, .LBB5_53
# %bb.51:                               #   in Loop: Header=BB5_50 Depth=2
	st.w	$s4, $a0, 0
	addi.d	$a0, $a0, 4
	st.d	$a0, $a4, 8
	ld.d	$a0, $s2, 8
	ld.d	$a1, $s2, 16
	beq	$a0, $a1, .LBB5_59
.LBB5_52:                               #   in Loop: Header=BB5_50 Depth=2
	ori	$a1, $zero, 4
	st.w	$a1, $a0, 0
	addi.d	$a0, $a0, 4
	st.d	$a0, $s2, 8
	b	.LBB5_65
	.p2align	4, , 16
.LBB5_53:                               #   in Loop: Header=BB5_50 Depth=2
	ld.d	$s0, $a4, 0
	sub.d	$s6, $a0, $s0
	ld.d	$a0, $sp, 112                   # 8-byte Folded Reload
	beq	$s6, $a0, .LBB5_317
# %bb.54:                               # %_ZNKSt6vectorIiSaIiEE12_M_check_lenEmPKc.exit.i.i.i
                                        #   in Loop: Header=BB5_50 Depth=2
	srai.d	$a0, $s6, 2
	ori	$a2, $zero, 1
	sltu	$a1, $a2, $a0
	masknez	$a2, $a2, $a1
	maskeqz	$a1, $a0, $a1
	or	$a1, $a1, $a2
	add.d	$a0, $a1, $a0
	sltu	$a1, $a0, $fp
	maskeqz	$a0, $a0, $a1
	masknez	$a1, $fp, $a1
	or	$s1, $a0, $a1
	slli.d	$a0, $s1, 2
	pcaddu18i	$ra, %call36(_Znwm)
	jirl	$ra, $ra, 0
	move	$s7, $a0
	stx.w	$s4, $a0, $s6
	blez	$s6, .LBB5_56
# %bb.55:                               #   in Loop: Header=BB5_50 Depth=2
	move	$a0, $s7
	move	$a1, $s0
	move	$a2, $s6
	pcaddu18i	$ra, %call36(memcpy)
	jirl	$ra, $ra, 0
.LBB5_56:                               # %_ZNSt6vectorIiSaIiEE11_S_relocateEPiS2_S2_RS0_.exit.i.i.i
                                        #   in Loop: Header=BB5_50 Depth=2
	beqz	$s0, .LBB5_58
# %bb.57:                               # %_ZNSt12_Vector_baseIiSaIiEE13_M_deallocateEPim.exit.i.i.i.i
                                        #   in Loop: Header=BB5_50 Depth=2
	move	$a0, $s0
	move	$a1, $s6
	pcaddu18i	$ra, %call36(_ZdlPvm)
	jirl	$ra, $ra, 0
.LBB5_58:                               # %_ZNSt6vectorIiSaIiEE17_M_realloc_appendIJiEEEvDpOT_.exit.i.i
                                        #   in Loop: Header=BB5_50 Depth=2
	add.d	$a0, $s7, $s6
	addi.d	$a0, $a0, 4
	ld.d	$a1, $sp, 96                    # 8-byte Folded Reload
	st.d	$s7, $a1, 0
	st.d	$a0, $a1, 8
	alsl.d	$a0, $s1, $s7, 2
	st.d	$a0, $a1, 16
	ld.d	$a0, $s2, 8
	ld.d	$a1, $s2, 16
	bne	$a0, $a1, .LBB5_52
.LBB5_59:                               #   in Loop: Header=BB5_50 Depth=2
	ld.d	$s0, $s2, 0
	sub.d	$s6, $a0, $s0
	ld.d	$a0, $sp, 112                   # 8-byte Folded Reload
	beq	$s6, $a0, .LBB5_317
# %bb.60:                               # %_ZNKSt6vectorIiSaIiEE12_M_check_lenEmPKc.exit.i.i.i151
                                        #   in Loop: Header=BB5_50 Depth=2
	srai.d	$a0, $s6, 2
	ori	$a2, $zero, 1
	sltu	$a1, $a2, $a0
	masknez	$a2, $a2, $a1
	maskeqz	$a1, $a0, $a1
	or	$a1, $a1, $a2
	add.d	$a0, $a1, $a0
	sltu	$a1, $a0, $fp
	maskeqz	$a0, $a0, $a1
	masknez	$a1, $fp, $a1
	or	$s1, $a0, $a1
	slli.d	$a0, $s1, 2
	pcaddu18i	$ra, %call36(_Znwm)
	jirl	$ra, $ra, 0
	move	$s7, $a0
	ori	$a0, $zero, 4
	stx.w	$a0, $s7, $s6
	blez	$s6, .LBB5_62
# %bb.61:                               #   in Loop: Header=BB5_50 Depth=2
	move	$a0, $s7
	move	$a1, $s0
	move	$a2, $s6
	pcaddu18i	$ra, %call36(memcpy)
	jirl	$ra, $ra, 0
.LBB5_62:                               # %_ZNSt6vectorIiSaIiEE11_S_relocateEPiS2_S2_RS0_.exit.i.i.i153
                                        #   in Loop: Header=BB5_50 Depth=2
	beqz	$s0, .LBB5_64
# %bb.63:                               # %_ZNSt12_Vector_baseIiSaIiEE13_M_deallocateEPim.exit.i.i.i.i155
                                        #   in Loop: Header=BB5_50 Depth=2
	move	$a0, $s0
	move	$a1, $s6
	pcaddu18i	$ra, %call36(_ZdlPvm)
	jirl	$ra, $ra, 0
.LBB5_64:                               # %_ZNSt6vectorIiSaIiEE17_M_realloc_appendIJiEEEvDpOT_.exit.i.i156
                                        #   in Loop: Header=BB5_50 Depth=2
	add.d	$a0, $s7, $s6
	addi.d	$a0, $a0, 4
	st.d	$s7, $s2, 0
	st.d	$a0, $s2, 8
	alsl.d	$a0, $s1, $s7, 2
	st.d	$a0, $s2, 16
.LBB5_65:                               # %_ZNSt6vectorIiSaIiEE9push_backEOi.exit157
                                        #   in Loop: Header=BB5_50 Depth=2
	ld.d	$a1, $s3, 8
	ld.d	$a0, $s3, 16
	ld.d	$a2, $sp, 88                    # 8-byte Folded Reload
	add.d	$s1, $a2, $s8
	beq	$a1, $a0, .LBB5_69
# %bb.66:                               #   in Loop: Header=BB5_50 Depth=2
	st.w	$s1, $a1, 0
	addi.d	$a1, $a1, 4
	st.d	$a1, $s3, 8
	addi.d	$s4, $s1, 1
	beq	$a1, $a0, .LBB5_75
.LBB5_67:                               #   in Loop: Header=BB5_50 Depth=2
	st.w	$s4, $a1, 0
	addi.d	$a1, $a1, 4
	st.d	$a1, $s3, 8
	ld.d	$a2, $sp, 80                    # 8-byte Folded Reload
	add.d	$s1, $a2, $s8
	addi.d	$s2, $s1, 2
	beq	$a1, $a0, .LBB5_81
.LBB5_68:                               #   in Loop: Header=BB5_50 Depth=2
	st.w	$s2, $a1, 0
	addi.d	$a1, $a1, 4
	st.d	$a1, $s3, 8
	ld.d	$s2, $sp, 72                    # 8-byte Folded Reload
	addi.d	$s4, $s1, 1
	bne	$a1, $a0, .LBB5_48
	b	.LBB5_87
	.p2align	4, , 16
.LBB5_69:                               #   in Loop: Header=BB5_50 Depth=2
	ld.d	$s0, $s3, 0
	sub.d	$s6, $a1, $s0
	ld.d	$a0, $sp, 112                   # 8-byte Folded Reload
	beq	$s6, $a0, .LBB5_317
# %bb.70:                               # %_ZNKSt6vectorIiSaIiEE12_M_check_lenEmPKc.exit.i.i
                                        #   in Loop: Header=BB5_50 Depth=2
	srai.d	$a0, $s6, 2
	ori	$a2, $zero, 1
	sltu	$a1, $a2, $a0
	masknez	$a2, $a2, $a1
	maskeqz	$a1, $a0, $a1
	or	$a1, $a1, $a2
	add.d	$a0, $a1, $a0
	sltu	$a1, $a0, $fp
	maskeqz	$a0, $a0, $a1
	masknez	$a1, $fp, $a1
	or	$s4, $a0, $a1
	slli.d	$a0, $s4, 2
	pcaddu18i	$ra, %call36(_Znwm)
	jirl	$ra, $ra, 0
	move	$s7, $a0
	stx.w	$s1, $a0, $s6
	blez	$s6, .LBB5_72
# %bb.71:                               #   in Loop: Header=BB5_50 Depth=2
	move	$a0, $s7
	move	$a1, $s0
	move	$a2, $s6
	pcaddu18i	$ra, %call36(memcpy)
	jirl	$ra, $ra, 0
.LBB5_72:                               # %_ZNSt6vectorIiSaIiEE11_S_relocateEPiS2_S2_RS0_.exit.i.i
                                        #   in Loop: Header=BB5_50 Depth=2
	beqz	$s0, .LBB5_74
# %bb.73:                               # %_ZNSt12_Vector_baseIiSaIiEE13_M_deallocateEPim.exit.i.i.i
                                        #   in Loop: Header=BB5_50 Depth=2
	move	$a0, $s0
	move	$a1, $s6
	pcaddu18i	$ra, %call36(_ZdlPvm)
	jirl	$ra, $ra, 0
.LBB5_74:                               # %_ZNSt6vectorIiSaIiEE17_M_realloc_appendIJRKiEEEvDpOT_.exit.i
                                        #   in Loop: Header=BB5_50 Depth=2
	add.d	$a0, $s7, $s6
	addi.d	$a1, $a0, 4
	st.d	$s7, $s3, 0
	st.d	$a1, $s3, 8
	alsl.d	$a0, $s4, $s7, 2
	st.d	$a0, $s3, 16
	addi.d	$s4, $s1, 1
	bne	$a1, $a0, .LBB5_67
.LBB5_75:                               #   in Loop: Header=BB5_50 Depth=2
	ld.d	$s0, $s3, 0
	sub.d	$s6, $a0, $s0
	ld.d	$a0, $sp, 112                   # 8-byte Folded Reload
	beq	$s6, $a0, .LBB5_317
# %bb.76:                               # %_ZNKSt6vectorIiSaIiEE12_M_check_lenEmPKc.exit.i.i.i160
                                        #   in Loop: Header=BB5_50 Depth=2
	srai.d	$a0, $s6, 2
	ori	$a2, $zero, 1
	sltu	$a1, $a2, $a0
	masknez	$a2, $a2, $a1
	maskeqz	$a1, $a0, $a1
	or	$a1, $a1, $a2
	add.d	$a0, $a1, $a0
	sltu	$a1, $a0, $fp
	maskeqz	$a0, $a0, $a1
	masknez	$a1, $fp, $a1
	or	$s1, $a0, $a1
	slli.d	$a0, $s1, 2
	pcaddu18i	$ra, %call36(_Znwm)
	jirl	$ra, $ra, 0
	move	$s7, $a0
	stx.w	$s4, $a0, $s6
	blez	$s6, .LBB5_78
# %bb.77:                               #   in Loop: Header=BB5_50 Depth=2
	move	$a0, $s7
	move	$a1, $s0
	move	$a2, $s6
	pcaddu18i	$ra, %call36(memcpy)
	jirl	$ra, $ra, 0
.LBB5_78:                               # %_ZNSt6vectorIiSaIiEE11_S_relocateEPiS2_S2_RS0_.exit.i.i.i162
                                        #   in Loop: Header=BB5_50 Depth=2
	beqz	$s0, .LBB5_80
# %bb.79:                               # %_ZNSt12_Vector_baseIiSaIiEE13_M_deallocateEPim.exit.i.i.i.i164
                                        #   in Loop: Header=BB5_50 Depth=2
	move	$a0, $s0
	move	$a1, $s6
	pcaddu18i	$ra, %call36(_ZdlPvm)
	jirl	$ra, $ra, 0
.LBB5_80:                               # %_ZNSt6vectorIiSaIiEE17_M_realloc_appendIJiEEEvDpOT_.exit.i.i165
                                        #   in Loop: Header=BB5_50 Depth=2
	add.d	$a0, $s7, $s6
	addi.d	$a1, $a0, 4
	st.d	$s7, $s3, 0
	st.d	$a1, $s3, 8
	alsl.d	$a0, $s1, $s7, 2
	st.d	$a0, $s3, 16
	ld.d	$a2, $sp, 80                    # 8-byte Folded Reload
	add.d	$s1, $a2, $s8
	addi.d	$s2, $s1, 2
	bne	$a1, $a0, .LBB5_68
.LBB5_81:                               #   in Loop: Header=BB5_50 Depth=2
	ld.d	$s0, $s3, 0
	sub.d	$s6, $a0, $s0
	ld.d	$a0, $sp, 112                   # 8-byte Folded Reload
	beq	$s6, $a0, .LBB5_317
# %bb.82:                               # %_ZNKSt6vectorIiSaIiEE12_M_check_lenEmPKc.exit.i.i.i168
                                        #   in Loop: Header=BB5_50 Depth=2
	srai.d	$a0, $s6, 2
	ori	$a2, $zero, 1
	sltu	$a1, $a2, $a0
	masknez	$a2, $a2, $a1
	maskeqz	$a1, $a0, $a1
	or	$a1, $a1, $a2
	add.d	$a0, $a1, $a0
	sltu	$a1, $a0, $fp
	maskeqz	$a0, $a0, $a1
	masknez	$a1, $fp, $a1
	or	$s4, $a0, $a1
	slli.d	$a0, $s4, 2
	pcaddu18i	$ra, %call36(_Znwm)
	jirl	$ra, $ra, 0
	move	$s7, $a0
	stx.w	$s2, $a0, $s6
	blez	$s6, .LBB5_84
# %bb.83:                               #   in Loop: Header=BB5_50 Depth=2
	move	$a0, $s7
	move	$a1, $s0
	move	$a2, $s6
	pcaddu18i	$ra, %call36(memcpy)
	jirl	$ra, $ra, 0
.LBB5_84:                               # %_ZNSt6vectorIiSaIiEE11_S_relocateEPiS2_S2_RS0_.exit.i.i.i170
                                        #   in Loop: Header=BB5_50 Depth=2
	ld.d	$s2, $sp, 72                    # 8-byte Folded Reload
	beqz	$s0, .LBB5_86
# %bb.85:                               # %_ZNSt12_Vector_baseIiSaIiEE13_M_deallocateEPim.exit.i.i.i.i172
                                        #   in Loop: Header=BB5_50 Depth=2
	move	$a0, $s0
	move	$a1, $s6
	pcaddu18i	$ra, %call36(_ZdlPvm)
	jirl	$ra, $ra, 0
.LBB5_86:                               # %_ZNSt6vectorIiSaIiEE17_M_realloc_appendIJiEEEvDpOT_.exit.i.i173
                                        #   in Loop: Header=BB5_50 Depth=2
	add.d	$a0, $s7, $s6
	addi.d	$a1, $a0, 4
	st.d	$s7, $s3, 0
	st.d	$a1, $s3, 8
	alsl.d	$a0, $s4, $s7, 2
	st.d	$a0, $s3, 16
	addi.d	$s4, $s1, 1
	bne	$a1, $a0, .LBB5_48
.LBB5_87:                               #   in Loop: Header=BB5_50 Depth=2
	ld.d	$s0, $s3, 0
	sub.d	$s6, $a0, $s0
	ld.d	$a0, $sp, 112                   # 8-byte Folded Reload
	beq	$s6, $a0, .LBB5_317
# %bb.88:                               # %_ZNKSt6vectorIiSaIiEE12_M_check_lenEmPKc.exit.i.i.i176
                                        #   in Loop: Header=BB5_50 Depth=2
	srai.d	$a0, $s6, 2
	ori	$a2, $zero, 1
	sltu	$a1, $a2, $a0
	masknez	$a2, $a2, $a1
	maskeqz	$a1, $a0, $a1
	or	$a1, $a1, $a2
	add.d	$a0, $a1, $a0
	sltu	$a1, $a0, $fp
	maskeqz	$a0, $a0, $a1
	masknez	$a1, $fp, $a1
	or	$s1, $a0, $a1
	slli.d	$a0, $s1, 2
	pcaddu18i	$ra, %call36(_Znwm)
	jirl	$ra, $ra, 0
	move	$s7, $a0
	stx.w	$s4, $a0, $s6
	blez	$s6, .LBB5_90
# %bb.89:                               #   in Loop: Header=BB5_50 Depth=2
	move	$a0, $s7
	move	$a1, $s0
	move	$a2, $s6
	pcaddu18i	$ra, %call36(memcpy)
	jirl	$ra, $ra, 0
.LBB5_90:                               # %_ZNSt6vectorIiSaIiEE11_S_relocateEPiS2_S2_RS0_.exit.i.i.i178
                                        #   in Loop: Header=BB5_50 Depth=2
	ld.d	$s4, $sp, 104                   # 8-byte Folded Reload
	beqz	$s0, .LBB5_92
# %bb.91:                               # %_ZNSt12_Vector_baseIiSaIiEE13_M_deallocateEPim.exit.i.i.i.i180
                                        #   in Loop: Header=BB5_50 Depth=2
	move	$a0, $s0
	move	$a1, $s6
	pcaddu18i	$ra, %call36(_ZdlPvm)
	jirl	$ra, $ra, 0
.LBB5_92:                               # %_ZNSt6vectorIiSaIiEE17_M_realloc_appendIJiEEEvDpOT_.exit.i.i181
                                        #   in Loop: Header=BB5_50 Depth=2
	add.d	$a0, $s7, $s6
	addi.d	$a1, $a0, 4
	st.d	$s7, $s3, 0
	st.d	$a1, $s3, 8
	alsl.d	$a0, $s1, $s7, 2
	st.d	$a0, $s3, 16
	b	.LBB5_49
.LBB5_93:                               # %._crit_edge414
	pcalau12i	$a0, %got_pc_hi20(_ZN8Parallel5numpeE)
	ld.d	$a0, $a0, %got_pc_lo12(_ZN8Parallel5numpeE)
	ld.w	$a0, $a0, 0
	ori	$a1, $zero, 1
	beq	$a0, $a1, .LBB5_316
# %bb.94:
	ld.w	$s1, $s4, 68
	ld.w	$fp, $s4, 64
	sltui	$a0, $s1, 1
	ld.d	$a1, $sp, 56                    # 8-byte Folded Reload
	masknez	$a0, $a1, $a0
	sltui	$a1, $fp, 1
	ld.d	$a2, $sp, 16                    # 8-byte Folded Reload
	masknez	$a1, $a2, $a1
	add.w	$s2, $a1, $a0
	bltz	$s2, .LBB5_318
# %bb.95:
	ld.d	$a1, $sp, 40                    # 8-byte Folded Reload
	ld.d	$a0, $a1, 16
	ld.d	$s4, $a1, 0
	sub.d	$s5, $a0, $s4
	srai.d	$a0, $s5, 2
	bgeu	$a0, $s2, .LBB5_101
# %bb.96:                               # %_ZNSt12_Vector_baseIiSaIiEE11_M_allocateEm.exit.i183
	ld.d	$s6, $a1, 8
	sub.d	$s0, $s6, $s4
	slli.d	$a0, $s2, 2
	pcaddu18i	$ra, %call36(_Znwm)
	jirl	$ra, $ra, 0
	move	$s3, $a0
	beq	$s6, $s4, .LBB5_98
# %bb.97:
	move	$a0, $s3
	move	$a1, $s4
	move	$a2, $s0
	pcaddu18i	$ra, %call36(memcpy)
	jirl	$ra, $ra, 0
.LBB5_98:                               # %_ZNSt6vectorIiSaIiEE11_S_relocateEPiS2_S2_RS0_.exit.i185
	beqz	$s4, .LBB5_100
# %bb.99:
	move	$a0, $s4
	move	$a1, $s5
	pcaddu18i	$ra, %call36(_ZdlPvm)
	jirl	$ra, $ra, 0
	ld.d	$a0, $sp, 104                   # 8-byte Folded Reload
	ld.w	$s1, $a0, 68
	ld.w	$fp, $a0, 64
.LBB5_100:                              # %_ZNSt12_Vector_baseIiSaIiEE13_M_deallocateEPim.exit.i187
	ld.d	$a1, $sp, 40                    # 8-byte Folded Reload
	st.d	$s3, $a1, 0
	add.d	$a0, $s3, $s0
	st.d	$a0, $a1, 8
	alsl.d	$a0, $s2, $s3, 2
	st.d	$a0, $a1, 16
	ld.d	$a2, $sp, 16                    # 8-byte Folded Reload
.LBB5_101:                              # %_ZNSt6vectorIiSaIiEE7reserveEm.exit188
	ld.d	$a1, $sp, 104                   # 8-byte Folded Reload
	ld.w	$a0, $a1, 60
	addi.w	$a0, $a0, -1
	ld.w	$a1, $a1, 56
	xor	$a0, $s1, $a0
	sltui	$a0, $a0, 1
	ld.d	$s5, $sp, 56                    # 8-byte Folded Reload
	masknez	$a0, $s5, $a0
	addi.w	$a1, $a1, -1
	xor	$a1, $fp, $a1
	sltui	$a1, $a1, 1
	masknez	$a1, $a2, $a1
	add.w	$a0, $a1, $a0
	addi.w	$a1, $zero, -2
	bge	$a1, $a0, .LBB5_318
# %bb.102:
	ld.d	$s6, $sp, 256
	ld.d	$a1, $s6, 16
	ld.d	$s3, $s6, 0
	addi.w	$s2, $a0, 1
	sub.d	$s4, $a1, $s3
	srai.d	$a0, $s4, 2
	bgeu	$a0, $s2, .LBB5_108
# %bb.103:                              # %_ZNSt12_Vector_baseIiSaIiEE11_M_allocateEm.exit.i189
	ld.d	$s1, $s6, 8
	sub.d	$s0, $s1, $s3
	slli.d	$a0, $s2, 2
	pcaddu18i	$ra, %call36(_Znwm)
	jirl	$ra, $ra, 0
	move	$s5, $a0
	beq	$s1, $s3, .LBB5_105
# %bb.104:
	move	$a0, $s5
	move	$a1, $s3
	move	$a2, $s0
	pcaddu18i	$ra, %call36(memcpy)
	jirl	$ra, $ra, 0
.LBB5_105:                              # %_ZNSt6vectorIiSaIiEE11_S_relocateEPiS2_S2_RS0_.exit.i191
	ld.d	$s7, $sp, 104                   # 8-byte Folded Reload
	beqz	$s3, .LBB5_107
# %bb.106:
	move	$a0, $s3
	move	$a1, $s4
	pcaddu18i	$ra, %call36(_ZdlPvm)
	jirl	$ra, $ra, 0
	ld.w	$fp, $s7, 64
.LBB5_107:                              # %_ZNSt12_Vector_baseIiSaIiEE13_M_deallocateEPim.exit.i193
	st.d	$s5, $s6, 0
	add.d	$a0, $s5, $s0
	st.d	$a0, $s6, 8
	alsl.d	$a0, $s2, $s5, 2
	st.d	$a0, $s6, 16
	ld.w	$s1, $s7, 68
	move	$s4, $s7
	ld.d	$s5, $sp, 56                    # 8-byte Folded Reload
	ld.d	$s2, $sp, 32                    # 8-byte Folded Reload
	ld.d	$a3, $sp, 40                    # 8-byte Folded Reload
	bnez	$fp, .LBB5_109
	b	.LBB5_134
.LBB5_108:
	ld.d	$s4, $sp, 104                   # 8-byte Folded Reload
	ld.d	$s2, $sp, 32                    # 8-byte Folded Reload
	ld.d	$a3, $sp, 40                    # 8-byte Folded Reload
	beqz	$fp, .LBB5_134
.LBB5_109:                              # %_ZNSt6vectorIiSaIiEE7reserveEm.exit194
	beqz	$s1, .LBB5_134
# %bb.110:
	pcalau12i	$a0, %got_pc_hi20(_ZN8Parallel4mypeE)
	ld.d	$a0, $a0, %got_pc_lo12(_ZN8Parallel4mypeE)
	ld.w	$fp, $a0, 0
	ld.d	$a0, $a3, 8
	ld.d	$a1, $a3, 16
	ld.w	$s1, $s4, 56
	beq	$a0, $a1, .LBB5_112
# %bb.111:
	st.w	$zero, $a0, 0
	addi.d	$a0, $a0, 4
	st.d	$a0, $a3, 8
	b	.LBB5_118
.LBB5_112:
	ld.d	$s3, $a3, 0
	sub.d	$s4, $a0, $s3
	addi.w	$a0, $zero, -4
	lu52i.d	$a0, $a0, 2047
	beq	$s4, $a0, .LBB5_317
# %bb.113:                              # %_ZNKSt6vectorIiSaIiEE12_M_check_lenEmPKc.exit.i.i.i196
	srai.d	$a0, $s4, 2
	ori	$a1, $zero, 1
	sltu	$a2, $a1, $a0
	masknez	$a1, $a1, $a2
	maskeqz	$a2, $a0, $a2
	or	$a1, $a2, $a1
	add.d	$a0, $a1, $a0
	addi.w	$a1, $zero, -1
	lu52i.d	$a1, $a1, 511
	sltu	$a2, $a0, $a1
	maskeqz	$a0, $a0, $a2
	masknez	$a1, $a1, $a2
	or	$s2, $a0, $a1
	slli.d	$a0, $s2, 2
	pcaddu18i	$ra, %call36(_Znwm)
	jirl	$ra, $ra, 0
	move	$s0, $a0
	stx.w	$zero, $a0, $s4
	blez	$s4, .LBB5_115
# %bb.114:
	move	$a0, $s0
	move	$a1, $s3
	move	$a2, $s4
	pcaddu18i	$ra, %call36(memcpy)
	jirl	$ra, $ra, 0
.LBB5_115:                              # %_ZNSt6vectorIiSaIiEE11_S_relocateEPiS2_S2_RS0_.exit.i.i.i198
	add.d	$s5, $s0, $s4
	beqz	$s3, .LBB5_117
# %bb.116:                              # %_ZNSt12_Vector_baseIiSaIiEE13_M_deallocateEPim.exit.i.i.i.i200
	move	$a0, $s3
	move	$a1, $s4
	pcaddu18i	$ra, %call36(_ZdlPvm)
	jirl	$ra, $ra, 0
.LBB5_117:                              # %_ZNSt6vectorIiSaIiEE17_M_realloc_appendIJiEEEvDpOT_.exit.i.i201
	addi.d	$a0, $s5, 4
	ld.d	$a3, $sp, 40                    # 8-byte Folded Reload
	st.d	$s0, $a3, 0
	st.d	$a0, $a3, 8
	alsl.d	$a0, $s2, $s0, 2
	st.d	$a0, $a3, 16
	ld.d	$s4, $sp, 104                   # 8-byte Folded Reload
	ld.d	$s5, $sp, 56                    # 8-byte Folded Reload
	ld.d	$s2, $sp, 32                    # 8-byte Folded Reload
.LBB5_118:                              # %_ZNSt6vectorIiSaIiEE9push_backEOi.exit202
	ld.d	$a4, $sp, 24                    # 8-byte Folded Reload
	ld.d	$a0, $a4, 8
	ld.d	$a1, $a4, 16
	nor	$a2, $s1, $zero
	add.d	$s1, $fp, $a2
	beq	$a0, $a1, .LBB5_121
# %bb.119:
	st.w	$s1, $a0, 0
	addi.d	$a0, $a0, 4
	st.d	$a0, $a4, 8
	ld.d	$a0, $s2, 8
	ld.d	$a1, $s2, 16
	beq	$a0, $a1, .LBB5_127
.LBB5_120:
	ori	$a1, $zero, 1
	st.w	$a1, $a0, 0
	addi.d	$a0, $a0, 4
	st.d	$a0, $s2, 8
	b	.LBB5_133
.LBB5_121:
	ld.d	$s3, $a4, 0
	sub.d	$s4, $a0, $s3
	addi.w	$a0, $zero, -4
	lu52i.d	$a0, $a0, 2047
	beq	$s4, $a0, .LBB5_317
# %bb.122:                              # %_ZNKSt6vectorIiSaIiEE12_M_check_lenEmPKc.exit.i.i204
	srai.d	$a0, $s4, 2
	ori	$a1, $zero, 1
	sltu	$a2, $a1, $a0
	masknez	$a1, $a1, $a2
	maskeqz	$a2, $a0, $a2
	or	$a1, $a2, $a1
	add.d	$a0, $a1, $a0
	addi.w	$a1, $zero, -1
	lu52i.d	$a1, $a1, 511
	sltu	$a2, $a0, $a1
	maskeqz	$a0, $a0, $a2
	masknez	$a1, $a1, $a2
	or	$fp, $a0, $a1
	slli.d	$a0, $fp, 2
	pcaddu18i	$ra, %call36(_Znwm)
	jirl	$ra, $ra, 0
	move	$s0, $a0
	stx.w	$s1, $a0, $s4
	blez	$s4, .LBB5_124
# %bb.123:
	move	$a0, $s0
	move	$a1, $s3
	move	$a2, $s4
	pcaddu18i	$ra, %call36(memcpy)
	jirl	$ra, $ra, 0
.LBB5_124:                              # %_ZNSt6vectorIiSaIiEE11_S_relocateEPiS2_S2_RS0_.exit.i.i206
	add.d	$s1, $s0, $s4
	beqz	$s3, .LBB5_126
# %bb.125:                              # %_ZNSt12_Vector_baseIiSaIiEE13_M_deallocateEPim.exit.i.i.i208
	move	$a0, $s3
	move	$a1, $s4
	pcaddu18i	$ra, %call36(_ZdlPvm)
	jirl	$ra, $ra, 0
.LBB5_126:                              # %_ZNSt6vectorIiSaIiEE17_M_realloc_appendIJRKiEEEvDpOT_.exit.i209
	addi.d	$a0, $s1, 4
	ld.d	$a1, $sp, 24                    # 8-byte Folded Reload
	st.d	$s0, $a1, 0
	st.d	$a0, $a1, 8
	alsl.d	$a0, $fp, $s0, 2
	st.d	$a0, $a1, 16
	ld.d	$s4, $sp, 104                   # 8-byte Folded Reload
	ld.d	$a3, $sp, 40                    # 8-byte Folded Reload
	ld.d	$a0, $s2, 8
	ld.d	$a1, $s2, 16
	bne	$a0, $a1, .LBB5_120
.LBB5_127:
	ld.d	$s3, $s2, 0
	sub.d	$s4, $a0, $s3
	addi.w	$a0, $zero, -4
	lu52i.d	$a0, $a0, 2047
	beq	$s4, $a0, .LBB5_317
# %bb.128:                              # %_ZNKSt6vectorIiSaIiEE12_M_check_lenEmPKc.exit.i.i.i212
	srai.d	$a0, $s4, 2
	ori	$s1, $zero, 1
	sltu	$a1, $s1, $a0
	masknez	$a2, $s1, $a1
	maskeqz	$a1, $a0, $a1
	or	$a1, $a1, $a2
	add.d	$a0, $a1, $a0
	addi.w	$a1, $zero, -1
	lu52i.d	$a1, $a1, 511
	sltu	$a2, $a0, $a1
	maskeqz	$a0, $a0, $a2
	masknez	$a1, $a1, $a2
	or	$fp, $a0, $a1
	slli.d	$a0, $fp, 2
	pcaddu18i	$ra, %call36(_Znwm)
	jirl	$ra, $ra, 0
	move	$s0, $a0
	stx.w	$s1, $a0, $s4
	blez	$s4, .LBB5_130
# %bb.129:
	move	$a0, $s0
	move	$a1, $s3
	move	$a2, $s4
	pcaddu18i	$ra, %call36(memcpy)
	jirl	$ra, $ra, 0
.LBB5_130:                              # %_ZNSt6vectorIiSaIiEE11_S_relocateEPiS2_S2_RS0_.exit.i.i.i214
	add.d	$s1, $s0, $s4
	beqz	$s3, .LBB5_132
# %bb.131:                              # %_ZNSt12_Vector_baseIiSaIiEE13_M_deallocateEPim.exit.i.i.i.i216
	move	$a0, $s3
	move	$a1, $s4
	pcaddu18i	$ra, %call36(_ZdlPvm)
	jirl	$ra, $ra, 0
.LBB5_132:                              # %_ZNSt6vectorIiSaIiEE17_M_realloc_appendIJiEEEvDpOT_.exit.i.i217
	addi.d	$a0, $s1, 4
	st.d	$s0, $s2, 0
	st.d	$a0, $s2, 8
	alsl.d	$a0, $fp, $s0, 2
	st.d	$a0, $s2, 16
	ld.d	$s4, $sp, 104                   # 8-byte Folded Reload
	ld.d	$a3, $sp, 40                    # 8-byte Folded Reload
.LBB5_133:                              # %_ZNSt6vectorIiSaIiEE9push_backEOi.exit218thread-pre-split
	ld.w	$s1, $s4, 68
.LBB5_134:                              # %_ZNSt6vectorIiSaIiEE9push_backEOi.exit218
	beqz	$s1, .LBB5_174
# %bb.135:
	pcalau12i	$a0, %got_pc_hi20(_ZN8Parallel4mypeE)
	ld.d	$a1, $a0, %got_pc_lo12(_ZN8Parallel4mypeE)
	ld.d	$a0, $a3, 8
	ld.d	$s3, $a3, 0
	ld.w	$a1, $a1, 0
	st.d	$a1, $sp, 96                    # 8-byte Folded Spill
	ld.w	$s1, $s4, 56
	sub.d	$s5, $a0, $s3
	srai.d	$a1, $s5, 2
	st.d	$a1, $sp, 112                   # 8-byte Folded Spill
	bltz	$s8, .LBB5_138
# %bb.136:                              # %.lr.ph419.preheader
	ld.w	$a1, $s4, 64
	beqz	$a1, .LBB5_139
# %bb.137:
	move	$s4, $s3
	ld.d	$s5, $sp, 56                    # 8-byte Folded Reload
	bnez	$s8, .LBB5_141
	b	.LBB5_156
.LBB5_138:
	ld.d	$s5, $sp, 56                    # 8-byte Folded Reload
	b	.LBB5_157
.LBB5_139:
	ld.d	$a2, $sp, 40                    # 8-byte Folded Reload
	ld.d	$a1, $a2, 16
	beq	$a0, $a1, .LBB5_150
# %bb.140:
	st.w	$zero, $a0, 0
	addi.d	$a0, $a0, 4
	st.d	$a0, $a2, 8
	move	$s4, $s3
	ld.d	$s5, $sp, 56                    # 8-byte Folded Reload
	beqz	$s8, .LBB5_156
.LBB5_141:                              # %.lr.ph419.peel.next.preheader
	move	$s2, $zero
	addi.w	$a1, $zero, -4
	lu52i.d	$s7, $a1, 2047
	ori	$s8, $zero, 1
	addi.w	$a1, $zero, -1
	lu52i.d	$fp, $a1, 511
	b	.LBB5_143
	.p2align	4, , 16
.LBB5_142:                              #   in Loop: Header=BB5_143 Depth=1
	st.w	$s2, $a0, 0
	addi.d	$a0, $a0, 4
	st.d	$a0, $a2, 8
	move	$s3, $s4
	ld.d	$a1, $sp, 64                    # 8-byte Folded Reload
	beq	$a1, $s2, .LBB5_157
.LBB5_143:                              # %.lr.ph419.peel.next
                                        # =>This Inner Loop Header: Depth=1
	ld.d	$a2, $sp, 40                    # 8-byte Folded Reload
	ld.d	$a1, $a2, 16
	addi.w	$s2, $s2, 1
	bne	$a0, $a1, .LBB5_142
# %bb.144:                              #   in Loop: Header=BB5_143 Depth=1
	sub.d	$s5, $a0, $s4
	beq	$s5, $s7, .LBB5_317
# %bb.145:                              # %_ZNKSt6vectorIiSaIiEE12_M_check_lenEmPKc.exit.i.i236
                                        #   in Loop: Header=BB5_143 Depth=1
	srai.d	$a0, $s5, 2
	sltu	$a1, $s8, $a0
	masknez	$a2, $s8, $a1
	maskeqz	$a1, $a0, $a1
	or	$a1, $a1, $a2
	add.d	$a0, $a1, $a0
	sltu	$a1, $a0, $fp
	maskeqz	$a0, $a0, $a1
	masknez	$a1, $fp, $a1
	or	$s0, $a0, $a1
	slli.d	$a0, $s0, 2
	pcaddu18i	$ra, %call36(_Znwm)
	jirl	$ra, $ra, 0
	move	$s3, $a0
	stx.w	$s2, $a0, $s5
	blez	$s5, .LBB5_147
# %bb.146:                              #   in Loop: Header=BB5_143 Depth=1
	move	$a0, $s3
	move	$a1, $s4
	move	$a2, $s5
	pcaddu18i	$ra, %call36(memcpy)
	jirl	$ra, $ra, 0
.LBB5_147:                              # %_ZNSt6vectorIiSaIiEE11_S_relocateEPiS2_S2_RS0_.exit.i.i238
                                        #   in Loop: Header=BB5_143 Depth=1
	beqz	$s4, .LBB5_149
# %bb.148:                              # %_ZNSt12_Vector_baseIiSaIiEE13_M_deallocateEPim.exit.i.i.i240
                                        #   in Loop: Header=BB5_143 Depth=1
	move	$a0, $s4
	move	$a1, $s5
	pcaddu18i	$ra, %call36(_ZdlPvm)
	jirl	$ra, $ra, 0
.LBB5_149:                              # %_ZNSt6vectorIiSaIiEE17_M_realloc_appendIJRKiEEEvDpOT_.exit.i241
                                        #   in Loop: Header=BB5_143 Depth=1
	add.d	$a0, $s3, $s5
	addi.d	$a0, $a0, 4
	ld.d	$a2, $sp, 40                    # 8-byte Folded Reload
	st.d	$s3, $a2, 0
	st.d	$a0, $a2, 8
	alsl.d	$a1, $s0, $s3, 2
	st.d	$a1, $a2, 16
	move	$s4, $s3
	ld.d	$s5, $sp, 56                    # 8-byte Folded Reload
	ld.d	$a1, $sp, 64                    # 8-byte Folded Reload
	bne	$a1, $s2, .LBB5_143
	b	.LBB5_157
.LBB5_150:
	addi.w	$a0, $zero, -4
	lu52i.d	$a0, $a0, 2047
	beq	$s5, $a0, .LBB5_317
# %bb.151:                              # %_ZNKSt6vectorIiSaIiEE12_M_check_lenEmPKc.exit.i.i236.peel
	ori	$a0, $zero, 1
	ld.d	$a2, $sp, 112                   # 8-byte Folded Reload
	sltu	$a1, $a0, $a2
	masknez	$a0, $a0, $a1
	maskeqz	$a1, $a2, $a1
	or	$a0, $a1, $a0
	add.d	$a0, $a0, $a2
	addi.w	$a1, $zero, -1
	lu52i.d	$a1, $a1, 511
	sltu	$a2, $a0, $a1
	maskeqz	$a0, $a0, $a2
	masknez	$a1, $a1, $a2
	or	$fp, $a0, $a1
	slli.d	$a0, $fp, 2
	pcaddu18i	$ra, %call36(_Znwm)
	jirl	$ra, $ra, 0
	move	$s4, $a0
	stx.w	$zero, $a0, $s5
	blez	$s5, .LBB5_153
# %bb.152:
	move	$a0, $s4
	move	$a1, $s3
	move	$a2, $s5
	pcaddu18i	$ra, %call36(memcpy)
	jirl	$ra, $ra, 0
.LBB5_153:                              # %_ZNSt6vectorIiSaIiEE11_S_relocateEPiS2_S2_RS0_.exit.i.i238.peel
	add.d	$s0, $s4, $s5
	ld.d	$s8, $sp, 64                    # 8-byte Folded Reload
	beqz	$s3, .LBB5_155
# %bb.154:                              # %_ZNSt12_Vector_baseIiSaIiEE13_M_deallocateEPim.exit.i.i.i240.peel
	move	$a0, $s3
	move	$a1, $s5
	pcaddu18i	$ra, %call36(_ZdlPvm)
	jirl	$ra, $ra, 0
.LBB5_155:                              # %_ZNSt6vectorIiSaIiEE17_M_realloc_appendIJRKiEEEvDpOT_.exit.i241.peel
	addi.d	$a0, $s0, 4
	ld.d	$a2, $sp, 40                    # 8-byte Folded Reload
	st.d	$s4, $a2, 0
	st.d	$a0, $a2, 8
	alsl.d	$a1, $fp, $s4, 2
	st.d	$a1, $a2, 16
	ld.d	$s5, $sp, 56                    # 8-byte Folded Reload
	bnez	$s8, .LBB5_141
.LBB5_156:
	move	$s3, $s4
.LBB5_157:                              # %._crit_edge420
	ld.d	$a2, $sp, 24                    # 8-byte Folded Reload
	ld.d	$a0, $a2, 8
	ld.d	$a1, $a2, 16
	ld.d	$a3, $sp, 96                    # 8-byte Folded Reload
	sub.d	$s1, $a3, $s1
	beq	$a0, $a1, .LBB5_159
# %bb.158:
	st.w	$s1, $a0, 0
	addi.d	$a0, $a0, 4
	st.d	$a0, $a2, 8
	ld.d	$s8, $sp, 64                    # 8-byte Folded Reload
	ld.d	$s2, $sp, 32                    # 8-byte Folded Reload
	ld.d	$a1, $sp, 40                    # 8-byte Folded Reload
	b	.LBB5_165
.LBB5_159:
	ld.d	$s3, $a2, 0
	sub.d	$s4, $a0, $s3
	addi.w	$a0, $zero, -4
	lu52i.d	$a0, $a0, 2047
	ld.d	$s8, $sp, 64                    # 8-byte Folded Reload
	ld.d	$s2, $sp, 32                    # 8-byte Folded Reload
	beq	$s4, $a0, .LBB5_317
# %bb.160:                              # %_ZNKSt6vectorIiSaIiEE12_M_check_lenEmPKc.exit.i.i220
	srai.d	$a0, $s4, 2
	ori	$a1, $zero, 1
	sltu	$a2, $a1, $a0
	masknez	$a1, $a1, $a2
	maskeqz	$a2, $a0, $a2
	or	$a1, $a2, $a1
	add.d	$a0, $a1, $a0
	addi.w	$a1, $zero, -1
	lu52i.d	$a1, $a1, 511
	sltu	$a2, $a0, $a1
	maskeqz	$a0, $a0, $a2
	masknez	$a1, $a1, $a2
	or	$fp, $a0, $a1
	slli.d	$a0, $fp, 2
	pcaddu18i	$ra, %call36(_Znwm)
	jirl	$ra, $ra, 0
	move	$s0, $a0
	stx.w	$s1, $a0, $s4
	blez	$s4, .LBB5_162
# %bb.161:
	move	$a0, $s0
	move	$a1, $s3
	move	$a2, $s4
	pcaddu18i	$ra, %call36(memcpy)
	jirl	$ra, $ra, 0
.LBB5_162:                              # %_ZNSt6vectorIiSaIiEE11_S_relocateEPiS2_S2_RS0_.exit.i.i222
	add.d	$s1, $s0, $s4
	beqz	$s3, .LBB5_164
# %bb.163:                              # %_ZNSt12_Vector_baseIiSaIiEE13_M_deallocateEPim.exit.i.i.i224
	move	$a0, $s3
	move	$a1, $s4
	pcaddu18i	$ra, %call36(_ZdlPvm)
	jirl	$ra, $ra, 0
.LBB5_164:                              # %_ZNSt6vectorIiSaIiEE17_M_realloc_appendIJRKiEEEvDpOT_.exit.i225
	addi.d	$a0, $s1, 4
	ld.d	$a2, $sp, 24                    # 8-byte Folded Reload
	st.d	$s0, $a2, 0
	ld.d	$a1, $sp, 40                    # 8-byte Folded Reload
	ld.d	$s3, $a1, 0
	st.d	$a0, $a2, 8
	alsl.d	$a0, $fp, $s0, 2
	st.d	$a0, $a2, 16
.LBB5_165:                              # %_ZNSt6vectorIiSaIiEE9push_backERKi.exit226
	ld.d	$a1, $a1, 8
	ld.d	$a0, $s2, 8
	ld.d	$a2, $s2, 16
	sub.d	$a1, $a1, $s3
	srai.d	$a1, $a1, 2
	ld.d	$a3, $sp, 112                   # 8-byte Folded Reload
	sub.d	$s1, $a1, $a3
	ld.d	$s4, $sp, 104                   # 8-byte Folded Reload
	beq	$a0, $a2, .LBB5_167
# %bb.166:
	st.w	$s1, $a0, 0
	addi.d	$a0, $a0, 4
	st.d	$a0, $s2, 8
	b	.LBB5_173
.LBB5_167:
	ld.d	$s3, $s2, 0
	sub.d	$s4, $a0, $s3
	addi.w	$a0, $zero, -4
	lu52i.d	$a0, $a0, 2047
	beq	$s4, $a0, .LBB5_317
# %bb.168:                              # %_ZNKSt6vectorIiSaIiEE12_M_check_lenEmPKc.exit.i.i.i228
	srai.d	$a0, $s4, 2
	ori	$a1, $zero, 1
	sltu	$a2, $a1, $a0
	masknez	$a1, $a1, $a2
	maskeqz	$a2, $a0, $a2
	or	$a1, $a2, $a1
	add.d	$a0, $a1, $a0
	addi.w	$a1, $zero, -1
	lu52i.d	$a1, $a1, 511
	sltu	$a2, $a0, $a1
	maskeqz	$a0, $a0, $a2
	masknez	$a1, $a1, $a2
	or	$fp, $a0, $a1
	slli.d	$a0, $fp, 2
	pcaddu18i	$ra, %call36(_Znwm)
	jirl	$ra, $ra, 0
	move	$s0, $a0
	stx.w	$s1, $a0, $s4
	blez	$s4, .LBB5_170
# %bb.169:
	move	$a0, $s0
	move	$a1, $s3
	move	$a2, $s4
	pcaddu18i	$ra, %call36(memcpy)
	jirl	$ra, $ra, 0
.LBB5_170:                              # %_ZNSt6vectorIiSaIiEE11_S_relocateEPiS2_S2_RS0_.exit.i.i.i230
	add.d	$s1, $s0, $s4
	beqz	$s3, .LBB5_172
# %bb.171:                              # %_ZNSt12_Vector_baseIiSaIiEE13_M_deallocateEPim.exit.i.i.i.i232
	move	$a0, $s3
	move	$a1, $s4
	pcaddu18i	$ra, %call36(_ZdlPvm)
	jirl	$ra, $ra, 0
.LBB5_172:                              # %_ZNSt6vectorIiSaIiEE17_M_realloc_appendIJiEEEvDpOT_.exit.i.i233
	addi.d	$a0, $s1, 4
	st.d	$s0, $s2, 0
	st.d	$a0, $s2, 8
	alsl.d	$a0, $fp, $s0, 2
	st.d	$a0, $s2, 16
	ld.d	$s4, $sp, 104                   # 8-byte Folded Reload
.LBB5_173:                              # %_ZNSt6vectorIiSaIiEE9push_backEOi.exit234
	ld.d	$a3, $sp, 40                    # 8-byte Folded Reload
.LBB5_174:                              # %_ZNSt6vectorIiSaIiEE9push_backEOi.exit234
	ld.w	$a0, $s4, 64
	beqz	$a0, .LBB5_213
# %bb.175:
	pcalau12i	$a0, %got_pc_hi20(_ZN8Parallel4mypeE)
	ld.d	$a1, $a0, %got_pc_lo12(_ZN8Parallel4mypeE)
	ld.d	$a0, $a3, 8
	ld.d	$s3, $a3, 0
	ld.w	$a1, $a1, 0
	st.d	$a1, $sp, 96                    # 8-byte Folded Spill
	sub.d	$s5, $a0, $s3
	srai.d	$a1, $s5, 2
	st.d	$a1, $sp, 112                   # 8-byte Folded Spill
	ld.d	$s8, $sp, 48                    # 8-byte Folded Reload
	bltz	$s8, .LBB5_178
# %bb.176:                              # %.lr.ph425.preheader
	ld.w	$a1, $s4, 68
	beqz	$a1, .LBB5_179
# %bb.177:
	move	$s4, $s3
	ld.d	$s5, $sp, 56                    # 8-byte Folded Reload
	bnez	$s8, .LBB5_181
	b	.LBB5_196
.LBB5_178:
	ld.d	$s5, $sp, 56                    # 8-byte Folded Reload
	b	.LBB5_197
.LBB5_179:
	ld.d	$a2, $sp, 40                    # 8-byte Folded Reload
	ld.d	$a1, $a2, 16
	beq	$a0, $a1, .LBB5_190
# %bb.180:
	st.w	$zero, $a0, 0
	addi.d	$a0, $a0, 4
	st.d	$a0, $a2, 8
	move	$s4, $s3
	ld.d	$s5, $sp, 56                    # 8-byte Folded Reload
	beqz	$s8, .LBB5_196
.LBB5_181:
	addi.w	$a1, $zero, -4
	lu52i.d	$s1, $a1, 2047
	ori	$s2, $zero, 1
	addi.w	$a1, $zero, -1
	lu52i.d	$s7, $a1, 511
	move	$fp, $s5
	b	.LBB5_183
	.p2align	4, , 16
.LBB5_182:                              #   in Loop: Header=BB5_183 Depth=1
	st.w	$fp, $a0, 0
	addi.d	$a0, $a0, 4
	st.d	$a0, $a2, 8
	move	$s3, $s4
	addi.w	$s8, $s8, -1
	add.d	$fp, $fp, $s5
	beqz	$s8, .LBB5_197
.LBB5_183:                              # %.lr.ph425.peel.next
                                        # =>This Inner Loop Header: Depth=1
	ld.d	$a2, $sp, 40                    # 8-byte Folded Reload
	ld.d	$a1, $a2, 16
	bne	$a0, $a1, .LBB5_182
# %bb.184:                              #   in Loop: Header=BB5_183 Depth=1
	sub.d	$s5, $a0, $s4
	beq	$s5, $s1, .LBB5_317
# %bb.185:                              # %_ZNKSt6vectorIiSaIiEE12_M_check_lenEmPKc.exit.i.i260
                                        #   in Loop: Header=BB5_183 Depth=1
	srai.d	$a0, $s5, 2
	sltu	$a1, $s2, $a0
	masknez	$a2, $s2, $a1
	maskeqz	$a1, $a0, $a1
	or	$a1, $a1, $a2
	add.d	$a0, $a1, $a0
	sltu	$a1, $a0, $s7
	maskeqz	$a0, $a0, $a1
	masknez	$a1, $s7, $a1
	or	$s0, $a0, $a1
	slli.d	$a0, $s0, 2
	pcaddu18i	$ra, %call36(_Znwm)
	jirl	$ra, $ra, 0
	move	$s3, $a0
	stx.w	$fp, $a0, $s5
	blez	$s5, .LBB5_187
# %bb.186:                              #   in Loop: Header=BB5_183 Depth=1
	move	$a0, $s3
	move	$a1, $s4
	move	$a2, $s5
	pcaddu18i	$ra, %call36(memcpy)
	jirl	$ra, $ra, 0
.LBB5_187:                              # %_ZNSt6vectorIiSaIiEE11_S_relocateEPiS2_S2_RS0_.exit.i.i262
                                        #   in Loop: Header=BB5_183 Depth=1
	beqz	$s4, .LBB5_189
# %bb.188:                              # %_ZNSt12_Vector_baseIiSaIiEE13_M_deallocateEPim.exit.i.i.i264
                                        #   in Loop: Header=BB5_183 Depth=1
	move	$a0, $s4
	move	$a1, $s5
	pcaddu18i	$ra, %call36(_ZdlPvm)
	jirl	$ra, $ra, 0
.LBB5_189:                              # %_ZNSt6vectorIiSaIiEE17_M_realloc_appendIJRKiEEEvDpOT_.exit.i265
                                        #   in Loop: Header=BB5_183 Depth=1
	add.d	$a0, $s3, $s5
	addi.d	$a0, $a0, 4
	ld.d	$a2, $sp, 40                    # 8-byte Folded Reload
	st.d	$s3, $a2, 0
	st.d	$a0, $a2, 8
	alsl.d	$a1, $s0, $s3, 2
	st.d	$a1, $a2, 16
	move	$s4, $s3
	ld.d	$s5, $sp, 56                    # 8-byte Folded Reload
	addi.w	$s8, $s8, -1
	add.d	$fp, $fp, $s5
	bnez	$s8, .LBB5_183
	b	.LBB5_197
.LBB5_190:
	addi.w	$a0, $zero, -4
	lu52i.d	$a0, $a0, 2047
	beq	$s5, $a0, .LBB5_317
# %bb.191:                              # %_ZNKSt6vectorIiSaIiEE12_M_check_lenEmPKc.exit.i.i260.peel
	ori	$a0, $zero, 1
	ld.d	$a2, $sp, 112                   # 8-byte Folded Reload
	sltu	$a1, $a0, $a2
	masknez	$a0, $a0, $a1
	maskeqz	$a1, $a2, $a1
	or	$a0, $a1, $a0
	add.d	$a0, $a0, $a2
	addi.w	$a1, $zero, -1
	lu52i.d	$a1, $a1, 511
	sltu	$a2, $a0, $a1
	maskeqz	$a0, $a0, $a2
	masknez	$a1, $a1, $a2
	or	$fp, $a0, $a1
	slli.d	$a0, $fp, 2
	pcaddu18i	$ra, %call36(_Znwm)
	jirl	$ra, $ra, 0
	move	$s4, $a0
	stx.w	$zero, $a0, $s5
	blez	$s5, .LBB5_193
# %bb.192:
	move	$a0, $s4
	move	$a1, $s3
	move	$a2, $s5
	pcaddu18i	$ra, %call36(memcpy)
	jirl	$ra, $ra, 0
.LBB5_193:                              # %_ZNSt6vectorIiSaIiEE11_S_relocateEPiS2_S2_RS0_.exit.i.i262.peel
	add.d	$s0, $s4, $s5
	ld.d	$s8, $sp, 48                    # 8-byte Folded Reload
	beqz	$s3, .LBB5_195
# %bb.194:                              # %_ZNSt12_Vector_baseIiSaIiEE13_M_deallocateEPim.exit.i.i.i264.peel
	move	$a0, $s3
	move	$a1, $s5
	pcaddu18i	$ra, %call36(_ZdlPvm)
	jirl	$ra, $ra, 0
.LBB5_195:                              # %_ZNSt6vectorIiSaIiEE17_M_realloc_appendIJRKiEEEvDpOT_.exit.i265.peel
	addi.d	$a0, $s0, 4
	ld.d	$a2, $sp, 40                    # 8-byte Folded Reload
	st.d	$s4, $a2, 0
	st.d	$a0, $a2, 8
	alsl.d	$a1, $fp, $s4, 2
	st.d	$a1, $a2, 16
	ld.d	$s5, $sp, 56                    # 8-byte Folded Reload
	bnez	$s8, .LBB5_181
.LBB5_196:
	move	$s3, $s4
.LBB5_197:                              # %._crit_edge426
	ld.d	$a2, $sp, 24                    # 8-byte Folded Reload
	ld.d	$a0, $a2, 8
	ld.d	$a1, $a2, 16
	ld.d	$a3, $sp, 96                    # 8-byte Folded Reload
	addi.d	$s1, $a3, -1
	beq	$a0, $a1, .LBB5_199
# %bb.198:
	st.w	$s1, $a0, 0
	addi.d	$a0, $a0, 4
	st.d	$a0, $a2, 8
	ld.d	$s8, $sp, 64                    # 8-byte Folded Reload
	ld.d	$s2, $sp, 32                    # 8-byte Folded Reload
	ld.d	$a1, $sp, 40                    # 8-byte Folded Reload
	b	.LBB5_205
.LBB5_199:
	ld.d	$s3, $a2, 0
	sub.d	$s4, $a0, $s3
	addi.w	$a0, $zero, -4
	lu52i.d	$a0, $a0, 2047
	ld.d	$s2, $sp, 32                    # 8-byte Folded Reload
	beq	$s4, $a0, .LBB5_317
# %bb.200:                              # %_ZNKSt6vectorIiSaIiEE12_M_check_lenEmPKc.exit.i.i244
	srai.d	$a0, $s4, 2
	ori	$a1, $zero, 1
	sltu	$a2, $a1, $a0
	masknez	$a1, $a1, $a2
	maskeqz	$a2, $a0, $a2
	or	$a1, $a2, $a1
	add.d	$a0, $a1, $a0
	addi.w	$a1, $zero, -1
	lu52i.d	$a1, $a1, 511
	sltu	$a2, $a0, $a1
	maskeqz	$a0, $a0, $a2
	masknez	$a1, $a1, $a2
	or	$fp, $a0, $a1
	slli.d	$a0, $fp, 2
	pcaddu18i	$ra, %call36(_Znwm)
	jirl	$ra, $ra, 0
	move	$s0, $a0
	stx.w	$s1, $a0, $s4
	blez	$s4, .LBB5_202
# %bb.201:
	move	$a0, $s0
	move	$a1, $s3
	move	$a2, $s4
	pcaddu18i	$ra, %call36(memcpy)
	jirl	$ra, $ra, 0
.LBB5_202:                              # %_ZNSt6vectorIiSaIiEE11_S_relocateEPiS2_S2_RS0_.exit.i.i246
	add.d	$s1, $s0, $s4
	ld.d	$s8, $sp, 64                    # 8-byte Folded Reload
	beqz	$s3, .LBB5_204
# %bb.203:                              # %_ZNSt12_Vector_baseIiSaIiEE13_M_deallocateEPim.exit.i.i.i248
	move	$a0, $s3
	move	$a1, $s4
	pcaddu18i	$ra, %call36(_ZdlPvm)
	jirl	$ra, $ra, 0
.LBB5_204:                              # %_ZNSt6vectorIiSaIiEE17_M_realloc_appendIJRKiEEEvDpOT_.exit.i249
	addi.d	$a0, $s1, 4
	ld.d	$a2, $sp, 24                    # 8-byte Folded Reload
	st.d	$s0, $a2, 0
	ld.d	$a1, $sp, 40                    # 8-byte Folded Reload
	ld.d	$s3, $a1, 0
	st.d	$a0, $a2, 8
	alsl.d	$a0, $fp, $s0, 2
	st.d	$a0, $a2, 16
.LBB5_205:                              # %_ZNSt6vectorIiSaIiEE9push_backERKi.exit250
	ld.d	$a1, $a1, 8
	ld.d	$a0, $s2, 8
	ld.d	$a2, $s2, 16
	sub.d	$a1, $a1, $s3
	srai.d	$a1, $a1, 2
	ld.d	$a3, $sp, 112                   # 8-byte Folded Reload
	sub.d	$s1, $a1, $a3
	ld.d	$s4, $sp, 104                   # 8-byte Folded Reload
	beq	$a0, $a2, .LBB5_207
# %bb.206:
	st.w	$s1, $a0, 0
	addi.d	$a0, $a0, 4
	st.d	$a0, $s2, 8
	b	.LBB5_213
.LBB5_207:
	ld.d	$s3, $s2, 0
	sub.d	$s2, $a0, $s3
	addi.w	$a0, $zero, -4
	lu52i.d	$a0, $a0, 2047
	beq	$s2, $a0, .LBB5_317
# %bb.208:                              # %_ZNKSt6vectorIiSaIiEE12_M_check_lenEmPKc.exit.i.i.i252
	srai.d	$a0, $s2, 2
	ori	$a1, $zero, 1
	sltu	$a2, $a1, $a0
	masknez	$a1, $a1, $a2
	maskeqz	$a2, $a0, $a2
	or	$a1, $a2, $a1
	add.d	$a0, $a1, $a0
	addi.w	$a1, $zero, -1
	lu52i.d	$a1, $a1, 511
	sltu	$a2, $a0, $a1
	maskeqz	$a0, $a0, $a2
	masknez	$a1, $a1, $a2
	or	$fp, $a0, $a1
	slli.d	$a0, $fp, 2
	pcaddu18i	$ra, %call36(_Znwm)
	jirl	$ra, $ra, 0
	move	$s0, $a0
	stx.w	$s1, $a0, $s2
	blez	$s2, .LBB5_210
# %bb.209:
	move	$a0, $s0
	move	$a1, $s3
	move	$a2, $s2
	pcaddu18i	$ra, %call36(memcpy)
	jirl	$ra, $ra, 0
.LBB5_210:                              # %_ZNSt6vectorIiSaIiEE11_S_relocateEPiS2_S2_RS0_.exit.i.i.i254
	add.d	$s1, $s0, $s2
	beqz	$s3, .LBB5_212
# %bb.211:                              # %_ZNSt12_Vector_baseIiSaIiEE13_M_deallocateEPim.exit.i.i.i.i256
	move	$a0, $s3
	move	$a1, $s2
	pcaddu18i	$ra, %call36(_ZdlPvm)
	jirl	$ra, $ra, 0
.LBB5_212:                              # %_ZNSt6vectorIiSaIiEE17_M_realloc_appendIJiEEEvDpOT_.exit.i.i257
	addi.d	$a0, $s1, 4
	ld.d	$a1, $sp, 32                    # 8-byte Folded Reload
	st.d	$s0, $a1, 0
	st.d	$a0, $a1, 8
	alsl.d	$a0, $fp, $s0, 2
	st.d	$a0, $a1, 16
.LBB5_213:                              # %_ZNSt6vectorIiSaIiEE9push_backEOi.exit258
	ld.d	$s7, $sp, 248
	ld.w	$a0, $s4, 56
	ld.w	$a1, $s4, 64
	ld.d	$a2, $sp, 240
	st.d	$a2, $sp, 112                   # 8-byte Folded Spill
	addi.w	$a0, $a0, -1
	beq	$a1, $a0, .LBB5_245
# %bb.214:
	pcalau12i	$a0, %got_pc_hi20(_ZN8Parallel4mypeE)
	ld.d	$a1, $a0, %got_pc_lo12(_ZN8Parallel4mypeE)
	ld.d	$a0, $s6, 8
	ld.d	$s0, $s6, 0
	ld.w	$a2, $a1, 0
	sub.d	$s2, $a0, $s0
	srai.d	$a1, $s2, 2
	st.d	$a1, $sp, 96                    # 8-byte Folded Spill
	ld.d	$a1, $sp, 48                    # 8-byte Folded Reload
	st.d	$s7, $sp, 80                    # 8-byte Folded Spill
	st.d	$a2, $sp, 88                    # 8-byte Folded Spill
	bltz	$a1, .LBB5_235
# %bb.215:                              # %.lr.ph431.preheader
	ld.w	$a1, $s4, 68
	beqz	$a1, .LBB5_217
# %bb.216:
	move	$s3, $s0
	ld.d	$s4, $sp, 48                    # 8-byte Folded Reload
	bnez	$s4, .LBB5_219
	b	.LBB5_234
.LBB5_217:
	ld.d	$a1, $s6, 16
	beq	$a0, $a1, .LBB5_228
# %bb.218:
	st.w	$s8, $a0, 0
	addi.d	$a0, $a0, 4
	st.d	$a0, $s6, 8
	move	$s3, $s0
	ld.d	$s4, $sp, 48                    # 8-byte Folded Reload
	beqz	$s4, .LBB5_234
.LBB5_219:                              # %.lr.ph431.peel.next.preheader
	slli.d	$a1, $s8, 1
	addi.d	$s7, $a1, 1
	addi.w	$a1, $zero, -4
	lu52i.d	$s8, $a1, 2047
	ori	$fp, $zero, 1
	addi.w	$a1, $zero, -1
	lu52i.d	$s1, $a1, 511
	b	.LBB5_221
	.p2align	4, , 16
.LBB5_220:                              #   in Loop: Header=BB5_221 Depth=1
	st.w	$s7, $a0, 0
	addi.d	$a0, $a0, 4
	st.d	$a0, $s6, 8
	move	$s0, $s3
	addi.w	$s4, $s4, -1
	add.d	$s7, $s7, $s5
	beqz	$s4, .LBB5_235
.LBB5_221:                              # %.lr.ph431.peel.next
                                        # =>This Inner Loop Header: Depth=1
	ld.d	$a1, $s6, 16
	bne	$a0, $a1, .LBB5_220
# %bb.222:                              #   in Loop: Header=BB5_221 Depth=1
	sub.d	$s2, $a0, $s3
	beq	$s2, $s8, .LBB5_317
# %bb.223:                              # %_ZNKSt6vectorIiSaIiEE12_M_check_lenEmPKc.exit.i.i284
                                        #   in Loop: Header=BB5_221 Depth=1
	srai.d	$a0, $s2, 2
	sltu	$a1, $fp, $a0
	masknez	$a2, $fp, $a1
	maskeqz	$a1, $a0, $a1
	or	$a1, $a1, $a2
	add.d	$a0, $a1, $a0
	sltu	$a1, $a0, $s1
	maskeqz	$a0, $a0, $a1
	masknez	$a1, $s1, $a1
	or	$s5, $a0, $a1
	slli.d	$a0, $s5, 2
	pcaddu18i	$ra, %call36(_Znwm)
	jirl	$ra, $ra, 0
	move	$s0, $a0
	stx.w	$s7, $a0, $s2
	blez	$s2, .LBB5_225
# %bb.224:                              #   in Loop: Header=BB5_221 Depth=1
	move	$a0, $s0
	move	$a1, $s3
	move	$a2, $s2
	pcaddu18i	$ra, %call36(memcpy)
	jirl	$ra, $ra, 0
.LBB5_225:                              # %_ZNSt6vectorIiSaIiEE11_S_relocateEPiS2_S2_RS0_.exit.i.i286
                                        #   in Loop: Header=BB5_221 Depth=1
	beqz	$s3, .LBB5_227
# %bb.226:                              # %_ZNSt12_Vector_baseIiSaIiEE13_M_deallocateEPim.exit.i.i.i288
                                        #   in Loop: Header=BB5_221 Depth=1
	move	$a0, $s3
	move	$a1, $s2
	pcaddu18i	$ra, %call36(_ZdlPvm)
	jirl	$ra, $ra, 0
.LBB5_227:                              # %_ZNSt6vectorIiSaIiEE17_M_realloc_appendIJRKiEEEvDpOT_.exit.i289
                                        #   in Loop: Header=BB5_221 Depth=1
	add.d	$a0, $s0, $s2
	addi.d	$a0, $a0, 4
	st.d	$s0, $s6, 0
	st.d	$a0, $s6, 8
	alsl.d	$a1, $s5, $s0, 2
	st.d	$a1, $s6, 16
	move	$s3, $s0
	ld.d	$s5, $sp, 56                    # 8-byte Folded Reload
	addi.w	$s4, $s4, -1
	add.d	$s7, $s7, $s5
	bnez	$s4, .LBB5_221
	b	.LBB5_235
.LBB5_228:
	addi.w	$a0, $zero, -4
	lu52i.d	$a0, $a0, 2047
	beq	$s2, $a0, .LBB5_317
# %bb.229:                              # %_ZNKSt6vectorIiSaIiEE12_M_check_lenEmPKc.exit.i.i284.peel
	ori	$a0, $zero, 1
	ld.d	$a2, $sp, 96                    # 8-byte Folded Reload
	sltu	$a1, $a0, $a2
	masknez	$a0, $a0, $a1
	maskeqz	$a1, $a2, $a1
	or	$a0, $a1, $a0
	add.d	$a0, $a0, $a2
	addi.w	$a1, $zero, -1
	lu52i.d	$a1, $a1, 511
	sltu	$a2, $a0, $a1
	maskeqz	$a0, $a0, $a2
	masknez	$a1, $a1, $a2
	or	$fp, $a0, $a1
	slli.d	$a0, $fp, 2
	pcaddu18i	$ra, %call36(_Znwm)
	jirl	$ra, $ra, 0
	move	$s3, $a0
	ld.d	$s8, $sp, 64                    # 8-byte Folded Reload
	stx.w	$s8, $a0, $s2
	blez	$s2, .LBB5_231
# %bb.230:
	move	$a0, $s3
	move	$a1, $s0
	move	$a2, $s2
	pcaddu18i	$ra, %call36(memcpy)
	jirl	$ra, $ra, 0
.LBB5_231:                              # %_ZNSt6vectorIiSaIiEE11_S_relocateEPiS2_S2_RS0_.exit.i.i286.peel
	add.d	$s1, $s3, $s2
	beqz	$s0, .LBB5_233
# %bb.232:                              # %_ZNSt12_Vector_baseIiSaIiEE13_M_deallocateEPim.exit.i.i.i288.peel
	move	$a0, $s0
	move	$a1, $s2
	pcaddu18i	$ra, %call36(_ZdlPvm)
	jirl	$ra, $ra, 0
.LBB5_233:                              # %_ZNSt6vectorIiSaIiEE17_M_realloc_appendIJRKiEEEvDpOT_.exit.i289.peel
	addi.d	$a0, $s1, 4
	st.d	$s3, $s6, 0
	st.d	$a0, $s6, 8
	alsl.d	$a1, $fp, $s3, 2
	st.d	$a1, $s6, 16
	ld.d	$s4, $sp, 48                    # 8-byte Folded Reload
	bnez	$s4, .LBB5_219
.LBB5_234:
	move	$s0, $s3
.LBB5_235:                              # %._crit_edge432
	ld.d	$a2, $sp, 112                   # 8-byte Folded Reload
	ld.d	$a0, $a2, 8
	ld.d	$a1, $a2, 16
	ld.d	$a3, $sp, 88                    # 8-byte Folded Reload
	addi.d	$s1, $a3, 1
	beq	$a0, $a1, .LBB5_237
# %bb.236:
	st.w	$s1, $a0, 0
	addi.d	$a0, $a0, 4
	st.d	$a0, $a2, 8
	ld.d	$s4, $sp, 104                   # 8-byte Folded Reload
	ld.d	$s8, $sp, 64                    # 8-byte Folded Reload
	ld.d	$s7, $sp, 80                    # 8-byte Folded Reload
	b	.LBB5_243
.LBB5_237:
	ld.d	$s0, $a2, 0
	sub.d	$s3, $a0, $s0
	addi.w	$a0, $zero, -4
	lu52i.d	$a0, $a0, 2047
	ld.d	$s8, $sp, 64                    # 8-byte Folded Reload
	ld.d	$s7, $sp, 80                    # 8-byte Folded Reload
	beq	$s3, $a0, .LBB5_317
# %bb.238:                              # %_ZNKSt6vectorIiSaIiEE12_M_check_lenEmPKc.exit.i.i268
	srai.d	$a0, $s3, 2
	ori	$a1, $zero, 1
	sltu	$a2, $a1, $a0
	masknez	$a1, $a1, $a2
	maskeqz	$a2, $a0, $a2
	or	$a1, $a2, $a1
	add.d	$a0, $a1, $a0
	addi.w	$a1, $zero, -1
	lu52i.d	$a1, $a1, 511
	sltu	$a2, $a0, $a1
	maskeqz	$a0, $a0, $a2
	masknez	$a1, $a1, $a2
	or	$fp, $a0, $a1
	slli.d	$a0, $fp, 2
	pcaddu18i	$ra, %call36(_Znwm)
	jirl	$ra, $ra, 0
	move	$s2, $a0
	stx.w	$s1, $a0, $s3
	blez	$s3, .LBB5_240
# %bb.239:
	move	$a0, $s2
	move	$a1, $s0
	move	$a2, $s3
	pcaddu18i	$ra, %call36(memcpy)
	jirl	$ra, $ra, 0
.LBB5_240:                              # %_ZNSt6vectorIiSaIiEE11_S_relocateEPiS2_S2_RS0_.exit.i.i270
	add.d	$s1, $s2, $s3
	ld.d	$s4, $sp, 104                   # 8-byte Folded Reload
	beqz	$s0, .LBB5_242
# %bb.241:                              # %_ZNSt12_Vector_baseIiSaIiEE13_M_deallocateEPim.exit.i.i.i272
	move	$a0, $s0
	move	$a1, $s3
	pcaddu18i	$ra, %call36(_ZdlPvm)
	jirl	$ra, $ra, 0
.LBB5_242:                              # %_ZNSt6vectorIiSaIiEE17_M_realloc_appendIJRKiEEEvDpOT_.exit.i273
	addi.d	$a0, $s1, 4
	ld.d	$a1, $sp, 112                   # 8-byte Folded Reload
	st.d	$s2, $a1, 0
	ld.d	$s0, $s6, 0
	st.d	$a0, $a1, 8
	alsl.d	$a0, $fp, $s2, 2
	st.d	$a0, $a1, 16
.LBB5_243:                              # %_ZNSt6vectorIiSaIiEE9push_backERKi.exit274
	ld.d	$a1, $s6, 8
	ld.d	$a0, $s7, 8
	ld.d	$a2, $s7, 16
	sub.d	$a1, $a1, $s0
	srai.d	$a1, $a1, 2
	ld.d	$a3, $sp, 96                    # 8-byte Folded Reload
	sub.d	$s1, $a1, $a3
	beq	$a0, $a2, .LBB5_250
# %bb.244:
	st.w	$s1, $a0, 0
	addi.d	$a0, $a0, 4
	st.d	$a0, $s7, 8
.LBB5_245:                              # %_ZNSt6vectorIiSaIiEE9push_backEOi.exit282
	ld.w	$a0, $s4, 60
	ld.w	$a1, $s4, 68
	addi.w	$a0, $a0, -1
	beq	$a1, $a0, .LBB5_285
.LBB5_246:
	pcalau12i	$a0, %got_pc_hi20(_ZN8Parallel4mypeE)
	ld.d	$a1, $a0, %got_pc_lo12(_ZN8Parallel4mypeE)
	ld.d	$a0, $s6, 8
	ld.d	$s0, $s6, 0
	ld.w	$a3, $a1, 0
	ld.w	$a4, $s4, 56
	sub.d	$s2, $a0, $s0
	srai.d	$a1, $s2, 2
	st.d	$a1, $sp, 96                    # 8-byte Folded Spill
	st.d	$a3, $sp, 88                    # 8-byte Folded Spill
	st.d	$a4, $sp, 72                    # 8-byte Folded Spill
	bltz	$s8, .LBB5_249
# %bb.247:                              # %.lr.ph437.preheader
	ld.w	$a1, $s4, 64
	ld.d	$a2, $sp, 48                    # 8-byte Folded Reload
	mul.d	$fp, $a2, $s5
	beqz	$a1, .LBB5_256
# %bb.248:
	move	$s3, $s0
	move	$s5, $s7
	bnez	$s8, .LBB5_258
	b	.LBB5_274
.LBB5_249:
	move	$s5, $s7
	b	.LBB5_275
.LBB5_250:
	ld.d	$s0, $s7, 0
	sub.d	$s3, $a0, $s0
	addi.w	$a0, $zero, -4
	lu52i.d	$a0, $a0, 2047
	beq	$s3, $a0, .LBB5_317
# %bb.251:                              # %_ZNKSt6vectorIiSaIiEE12_M_check_lenEmPKc.exit.i.i.i276
	srai.d	$a0, $s3, 2
	ori	$a1, $zero, 1
	sltu	$a2, $a1, $a0
	masknez	$a1, $a1, $a2
	maskeqz	$a2, $a0, $a2
	or	$a1, $a2, $a1
	add.d	$a0, $a1, $a0
	addi.w	$a1, $zero, -1
	lu52i.d	$a1, $a1, 511
	sltu	$a2, $a0, $a1
	maskeqz	$a0, $a0, $a2
	masknez	$a1, $a1, $a2
	or	$fp, $a0, $a1
	slli.d	$a0, $fp, 2
	pcaddu18i	$ra, %call36(_Znwm)
	jirl	$ra, $ra, 0
	move	$s2, $a0
	stx.w	$s1, $a0, $s3
	blez	$s3, .LBB5_253
# %bb.252:
	move	$a0, $s2
	move	$a1, $s0
	move	$a2, $s3
	pcaddu18i	$ra, %call36(memcpy)
	jirl	$ra, $ra, 0
.LBB5_253:                              # %_ZNSt6vectorIiSaIiEE11_S_relocateEPiS2_S2_RS0_.exit.i.i.i278
	add.d	$s1, $s2, $s3
	beqz	$s0, .LBB5_255
# %bb.254:                              # %_ZNSt12_Vector_baseIiSaIiEE13_M_deallocateEPim.exit.i.i.i.i280
	move	$a0, $s0
	move	$a1, $s3
	pcaddu18i	$ra, %call36(_ZdlPvm)
	jirl	$ra, $ra, 0
.LBB5_255:                              # %_ZNSt6vectorIiSaIiEE17_M_realloc_appendIJiEEEvDpOT_.exit.i.i281
	addi.d	$a0, $s1, 4
	st.d	$s2, $s7, 0
	st.d	$a0, $s7, 8
	alsl.d	$a0, $fp, $s2, 2
	st.d	$a0, $s7, 16
	ld.w	$a0, $s4, 60
	ld.w	$a1, $s4, 68
	addi.w	$a0, $a0, -1
	bne	$a1, $a0, .LBB5_246
	b	.LBB5_285
.LBB5_256:
	ld.d	$a1, $s6, 16
	beq	$a0, $a1, .LBB5_268
# %bb.257:
	st.w	$fp, $a0, 0
	addi.d	$a0, $a0, 4
	st.d	$a0, $s6, 8
	move	$s3, $s0
	move	$s5, $s7
	beqz	$s8, .LBB5_274
.LBB5_258:                              # %.lr.ph437.peel.next.preheader
	addi.d	$s8, $fp, 1
	addi.w	$a1, $zero, -4
	lu52i.d	$fp, $a1, 2047
	ori	$s1, $zero, 1
	addi.w	$a1, $zero, -1
	lu52i.d	$s7, $a1, 511
	b	.LBB5_261
	.p2align	4, , 16
.LBB5_259:                              #   in Loop: Header=BB5_261 Depth=1
	st.w	$s8, $a0, 0
	addi.d	$a0, $a0, 4
	st.d	$a0, $s6, 8
	move	$s0, $s3
.LBB5_260:                              # %_ZNSt6vectorIiSaIiEE9push_backERKi.exit314
                                        #   in Loop: Header=BB5_261 Depth=1
	ld.d	$a1, $sp, 64                    # 8-byte Folded Reload
	addi.w	$a1, $a1, -1
	addi.d	$s8, $s8, 1
	st.d	$a1, $sp, 64                    # 8-byte Folded Spill
	beqz	$a1, .LBB5_275
.LBB5_261:                              # %.lr.ph437.peel.next
                                        # =>This Inner Loop Header: Depth=1
	ld.d	$a1, $s6, 16
	bne	$a0, $a1, .LBB5_259
# %bb.262:                              #   in Loop: Header=BB5_261 Depth=1
	sub.d	$s2, $a0, $s3
	beq	$s2, $fp, .LBB5_317
# %bb.263:                              # %_ZNKSt6vectorIiSaIiEE12_M_check_lenEmPKc.exit.i.i308
                                        #   in Loop: Header=BB5_261 Depth=1
	srai.d	$a0, $s2, 2
	sltu	$a1, $s1, $a0
	masknez	$a2, $s1, $a1
	maskeqz	$a1, $a0, $a1
	or	$a1, $a1, $a2
	add.d	$a0, $a1, $a0
	sltu	$a1, $a0, $s7
	maskeqz	$a0, $a0, $a1
	masknez	$a1, $s7, $a1
	or	$s4, $a0, $a1
	slli.d	$a0, $s4, 2
	pcaddu18i	$ra, %call36(_Znwm)
	jirl	$ra, $ra, 0
	move	$s0, $a0
	stx.w	$s8, $a0, $s2
	blez	$s2, .LBB5_265
# %bb.264:                              #   in Loop: Header=BB5_261 Depth=1
	move	$a0, $s0
	move	$a1, $s3
	move	$a2, $s2
	pcaddu18i	$ra, %call36(memcpy)
	jirl	$ra, $ra, 0
.LBB5_265:                              # %_ZNSt6vectorIiSaIiEE11_S_relocateEPiS2_S2_RS0_.exit.i.i310
                                        #   in Loop: Header=BB5_261 Depth=1
	beqz	$s3, .LBB5_267
# %bb.266:                              # %_ZNSt12_Vector_baseIiSaIiEE13_M_deallocateEPim.exit.i.i.i312
                                        #   in Loop: Header=BB5_261 Depth=1
	move	$a0, $s3
	move	$a1, $s2
	pcaddu18i	$ra, %call36(_ZdlPvm)
	jirl	$ra, $ra, 0
.LBB5_267:                              # %_ZNSt6vectorIiSaIiEE17_M_realloc_appendIJRKiEEEvDpOT_.exit.i313
                                        #   in Loop: Header=BB5_261 Depth=1
	add.d	$a0, $s0, $s2
	addi.d	$a0, $a0, 4
	st.d	$s0, $s6, 0
	st.d	$a0, $s6, 8
	alsl.d	$a1, $s4, $s0, 2
	st.d	$a1, $s6, 16
	move	$s3, $s0
	ld.d	$s4, $sp, 104                   # 8-byte Folded Reload
	b	.LBB5_260
.LBB5_268:
	addi.w	$a0, $zero, -4
	lu52i.d	$a0, $a0, 2047
	beq	$s2, $a0, .LBB5_317
# %bb.269:                              # %_ZNKSt6vectorIiSaIiEE12_M_check_lenEmPKc.exit.i.i308.peel
	ori	$a0, $zero, 1
	ld.d	$a2, $sp, 96                    # 8-byte Folded Reload
	sltu	$a1, $a0, $a2
	masknez	$a0, $a0, $a1
	maskeqz	$a1, $a2, $a1
	or	$a0, $a1, $a0
	add.d	$a0, $a0, $a2
	addi.w	$a1, $zero, -1
	lu52i.d	$a1, $a1, 511
	sltu	$a2, $a0, $a1
	maskeqz	$a0, $a0, $a2
	masknez	$a1, $a1, $a2
	or	$s1, $a0, $a1
	slli.d	$a0, $s1, 2
	pcaddu18i	$ra, %call36(_Znwm)
	jirl	$ra, $ra, 0
	move	$s3, $a0
	stx.w	$fp, $a0, $s2
	blez	$s2, .LBB5_271
# %bb.270:
	move	$a0, $s3
	move	$a1, $s0
	move	$a2, $s2
	pcaddu18i	$ra, %call36(memcpy)
	jirl	$ra, $ra, 0
.LBB5_271:                              # %_ZNSt6vectorIiSaIiEE11_S_relocateEPiS2_S2_RS0_.exit.i.i310.peel
	add.d	$s4, $s3, $s2
	ld.d	$s8, $sp, 64                    # 8-byte Folded Reload
	beqz	$s0, .LBB5_273
# %bb.272:                              # %_ZNSt12_Vector_baseIiSaIiEE13_M_deallocateEPim.exit.i.i.i312.peel
	move	$a0, $s0
	move	$a1, $s2
	pcaddu18i	$ra, %call36(_ZdlPvm)
	jirl	$ra, $ra, 0
.LBB5_273:                              # %_ZNSt6vectorIiSaIiEE17_M_realloc_appendIJRKiEEEvDpOT_.exit.i313.peel
	addi.d	$a0, $s4, 4
	st.d	$s3, $s6, 0
	st.d	$a0, $s6, 8
	alsl.d	$a1, $s1, $s3, 2
	st.d	$a1, $s6, 16
	ld.d	$s4, $sp, 104                   # 8-byte Folded Reload
	move	$s5, $s7
	bnez	$s8, .LBB5_258
.LBB5_274:
	move	$s0, $s3
.LBB5_275:                              # %._crit_edge438
	ld.d	$s8, $sp, 112                   # 8-byte Folded Reload
	ld.d	$a0, $s8, 8
	ld.d	$a1, $s8, 16
	ld.d	$a2, $sp, 88                    # 8-byte Folded Reload
	ld.d	$a3, $sp, 72                    # 8-byte Folded Reload
	add.d	$s3, $a3, $a2
	beq	$a0, $a1, .LBB5_277
# %bb.276:
	st.w	$s3, $a0, 0
	addi.d	$a0, $a0, 4
	st.d	$a0, $s8, 8
	move	$s7, $s5
	b	.LBB5_283
.LBB5_277:
	ld.d	$s0, $s8, 0
	sub.d	$s1, $a0, $s0
	addi.w	$a0, $zero, -4
	lu52i.d	$a0, $a0, 2047
	beq	$s1, $a0, .LBB5_317
# %bb.278:                              # %_ZNKSt6vectorIiSaIiEE12_M_check_lenEmPKc.exit.i.i292
	move	$s7, $s5
	srai.d	$a0, $s1, 2
	ori	$a1, $zero, 1
	sltu	$a2, $a1, $a0
	masknez	$a1, $a1, $a2
	maskeqz	$a2, $a0, $a2
	or	$a1, $a2, $a1
	add.d	$a0, $a1, $a0
	addi.w	$a1, $zero, -1
	lu52i.d	$a1, $a1, 511
	sltu	$a2, $a0, $a1
	maskeqz	$a0, $a0, $a2
	masknez	$a1, $a1, $a2
	or	$fp, $a0, $a1
	slli.d	$a0, $fp, 2
	pcaddu18i	$ra, %call36(_Znwm)
	jirl	$ra, $ra, 0
	move	$s2, $a0
	stx.w	$s3, $a0, $s1
	blez	$s1, .LBB5_280
# %bb.279:
	move	$a0, $s2
	move	$a1, $s0
	move	$a2, $s1
	pcaddu18i	$ra, %call36(memcpy)
	jirl	$ra, $ra, 0
.LBB5_280:                              # %_ZNSt6vectorIiSaIiEE11_S_relocateEPiS2_S2_RS0_.exit.i.i294
	add.d	$s3, $s2, $s1
	beqz	$s0, .LBB5_282
# %bb.281:                              # %_ZNSt12_Vector_baseIiSaIiEE13_M_deallocateEPim.exit.i.i.i296
	move	$a0, $s0
	move	$a1, $s1
	pcaddu18i	$ra, %call36(_ZdlPvm)
	jirl	$ra, $ra, 0
.LBB5_282:                              # %_ZNSt6vectorIiSaIiEE17_M_realloc_appendIJRKiEEEvDpOT_.exit.i297
	addi.d	$a0, $s3, 4
	st.d	$s2, $s8, 0
	ld.d	$s0, $s6, 0
	st.d	$a0, $s8, 8
	alsl.d	$a0, $fp, $s2, 2
	st.d	$a0, $s8, 16
.LBB5_283:                              # %_ZNSt6vectorIiSaIiEE9push_backERKi.exit298
	ld.d	$a1, $s6, 8
	ld.d	$a0, $s7, 8
	ld.d	$a2, $s7, 16
	sub.d	$a1, $a1, $s0
	srai.d	$a1, $a1, 2
	ld.d	$a3, $sp, 96                    # 8-byte Folded Reload
	sub.d	$s3, $a1, $a3
	beq	$a0, $a2, .LBB5_289
# %bb.284:
	st.w	$s3, $a0, 0
	addi.d	$a0, $a0, 4
	st.d	$a0, $s7, 8
.LBB5_285:                              # %_ZNSt6vectorIiSaIiEE9push_backEOi.exit306
	ld.w	$s2, $s4, 56
	ld.w	$a0, $s4, 64
	addi.w	$a1, $s2, -1
	beq	$a0, $a1, .LBB5_316
.LBB5_286:
	ld.w	$a0, $s4, 60
	ld.w	$a1, $s4, 68
	addi.w	$a0, $a0, -1
	beq	$a1, $a0, .LBB5_316
# %bb.287:
	pcalau12i	$a0, %got_pc_hi20(_ZN8Parallel4mypeE)
	ld.d	$a1, $a0, %got_pc_lo12(_ZN8Parallel4mypeE)
	ld.d	$a0, $s6, 8
	ld.d	$a2, $s6, 16
	ld.w	$s3, $a1, 0
	ld.d	$a1, $sp, 8                     # 8-byte Folded Reload
	addi.d	$s5, $a1, -1
	beq	$a0, $a2, .LBB5_295
# %bb.288:
	st.w	$s5, $a0, 0
	addi.d	$a0, $a0, 4
	st.d	$a0, $s6, 8
	ld.d	$s8, $sp, 112                   # 8-byte Folded Reload
	b	.LBB5_301
.LBB5_289:
	ld.d	$s0, $s7, 0
	sub.d	$s1, $a0, $s0
	addi.w	$a0, $zero, -4
	lu52i.d	$a0, $a0, 2047
	beq	$s1, $a0, .LBB5_317
# %bb.290:                              # %_ZNKSt6vectorIiSaIiEE12_M_check_lenEmPKc.exit.i.i.i300
	srai.d	$a0, $s1, 2
	ori	$a1, $zero, 1
	sltu	$a2, $a1, $a0
	masknez	$a1, $a1, $a2
	maskeqz	$a2, $a0, $a2
	or	$a1, $a2, $a1
	add.d	$a0, $a1, $a0
	addi.w	$a1, $zero, -1
	lu52i.d	$a1, $a1, 511
	sltu	$a2, $a0, $a1
	maskeqz	$a0, $a0, $a2
	masknez	$a1, $a1, $a2
	or	$fp, $a0, $a1
	slli.d	$a0, $fp, 2
	pcaddu18i	$ra, %call36(_Znwm)
	jirl	$ra, $ra, 0
	move	$s2, $a0
	stx.w	$s3, $a0, $s1
	blez	$s1, .LBB5_292
# %bb.291:
	move	$a0, $s2
	move	$a1, $s0
	move	$a2, $s1
	pcaddu18i	$ra, %call36(memcpy)
	jirl	$ra, $ra, 0
.LBB5_292:                              # %_ZNSt6vectorIiSaIiEE11_S_relocateEPiS2_S2_RS0_.exit.i.i.i302
	add.d	$s3, $s2, $s1
	beqz	$s0, .LBB5_294
# %bb.293:                              # %_ZNSt12_Vector_baseIiSaIiEE13_M_deallocateEPim.exit.i.i.i.i304
	move	$a0, $s0
	move	$a1, $s1
	pcaddu18i	$ra, %call36(_ZdlPvm)
	jirl	$ra, $ra, 0
.LBB5_294:                              # %_ZNSt6vectorIiSaIiEE17_M_realloc_appendIJiEEEvDpOT_.exit.i.i305
	addi.d	$a0, $s3, 4
	st.d	$s2, $s7, 0
	st.d	$a0, $s7, 8
	alsl.d	$a0, $fp, $s2, 2
	st.d	$a0, $s7, 16
	ld.w	$s2, $s4, 56
	ld.w	$a0, $s4, 64
	addi.w	$a1, $s2, -1
	bne	$a0, $a1, .LBB5_286
	b	.LBB5_316
.LBB5_295:
	ld.d	$fp, $s6, 0
	sub.d	$s0, $a0, $fp
	addi.w	$a0, $zero, -4
	lu52i.d	$a0, $a0, 2047
	ld.d	$s8, $sp, 112                   # 8-byte Folded Reload
	beq	$s0, $a0, .LBB5_317
# %bb.296:                              # %_ZNKSt6vectorIiSaIiEE12_M_check_lenEmPKc.exit.i.i316
	srai.d	$a0, $s0, 2
	ori	$a1, $zero, 1
	sltu	$a2, $a1, $a0
	masknez	$a1, $a1, $a2
	maskeqz	$a2, $a0, $a2
	or	$a1, $a2, $a1
	add.d	$a0, $a1, $a0
	addi.w	$a1, $zero, -1
	lu52i.d	$a1, $a1, 511
	sltu	$a2, $a0, $a1
	maskeqz	$a0, $a0, $a2
	masknez	$a1, $a1, $a2
	or	$s4, $a0, $a1
	slli.d	$a0, $s4, 2
	pcaddu18i	$ra, %call36(_Znwm)
	jirl	$ra, $ra, 0
	move	$s1, $a0
	stx.w	$s5, $a0, $s0
	blez	$s0, .LBB5_298
# %bb.297:
	move	$a0, $s1
	move	$a1, $fp
	move	$a2, $s0
	pcaddu18i	$ra, %call36(memcpy)
	jirl	$ra, $ra, 0
.LBB5_298:                              # %_ZNSt6vectorIiSaIiEE11_S_relocateEPiS2_S2_RS0_.exit.i.i318
	add.d	$s5, $s1, $s0
	beqz	$fp, .LBB5_300
# %bb.299:                              # %_ZNSt12_Vector_baseIiSaIiEE13_M_deallocateEPim.exit.i.i.i320
	move	$a0, $fp
	move	$a1, $s0
	pcaddu18i	$ra, %call36(_ZdlPvm)
	jirl	$ra, $ra, 0
.LBB5_300:                              # %_ZNSt6vectorIiSaIiEE17_M_realloc_appendIJRKiEEEvDpOT_.exit.i321
	addi.d	$a0, $s5, 4
	st.d	$s1, $s6, 0
	st.d	$a0, $s6, 8
	alsl.d	$a0, $s4, $s1, 2
	st.d	$a0, $s6, 16
.LBB5_301:                              # %_ZNSt6vectorIiSaIiEE9push_backERKi.exit322
	ld.d	$a0, $s8, 8
	ld.d	$a1, $s8, 16
	add.d	$a2, $s2, $s3
	addi.d	$s3, $a2, 1
	beq	$a0, $a1, .LBB5_304
# %bb.302:
	st.w	$s3, $a0, 0
	addi.d	$a0, $a0, 4
	st.d	$a0, $s8, 8
	ld.d	$a0, $s7, 8
	ld.d	$a1, $s7, 16
	beq	$a0, $a1, .LBB5_310
.LBB5_303:
	ori	$a1, $zero, 1
	st.w	$a1, $a0, 0
	addi.d	$a0, $a0, 4
	st.d	$a0, $s7, 8
	b	.LBB5_316
.LBB5_304:
	ld.d	$fp, $s8, 0
	sub.d	$s0, $a0, $fp
	addi.w	$a0, $zero, -4
	lu52i.d	$a0, $a0, 2047
	beq	$s0, $a0, .LBB5_317
# %bb.305:                              # %_ZNKSt6vectorIiSaIiEE12_M_check_lenEmPKc.exit.i.i324
	srai.d	$a0, $s0, 2
	ori	$a1, $zero, 1
	sltu	$a2, $a1, $a0
	masknez	$a1, $a1, $a2
	maskeqz	$a2, $a0, $a2
	or	$a1, $a2, $a1
	add.d	$a0, $a1, $a0
	addi.w	$a1, $zero, -1
	lu52i.d	$a1, $a1, 511
	sltu	$a2, $a0, $a1
	maskeqz	$a0, $a0, $a2
	masknez	$a1, $a1, $a2
	or	$s2, $a0, $a1
	slli.d	$a0, $s2, 2
	pcaddu18i	$ra, %call36(_Znwm)
	jirl	$ra, $ra, 0
	move	$s1, $a0
	stx.w	$s3, $a0, $s0
	blez	$s0, .LBB5_307
# %bb.306:
	move	$a0, $s1
	move	$a1, $fp
	move	$a2, $s0
	pcaddu18i	$ra, %call36(memcpy)
	jirl	$ra, $ra, 0
.LBB5_307:                              # %_ZNSt6vectorIiSaIiEE11_S_relocateEPiS2_S2_RS0_.exit.i.i326
	add.d	$s3, $s1, $s0
	beqz	$fp, .LBB5_309
# %bb.308:                              # %_ZNSt12_Vector_baseIiSaIiEE13_M_deallocateEPim.exit.i.i.i328
	move	$a0, $fp
	move	$a1, $s0
	pcaddu18i	$ra, %call36(_ZdlPvm)
	jirl	$ra, $ra, 0
.LBB5_309:                              # %_ZNSt6vectorIiSaIiEE17_M_realloc_appendIJRKiEEEvDpOT_.exit.i329
	addi.d	$a0, $s3, 4
	st.d	$s1, $s8, 0
	st.d	$a0, $s8, 8
	alsl.d	$a0, $s2, $s1, 2
	st.d	$a0, $s8, 16
	ld.d	$a0, $s7, 8
	ld.d	$a1, $s7, 16
	bne	$a0, $a1, .LBB5_303
.LBB5_310:
	ld.d	$fp, $s7, 0
	sub.d	$s0, $a0, $fp
	addi.w	$a0, $zero, -4
	lu52i.d	$a0, $a0, 2047
	beq	$s0, $a0, .LBB5_317
# %bb.311:                              # %_ZNKSt6vectorIiSaIiEE12_M_check_lenEmPKc.exit.i.i.i332
	srai.d	$a0, $s0, 2
	ori	$s3, $zero, 1
	sltu	$a1, $s3, $a0
	masknez	$a2, $s3, $a1
	maskeqz	$a1, $a0, $a1
	or	$a1, $a1, $a2
	add.d	$a0, $a1, $a0
	addi.w	$a1, $zero, -1
	lu52i.d	$a1, $a1, 511
	sltu	$a2, $a0, $a1
	maskeqz	$a0, $a0, $a2
	masknez	$a1, $a1, $a2
	or	$s2, $a0, $a1
	slli.d	$a0, $s2, 2
	pcaddu18i	$ra, %call36(_Znwm)
	jirl	$ra, $ra, 0
	move	$s1, $a0
	stx.w	$s3, $a0, $s0
	blez	$s0, .LBB5_313
# %bb.312:
	move	$a0, $s1
	move	$a1, $fp
	move	$a2, $s0
	pcaddu18i	$ra, %call36(memcpy)
	jirl	$ra, $ra, 0
.LBB5_313:                              # %_ZNSt6vectorIiSaIiEE11_S_relocateEPiS2_S2_RS0_.exit.i.i.i334
	add.d	$s3, $s1, $s0
	beqz	$fp, .LBB5_315
# %bb.314:                              # %_ZNSt12_Vector_baseIiSaIiEE13_M_deallocateEPim.exit.i.i.i.i336
	move	$a0, $fp
	move	$a1, $s0
	pcaddu18i	$ra, %call36(_ZdlPvm)
	jirl	$ra, $ra, 0
.LBB5_315:                              # %_ZNSt6vectorIiSaIiEE17_M_realloc_appendIJiEEEvDpOT_.exit.i.i337
	addi.d	$a0, $s3, 4
	st.d	$s1, $s7, 0
	st.d	$a0, $s7, 8
	alsl.d	$a0, $s2, $s1, 2
	st.d	$a0, $s7, 16
.LBB5_316:                              # %_ZNSt6vectorIiSaIiEE9push_backEOi.exit338
	fld.d	$fs3, $sp, 120                  # 8-byte Folded Reload
	fld.d	$fs2, $sp, 128                  # 8-byte Folded Reload
	fld.d	$fs1, $sp, 136                  # 8-byte Folded Reload
	fld.d	$fs0, $sp, 144                  # 8-byte Folded Reload
	ld.d	$s8, $sp, 152                   # 8-byte Folded Reload
	ld.d	$s7, $sp, 160                   # 8-byte Folded Reload
	ld.d	$s6, $sp, 168                   # 8-byte Folded Reload
	ld.d	$s5, $sp, 176                   # 8-byte Folded Reload
	ld.d	$s4, $sp, 184                   # 8-byte Folded Reload
	ld.d	$s3, $sp, 192                   # 8-byte Folded Reload
	ld.d	$s2, $sp, 200                   # 8-byte Folded Reload
	ld.d	$s1, $sp, 208                   # 8-byte Folded Reload
	ld.d	$s0, $sp, 216                   # 8-byte Folded Reload
	ld.d	$fp, $sp, 224                   # 8-byte Folded Reload
	ld.d	$ra, $sp, 232                   # 8-byte Folded Reload
	addi.d	$sp, $sp, 240
	ret
.LBB5_317:                              # %.noexc
	pcalau12i	$a0, %pc_hi20(.L.str.14)
	addi.d	$a0, $a0, %pc_lo12(.L.str.14)
	pcaddu18i	$ra, %call36(_ZSt20__throw_length_errorPKc)
	jirl	$ra, $ra, 0
.LBB5_318:
	pcalau12i	$a0, %pc_hi20(.L.str.13)
	addi.d	$a0, $a0, %pc_lo12(.L.str.13)
	pcaddu18i	$ra, %call36(_ZSt20__throw_length_errorPKc)
	jirl	$ra, $ra, 0
.Lfunc_end5:
	.size	_ZN7GenMesh12generateRectERSt6vectorI7double2SaIS1_EERS0_IiSaIiEES7_S7_S7_S7_S7_S7_S7_S7_, .Lfunc_end5-_ZN7GenMesh12generateRectERSt6vectorI7double2SaIS1_EERS0_IiSaIiEES7_S7_S7_S7_S7_S7_S7_S7_
	.cfi_endproc
                                        # -- End function
	.globl	_ZN7GenMesh11generateHexERSt6vectorI7double2SaIS1_EERS0_IiSaIiEES7_S7_S7_S7_S7_S7_S7_S7_ # -- Begin function _ZN7GenMesh11generateHexERSt6vectorI7double2SaIS1_EERS0_IiSaIiEES7_S7_S7_S7_S7_S7_S7_S7_
	.p2align	5
	.type	_ZN7GenMesh11generateHexERSt6vectorI7double2SaIS1_EERS0_IiSaIiEES7_S7_S7_S7_S7_S7_S7_S7_,@function
_ZN7GenMesh11generateHexERSt6vectorI7double2SaIS1_EERS0_IiSaIiEES7_S7_S7_S7_S7_S7_S7_S7_: # @_ZN7GenMesh11generateHexERSt6vectorI7double2SaIS1_EERS0_IiSaIiEES7_S7_S7_S7_S7_S7_S7_S7_
.Lfunc_begin1:
	.cfi_startproc
	.cfi_personality 155, DW.ref.__gxx_personality_v0
	.cfi_lsda 27, .Lexception1
# %bb.0:
	addi.d	$sp, $sp, -336
	.cfi_def_cfa_offset 336
	st.d	$ra, $sp, 328                   # 8-byte Folded Spill
	st.d	$fp, $sp, 320                   # 8-byte Folded Spill
	st.d	$s0, $sp, 312                   # 8-byte Folded Spill
	st.d	$s1, $sp, 304                   # 8-byte Folded Spill
	st.d	$s2, $sp, 296                   # 8-byte Folded Spill
	st.d	$s3, $sp, 288                   # 8-byte Folded Spill
	st.d	$s4, $sp, 280                   # 8-byte Folded Spill
	st.d	$s5, $sp, 272                   # 8-byte Folded Spill
	st.d	$s6, $sp, 264                   # 8-byte Folded Spill
	st.d	$s7, $sp, 256                   # 8-byte Folded Spill
	st.d	$s8, $sp, 248                   # 8-byte Folded Spill
	fst.d	$fs0, $sp, 240                  # 8-byte Folded Spill
	fst.d	$fs1, $sp, 232                  # 8-byte Folded Spill
	fst.d	$fs2, $sp, 224                  # 8-byte Folded Spill
	fst.d	$fs3, $sp, 216                  # 8-byte Folded Spill
	fst.d	$fs4, $sp, 208                  # 8-byte Folded Spill
	fst.d	$fs5, $sp, 200                  # 8-byte Folded Spill
	fst.d	$fs6, $sp, 192                  # 8-byte Folded Spill
	fst.d	$fs7, $sp, 184                  # 8-byte Folded Spill
	.cfi_offset 1, -8
	.cfi_offset 22, -16
	.cfi_offset 23, -24
	.cfi_offset 24, -32
	.cfi_offset 25, -40
	.cfi_offset 26, -48
	.cfi_offset 27, -56
	.cfi_offset 28, -64
	.cfi_offset 29, -72
	.cfi_offset 30, -80
	.cfi_offset 31, -88
	.cfi_offset 56, -96
	.cfi_offset 57, -104
	.cfi_offset 58, -112
	.cfi_offset 59, -120
	.cfi_offset 60, -128
	.cfi_offset 61, -136
	.cfi_offset 62, -144
	.cfi_offset 63, -152
	move	$s5, $a0
	ld.w	$a0, $a0, 72
	ld.w	$s4, $s5, 76
	st.d	$a0, $sp, 128                   # 8-byte Folded Spill
	addi.w	$a0, $a0, 1
	addi.w	$s6, $s4, 1
	st.d	$a0, $sp, 56                    # 8-byte Folded Spill
	mul.d	$a0, $a0, $s6
	slli.w	$s1, $a0, 1
	st.d	$a7, $sp, 88                    # 8-byte Folded Spill
	st.d	$a6, $sp, 48                    # 8-byte Folded Spill
	st.d	$a5, $sp, 64                    # 8-byte Folded Spill
	st.d	$a4, $sp, 168                   # 8-byte Folded Spill
	st.d	$a3, $sp, 176                   # 8-byte Folded Spill
	bltz	$s1, .LBB6_517
# %bb.1:
	move	$s7, $a2
	move	$s8, $a1
	ld.d	$s2, $a1, 16
	ld.d	$fp, $a1, 0
	ld.d	$a0, $sp, 352
	st.d	$a0, $sp, 80                    # 8-byte Folded Spill
	ld.d	$s3, $sp, 344
	ld.d	$a0, $sp, 336
	st.d	$a0, $sp, 40                    # 8-byte Folded Spill
	sub.d	$s0, $s2, $fp
	srai.d	$a0, $s0, 4
	bgeu	$a0, $s1, .LBB6_8
# %bb.2:                                # %_ZNSt12_Vector_baseI7double2SaIS0_EE11_M_allocateEm.exit.i.i
	ld.d	$s2, $s8, 8
	slli.d	$a0, $s1, 4
	pcaddu18i	$ra, %call36(_Znwm)
	jirl	$ra, $ra, 0
	move	$a2, $a0
	beq	$s2, $fp, .LBB6_5
# %bb.3:                                # %.lr.ph.i.i.i.i.i.preheader
	move	$a0, $fp
	move	$a1, $a2
	.p2align	4, , 16
.LBB6_4:                                # %.lr.ph.i.i.i.i.i
                                        # =>This Inner Loop Header: Depth=1
	vld	$vr0, $a0, 0
	vst	$vr0, $a1, 0
	addi.d	$a0, $a0, 16
	addi.d	$a1, $a1, 16
	bne	$a0, $s2, .LBB6_4
.LBB6_5:                                # %_ZNSt6vectorI7double2SaIS0_EE20_M_allocate_and_copyIPKS0_EEPS0_mT_S7_.exit.i
	sub.d	$s2, $s2, $fp
	beqz	$fp, .LBB6_7
# %bb.6:
	move	$a0, $fp
	move	$a1, $s0
	move	$fp, $a2
	pcaddu18i	$ra, %call36(_ZdlPvm)
	jirl	$ra, $ra, 0
	move	$a2, $fp
.LBB6_7:                                # %_ZNSt12_Vector_baseI7double2SaIS0_EE13_M_deallocateEPS0_m.exit.i
	st.d	$a2, $s8, 0
	add.d	$a0, $a2, $s2
	st.d	$a0, $s8, 8
	alsl.d	$s2, $s1, $a2, 4
	st.d	$s2, $s8, 16
	b	.LBB6_9
.LBB6_8:
	move	$a2, $fp
.LBB6_9:                                # %_ZNSt6vectorI7double2SaIS0_EE7reserveEm.exit
	addi.w	$a0, $zero, -2
	bge	$a0, $s4, .LBB6_518
# %bb.10:                               # %_ZNSt6vectorIiSaIiEE17_S_check_init_lenEmRKS0_.exit.i
	st.d	$s3, $sp, 32                    # 8-byte Folded Spill
	st.d	$s5, $sp, 120                   # 8-byte Folded Spill
	st.d	$s4, $sp, 72                    # 8-byte Folded Spill
	st.d	$s6, $sp, 96                    # 8-byte Folded Spill
	beqz	$s6, .LBB6_72
# %bb.11:                               # %.noexc296
	move	$s0, $a2
	ld.w	$a0, $s5, 32
	fld.d	$fa0, $s5, 40
	addi.d	$a0, $a0, -1
	movgr2fr.w	$fa1, $a0
	ld.w	$a0, $s5, 36
	ffint.d.w	$fa1, $fa1
	fdiv.d	$fs0, $fa0, $fa1
	fld.d	$fa0, $s5, 48
	addi.d	$a0, $a0, -1
	movgr2fr.w	$fa1, $a0
	ffint.d.w	$fa1, $fa1
	fdiv.d	$fa0, $fa0, $fa1
	fst.d	$fa0, $sp, 152                  # 8-byte Folded Spill
	slli.d	$fp, $s6, 2
	move	$a0, $fp
	pcaddu18i	$ra, %call36(_Znwm)
	jirl	$ra, $ra, 0
	move	$s6, $a0
	st.w	$zero, $a0, 0
	ld.d	$s3, $sp, 128                   # 8-byte Folded Reload
	beqz	$s4, .LBB6_13
# %bb.12:                               # %.lr.ph.i.preheader.i.i.i.i.i
	addi.d	$a0, $s6, 4
	addi.d	$a2, $fp, -4
	move	$a1, $zero
	pcaddu18i	$ra, %call36(memset)
	jirl	$ra, $ra, 0
.LBB6_13:                               # %.lr.ph1041
	move	$a4, $zero
	ld.d	$a0, $sp, 96                    # 8-byte Folded Reload
	alsl.d	$a0, $a0, $s6, 2
	st.d	$a0, $sp, 24                    # 8-byte Folded Spill
	vldi	$vr0, -1000
	fdiv.d	$fs2, $fs0, $fa0
	fld.d	$fa1, $sp, 152                  # 8-byte Folded Reload
	fdiv.d	$fa0, $fa1, $fa0
	fst.d	$fa0, $sp, 144                  # 8-byte Folded Spill
	ld.d	$a3, $s8, 8
	vldi	$vr3, -800
	movgr2fr.d	$fs4, $zero
	move	$a2, $s0
	st.d	$s6, $sp, 112                   # 8-byte Folded Spill
	b	.LBB6_15
	.p2align	4, , 16
.LBB6_14:                               # %._crit_edge
                                        #   in Loop: Header=BB6_15 Depth=1
	addi.d	$a4, $a4, 1
	ld.d	$a0, $sp, 96                    # 8-byte Folded Reload
	ld.d	$s6, $sp, 112                   # 8-byte Folded Reload
	beq	$a4, $a0, .LBB6_71
.LBB6_15:                               # =>This Loop Header: Depth=1
                                        #     Child Loop BB6_21 Depth 2
                                        #       Child Loop BB6_54 Depth 3
                                        #       Child Loop BB6_62 Depth 3
                                        #       Child Loop BB6_70 Depth 3
                                        #       Child Loop BB6_49 Depth 3
                                        #       Child Loop BB6_33 Depth 3
	sub.d	$a0, $a3, $a2
	srli.d	$a0, $a0, 4
	slli.d	$a1, $a4, 2
	stx.w	$a0, $s6, $a1
	bltz	$s3, .LBB6_14
# %bb.16:                               # %.lr.ph
                                        #   in Loop: Header=BB6_15 Depth=1
	ld.w	$a1, $s5, 84
	move	$a0, $zero
	add.d	$a1, $a1, $a4
	movgr2fr.w	$fa0, $a1
	addi.w	$a5, $a1, 0
	fld.d	$fa1, $s5, 48
	ffint.d.w	$fa0, $fa0
	fadd.d	$fa0, $fa0, $fa3
	fld.d	$fa2, $sp, 152                  # 8-byte Folded Reload
	fmul.d	$fa0, $fa2, $fa0
	fcmp.clt.d	$fcc0, $fa0, $fa1
	fsel	$fa0, $fa1, $fa0, $fcc0
	fmax.d	$fs5, $fa0, $fs4
	fld.d	$fa0, $sp, 144                  # 8-byte Folded Reload
	fadd.d	$fs6, $fa0, $fs5
	fsub.d	$fs7, $fs5, $fa0
	move	$s4, $a2
	st.d	$a4, $sp, 160                   # 8-byte Folded Spill
	move	$s6, $a5
	b	.LBB6_21
	.p2align	4, , 16
.LBB6_17:                               #   in Loop: Header=BB6_21 Depth=2
	beq	$a3, $s2, .LBB6_29
# %bb.18:                               #   in Loop: Header=BB6_21 Depth=2
	fst.d	$fs1, $a3, 0
	fst.d	$fs5, $a3, 8
.LBB6_19:                               # %_ZNSt6vectorI7double2SaIS0_EE9push_backEOS0_.exit
                                        #   in Loop: Header=BB6_21 Depth=2
	addi.d	$a3, $a3, 16
	st.d	$a3, $s8, 8
	move	$a2, $s4
.LBB6_20:                               # %_ZNSt6vectorI7double2SaIS0_EE9push_backEOS0_.exit
                                        #   in Loop: Header=BB6_21 Depth=2
	addi.w	$a0, $s0, 1
	move	$s4, $a2
	beq	$s0, $s3, .LBB6_14
.LBB6_21:                               #   Parent Loop BB6_15 Depth=1
                                        # =>  This Loop Header: Depth=2
                                        #       Child Loop BB6_54 Depth 3
                                        #       Child Loop BB6_62 Depth 3
                                        #       Child Loop BB6_70 Depth 3
                                        #       Child Loop BB6_49 Depth 3
                                        #       Child Loop BB6_33 Depth 3
	ld.w	$a1, $s5, 80
	move	$s0, $a0
	add.d	$a1, $a1, $a0
	addi.w	$a0, $a1, 0
	movgr2fr.w	$fa0, $a1
	fld.d	$fa1, $s5, 40
	ffint.d.w	$fa0, $fa0
	fadd.d	$fa0, $fa0, $fa3
	fmul.d	$fa0, $fs0, $fa0
	fcmp.clt.d	$fcc0, $fa0, $fa1
	fsel	$fa0, $fa1, $fa0, $fcc0
	fmax.d	$fs1, $fa0, $fs4
	beqz	$a0, .LBB6_17
# %bb.22:                               #   in Loop: Header=BB6_21 Depth=2
	ld.w	$a1, $s5, 32
	beq	$a0, $a1, .LBB6_17
# %bb.23:                               #   in Loop: Header=BB6_21 Depth=2
	beqz	$a5, .LBB6_17
# %bb.24:                               #   in Loop: Header=BB6_21 Depth=2
	ld.w	$a0, $s5, 36
	beq	$a5, $a0, .LBB6_17
# %bb.25:                               #   in Loop: Header=BB6_21 Depth=2
	bnez	$a4, .LBB6_38
# %bb.26:                               #   in Loop: Header=BB6_21 Depth=2
	ld.w	$a0, $s5, 72
	bne	$s0, $a0, .LBB6_38
# %bb.27:                               #   in Loop: Header=BB6_21 Depth=2
	fsub.d	$fs1, $fs1, $fs2
	beq	$a3, $s2, .LBB6_45
# %bb.28:                               #   in Loop: Header=BB6_21 Depth=2
	fst.d	$fs1, $a3, 0
	fst.d	$fs6, $a3, 8
	b	.LBB6_19
	.p2align	4, , 16
.LBB6_29:                               #   in Loop: Header=BB6_21 Depth=2
	sub.d	$fp, $s2, $s4
	addi.w	$a0, $zero, -16
	lu52i.d	$a0, $a0, 2047
	beq	$fp, $a0, .LBB6_505
# %bb.30:                               #   in Loop: Header=BB6_21 Depth=2
	srai.d	$a0, $fp, 4
	ori	$a2, $zero, 1
	sltu	$a1, $a2, $a0
	masknez	$a2, $a2, $a1
	maskeqz	$a1, $a0, $a1
	or	$a1, $a1, $a2
	add.d	$a0, $a1, $a0
	addi.w	$a1, $zero, -1
	lu52i.d	$a1, $a1, 127
	sltu	$a2, $a0, $a1
	maskeqz	$a0, $a0, $a2
	masknez	$a1, $a1, $a2
	or	$s1, $a0, $a1
	slli.d	$a0, $s1, 4
.Ltmp58:                                # EH_LABEL
	pcaddu18i	$ra, %call36(_Znwm)
	jirl	$ra, $ra, 0
.Ltmp59:                                # EH_LABEL
# %bb.31:                               # %.noexc663
                                        #   in Loop: Header=BB6_21 Depth=2
	move	$a2, $a0
	add.d	$a0, $a0, $fp
	fstx.d	$fs1, $a2, $fp
	fst.d	$fs5, $a0, 8
	move	$s3, $a2
	beq	$s4, $s2, .LBB6_34
# %bb.32:                               # %.lr.ph.i.i.i.i.i.i.preheader
                                        #   in Loop: Header=BB6_21 Depth=2
	move	$a0, $s4
	move	$s3, $a2
	.p2align	4, , 16
.LBB6_33:                               # %.lr.ph.i.i.i.i.i.i
                                        #   Parent Loop BB6_15 Depth=1
                                        #     Parent Loop BB6_21 Depth=2
                                        # =>    This Inner Loop Header: Depth=3
	vld	$vr0, $a0, 0
	vst	$vr0, $s3, 0
	addi.d	$a0, $a0, 16
	addi.d	$s3, $s3, 16
	bne	$a0, $s2, .LBB6_33
.LBB6_34:                               # %_ZSt34__uninitialized_move_if_noexcept_aIP7double2S1_SaIS0_EET0_T_S4_S3_RT1_.exit.i.i
                                        #   in Loop: Header=BB6_21 Depth=2
	beqz	$s4, .LBB6_36
# %bb.35:                               # %_ZNSt12_Vector_baseI7double2SaIS0_EE13_M_deallocateEPS0_m.exit.i.i.i
                                        #   in Loop: Header=BB6_21 Depth=2
	move	$a0, $s4
	move	$a1, $fp
	move	$fp, $a2
	pcaddu18i	$ra, %call36(_ZdlPvm)
	jirl	$ra, $ra, 0
	move	$a2, $fp
.LBB6_36:                               # %_ZNSt6vectorI7double2SaIS0_EE17_M_realloc_appendIJS0_EEEvDpOT_.exit.i
                                        #   in Loop: Header=BB6_21 Depth=2
	addi.d	$a3, $s3, 16
	st.d	$a2, $s8, 0
	st.d	$a3, $s8, 8
	alsl.d	$s2, $s1, $a2, 4
.LBB6_37:                               # %_ZNSt6vectorI7double2SaIS0_EE9push_backEOS0_.exit
                                        #   in Loop: Header=BB6_21 Depth=2
	st.d	$s2, $s8, 16
	ld.d	$s3, $sp, 128                   # 8-byte Folded Reload
	ld.d	$a4, $sp, 160                   # 8-byte Folded Reload
	vldi	$vr3, -800
	move	$a5, $s6
	b	.LBB6_20
.LBB6_38:                               #   in Loop: Header=BB6_21 Depth=2
	bnez	$s0, .LBB6_42
# %bb.39:                               #   in Loop: Header=BB6_21 Depth=2
	ld.wu	$a0, $s5, 76
	bne	$a4, $a0, .LBB6_42
# %bb.40:                               #   in Loop: Header=BB6_21 Depth=2
	fadd.d	$fs1, $fs2, $fs1
	beq	$a3, $s2, .LBB6_66
# %bb.41:                               #   in Loop: Header=BB6_21 Depth=2
	fst.d	$fs1, $a3, 0
	fst.d	$fs7, $a3, 8
	b	.LBB6_19
.LBB6_42:                               #   in Loop: Header=BB6_21 Depth=2
	fsub.d	$fs3, $fs1, $fs2
	beq	$a3, $s2, .LBB6_50
# %bb.43:                               #   in Loop: Header=BB6_21 Depth=2
	fst.d	$fs3, $a3, 0
	fst.d	$fs6, $a3, 8
	addi.d	$a0, $a3, 16
	st.d	$a0, $s8, 8
	move	$s1, $s4
	fadd.d	$fs1, $fs2, $fs1
	beq	$a0, $s2, .LBB6_58
.LBB6_44:                               #   in Loop: Header=BB6_21 Depth=2
	fst.d	$fs1, $a0, 0
	fst.d	$fs7, $a0, 8
	addi.d	$a3, $a0, 16
	st.d	$a3, $s8, 8
	move	$a2, $s1
	b	.LBB6_20
.LBB6_45:                               #   in Loop: Header=BB6_21 Depth=2
	sub.d	$fp, $s2, $s4
	addi.w	$a0, $zero, -16
	lu52i.d	$a0, $a0, 2047
	beq	$fp, $a0, .LBB6_507
# %bb.46:                               #   in Loop: Header=BB6_21 Depth=2
	srai.d	$a0, $fp, 4
	ori	$a2, $zero, 1
	sltu	$a1, $a2, $a0
	masknez	$a2, $a2, $a1
	maskeqz	$a1, $a0, $a1
	or	$a1, $a1, $a2
	add.d	$a0, $a1, $a0
	addi.w	$a1, $zero, -1
	lu52i.d	$a1, $a1, 127
	sltu	$a2, $a0, $a1
	maskeqz	$a0, $a0, $a2
	masknez	$a1, $a1, $a2
	or	$s1, $a0, $a1
	slli.d	$a0, $s1, 4
.Ltmp52:                                # EH_LABEL
	pcaddu18i	$ra, %call36(_Znwm)
	jirl	$ra, $ra, 0
.Ltmp53:                                # EH_LABEL
# %bb.47:                               # %.noexc677
                                        #   in Loop: Header=BB6_21 Depth=2
	move	$a2, $a0
	add.d	$a0, $a0, $fp
	fstx.d	$fs1, $a2, $fp
	fst.d	$fs6, $a0, 8
	move	$s3, $a2
	beq	$s4, $s2, .LBB6_34
# %bb.48:                               # %.lr.ph.i.i.i.i.i.i667.preheader
                                        #   in Loop: Header=BB6_21 Depth=2
	move	$a0, $s4
	move	$s3, $a2
	.p2align	4, , 16
.LBB6_49:                               # %.lr.ph.i.i.i.i.i.i667
                                        #   Parent Loop BB6_15 Depth=1
                                        #     Parent Loop BB6_21 Depth=2
                                        # =>    This Inner Loop Header: Depth=3
	vld	$vr0, $a0, 0
	vst	$vr0, $s3, 0
	addi.d	$a0, $a0, 16
	addi.d	$s3, $s3, 16
	bne	$a0, $s2, .LBB6_49
	b	.LBB6_34
.LBB6_50:                               #   in Loop: Header=BB6_21 Depth=2
	sub.d	$fp, $s2, $s4
	addi.w	$a0, $zero, -16
	lu52i.d	$a0, $a0, 2047
	beq	$fp, $a0, .LBB6_509
# %bb.51:                               #   in Loop: Header=BB6_21 Depth=2
	srai.d	$a0, $fp, 4
	ori	$a2, $zero, 1
	sltu	$a1, $a2, $a0
	masknez	$a2, $a2, $a1
	maskeqz	$a1, $a0, $a1
	or	$a1, $a1, $a2
	add.d	$a0, $a1, $a0
	addi.w	$a1, $zero, -1
	lu52i.d	$a1, $a1, 127
	sltu	$a2, $a0, $a1
	maskeqz	$a0, $a0, $a2
	masknez	$a1, $a1, $a2
	or	$s3, $a0, $a1
	slli.d	$a0, $s3, 4
.Ltmp34:                                # EH_LABEL
	pcaddu18i	$ra, %call36(_Znwm)
	jirl	$ra, $ra, 0
.Ltmp35:                                # EH_LABEL
# %bb.52:                               # %.noexc707
                                        #   in Loop: Header=BB6_21 Depth=2
	move	$s1, $a0
	add.d	$a0, $a0, $fp
	fstx.d	$fs3, $s1, $fp
	fst.d	$fs6, $a0, 8
	move	$s5, $s1
	beq	$s4, $s2, .LBB6_55
# %bb.53:                               # %.lr.ph.i.i.i.i.i.i697.preheader
                                        #   in Loop: Header=BB6_21 Depth=2
	move	$a0, $s4
	move	$s5, $s1
	.p2align	4, , 16
.LBB6_54:                               # %.lr.ph.i.i.i.i.i.i697
                                        #   Parent Loop BB6_15 Depth=1
                                        #     Parent Loop BB6_21 Depth=2
                                        # =>    This Inner Loop Header: Depth=3
	vld	$vr0, $a0, 0
	vst	$vr0, $s5, 0
	addi.d	$a0, $a0, 16
	addi.d	$s5, $s5, 16
	bne	$a0, $s2, .LBB6_54
.LBB6_55:                               # %_ZSt34__uninitialized_move_if_noexcept_aIP7double2S1_SaIS0_EET0_T_S4_S3_RT1_.exit.i.i701
                                        #   in Loop: Header=BB6_21 Depth=2
	beqz	$s4, .LBB6_57
# %bb.56:                               # %_ZNSt12_Vector_baseI7double2SaIS0_EE13_M_deallocateEPS0_m.exit.i.i.i704
                                        #   in Loop: Header=BB6_21 Depth=2
	move	$a0, $s4
	move	$a1, $fp
	pcaddu18i	$ra, %call36(_ZdlPvm)
	jirl	$ra, $ra, 0
.LBB6_57:                               # %_ZNSt6vectorI7double2SaIS0_EE17_M_realloc_appendIJS0_EEEvDpOT_.exit.i705
                                        #   in Loop: Header=BB6_21 Depth=2
	addi.d	$a0, $s5, 16
	st.d	$s1, $s8, 0
	st.d	$a0, $s8, 8
	alsl.d	$s2, $s3, $s1, 4
	st.d	$s2, $s8, 16
	ld.d	$s5, $sp, 120                   # 8-byte Folded Reload
	ld.d	$s3, $sp, 128                   # 8-byte Folded Reload
	ld.d	$a4, $sp, 160                   # 8-byte Folded Reload
	vldi	$vr3, -800
	move	$a5, $s6
	fadd.d	$fs1, $fs2, $fs1
	bne	$a0, $s2, .LBB6_44
.LBB6_58:                               #   in Loop: Header=BB6_21 Depth=2
	sub.d	$fp, $s2, $s1
	addi.w	$a0, $zero, -16
	lu52i.d	$a0, $a0, 2047
	beq	$fp, $a0, .LBB6_511
# %bb.59:                               #   in Loop: Header=BB6_21 Depth=2
	srai.d	$a0, $fp, 4
	ori	$a2, $zero, 1
	sltu	$a1, $a2, $a0
	masknez	$a2, $a2, $a1
	maskeqz	$a1, $a0, $a1
	or	$a1, $a1, $a2
	add.d	$a0, $a1, $a0
	addi.w	$a1, $zero, -1
	lu52i.d	$a1, $a1, 127
	sltu	$a2, $a0, $a1
	maskeqz	$a0, $a0, $a2
	masknez	$a1, $a1, $a2
	or	$s3, $a0, $a1
	slli.d	$a0, $s3, 4
.Ltmp37:                                # EH_LABEL
	pcaddu18i	$ra, %call36(_Znwm)
	jirl	$ra, $ra, 0
.Ltmp38:                                # EH_LABEL
# %bb.60:                               # %.noexc722
                                        #   in Loop: Header=BB6_21 Depth=2
	move	$a2, $a0
	add.d	$a0, $a0, $fp
	fstx.d	$fs1, $a2, $fp
	fst.d	$fs7, $a0, 8
	move	$s4, $a2
	beq	$s1, $s2, .LBB6_63
# %bb.61:                               # %.lr.ph.i.i.i.i.i.i712.preheader
                                        #   in Loop: Header=BB6_21 Depth=2
	move	$a0, $s1
	move	$s4, $a2
	.p2align	4, , 16
.LBB6_62:                               # %.lr.ph.i.i.i.i.i.i712
                                        #   Parent Loop BB6_15 Depth=1
                                        #     Parent Loop BB6_21 Depth=2
                                        # =>    This Inner Loop Header: Depth=3
	vld	$vr0, $a0, 0
	vst	$vr0, $s4, 0
	addi.d	$a0, $a0, 16
	addi.d	$s4, $s4, 16
	bne	$a0, $s2, .LBB6_62
.LBB6_63:                               # %_ZSt34__uninitialized_move_if_noexcept_aIP7double2S1_SaIS0_EET0_T_S4_S3_RT1_.exit.i.i716
                                        #   in Loop: Header=BB6_21 Depth=2
	beqz	$s1, .LBB6_65
# %bb.64:                               # %_ZNSt12_Vector_baseI7double2SaIS0_EE13_M_deallocateEPS0_m.exit.i.i.i719
                                        #   in Loop: Header=BB6_21 Depth=2
	move	$a0, $s1
	move	$a1, $fp
	move	$fp, $a2
	pcaddu18i	$ra, %call36(_ZdlPvm)
	jirl	$ra, $ra, 0
	move	$a2, $fp
.LBB6_65:                               # %_ZNSt6vectorI7double2SaIS0_EE17_M_realloc_appendIJS0_EEEvDpOT_.exit.i720
                                        #   in Loop: Header=BB6_21 Depth=2
	addi.d	$a3, $s4, 16
	st.d	$a2, $s8, 0
	st.d	$a3, $s8, 8
	alsl.d	$s2, $s3, $a2, 4
	b	.LBB6_37
.LBB6_66:                               #   in Loop: Header=BB6_21 Depth=2
	sub.d	$fp, $s2, $s4
	addi.w	$a0, $zero, -16
	lu52i.d	$a0, $a0, 2047
	beq	$fp, $a0, .LBB6_513
# %bb.67:                               #   in Loop: Header=BB6_21 Depth=2
	srai.d	$a0, $fp, 4
	ori	$a2, $zero, 1
	sltu	$a1, $a2, $a0
	masknez	$a2, $a2, $a1
	maskeqz	$a1, $a0, $a1
	or	$a1, $a1, $a2
	add.d	$a0, $a1, $a0
	addi.w	$a1, $zero, -1
	lu52i.d	$a1, $a1, 127
	sltu	$a2, $a0, $a1
	maskeqz	$a0, $a0, $a2
	masknez	$a1, $a1, $a2
	or	$s1, $a0, $a1
	slli.d	$a0, $s1, 4
.Ltmp46:                                # EH_LABEL
	pcaddu18i	$ra, %call36(_Znwm)
	jirl	$ra, $ra, 0
.Ltmp47:                                # EH_LABEL
# %bb.68:                               # %.noexc692
                                        #   in Loop: Header=BB6_21 Depth=2
	move	$a2, $a0
	add.d	$a0, $a0, $fp
	fstx.d	$fs1, $a2, $fp
	fst.d	$fs7, $a0, 8
	move	$s3, $a2
	beq	$s4, $s2, .LBB6_34
# %bb.69:                               # %.lr.ph.i.i.i.i.i.i682.preheader
                                        #   in Loop: Header=BB6_21 Depth=2
	move	$a0, $s4
	move	$s3, $a2
	.p2align	4, , 16
.LBB6_70:                               # %.lr.ph.i.i.i.i.i.i682
                                        #   Parent Loop BB6_15 Depth=1
                                        #     Parent Loop BB6_21 Depth=2
                                        # =>    This Inner Loop Header: Depth=3
	vld	$vr0, $a0, 0
	vst	$vr0, $s3, 0
	addi.d	$a0, $a0, 16
	addi.d	$s3, $s3, 16
	bne	$a0, $s2, .LBB6_70
	b	.LBB6_34
.LBB6_71:
	st.d	$a3, $sp, 8                     # 8-byte Folded Spill
	st.d	$a2, $sp, 16                    # 8-byte Folded Spill
	ld.d	$s4, $sp, 72                    # 8-byte Folded Reload
	mul.w	$s3, $s4, $s3
	st.d	$s6, $sp, 112                   # 8-byte Folded Spill
	bgez	$s3, .LBB6_73
	b	.LBB6_515
.LBB6_72:                               # %_ZNSt6vectorIiSaIiEEC2EmRKS0_.exit.._crit_edge1042_crit_edge
	st.d	$a2, $sp, 16                    # 8-byte Folded Spill
	ld.d	$a0, $s8, 8
	st.d	$a0, $sp, 8                     # 8-byte Folded Spill
	move	$s6, $zero
	st.d	$zero, $sp, 24                  # 8-byte Folded Spill
	ld.d	$s3, $sp, 128                   # 8-byte Folded Reload
	mul.w	$s3, $s4, $s3
	st.d	$s6, $sp, 112                   # 8-byte Folded Spill
	bltz	$s3, .LBB6_515
.LBB6_73:
	ld.d	$a0, $s7, 16
	ld.d	$fp, $s7, 0
	sub.d	$s0, $a0, $fp
	srai.d	$a0, $s0, 2
	bgeu	$a0, $s3, .LBB6_80
# %bb.74:                               # %_ZNSt12_Vector_baseIiSaIiEE11_M_allocateEm.exit.i
	ld.d	$s4, $s7, 8
	slli.d	$a0, $s3, 2
.Ltmp64:                                # EH_LABEL
	pcaddu18i	$ra, %call36(_Znwm)
	jirl	$ra, $ra, 0
.Ltmp65:                                # EH_LABEL
# %bb.75:                               # %.noexc298
	move	$s1, $a0
	sub.d	$s2, $s4, $fp
	beq	$s4, $fp, .LBB6_77
# %bb.76:
	move	$a0, $s1
	move	$a1, $fp
	move	$a2, $s2
	pcaddu18i	$ra, %call36(memcpy)
	jirl	$ra, $ra, 0
.LBB6_77:                               # %_ZNSt6vectorIiSaIiEE11_S_relocateEPiS2_S2_RS0_.exit.i
	beqz	$fp, .LBB6_79
# %bb.78:
	move	$a0, $fp
	move	$a1, $s0
	pcaddu18i	$ra, %call36(_ZdlPvm)
	jirl	$ra, $ra, 0
.LBB6_79:                               # %_ZNSt12_Vector_baseIiSaIiEE13_M_deallocateEPim.exit.i
	st.d	$s1, $s7, 0
	add.d	$a0, $s1, $s2
	st.d	$a0, $s7, 8
	alsl.d	$a0, $s3, $s1, 2
	st.d	$a0, $s7, 16
	ld.d	$s6, $sp, 112                   # 8-byte Folded Reload
.LBB6_80:                               # %_ZNSt6vectorIiSaIiEE7reserveEm.exit
	ld.d	$a1, $sp, 176                   # 8-byte Folded Reload
	ld.d	$a0, $a1, 16
	ld.d	$fp, $a1, 0
	sub.d	$s0, $a0, $fp
	srai.d	$a0, $s0, 2
	bgeu	$a0, $s3, .LBB6_87
# %bb.81:                               # %_ZNSt12_Vector_baseIiSaIiEE11_M_allocateEm.exit.i311
	ld.d	$a0, $sp, 176                   # 8-byte Folded Reload
	ld.d	$s4, $a0, 8
	slli.d	$a0, $s3, 2
.Ltmp66:                                # EH_LABEL
	pcaddu18i	$ra, %call36(_Znwm)
	jirl	$ra, $ra, 0
.Ltmp67:                                # EH_LABEL
# %bb.82:                               # %.noexc317
	move	$s1, $a0
	sub.d	$s2, $s4, $fp
	beq	$s4, $fp, .LBB6_84
# %bb.83:
	move	$a0, $s1
	move	$a1, $fp
	move	$a2, $s2
	pcaddu18i	$ra, %call36(memcpy)
	jirl	$ra, $ra, 0
.LBB6_84:                               # %_ZNSt6vectorIiSaIiEE11_S_relocateEPiS2_S2_RS0_.exit.i313
	beqz	$fp, .LBB6_86
# %bb.85:
	move	$a0, $fp
	move	$a1, $s0
	pcaddu18i	$ra, %call36(_ZdlPvm)
	jirl	$ra, $ra, 0
.LBB6_86:                               # %_ZNSt12_Vector_baseIiSaIiEE13_M_deallocateEPim.exit.i315
	ld.d	$a1, $sp, 176                   # 8-byte Folded Reload
	st.d	$s1, $a1, 0
	add.d	$a0, $s1, $s2
	st.d	$a0, $a1, 8
	alsl.d	$a0, $s3, $s1, 2
	st.d	$a0, $a1, 16
	ld.d	$s6, $sp, 112                   # 8-byte Folded Reload
.LBB6_87:                               # %_ZNSt6vectorIiSaIiEE7reserveEm.exit318
	ld.d	$a1, $sp, 168                   # 8-byte Folded Reload
	ld.d	$a0, $a1, 16
	ld.d	$fp, $a1, 0
	slli.d	$a1, $s3, 2
	alsl.w	$s3, $s3, $a1, 1
	sub.d	$s0, $a0, $fp
	srai.d	$a0, $s0, 2
	ld.d	$s5, $sp, 120                   # 8-byte Folded Reload
	bgeu	$a0, $s3, .LBB6_94
# %bb.88:                               # %_ZNSt12_Vector_baseIiSaIiEE11_M_allocateEm.exit.i319
	ld.d	$a0, $sp, 168                   # 8-byte Folded Reload
	ld.d	$s4, $a0, 8
	slli.d	$a0, $s3, 2
.Ltmp68:                                # EH_LABEL
	pcaddu18i	$ra, %call36(_Znwm)
	jirl	$ra, $ra, 0
.Ltmp69:                                # EH_LABEL
# %bb.89:                               # %.noexc325
	move	$s1, $a0
	sub.d	$s2, $s4, $fp
	beq	$s4, $fp, .LBB6_91
# %bb.90:
	move	$a0, $s1
	move	$a1, $fp
	move	$a2, $s2
	pcaddu18i	$ra, %call36(memcpy)
	jirl	$ra, $ra, 0
.LBB6_91:                               # %_ZNSt6vectorIiSaIiEE11_S_relocateEPiS2_S2_RS0_.exit.i321
	ld.d	$s6, $sp, 112                   # 8-byte Folded Reload
	ld.d	$s5, $sp, 120                   # 8-byte Folded Reload
	beqz	$fp, .LBB6_93
# %bb.92:
	move	$a0, $fp
	move	$a1, $s0
	pcaddu18i	$ra, %call36(_ZdlPvm)
	jirl	$ra, $ra, 0
.LBB6_93:                               # %_ZNSt12_Vector_baseIiSaIiEE13_M_deallocateEPim.exit.i323
	ld.d	$a1, $sp, 168                   # 8-byte Folded Reload
	st.d	$s1, $a1, 0
	add.d	$a0, $s1, $s2
	st.d	$a0, $a1, 8
	alsl.d	$a0, $s3, $s1, 2
	st.d	$a0, $a1, 16
.LBB6_94:                               # %_ZNSt6vectorIiSaIiEE7reserveEm.exit326
	ld.w	$a0, $s5, 76
	ld.d	$s0, $sp, 168                   # 8-byte Folded Reload
	ld.d	$s1, $sp, 176                   # 8-byte Folded Reload
	blez	$a0, .LBB6_156
# %bb.95:                               # %.lr.ph1047
	move	$a5, $zero
	st.d	$s7, $sp, 136                   # 8-byte Folded Spill
	b	.LBB6_98
	.p2align	4, , 16
.LBB6_96:                               # %.loopexit985.loopexit
                                        #   in Loop: Header=BB6_98 Depth=1
	ld.w	$a0, $s5, 76
	ld.d	$s6, $sp, 112                   # 8-byte Folded Reload
	ld.d	$a5, $sp, 104                   # 8-byte Folded Reload
.LBB6_97:                               # %.loopexit985
                                        #   in Loop: Header=BB6_98 Depth=1
	bge	$a5, $a0, .LBB6_156
.LBB6_98:                               # =>This Loop Header: Depth=1
                                        #     Child Loop BB6_104 Depth 2
                                        #       Child Loop BB6_143 Depth 3
                                        #       Child Loop BB6_145 Depth 3
	move	$a1, $a5
	ld.w	$a2, $s5, 84
	slli.d	$a3, $a5, 2
	ldx.w	$s3, $s6, $a3
	addi.d	$a5, $a5, 1
	slli.d	$a3, $a5, 2
	ld.w	$a4, $s5, 64
	ldx.w	$s4, $s6, $a3
	add.w	$a3, $a2, $a1
	blez	$a4, .LBB6_100
# %bb.99:                               #   in Loop: Header=BB6_98 Depth=1
	slt	$a2, $zero, $a3
	add.w	$s3, $s3, $a2
	addi.w	$a2, $a0, -1
	slt	$a1, $a1, $a2
	add.w	$s4, $s4, $a1
.LBB6_100:                              #   in Loop: Header=BB6_98 Depth=1
	ld.w	$a1, $s5, 72
	blez	$a1, .LBB6_97
# %bb.101:                              # %.lr.ph1045
                                        #   in Loop: Header=BB6_98 Depth=1
	st.d	$a3, $sp, 160                   # 8-byte Folded Spill
	st.d	$a5, $sp, 104                   # 8-byte Folded Spill
	move	$s6, $zero
	st.d	$s3, $sp, 152                   # 8-byte Folded Spill
	st.d	$s4, $sp, 144                   # 8-byte Folded Spill
	b	.LBB6_104
	.p2align	4, , 16
.LBB6_102:                              # %_ZNSt12_Vector_baseIiSaIiEE13_M_deallocateEPim.exit.i728
                                        #   in Loop: Header=BB6_104 Depth=2
	ld.d	$a1, $sp, 168                   # 8-byte Folded Reload
	st.d	$s0, $a1, 0
	st.d	$fp, $a1, 8
	alsl.d	$a0, $s7, $s0, 2
	move	$s0, $a1
	st.d	$a0, $a1, 16
	ld.d	$s1, $sp, 176                   # 8-byte Folded Reload
.LBB6_103:                              # %_ZNSt6vectorIiSaIiEED2Ev.exit
                                        #   in Loop: Header=BB6_104 Depth=2
	ori	$a1, $zero, 24
	move	$a0, $s8
	pcaddu18i	$ra, %call36(_ZdlPvm)
	jirl	$ra, $ra, 0
	ld.w	$a0, $s5, 72
	addi.w	$s6, $s6, 1
	ld.d	$s7, $sp, 136                   # 8-byte Folded Reload
	ld.d	$s3, $sp, 152                   # 8-byte Folded Reload
	ld.d	$s4, $sp, 144                   # 8-byte Folded Reload
	bge	$s6, $a0, .LBB6_96
.LBB6_104:                              #   Parent Loop BB6_98 Depth=1
                                        # =>  This Loop Header: Depth=2
                                        #       Child Loop BB6_143 Depth 3
                                        #       Child Loop BB6_145 Depth 3
	ld.w	$fp, $s5, 80
.Ltmp70:                                # EH_LABEL
	ori	$a0, $zero, 24
	pcaddu18i	$ra, %call36(_Znwm)
	jirl	$ra, $ra, 0
.Ltmp71:                                # EH_LABEL
# %bb.105:                              #   in Loop: Header=BB6_104 Depth=2
	move	$s8, $a0
	add.w	$a2, $fp, $s6
	addi.d	$s2, $a0, 24
	addi.d	$a0, $a0, 4
	alsl.d	$a1, $s6, $s3, 1
	st.w	$a1, $s8, 4
	addi.d	$a3, $a1, -1
	st.w	$a3, $s8, 0
	addi.d	$a1, $a1, 1
	st.w	$a1, $s8, 8
	alsl.d	$a3, $s6, $s4, 1
	addi.d	$a1, $s8, 20
	st.w	$a3, $s8, 20
	addi.d	$a4, $a3, 1
	st.w	$a4, $s8, 16
	addi.d	$a3, $a3, 2
	st.w	$a3, $s8, 12
	ld.d	$a4, $sp, 160                   # 8-byte Folded Reload
	beqz	$a4, .LBB6_109
# %bb.106:                              #   in Loop: Header=BB6_104 Depth=2
	ld.w	$a3, $s5, 36
	addi.w	$a3, $a3, -1
	bne	$a4, $a3, .LBB6_113
# %bb.107:                              #   in Loop: Header=BB6_104 Depth=2
	add.d	$a3, $s6, $s4
	st.w	$a3, $s8, 20
	addi.d	$a4, $a3, 1
	st.w	$a4, $s8, 12
	st.w	$a3, $s8, 16
	move	$s2, $a1
	bnez	$a2, .LBB6_118
# %bb.108:                              #   in Loop: Header=BB6_104 Depth=2
	vld	$vr0, $a0, 0
	addi.d	$s2, $s8, 16
	vst	$vr0, $s8, 0
	b	.LBB6_118
	.p2align	4, , 16
.LBB6_109:                              #   in Loop: Header=BB6_104 Depth=2
	ld.w	$a4, $s5, 32
	add.d	$a3, $s6, $s3
	st.w	$a3, $s8, 0
	addi.d	$a3, $a3, 1
	addi.w	$a4, $a4, -1
	st.w	$a3, $s8, 8
	bne	$a2, $a4, .LBB6_111
# %bb.110:                              #   in Loop: Header=BB6_104 Depth=2
	ld.d	$a2, $s8, 16
	st.d	$a2, $s8, 12
	move	$s2, $a1
.LBB6_111:                              #   in Loop: Header=BB6_104 Depth=2
	addi.d	$a1, $s8, 8
	sub.d	$a2, $s2, $a1
	ori	$a4, $zero, 5
	blt	$a2, $a4, .LBB6_153
# %bb.112:                              #   in Loop: Header=BB6_104 Depth=2
	pcaddu18i	$ra, %call36(memmove)
	jirl	$ra, $ra, 0
	addi.d	$s2, $s2, -4
	b	.LBB6_118
	.p2align	4, , 16
.LBB6_113:                              #   in Loop: Header=BB6_104 Depth=2
	beqz	$a2, .LBB6_116
# %bb.114:                              #   in Loop: Header=BB6_104 Depth=2
	ld.w	$a0, $s5, 32
	addi.w	$a0, $a0, -1
	bne	$a2, $a0, .LBB6_118
# %bb.115:                              #   in Loop: Header=BB6_104 Depth=2
	ld.d	$a0, $s8, 16
	st.d	$a0, $s8, 12
	b	.LBB6_117
.LBB6_116:                              #   in Loop: Header=BB6_104 Depth=2
	ld.w	$a2, $a0, 16
	vld	$vr0, $a0, 0
	st.w	$a2, $s8, 16
	vst	$vr0, $s8, 0
.LBB6_117:                              #   in Loop: Header=BB6_104 Depth=2
	move	$s2, $a1
.LBB6_118:                              #   in Loop: Header=BB6_104 Depth=2
	ld.d	$a1, $s0, 8
	ld.d	$a2, $s0, 0
	ld.d	$a0, $s7, 8
	ld.d	$a3, $s7, 16
	sub.d	$a1, $a1, $a2
	srai.d	$s4, $a1, 2
	beq	$a0, $a3, .LBB6_120
# %bb.119:                              #   in Loop: Header=BB6_104 Depth=2
	st.w	$s4, $a0, 0
	addi.d	$a0, $a0, 4
	st.d	$a0, $s7, 8
	b	.LBB6_127
	.p2align	4, , 16
.LBB6_120:                              #   in Loop: Header=BB6_104 Depth=2
	ld.d	$s0, $s7, 0
	sub.d	$fp, $a0, $s0
	addi.w	$a0, $zero, -4
	lu52i.d	$a0, $a0, 2047
	beq	$fp, $a0, .LBB6_499
# %bb.121:                              # %_ZNKSt6vectorIiSaIiEE12_M_check_lenEmPKc.exit.i.i.i
                                        #   in Loop: Header=BB6_104 Depth=2
	srai.d	$a0, $fp, 2
	ori	$a2, $zero, 1
	sltu	$a1, $a2, $a0
	masknez	$a2, $a2, $a1
	maskeqz	$a1, $a0, $a1
	or	$a1, $a1, $a2
	add.d	$a0, $a1, $a0
	addi.w	$a1, $zero, -1
	lu52i.d	$a1, $a1, 511
	sltu	$a2, $a0, $a1
	maskeqz	$a0, $a0, $a2
	masknez	$a1, $a1, $a2
	or	$s3, $a0, $a1
	slli.d	$a0, $s3, 2
.Ltmp73:                                # EH_LABEL
	pcaddu18i	$ra, %call36(_Znwm)
	jirl	$ra, $ra, 0
.Ltmp74:                                # EH_LABEL
# %bb.122:                              # %.noexc351
                                        #   in Loop: Header=BB6_104 Depth=2
	move	$s1, $a0
	stx.w	$s4, $a0, $fp
	blez	$fp, .LBB6_124
# %bb.123:                              #   in Loop: Header=BB6_104 Depth=2
	move	$a0, $s1
	move	$a1, $s0
	move	$a2, $fp
	pcaddu18i	$ra, %call36(memcpy)
	jirl	$ra, $ra, 0
.LBB6_124:                              # %_ZNSt6vectorIiSaIiEE11_S_relocateEPiS2_S2_RS0_.exit.i.i.i
                                        #   in Loop: Header=BB6_104 Depth=2
	beqz	$s0, .LBB6_126
# %bb.125:                              # %_ZNSt12_Vector_baseIiSaIiEE13_M_deallocateEPim.exit.i.i.i.i
                                        #   in Loop: Header=BB6_104 Depth=2
	move	$a0, $s0
	move	$a1, $fp
	pcaddu18i	$ra, %call36(_ZdlPvm)
	jirl	$ra, $ra, 0
.LBB6_126:                              # %_ZNSt6vectorIiSaIiEE17_M_realloc_appendIJiEEEvDpOT_.exit.i.i
                                        #   in Loop: Header=BB6_104 Depth=2
	add.d	$a0, $s1, $fp
	addi.d	$a0, $a0, 4
	st.d	$s1, $s7, 0
	st.d	$a0, $s7, 8
	alsl.d	$a0, $s3, $s1, 2
	st.d	$a0, $s7, 16
	ld.d	$s0, $sp, 168                   # 8-byte Folded Reload
	ld.d	$s1, $sp, 176                   # 8-byte Folded Reload
.LBB6_127:                              # %_ZNSt6vectorIiSaIiEE9push_backEOi.exit
                                        #   in Loop: Header=BB6_104 Depth=2
	ld.d	$a0, $s1, 8
	ld.d	$a1, $s1, 16
	sub.d	$s4, $s2, $s8
	srai.d	$s7, $s4, 2
	beq	$a0, $a1, .LBB6_129
# %bb.128:                              #   in Loop: Header=BB6_104 Depth=2
	st.w	$s7, $a0, 0
	addi.d	$a0, $a0, 4
	st.d	$a0, $s1, 8
	bne	$s8, $s2, .LBB6_136
	b	.LBB6_103
	.p2align	4, , 16
.LBB6_129:                              #   in Loop: Header=BB6_104 Depth=2
	ld.d	$s0, $s1, 0
	sub.d	$fp, $a0, $s0
	addi.w	$a0, $zero, -4
	lu52i.d	$a0, $a0, 2047
	beq	$fp, $a0, .LBB6_501
# %bb.130:                              # %_ZNKSt6vectorIiSaIiEE12_M_check_lenEmPKc.exit.i.i.i353
                                        #   in Loop: Header=BB6_104 Depth=2
	srai.d	$a0, $fp, 2
	ori	$a2, $zero, 1
	sltu	$a1, $a2, $a0
	masknez	$a2, $a2, $a1
	maskeqz	$a1, $a0, $a1
	or	$a1, $a1, $a2
	add.d	$a0, $a1, $a0
	addi.w	$a1, $zero, -1
	lu52i.d	$a1, $a1, 511
	sltu	$a2, $a0, $a1
	maskeqz	$a0, $a0, $a2
	masknez	$a1, $a1, $a2
	or	$s3, $a0, $a1
	slli.d	$a0, $s3, 2
.Ltmp76:                                # EH_LABEL
	pcaddu18i	$ra, %call36(_Znwm)
	jirl	$ra, $ra, 0
.Ltmp77:                                # EH_LABEL
# %bb.131:                              # %.noexc360
                                        #   in Loop: Header=BB6_104 Depth=2
	move	$s1, $a0
	stx.w	$s7, $a0, $fp
	blez	$fp, .LBB6_133
# %bb.132:                              #   in Loop: Header=BB6_104 Depth=2
	move	$a0, $s1
	move	$a1, $s0
	move	$a2, $fp
	pcaddu18i	$ra, %call36(memcpy)
	jirl	$ra, $ra, 0
.LBB6_133:                              # %_ZNSt6vectorIiSaIiEE11_S_relocateEPiS2_S2_RS0_.exit.i.i.i355
                                        #   in Loop: Header=BB6_104 Depth=2
	beqz	$s0, .LBB6_135
# %bb.134:                              # %_ZNSt12_Vector_baseIiSaIiEE13_M_deallocateEPim.exit.i.i.i.i357
                                        #   in Loop: Header=BB6_104 Depth=2
	move	$a0, $s0
	move	$a1, $fp
	pcaddu18i	$ra, %call36(_ZdlPvm)
	jirl	$ra, $ra, 0
.LBB6_135:                              # %_ZNSt6vectorIiSaIiEE17_M_realloc_appendIJiEEEvDpOT_.exit.i.i358
                                        #   in Loop: Header=BB6_104 Depth=2
	add.d	$a0, $s1, $fp
	addi.d	$a0, $a0, 4
	ld.d	$a1, $sp, 176                   # 8-byte Folded Reload
	st.d	$s1, $a1, 0
	st.d	$a0, $a1, 8
	alsl.d	$a0, $s3, $s1, 2
	move	$s1, $a1
	st.d	$a0, $a1, 16
	ld.d	$s0, $sp, 168                   # 8-byte Folded Reload
	beq	$s8, $s2, .LBB6_103
.LBB6_136:                              #   in Loop: Header=BB6_104 Depth=2
	ld.d	$s2, $s0, 8
	ld.d	$s3, $s0, 16
	sub.d	$a0, $s3, $s2
	bgeu	$a0, $s4, .LBB6_150
# %bb.137:                              #   in Loop: Header=BB6_104 Depth=2
	ld.d	$s1, $s0, 0
	sub.d	$s5, $s2, $s1
	srai.d	$a1, $s5, 2
	addi.w	$a0, $zero, -1
	lu52i.d	$a0, $a0, 511
	sub.d	$a2, $a0, $a1
	bltu	$a2, $s7, .LBB6_503
# %bb.138:                              # %_ZNSt12_Vector_baseIiSaIiEE11_M_allocateEm.exit.i727
                                        #   in Loop: Header=BB6_104 Depth=2
	sltu	$a2, $s7, $a1
	masknez	$a3, $s7, $a2
	maskeqz	$a2, $a1, $a2
	or	$a2, $a2, $a3
	add.d	$a1, $a2, $a1
	sltu	$a2, $a1, $a0
	maskeqz	$a1, $a1, $a2
	masknez	$a0, $a0, $a2
	or	$s7, $a1, $a0
	slli.d	$a0, $s7, 2
.Ltmp79:                                # EH_LABEL
	pcaddu18i	$ra, %call36(_Znwm)
	jirl	$ra, $ra, 0
.Ltmp80:                                # EH_LABEL
# %bb.139:                              # %.noexc730
                                        #   in Loop: Header=BB6_104 Depth=2
	move	$s0, $a0
	move	$fp, $a0
	beq	$s1, $s2, .LBB6_146
# %bb.140:                              # %.lr.ph.i.i.i.i63.i.preheader
                                        #   in Loop: Header=BB6_104 Depth=2
	addi.d	$a1, $s5, -4
	move	$a0, $s1
	move	$fp, $s0
	ori	$a2, $zero, 28
	bltu	$a1, $a2, .LBB6_145
# %bb.141:                              # %.lr.ph.i.i.i.i63.i.preheader
                                        #   in Loop: Header=BB6_104 Depth=2
	sub.d	$a2, $s0, $s1
	move	$a0, $s1
	move	$fp, $s0
	ori	$a3, $zero, 32
	bltu	$a2, $a3, .LBB6_145
# %bb.142:                              # %vector.ph
                                        #   in Loop: Header=BB6_104 Depth=2
	srli.d	$a0, $a1, 2
	addi.d	$a1, $a0, 1
	bstrpick.d	$a0, $a1, 62, 3
	slli.d	$a2, $a0, 3
	slli.d	$a3, $a0, 5
	add.d	$a0, $s1, $a3
	add.d	$fp, $s0, $a3
	addi.d	$a3, $s0, 16
	addi.d	$a4, $s1, 16
	move	$a5, $a2
	.p2align	4, , 16
.LBB6_143:                              # %vector.body
                                        #   Parent Loop BB6_98 Depth=1
                                        #     Parent Loop BB6_104 Depth=2
                                        # =>    This Inner Loop Header: Depth=3
	vld	$vr0, $a4, -16
	vld	$vr1, $a4, 0
	vst	$vr0, $a3, -16
	vst	$vr1, $a3, 0
	addi.d	$a3, $a3, 32
	addi.d	$a5, $a5, -8
	addi.d	$a4, $a4, 32
	bnez	$a5, .LBB6_143
# %bb.144:                              # %middle.block
                                        #   in Loop: Header=BB6_104 Depth=2
	beq	$a1, $a2, .LBB6_146
	.p2align	4, , 16
.LBB6_145:                              # %.lr.ph.i.i.i.i63.i
                                        #   Parent Loop BB6_98 Depth=1
                                        #     Parent Loop BB6_104 Depth=2
                                        # =>    This Inner Loop Header: Depth=3
	ld.w	$a1, $a0, 0
	st.w	$a1, $fp, 0
	addi.d	$a0, $a0, 4
	addi.d	$fp, $fp, 4
	bne	$a0, $s2, .LBB6_145
.LBB6_146:                              # %_ZSt34__uninitialized_move_if_noexcept_aIPiS0_SaIiEET0_T_S3_S2_RT1_.exit.i
                                        #   in Loop: Header=BB6_104 Depth=2
	blez	$s4, .LBB6_148
# %bb.147:                              #   in Loop: Header=BB6_104 Depth=2
	move	$a0, $fp
	move	$a1, $s8
	move	$a2, $s4
	pcaddu18i	$ra, %call36(memcpy)
	jirl	$ra, $ra, 0
	add.d	$fp, $fp, $s4
.LBB6_148:                              # %_ZSt34__uninitialized_move_if_noexcept_aIPiS0_SaIiEET0_T_S3_S2_RT1_.exit76.i
                                        #   in Loop: Header=BB6_104 Depth=2
	ld.d	$s5, $sp, 120                   # 8-byte Folded Reload
	beqz	$s1, .LBB6_102
# %bb.149:                              #   in Loop: Header=BB6_104 Depth=2
	sub.d	$a1, $s3, $s1
	move	$a0, $s1
	pcaddu18i	$ra, %call36(_ZdlPvm)
	jirl	$ra, $ra, 0
	b	.LBB6_102
	.p2align	4, , 16
.LBB6_150:                              # %_ZSt9__advanceIN9__gnu_cxx17__normal_iteratorIPiSt6vectorIiSaIiEEEElEvRT_T0_St26random_access_iterator_tag.exit.i
                                        #   in Loop: Header=BB6_104 Depth=2
	blez	$s4, .LBB6_152
# %bb.151:                              #   in Loop: Header=BB6_104 Depth=2
	move	$a0, $s2
	move	$a1, $s8
	move	$a2, $s4
	pcaddu18i	$ra, %call36(memcpy)
	jirl	$ra, $ra, 0
	ld.d	$s2, $s0, 8
.LBB6_152:                              # %_ZSt22__uninitialized_move_aIPiS0_SaIiEET0_T_S3_S2_RT1_.exit59.i
                                        #   in Loop: Header=BB6_104 Depth=2
	ld.d	$s1, $sp, 176                   # 8-byte Folded Reload
	add.d	$a0, $s2, $s4
	st.d	$a0, $s0, 8
	b	.LBB6_103
.LBB6_153:                              #   in Loop: Header=BB6_104 Depth=2
	ori	$a1, $zero, 4
	bne	$a2, $a1, .LBB6_155
# %bb.154:                              #   in Loop: Header=BB6_104 Depth=2
	st.w	$a3, $a0, 0
.LBB6_155:                              #   in Loop: Header=BB6_104 Depth=2
	addi.d	$s2, $s2, -4
	b	.LBB6_118
.LBB6_156:                              # %._crit_edge1048
	pcalau12i	$a0, %got_pc_hi20(_ZN8Parallel5numpeE)
	ld.d	$a0, $a0, %got_pc_lo12(_ZN8Parallel5numpeE)
	ld.w	$a0, $a0, 0
	ori	$a1, $zero, 1
	beq	$a0, $a1, .LBB6_436
# %bb.157:
	ld.w	$s4, $s5, 68
	ld.w	$s3, $s5, 64
	sltu	$a0, $zero, $s4
	ld.d	$a1, $sp, 56                    # 8-byte Folded Reload
	mul.d	$a0, $a0, $a1
	sltu	$a1, $zero, $s3
	ld.d	$a2, $sp, 96                    # 8-byte Folded Reload
	mul.d	$a1, $a1, $a2
	slli.d	$a1, $a1, 1
	alsl.w	$s5, $a0, $a1, 1
	bltz	$s5, .LBB6_515
# %bb.158:
	ld.d	$a1, $sp, 88                    # 8-byte Folded Reload
	ld.d	$a0, $a1, 16
	ld.d	$s0, $a1, 0
	sub.d	$s1, $a0, $s0
	srai.d	$a0, $s1, 2
	bgeu	$a0, $s5, .LBB6_165
# %bb.159:                              # %_ZNSt12_Vector_baseIiSaIiEE11_M_allocateEm.exit.i365
	ld.d	$s6, $a1, 8
	slli.d	$a0, $s5, 2
.Ltmp85:                                # EH_LABEL
	pcaddu18i	$ra, %call36(_Znwm)
	jirl	$ra, $ra, 0
.Ltmp86:                                # EH_LABEL
# %bb.160:                              # %.noexc371
	move	$fp, $a0
	sub.d	$s2, $s6, $s0
	beq	$s6, $s0, .LBB6_162
# %bb.161:
	move	$a0, $fp
	move	$a1, $s0
	move	$a2, $s2
	pcaddu18i	$ra, %call36(memcpy)
	jirl	$ra, $ra, 0
.LBB6_162:                              # %_ZNSt6vectorIiSaIiEE11_S_relocateEPiS2_S2_RS0_.exit.i367
	beqz	$s0, .LBB6_164
# %bb.163:
	move	$a0, $s0
	move	$a1, $s1
	pcaddu18i	$ra, %call36(_ZdlPvm)
	jirl	$ra, $ra, 0
	ld.d	$a0, $sp, 120                   # 8-byte Folded Reload
	ld.w	$s4, $a0, 68
	ld.w	$s3, $a0, 64
.LBB6_164:                              # %_ZNSt12_Vector_baseIiSaIiEE13_M_deallocateEPim.exit.i369
	ld.d	$a1, $sp, 88                    # 8-byte Folded Reload
	st.d	$fp, $a1, 0
	add.d	$a0, $fp, $s2
	st.d	$a0, $a1, 8
	alsl.d	$a0, $s5, $fp, 2
	st.d	$a0, $a1, 16
	ld.d	$s6, $sp, 112                   # 8-byte Folded Reload
.LBB6_165:                              # %_ZNSt6vectorIiSaIiEE7reserveEm.exit372
	ld.d	$a1, $sp, 120                   # 8-byte Folded Reload
	ld.w	$a0, $a1, 60
	addi.w	$a0, $a0, -1
	ld.w	$a1, $a1, 56
	xor	$a0, $s4, $a0
	sltu	$a0, $zero, $a0
	ld.d	$a2, $sp, 56                    # 8-byte Folded Reload
	mul.d	$a0, $a0, $a2
	addi.w	$a1, $a1, -1
	xor	$a1, $s3, $a1
	sltu	$a1, $zero, $a1
	ld.d	$a2, $sp, 96                    # 8-byte Folded Reload
	mul.d	$a1, $a1, $a2
	slli.d	$a1, $a1, 1
